
RISKYKVM.elf:     file format elf32-littleriscv
RISKYKVM.elf
architecture: riscv:rv32, flags 0x00000112:
EXEC_P, HAS_SYMS, D_PAGED
start address 0x00000000

Program Header:
    LOAD off    0x00001000 vaddr 0x00000000 paddr 0x00000000 align 2**12
         filesz 0x00003474 memsz 0x00003474 flags r-x
    LOAD off    0x00005000 vaddr 0x20000000 paddr 0x00003474 align 2**12
         filesz 0x00000070 memsz 0x00001b70 flags rw-
    LOAD off    0x00005800 vaddr 0x20004800 paddr 0x20004800 align 2**12
         filesz 0x00000000 memsz 0x00000800 flags rw-

Sections:
Idx Name          Size      VMA       LMA       File off  Algn
  0 .init         00000038  00000000  00000000  00001000  2**1
                  CONTENTS, ALLOC, LOAD, READONLY, CODE
  1 .vector       00000108  00000038  00000038  00001038  2**1
                  CONTENTS, ALLOC, LOAD, READONLY, CODE
  2 .text         00003334  00000140  00000140  00001140  2**2
                  CONTENTS, ALLOC, LOAD, READONLY, CODE
  3 .fini         00000000  00003474  00003474  00005070  2**0
                  CONTENTS, ALLOC, LOAD, CODE
  4 .dalign       00000000  20000000  20000000  00005070  2**0
                  CONTENTS
  5 .dlalign      00000000  00003474  00003474  00005070  2**0
                  CONTENTS
  6 .data         00000070  20000000  00003474  00005000  2**2
                  CONTENTS, ALLOC, LOAD, DATA
  7 .bss          00001b00  20000070  000034e4  00005070  2**2
                  ALLOC
  8 .stack        00000800  20004800  20004800  00005800  2**0
                  ALLOC
  9 .debug_info   0001a6d3  00000000  00000000  00005070  2**0
                  CONTENTS, READONLY, DEBUGGING
 10 .debug_abbrev 0000401c  00000000  00000000  0001f743  2**0
                  CONTENTS, READONLY, DEBUGGING
 11 .debug_loc    00005aa4  00000000  00000000  0002375f  2**0
                  CONTENTS, READONLY, DEBUGGING
 12 .debug_aranges 00000938  00000000  00000000  00029208  2**3
                  CONTENTS, READONLY, DEBUGGING
 13 .debug_ranges 000009a0  00000000  00000000  00029b40  2**3
                  CONTENTS, READONLY, DEBUGGING
 14 .debug_line   00010321  00000000  00000000  0002a4e0  2**0
                  CONTENTS, READONLY, DEBUGGING
 15 .debug_str    0000357b  00000000  00000000  0003a801  2**0
                  CONTENTS, READONLY, DEBUGGING
 16 .comment      00000033  00000000  00000000  0003dd7c  2**0
                  CONTENTS, READONLY
 17 .debug_frame  00001620  00000000  00000000  0003ddb0  2**2
                  CONTENTS, READONLY, DEBUGGING
SYMBOL TABLE:
00000000 l    d  .init	00000000 .init
00000038 l    d  .vector	00000000 .vector
00000140 l    d  .text	00000000 .text
00003474 l    d  .fini	00000000 .fini
20000000 l    d  .dalign	00000000 .dalign
00003474 l    d  .dlalign	00000000 .dlalign
20000000 l    d  .data	00000000 .data
20000070 l    d  .bss	00000000 .bss
20004800 l    d  .stack	00000000 .stack
00000000 l    d  .debug_info	00000000 .debug_info
00000000 l    d  .debug_abbrev	00000000 .debug_abbrev
00000000 l    d  .debug_loc	00000000 .debug_loc
00000000 l    d  .debug_aranges	00000000 .debug_aranges
00000000 l    d  .debug_ranges	00000000 .debug_ranges
00000000 l    d  .debug_line	00000000 .debug_line
00000000 l    d  .debug_str	00000000 .debug_str
00000000 l    d  .comment	00000000 .comment
00000000 l    d  .debug_frame	00000000 .debug_frame
00000000 l    df *ABS*	00000000 ./Startup/startup_ch32v20x_D6.o
00000038 l       .vector	00000000 _vector_base
00000000 l    df *ABS*	00000000 app_km.c
00000000 l    df *ABS*	00000000 ch32v20x_usbfs_host.c
00001398 l     F .text	00000026 USBFSH_SetSelfSpeed.part.0
20000008 l     O .data	00000008 SetupClearEndpStall
20000010 l     O .data	00000008 SetupGetCfgDesc
20000018 l     O .data	00000008 SetupGetDevDesc
20000020 l     O .data	00000008 SetupGetStrDesc
20000028 l     O .data	00000008 SetupSetAddr
20000030 l     O .data	00000008 SetupSetConfig
00000000 l    df *ABS*	00000000 usb_gamepad.c
20001a98 l     O .bss	00000040 gamepad_report_data
00000000 l    df *ABS*	00000000 usb_hid_reportparser.c
00000000 l    df *ABS*	00000000 usb_host_hid.c
20000038 l     O .data	00000008 SetupGetHidDes
20000040 l     O .data	00000008 SetupSetReport
20000048 l     O .data	00000008 SetupSetidle
00000000 l    df *ABS*	00000000 usb_host_hub.c
20000050 l     O .data	00000008 ClearPortFeature
20000058 l     O .data	00000008 GetHubDescr
20000060 l     O .data	00000008 GetPortStatus
20000068 l     O .data	00000008 SetPortFeature
00000000 l    df *ABS*	00000000 usb_mouse.c
00000000 l    df *ABS*	00000000 ch32v20x_it.c
00000000 l    df *ABS*	00000000 gamepad.c
00000000 l    df *ABS*	00000000 gpio.c
00000000 l    df *ABS*	00000000 main.c
00000000 l    df *ABS*	00000000 mouse.c
00000000 l    df *ABS*	00000000 system_ch32v20x.c
00000000 l    df *ABS*	00000000 tim.c
00000000 l    df *ABS*	00000000 utils.c
00000000 l    df *ABS*	00000000 ch32v20x_exti.c
00000000 l    df *ABS*	00000000 ch32v20x_gpio.c
00000000 l    df *ABS*	00000000 ch32v20x_misc.c
00000000 l    df *ABS*	00000000 ch32v20x_rcc.c
00000000 l    df *ABS*	00000000 ch32v20x_tim.c
00000000 l    df *ABS*	00000000 debug.c
2000008c l     O .bss	00000002 p_ms
2000008e l     O .bss	00000001 p_us
00000000 l    df *ABS*	00000000 memchr.c
00000000 l    df *ABS*	00000000 memcpy.c
00002e1a  w      .text	00000000 EXTI2_IRQHandler
20000800 g       .data	00000000 __global_pointer$
00000148 g     F .text	00000028 .hidden __riscv_save_8
00002e40  w      .text	00000000 TIM1_CC_IRQHandler
00002270 g     F .text	00000002 HardFault_Handler
00001954 g     F .text	00000024 USBFSH_ClearEndpStall
00000194 g     F .text	0000000c .hidden __riscv_restore_3
00000bf8 g     F .text	0000002e HUB_CheckPortSpeed
00002e06  w      .text	00000000 SysTick_Handler
00003106 g     F .text	000000a6 NVIC_Init
00002cd2 g     F .text	00000060 FifoWrite
000019be g     F .text	00000040 USBFSH_SendEndpData
00002e0c  w      .text	00000000 PVD_IRQHandler
000018fa g     F .text	00000036 USBFSH_SetUsbAddress
00000180 g     F .text	00000020 .hidden __riscv_restore_10
00002c6a g     F .text	00000016 FifoInit
0000226c g     F .text	00000004 NMI_Handler
00002e1c  w      .text	00000000 EXTI3_IRQHandler
00000148 g     F .text	00000028 .hidden __riscv_save_11
000013be g     F .text	00000046 USBFS_RCC_Init
00001834 g     F .text	0000006c USBFSH_GetConfigDescr
20001a18 g     O .bss	00000040 USBFS_RX_Buf
20000070 g       .bss	00000000 _sbss
00000800 g       *ABS*	00000000 __stack_size
200004a4 g     O .bss	00001554 HostCtl
000003ce g     F .text	00000042 USBH_AnalyseType
00001930 g     F .text	00000024 USBFSH_SetUsbConfig
20001ad8 g     O .bss	0000000a mouse_info
00000194 g     F .text	0000000c .hidden __riscv_restore_2
2000007e g     O .bss	00000002 mouseDistanceX
00002288 g     F .text	0000008e ProcessGamepad
00003386 g     F .text	000000b2 memcpy
00002bc4 g     F .text	00000066 TIM4_Init
00001fb4 g     F .text	0000002e HID_GetHidDesr
00002e16  w      .text	00000000 EXTI0_IRQHandler
00002e4c  w      .text	00000000 I2C2_EV_IRQHandler
0000328a g     F .text	00000018 TIM_Cmd
00001fe2 g     F .text	0000002a HID_SetReport
2000007d g     O .bss	00000001 mouseDirectionY
20000004 g     O .data	00000004 SystemCoreClock
20000001 g     O .data	00000001 yTimerTop
20000070 g     O .bss	00000002 gamepad_info
20000084 g     O .bss	00000001 previousMMB
00000038 g       .init	00000000 _einit
000032cc g     F .text	0000000c TIM_ClearITPendingBit
000031e4 g     F .text	0000001e RCC_APB2PeriphClockCmd
00000140 g     F .text	00000030 .hidden __riscv_save_12
00002e2e  w      .text	00000000 ADC1_2_IRQHandler
00002f84 g     F .text	000000f2 GPIO_Init
00002e04  w      .text	00000000 Break_Point_Handler
00000180 g     F .text	00000020 .hidden __riscv_restore_11
20000088 g     O .bss	00000004 NVIC_Priority_Group
00002e50  w      .text	00000000 SPI1_IRQHandler
00002e0e  w      .text	00000000 TAMPER_IRQHandler
00000170 g     F .text	0000000c .hidden __riscv_save_1
000030c6 g     F .text	00000014 GPIO_Write
00000c26 g     F .text	000000dc USBH_EnumHubPortDevice
00000194 g     F .text	0000000c .hidden __riscv_restore_0
00003090 g     F .text	0000001c GPIO_ReadOutputData
00001bde g     F .text	0000002c report_is_usable
00000156 g     F .text	0000001a .hidden __riscv_save_7
00003202 g     F .text	0000001e RCC_APB1PeriphClockCmd
00002e00  w      .text	00000000 Ecall_M_Mode_Handler
20004800 g       .stack	00000000 _heap_end
20000490 g     O .bss	00000012 DevDesc_Buf
00003302 g     F .text	00000036 Delay_Us
0000018a g     F .text	00000016 .hidden __riscv_restore_5
000031c6 g     F .text	0000001e RCC_AHBPeriphClockCmd
00002e26  w      .text	00000000 DMA1_Channel4_IRQHandler
0000018a g     F .text	00000016 .hidden __riscv_restore_6
00002e58  w      .text	00000000 USART3_IRQHandler
00002f7a g     F .text	0000000a EXTI_ClearITPendingBit
00002e10  w      .text	00000000 RTC_IRQHandler
20001b70 g       .bss	00000000 _ebss
20000082 g     O .bss	00000001 mouseEncoderPhaseX
0000203c g     F .text	00000030 HUB_GetPortStatus
00002e2c  w      .text	00000000 DMA1_Channel7_IRQHandler
00000894 g     F .text	000000ae KM_DealHidReportDesc
00002e34  w      .text	00000000 CAN1_RX1_IRQHandler
000032d8 g     F .text	0000002a Delay_Init
00002096 g     F .text	0000002a HUB_SetPortFeature
00002c44 g     F .text	00000026 TIM4_IRQHandler
00000148 g     F .text	00000028 .hidden __riscv_save_9
000030ac g     F .text	0000001a GPIO_WriteBit
00001bca g     F .text	00000014 GetGamepadInfo
2000007c g     O .bss	00000001 mouseDirectionX
00000156 g     F .text	0000001a .hidden __riscv_save_4
00002e48  w      .text	00000000 I2C1_EV_IRQHandler
000032b4 g     F .text	00000018 TIM_GetITStatus
00002e60  w      .text	00000000 USBHD_IRQHandler
200019f8 g     O .bss	0000001f RootHubDev
00000410 g     F .text	000000f8 USBH_EnumRootDevice
00002e2a  w      .text	00000000 DMA1_Channel6_IRQHandler
20000074 g     O .bss	00000008 mouse_report_data
00002e64  w      .text	00000000 UART4_IRQHandler
0000336e g     F .text	00000018 memchr
000002b8 g     F .text	00000116 TIM3_IRQHandler
00002e14  w      .text	00000000 RCC_IRQHandler
00000170 g     F .text	0000000c .hidden __riscv_save_3
00002e3e  w      .text	00000000 TIM1_TRG_COM_IRQHandler
000006fe g     F .text	00000196 KM_AnalyzeHidReportDesc
00002e20  w      .text	00000000 DMA1_Channel1_IRQHandler
00000000 g       .init	00000000 _start
20000090 g     O .bss	00000400 Com_Buf
00000d02 g     F .text	000000a2 KB_AnalyzeKeyValue
00002e5a  w      .text	00000000 EXTI15_10_IRQHandler
000032a2 g     F .text	00000012 TIM_ITConfig
00002ef2 g     F .text	0000006a EXTI_Init
00000aca g     F .text	00000084 HUB_Port_PreEnum1
00000e40 g     F .text	000000aa USBH_EnumHidDevice
00002e66  w      .text	00000000 DMA1_Channel8_IRQHandler
20000000 g       .dalign	00000000 _data_vma
00002254 g     F .text	00000018 USBH_GetMouseInfo
20000085 g     O .bss	00000001 MCU_Version
000014a6 g     F .text	0000002e USBFSH_SetSelfSpeed
00000eea g     F .text	000004ae USBH_MainDeal
00002e38  w      .text	00000000 EXTI9_5_IRQHandler
20000000 g     O .data	00000001 xTimerTop
000030da g     F .text	0000002c GPIO_EXTILineConfig
00002494 g     F .text	000000ea processMouseMovement
00000148 g     F .text	00000028 .hidden __riscv_save_10
0000018a g     F .text	00000016 .hidden __riscv_restore_4
00000180 g     F .text	00000020 .hidden __riscv_restore_8
00000156 g     F .text	0000001a .hidden __riscv_save_6
00002f5c g     F .text	0000001e EXTI_GetITStatus
00002e52  w      .text	00000000 SPI2_IRQHandler
00002480 g     F .text	00000014 InitMouse
0000257e g     F .text	000001aa ProcessMouse
000001a0 g     F .text	000000a8 memset
00000180 g     F .text	00000020 .hidden __riscv_restore_9
0000018a g     F .text	00000016 .hidden __riscv_restore_7
000023be g     F .text	000000c2 main
00000248 g     F .text	00000070 TIM3_Init
00002d32 g     F .text	000000ca collect_bits
00001524 g     F .text	0000003c USBFSH_EnableRootHubPort
0000283a g     F .text	00000112 ProcessY_IRQ
00002e28  w      .text	00000000 DMA1_Channel5_IRQHandler
000031ac g     F .text	0000001a RCC_USBCLKConfig
00002e1e  w      .text	00000000 EXTI4_IRQHandler
00003338 g     F .text	00000036 Delay_Ms
00002e32  w      .text	00000000 USB_LP_CAN1_RX0_IRQHandler
000020fc g     F .text	00000158 USBH_MouseDecode
00002728 g     F .text	00000112 ProcessX_IRQ
000018a0 g     F .text	0000005a USBFSH_GetStrDescr
00002aba g     F .text	000000a8 SystemInit
00002e30  w      .text	00000000 USB_HP_CAN1_TX_IRQHandler
00000000 g       .init	00000000 _sinit
20001a58 g     O .bss	00000040 USBFS_TX_Buf
00000508 g     F .text	000001f6 KM_AnalyzeConfigDesc
00002e62  w      .text	00000000 USBHDWakeUp_IRQHandler
00002e24  w      .text	00000000 DMA1_Channel3_IRQHandler
00002e3c  w      .text	00000000 TIM1_UP_IRQHandler
20000083 g     O .bss	00000001 mouseEncoderPhaseY
000017f2 g     F .text	00000042 USBFSH_GetDeviceDescr
00001978 g     F .text	00000046 USBFSH_GetEndpData
00002e0a  w      .text	00000000 WWDG_IRQHandler
0000206c g     F .text	0000002a HUB_ClearPortFeature
00002e02  w      .text	00000000 Ecall_U_Mode_Handler
00002c2a g     F .text	0000001a TIM2_IRQHandler
20005000 g       .stack	00000000 _eusrstack
00000170 g     F .text	0000000c .hidden __riscv_save_2
00001482 g     F .text	00000010 USBFSH_CheckRootHubPortSpeed
00002e08  w      .text	00000000 SW_Handler
000020c0 g     F .text	0000003c HUB_GetClassDevDescr
20000080 g     O .bss	00000002 mouseDistanceY
00000942 g     F .text	000000b0 HUB_AnalyzeConfigDesc
00002e3a  w      .text	00000000 TIM1_BRK_IRQHandler
00001454 g     F .text	0000002e USBFSH_CheckRootHubPortStatus
00002272 g     F .text	00000016 EXTI1_IRQHandler
00000156 g     F .text	0000001a .hidden __riscv_save_5
20000070 g       .data	00000000 _edata
20001ae4 g     O .bss	0000008c ScrollBuffer
20001b70 g       .bss	00000000 _end
00002c80 g     F .text	00000052 FifoRead
00003220 g     F .text	0000006a TIM_TimeBaseInit
00002e5c  w      .text	00000000 RTCAlarm_IRQHandler
00000b4e g     F .text	000000aa HUB_Port_PreEnum2
00003474 g       .dlalign	00000000 _data_lma
00001404 g     F .text	00000050 USBFS_Host_Init
0000200c g     F .text	00000030 HID_SetIdle
00002e56  w      .text	00000000 USART2_IRQHandler
000014d4 g     F .text	00000050 USBFSH_ResetRootHubPort
00002e4e  w      .text	00000000 I2C2_ER_IRQHandler
00000da4 g     F .text	0000009c KB_SetReport
00002e22  w      .text	00000000 DMA1_Channel2_IRQHandler
00002316 g     F .text	000000a8 GPIO_Config
0000017c g     F .text	00000024 .hidden __riscv_restore_12
00002e68  w      .text	00000000 handle_reset
00002e36  w      .text	00000000 CAN1_SCE_IRQHandler
00002e12  w      .text	00000000 FLASH_IRQHandler
00000170 g     F .text	0000000c .hidden __riscv_save_0
000009f2 g     F .text	000000d8 USBH_EnumHubDevice
00002b62 g     F .text	00000062 TIM2_Init
00002e54  w      .text	00000000 USART1_IRQHandler
00001492 g     F .text	00000014 USBFSH_SetSelfAddr
0000294c g     F .text	0000016e ProcessScrollIRQ
00002e4a  w      .text	00000000 I2C1_ER_IRQHandler
00001560 g     F .text	000000f4 USBFSH_Transact
00000194 g     F .text	0000000c .hidden __riscv_restore_1
00001c0a g     F .text	000003aa parse_report_descriptor
00003076 g     F .text	0000001a GPIO_ReadInputDataBit
00002e5e  w      .text	00000000 USBWakeUp_IRQHandler
000019fe g     F .text	000001cc GamepadDecode
00001654 g     F .text	0000019e USBFSH_CtrlTransfer



Disassembly of section .init:

00000000 <_sinit>:
   0:	6690206f          	j	2e68 <handle_reset>
   4:	00000013          	nop
   8:	00000013          	nop
   c:	00000013          	nop
  10:	00000013          	nop
  14:	00000013          	nop
  18:	00000013          	nop
  1c:	00000013          	nop
  20:	00000013          	nop
  24:	00000013          	nop
  28:	00000013          	nop
  2c:	00000013          	nop
  30:	00000013          	nop
  34:	00100073          	ebreak

Disassembly of section .vector:

00000038 <_vector_base>:
	...
  40:	226c                	lbu	a1,6(a2)
  42:	0000                	unimp
  44:	2270                	lbu	a2,6(a2)
  46:	0000                	unimp
  48:	0000                	unimp
  4a:	0000                	unimp
  4c:	2e00                	lbu	s0,24(a2)
	...
  56:	0000                	unimp
  58:	2e02                	lhu	s0,24(a2)
  5a:	0000                	unimp
  5c:	2e04                	lbu	s1,24(a2)
	...
  66:	0000                	unimp
  68:	2e06                	lhu	s1,24(a2)
  6a:	0000                	unimp
  6c:	0000                	unimp
  6e:	0000                	unimp
  70:	2e08                	lbu	a0,24(a2)
  72:	0000                	unimp
  74:	0000                	unimp
  76:	0000                	unimp
  78:	2e0a                	lhu	a0,24(a2)
  7a:	0000                	unimp
  7c:	2e0c                	lbu	a1,24(a2)
  7e:	0000                	unimp
  80:	2e0e                	lhu	a1,24(a2)
  82:	0000                	unimp
  84:	2e10                	lbu	a2,24(a2)
  86:	0000                	unimp
  88:	2e12                	lhu	a2,24(a2)
  8a:	0000                	unimp
  8c:	2e14                	lbu	a3,24(a2)
  8e:	0000                	unimp
  90:	2e16                	lhu	a3,24(a2)
  92:	0000                	unimp
  94:	2272                	lhu	a2,6(a2)
  96:	0000                	unimp
  98:	2e1a                	lhu	a4,24(a2)
  9a:	0000                	unimp
  9c:	2e1c                	lbu	a5,24(a2)
  9e:	0000                	unimp
  a0:	2e1e                	lhu	a5,24(a2)
  a2:	0000                	unimp
  a4:	2e20                	lbu	s0,26(a2)
  a6:	0000                	unimp
  a8:	2e22                	lhu	s0,26(a2)
  aa:	0000                	unimp
  ac:	2e24                	lbu	s1,26(a2)
  ae:	0000                	unimp
  b0:	2e26                	lhu	s1,26(a2)
  b2:	0000                	unimp
  b4:	2e28                	lbu	a0,26(a2)
  b6:	0000                	unimp
  b8:	2e2a                	lhu	a0,26(a2)
  ba:	0000                	unimp
  bc:	2e2c                	lbu	a1,26(a2)
  be:	0000                	unimp
  c0:	2e2e                	lhu	a1,26(a2)
  c2:	0000                	unimp
  c4:	2e30                	lbu	a2,26(a2)
  c6:	0000                	unimp
  c8:	2e32                	lhu	a2,26(a2)
  ca:	0000                	unimp
  cc:	2e34                	lbu	a3,26(a2)
  ce:	0000                	unimp
  d0:	2e36                	lhu	a3,26(a2)
  d2:	0000                	unimp
  d4:	2e38                	lbu	a4,26(a2)
  d6:	0000                	unimp
  d8:	2e3a                	lhu	a4,26(a2)
  da:	0000                	unimp
  dc:	2e3c                	lbu	a5,26(a2)
  de:	0000                	unimp
  e0:	2e3e                	lhu	a5,26(a2)
  e2:	0000                	unimp
  e4:	2e40                	lbu	s0,28(a2)
  e6:	0000                	unimp
  e8:	2c2a                	lhu	a0,26(s0)
  ea:	0000                	unimp
  ec:	02b8                	addi	a4,sp,328
  ee:	0000                	unimp
  f0:	2c44                	lbu	s1,28(s0)
  f2:	0000                	unimp
  f4:	2e48                	lbu	a0,28(a2)
  f6:	0000                	unimp
  f8:	2e4a                	lhu	a0,28(a2)
  fa:	0000                	unimp
  fc:	2e4c                	lbu	a1,28(a2)
  fe:	0000                	unimp
 100:	2e4e                	lhu	a1,28(a2)
 102:	0000                	unimp
 104:	2e50                	lbu	a2,28(a2)
 106:	0000                	unimp
 108:	2e52                	lhu	a2,28(a2)
 10a:	0000                	unimp
 10c:	2e54                	lbu	a3,28(a2)
 10e:	0000                	unimp
 110:	2e56                	lhu	a3,28(a2)
 112:	0000                	unimp
 114:	2e58                	lbu	a4,28(a2)
 116:	0000                	unimp
 118:	2e5a                	lhu	a4,28(a2)
 11a:	0000                	unimp
 11c:	2e5c                	lbu	a5,28(a2)
 11e:	0000                	unimp
 120:	2e5e                	lhu	a5,28(a2)
 122:	0000                	unimp
 124:	2e60                	lbu	s0,30(a2)
 126:	0000                	unimp
 128:	2e62                	lhu	s0,30(a2)
 12a:	0000                	unimp
 12c:	2e64                	lbu	s1,30(a2)
 12e:	0000                	unimp
 130:	2e66                	lhu	s1,30(a2)
	...

Disassembly of section .text:

00000140 <__riscv_save_12>:
     140:	7139                	addi	sp,sp,-64
     142:	4301                	li	t1,0
     144:	c66e                	sw	s11,12(sp)
     146:	a019                	j	14c <__riscv_save_10+0x4>

00000148 <__riscv_save_10>:
     148:	7139                	addi	sp,sp,-64
     14a:	5341                	li	t1,-16
     14c:	c86a                	sw	s10,16(sp)
     14e:	ca66                	sw	s9,20(sp)
     150:	cc62                	sw	s8,24(sp)
     152:	ce5e                	sw	s7,28(sp)
     154:	a019                	j	15a <__riscv_save_4+0x4>

00000156 <__riscv_save_4>:
     156:	7139                	addi	sp,sp,-64
     158:	5301                	li	t1,-32
     15a:	d05a                	sw	s6,32(sp)
     15c:	d256                	sw	s5,36(sp)
     15e:	d452                	sw	s4,40(sp)
     160:	d64e                	sw	s3,44(sp)
     162:	d84a                	sw	s2,48(sp)
     164:	da26                	sw	s1,52(sp)
     166:	dc22                	sw	s0,56(sp)
     168:	de06                	sw	ra,60(sp)
     16a:	40610133          	sub	sp,sp,t1
     16e:	8282                	jr	t0

00000170 <__riscv_save_0>:
     170:	1141                	addi	sp,sp,-16
     172:	c04a                	sw	s2,0(sp)
     174:	c226                	sw	s1,4(sp)
     176:	c422                	sw	s0,8(sp)
     178:	c606                	sw	ra,12(sp)
     17a:	8282                	jr	t0

0000017c <__riscv_restore_12>:
     17c:	4db2                	lw	s11,12(sp)
     17e:	0141                	addi	sp,sp,16

00000180 <__riscv_restore_10>:
     180:	4d02                	lw	s10,0(sp)
     182:	4c92                	lw	s9,4(sp)
     184:	4c22                	lw	s8,8(sp)
     186:	4bb2                	lw	s7,12(sp)
     188:	0141                	addi	sp,sp,16

0000018a <__riscv_restore_4>:
     18a:	4b02                	lw	s6,0(sp)
     18c:	4a92                	lw	s5,4(sp)
     18e:	4a22                	lw	s4,8(sp)
     190:	49b2                	lw	s3,12(sp)
     192:	0141                	addi	sp,sp,16

00000194 <__riscv_restore_0>:
     194:	4902                	lw	s2,0(sp)
     196:	4492                	lw	s1,4(sp)
     198:	4422                	lw	s0,8(sp)
     19a:	40b2                	lw	ra,12(sp)
     19c:	0141                	addi	sp,sp,16
     19e:	8082                	ret

000001a0 <memset>:
     1a0:	433d                	li	t1,15
     1a2:	872a                	mv	a4,a0
     1a4:	02c37363          	bgeu	t1,a2,1ca <memset+0x2a>
     1a8:	00f77793          	andi	a5,a4,15
     1ac:	efbd                	bnez	a5,22a <memset+0x8a>
     1ae:	e5ad                	bnez	a1,218 <memset+0x78>
     1b0:	ff067693          	andi	a3,a2,-16
     1b4:	8a3d                	andi	a2,a2,15
     1b6:	96ba                	add	a3,a3,a4
     1b8:	c30c                	sw	a1,0(a4)
     1ba:	c34c                	sw	a1,4(a4)
     1bc:	c70c                	sw	a1,8(a4)
     1be:	c74c                	sw	a1,12(a4)
     1c0:	0741                	addi	a4,a4,16
     1c2:	fed76be3          	bltu	a4,a3,1b8 <memset+0x18>
     1c6:	e211                	bnez	a2,1ca <memset+0x2a>
     1c8:	8082                	ret
     1ca:	40c306b3          	sub	a3,t1,a2
     1ce:	068a                	slli	a3,a3,0x2
     1d0:	00000297          	auipc	t0,0x0
     1d4:	9696                	add	a3,a3,t0
     1d6:	00a68067          	jr	10(a3)
     1da:	00b70723          	sb	a1,14(a4)
     1de:	00b706a3          	sb	a1,13(a4)
     1e2:	00b70623          	sb	a1,12(a4)
     1e6:	00b705a3          	sb	a1,11(a4)
     1ea:	00b70523          	sb	a1,10(a4)
     1ee:	00b704a3          	sb	a1,9(a4)
     1f2:	00b70423          	sb	a1,8(a4)
     1f6:	00b703a3          	sb	a1,7(a4)
     1fa:	00b70323          	sb	a1,6(a4)
     1fe:	00b702a3          	sb	a1,5(a4)
     202:	00b70223          	sb	a1,4(a4)
     206:	00b701a3          	sb	a1,3(a4)
     20a:	00b70123          	sb	a1,2(a4)
     20e:	00b700a3          	sb	a1,1(a4)
     212:	00b70023          	sb	a1,0(a4)
     216:	8082                	ret
     218:	0ff5f593          	andi	a1,a1,255
     21c:	00859693          	slli	a3,a1,0x8
     220:	8dd5                	or	a1,a1,a3
     222:	01059693          	slli	a3,a1,0x10
     226:	8dd5                	or	a1,a1,a3
     228:	b761                	j	1b0 <memset+0x10>
     22a:	00279693          	slli	a3,a5,0x2
     22e:	00000297          	auipc	t0,0x0
     232:	9696                	add	a3,a3,t0
     234:	8286                	mv	t0,ra
     236:	fa8680e7          	jalr	-88(a3)
     23a:	8096                	mv	ra,t0
     23c:	17c1                	addi	a5,a5,-16
     23e:	8f1d                	sub	a4,a4,a5
     240:	963e                	add	a2,a2,a5
     242:	f8c374e3          	bgeu	t1,a2,1ca <memset+0x2a>
     246:	b7a5                	j	1ae <memset+0xe>

00000248 <TIM3_Init>:
     248:	f29ff2ef          	jal	t0,170 <__riscv_save_0>
     24c:	1101                	addi	sp,sp,-32
     24e:	84aa                	mv	s1,a0
     250:	842e                	mv	s0,a1
     252:	4509                	li	a0,2
     254:	4585                	li	a1,1
     256:	ca02                	sw	zero,20(sp)
     258:	cc02                	sw	zero,24(sp)
     25a:	00011e23          	sh	zero,28(sp)
     25e:	c602                	sw	zero,12(sp)
     260:	c802                	sw	zero,16(sp)
     262:	7a1020ef          	jal	ra,3202 <RCC_APB1PeriphClockCmd>
     266:	82e0                	sh	s0,20(sp)
     268:	40000437          	lui	s0,0x40000
     26c:	084c                	addi	a1,sp,20
     26e:	40040513          	addi	a0,s0,1024 # 40000400 <_eusrstack+0x1fffb400>
     272:	84e4                	sh	s1,24(sp)
     274:	00011d23          	sh	zero,26(sp)
     278:	00011b23          	sh	zero,22(sp)
     27c:	7a5020ef          	jal	ra,3220 <TIM_TimeBaseInit>
     280:	4605                	li	a2,1
     282:	4585                	li	a1,1
     284:	40040513          	addi	a0,s0,1024
     288:	01a030ef          	jal	ra,32a2 <TIM_ITConfig>
     28c:	12d00793          	li	a5,301
     290:	867c                	sh	a5,12(sp)
     292:	4789                	li	a5,2
     294:	875c                	sb	a5,14(sp)
     296:	0068                	addi	a0,sp,12
     298:	4785                	li	a5,1
     29a:	c83e                	sw	a5,16(sp)
     29c:	66b020ef          	jal	ra,3106 <NVIC_Init>
     2a0:	4585                	li	a1,1
     2a2:	40040513          	addi	a0,s0,1024
     2a6:	7e5020ef          	jal	ra,328a <TIM_Cmd>
     2aa:	e000e7b7          	lui	a5,0xe000e
     2ae:	6709                	lui	a4,0x2
     2b0:	10e7a223          	sw	a4,260(a5) # e000e104 <_eusrstack+0xc0009104>
     2b4:	6105                	addi	sp,sp,32
     2b6:	bdf9                	j	194 <__riscv_restore_0>

000002b8 <TIM3_IRQHandler>:
     2b8:	1141                	addi	sp,sp,-16
     2ba:	c622                	sw	s0,12(sp)
     2bc:	40000437          	lui	s0,0x40000
     2c0:	4585                	li	a1,1
     2c2:	40040513          	addi	a0,s0,1024 # 40000400 <_eusrstack+0x1fffb400>
     2c6:	7ef020ef          	jal	ra,32b4 <TIM_GetITStatus>
     2ca:	c545                	beqz	a0,372 <TIM3_IRQHandler+0xba>
     2cc:	4585                	li	a1,1
     2ce:	40040513          	addi	a0,s0,1024
     2d2:	7fb020ef          	jal	ra,32cc <TIM_ClearITPendingBit>
     2d6:	20002737          	lui	a4,0x20002
     2da:	9f870693          	addi	a3,a4,-1544 # 200019f8 <RootHubDev>
     2de:	2290                	lbu	a2,0(a3)
     2e0:	4789                	li	a5,2
     2e2:	08c7f863          	bgeu	a5,a2,372 <TIM3_IRQHandler+0xba>
     2e6:	3290                	lbu	a2,1(a3)
     2e8:	458d                	li	a1,3
     2ea:	32dc                	lbu	a5,5(a3)
     2ec:	04b61563          	bne	a2,a1,336 <TIM3_IRQHandler+0x7e>
     2f0:	44400713          	li	a4,1092
     2f4:	02e787b3          	mul	a5,a5,a4
     2f8:	20000737          	lui	a4,0x20000
     2fc:	4a470713          	addi	a4,a4,1188 # 200004a4 <HostCtl>
     300:	4681                	li	a3,0
     302:	97ba                	add	a5,a5,a4
     304:	0007c803          	lbu	a6,0(a5)
     308:	06d80563          	beq	a6,a3,372 <TIM3_IRQHandler+0xba>
     30c:	27a8                	lbu	a0,10(a5)
     30e:	863e                	mv	a2,a5
     310:	4701                	li	a4,0
     312:	a809                	j	324 <TIM3_IRQHandler+0x6c>
     314:	02364583          	lbu	a1,35(a2)
     318:	0705                	addi	a4,a4,1
     31a:	0ff77713          	andi	a4,a4,255
     31e:	0585                	addi	a1,a1,1
     320:	02b601a3          	sb	a1,35(a2)
     324:	0605                	addi	a2,a2,1
     326:	fee517e3          	bne	a0,a4,314 <TIM3_IRQHandler+0x5c>
     32a:	0685                	addi	a3,a3,1
     32c:	0ff6f693          	andi	a3,a3,255
     330:	11078793          	addi	a5,a5,272
     334:	bfd1                	j	308 <TIM3_IRQHandler+0x50>
     336:	45a5                	li	a1,9
     338:	02b61d63          	bne	a2,a1,372 <TIM3_IRQHandler+0xba>
     33c:	44400513          	li	a0,1092
     340:	02a787b3          	mul	a5,a5,a0
     344:	20000637          	lui	a2,0x20000
     348:	4a460593          	addi	a1,a2,1188 # 200004a4 <HostCtl>
     34c:	0066c303          	lbu	t1,6(a3)
     350:	9f870713          	addi	a4,a4,-1544
     354:	4681                	li	a3,0
     356:	4a460513          	addi	a0,a2,1188
     35a:	4e09                	li	t3,2
     35c:	4e8d                	li	t4,3
     35e:	44400f13          	li	t5,1092
     362:	97ae                	add	a5,a5,a1
     364:	0247c583          	lbu	a1,36(a5)
     368:	0585                	addi	a1,a1,1
     36a:	02b78223          	sb	a1,36(a5)
     36e:	00d31663          	bne	t1,a3,37a <TIM3_IRQHandler+0xc2>
     372:	4432                	lw	s0,12(sp)
     374:	0141                	addi	sp,sp,16
     376:	30200073          	mret
     37a:	337c                	lbu	a5,7(a4)
     37c:	04fe7463          	bgeu	t3,a5,3c4 <TIM3_IRQHandler+0x10c>
     380:	271c                	lbu	a5,8(a4)
     382:	05d79163          	bne	a5,t4,3c4 <TIM3_IRQHandler+0x10c>
     386:	275c                	lbu	a5,12(a4)
     388:	4581                	li	a1,0
     38a:	03e787b3          	mul	a5,a5,t5
     38e:	97aa                	add	a5,a5,a0
     390:	0007c283          	lbu	t0,0(a5)
     394:	02b28863          	beq	t0,a1,3c4 <TIM3_IRQHandler+0x10c>
     398:	00a7cf83          	lbu	t6,10(a5)
     39c:	883e                	mv	a6,a5
     39e:	4601                	li	a2,0
     3a0:	a809                	j	3b2 <TIM3_IRQHandler+0xfa>
     3a2:	02384883          	lbu	a7,35(a6)
     3a6:	0605                	addi	a2,a2,1
     3a8:	0ff67613          	andi	a2,a2,255
     3ac:	0885                	addi	a7,a7,1
     3ae:	031801a3          	sb	a7,35(a6)
     3b2:	0805                	addi	a6,a6,1
     3b4:	fecf97e3          	bne	t6,a2,3a2 <TIM3_IRQHandler+0xea>
     3b8:	0585                	addi	a1,a1,1
     3ba:	0ff5f593          	andi	a1,a1,255
     3be:	11078793          	addi	a5,a5,272
     3c2:	bfc9                	j	394 <TIM3_IRQHandler+0xdc>
     3c4:	0685                	addi	a3,a3,1
     3c6:	0ff6f693          	andi	a3,a3,255
     3ca:	0719                	addi	a4,a4,6
     3cc:	b74d                	j	36e <TIM3_IRQHandler+0xb6>

000003ce <USBH_AnalyseType>:
     3ce:	2158                	lbu	a4,4(a0)
     3d0:	46a1                	li	a3,8
     3d2:	00d70563          	beq	a4,a3,3dc <USBH_AnalyseType+0xe>
     3d6:	25fc                	lbu	a5,14(a1)
     3d8:	00d79563          	bne	a5,a3,3e2 <USBH_AnalyseType+0x14>
     3dc:	47a1                	li	a5,8
     3de:	a21c                	sb	a5,0(a2)
     3e0:	8082                	ret
     3e2:	469d                	li	a3,7
     3e4:	00d70463          	beq	a4,a3,3ec <USBH_AnalyseType+0x1e>
     3e8:	00d79463          	bne	a5,a3,3f0 <USBH_AnalyseType+0x22>
     3ec:	479d                	li	a5,7
     3ee:	bfc5                	j	3de <USBH_AnalyseType+0x10>
     3f0:	468d                	li	a3,3
     3f2:	00d70463          	beq	a4,a3,3fa <USBH_AnalyseType+0x2c>
     3f6:	00d79463          	bne	a5,a3,3fe <USBH_AnalyseType+0x30>
     3fa:	478d                	li	a5,3
     3fc:	b7cd                	j	3de <USBH_AnalyseType+0x10>
     3fe:	46a5                	li	a3,9
     400:	00d70463          	beq	a4,a3,408 <USBH_AnalyseType+0x3a>
     404:	00d79463          	bne	a5,a3,40c <USBH_AnalyseType+0x3e>
     408:	47a5                	li	a5,9
     40a:	bfd1                	j	3de <USBH_AnalyseType+0x10>
     40c:	57fd                	li	a5,-1
     40e:	bfc1                	j	3de <USBH_AnalyseType+0x10>

00000410 <USBH_EnumRootDevice>:
     410:	d39ff2ef          	jal	t0,148 <__riscv_save_10>
     414:	200024b7          	lui	s1,0x20002
     418:	9f848493          	addi	s1,s1,-1544 # 200019f8 <RootHubDev>
     41c:	1141                	addi	sp,sp,-16
     41e:	4401                	li	s0,0
     420:	00348b13          	addi	s6,s1,3
     424:	4b99                	li	s7,6
     426:	00448c13          	addi	s8,s1,4
     42a:	89018993          	addi	s3,gp,-1904 # 20000090 <Com_Buf>
     42e:	06400513          	li	a0,100
     432:	707020ef          	jal	ra,3338 <Delay_Ms>
     436:	0405                	addi	s0,s0,1
     438:	0ff47413          	andi	s0,s0,255
     43c:	4521                	li	a0,8
     43e:	00851533          	sll	a0,a0,s0
     442:	6f7020ef          	jal	ra,3338 <Delay_Ms>
     446:	4501                	li	a0,0
     448:	08c010ef          	jal	ra,14d4 <USBFSH_ResetRootHubPort>
     44c:	4901                	li	s2,0
     44e:	4a01                	li	s4,0
     450:	06400c93          	li	s9,100
     454:	855a                	mv	a0,s6
     456:	0ce010ef          	jal	ra,1524 <USBFSH_EnableRootHubPort>
     45a:	e519                	bnez	a0,468 <USBH_EnumRootDevice+0x58>
     45c:	0a05                	addi	s4,s4,1
     45e:	0ffa7a13          	andi	s4,s4,255
     462:	054be463          	bltu	s7,s4,4aa <USBH_EnumRootDevice+0x9a>
     466:	4901                	li	s2,0
     468:	0905                	addi	s2,s2,1
     46a:	0942                	slli	s2,s2,0x10
     46c:	4505                	li	a0,1
     46e:	01095913          	srli	s2,s2,0x10
     472:	6c7020ef          	jal	ra,3338 <Delay_Ms>
     476:	fd991fe3          	bne	s2,s9,454 <USBH_EnumRootDevice+0x44>
     47a:	4795                	li	a5,5
     47c:	fa87f9e3          	bgeu	a5,s0,42e <USBH_EnumRootDevice+0x1e>
     480:	4559                	li	a0,22
     482:	a031                	j	48e <USBH_EnumRootDevice+0x7e>
     484:	4795                	li	a5,5
     486:	fa87f4e3          	bgeu	a5,s0,42e <USBH_EnumRootDevice+0x1e>
     48a:	04500513          	li	a0,69
     48e:	0141                	addi	sp,sp,16
     490:	b9c5                	j	180 <__riscv_restore_10>
     492:	4795                	li	a5,5
     494:	f887fde3          	bgeu	a5,s0,42e <USBH_EnumRootDevice+0x1e>
     498:	04600513          	li	a0,70
     49c:	bfcd                	j	48e <USBH_EnumRootDevice+0x7e>
     49e:	4795                	li	a5,5
     4a0:	f887f7e3          	bgeu	a5,s0,42e <USBH_EnumRootDevice+0x1e>
     4a4:	04700513          	li	a0,71
     4a8:	b7dd                	j	48e <USBH_EnumRootDevice+0x7e>
     4aa:	c9018593          	addi	a1,gp,-880 # 20000490 <DevDesc_Buf>
     4ae:	8562                	mv	a0,s8
     4b0:	342010ef          	jal	ra,17f2 <USBFSH_GetDeviceDescr>
     4b4:	f961                	bnez	a0,484 <USBH_EnumRootDevice+0x74>
     4b6:	20c8                	lbu	a0,4(s1)
     4b8:	4909                	li	s2,2
     4ba:	4589                	li	a1,2
     4bc:	01248123          	sb	s2,2(s1)
     4c0:	43a010ef          	jal	ra,18fa <USBFSH_SetUsbAddress>
     4c4:	f579                	bnez	a0,492 <USBH_EnumRootDevice+0x82>
     4c6:	4515                	li	a0,5
     4c8:	01248123          	sb	s2,2(s1)
     4cc:	66d020ef          	jal	ra,3338 <Delay_Ms>
     4d0:	20c8                	lbu	a0,4(s1)
     4d2:	00e10693          	addi	a3,sp,14
     4d6:	40000613          	li	a2,1024
     4da:	85ce                	mv	a1,s3
     4dc:	358010ef          	jal	ra,1834 <USBFSH_GetConfigDescr>
     4e0:	fd5d                	bnez	a0,49e <USBH_EnumRootDevice+0x8e>
     4e2:	85ce                	mv	a1,s3
     4e4:	c9018513          	addi	a0,gp,-880 # 20000490 <DevDesc_Buf>
     4e8:	00148613          	addi	a2,s1,1
     4ec:	0059c903          	lbu	s2,5(s3)
     4f0:	3df9                	jal	3ce <USBH_AnalyseType>
     4f2:	20c8                	lbu	a0,4(s1)
     4f4:	85ca                	mv	a1,s2
     4f6:	43a010ef          	jal	ra,1930 <USBFSH_SetUsbConfig>
     4fa:	d951                	beqz	a0,48e <USBH_EnumRootDevice+0x7e>
     4fc:	4795                	li	a5,5
     4fe:	f287f8e3          	bgeu	a5,s0,42e <USBH_EnumRootDevice+0x1e>
     502:	0fb00513          	li	a0,251
     506:	b761                	j	48e <USBH_EnumRootDevice+0x7e>

00000508 <KM_AnalyzeConfigDesc>:
     508:	c41ff2ef          	jal	t0,148 <__riscv_save_10>
     50c:	44400a13          	li	s4,1092
     510:	03450a33          	mul	s4,a0,s4
     514:	200009b7          	lui	s3,0x20000
     518:	4a498993          	addi	s3,s3,1188 # 200004a4 <HostCtl>
     51c:	8c2a                	mv	s8,a0
     51e:	8aae                	mv	s5,a1
     520:	4481                	li	s1,0
     522:	4401                	li	s0,0
     524:	89018913          	addi	s2,gp,-1904 # 20000090 <Com_Buf>
     528:	4b89                	li	s7,2
     52a:	01498b33          	add	s6,s3,s4
     52e:	00394783          	lbu	a5,3(s2)
     532:	00294703          	lbu	a4,2(s2)
     536:	07a2                	slli	a5,a5,0x8
     538:	97ba                	add	a5,a5,a4
     53a:	1cf45063          	bge	s0,a5,6fa <KM_AnalyzeConfigDesc+0x1f2>
     53e:	008907b3          	add	a5,s2,s0
     542:	3398                	lbu	a4,1(a5)
     544:	03771263          	bne	a4,s7,568 <KM_AnalyzeConfigDesc+0x60>
     548:	23dc                	lbu	a5,4(a5)
     54a:	4711                	li	a4,4
     54c:	00f77b63          	bgeu	a4,a5,562 <KM_AnalyzeConfigDesc+0x5a>
     550:	00eb0023          	sb	a4,0(s6)
     554:	008907b3          	add	a5,s2,s0
     558:	239c                	lbu	a5,0(a5)
     55a:	943e                	add	s0,s0,a5
     55c:	0442                	slli	s0,s0,0x10
     55e:	8041                	srli	s0,s0,0x10
     560:	b7f9                	j	52e <KM_AnalyzeConfigDesc+0x26>
     562:	00fb0023          	sb	a5,0(s6)
     566:	b7fd                	j	554 <KM_AnalyzeConfigDesc+0x4c>
     568:	4691                	li	a3,4
     56a:	fed717e3          	bne	a4,a3,558 <KM_AnalyzeConfigDesc+0x50>
     56e:	18e48663          	beq	s1,a4,6fa <KM_AnalyzeConfigDesc+0x1f2>
     572:	33d4                	lbu	a3,5(a5)
     574:	470d                	li	a4,3
     576:	16e69263          	bne	a3,a4,6da <KM_AnalyzeConfigDesc+0x1d2>
     57a:	23f8                	lbu	a4,6(a5)
     57c:	4685                	li	a3,1
     57e:	12e6ef63          	bltu	a3,a4,6bc <KM_AnalyzeConfigDesc+0x1b4>
     582:	33f8                	lbu	a4,7(a5)
     584:	12ebec63          	bltu	s7,a4,6bc <KM_AnalyzeConfigDesc+0x1b4>
     588:	0ad71f63          	bne	a4,a3,646 <KM_AnalyzeConfigDesc+0x13e>
     58c:	11000793          	li	a5,272
     590:	02f487b3          	mul	a5,s1,a5
     594:	97d2                	add	a5,a5,s4
     596:	97ce                	add	a5,a5,s3
     598:	a3d8                	sb	a4,4(a5)
     59a:	4681                	li	a3,0
     59c:	4601                	li	a2,0
     59e:	85a6                	mv	a1,s1
     5a0:	8556                	mv	a0,s5
     5a2:	26b010ef          	jal	ra,200c <HID_SetIdle>
     5a6:	008907b3          	add	a5,s2,s0
     5aa:	239c                	lbu	a5,0(a5)
     5ac:	08800813          	li	a6,136
     5b0:	22200713          	li	a4,546
     5b4:	943e                	add	s0,s0,a5
     5b6:	11000793          	li	a5,272
     5ba:	02f487b3          	mul	a5,s1,a5
     5be:	00294883          	lbu	a7,2(s2)
     5c2:	0442                	slli	s0,s0,0x10
     5c4:	8041                	srli	s0,s0,0x10
     5c6:	4681                	li	a3,0
     5c8:	4501                	li	a0,0
     5ca:	4311                	li	t1,4
     5cc:	4e15                	li	t3,5
     5ce:	02100e93          	li	t4,33
     5d2:	03048833          	mul	a6,s1,a6
     5d6:	97d2                	add	a5,a5,s4
     5d8:	97ce                	add	a5,a5,s3
     5da:	02ec0733          	mul	a4,s8,a4
     5de:	983a                	add	a6,a6,a4
     5e0:	00890733          	add	a4,s2,s0
     5e4:	3310                	lbu	a2,1(a4)
     5e6:	0a660863          	beq	a2,t1,696 <KM_AnalyzeConfigDesc+0x18e>
     5ea:	0b147663          	bgeu	s0,a7,696 <KM_AnalyzeConfigDesc+0x18e>
     5ee:	230c                	lbu	a1,0(a4)
     5f0:	942e                	add	s0,s0,a1
     5f2:	0442                	slli	s0,s0,0x10
     5f4:	8041                	srli	s0,s0,0x10
     5f6:	09c61863          	bne	a2,t3,686 <KM_AnalyzeConfigDesc+0x17e>
     5fa:	3350                	lbu	a2,5(a4)
     5fc:	232c                	lbu	a1,2(a4)
     5fe:	00474f03          	lbu	t5,4(a4)
     602:	0622                	slli	a2,a2,0x8
     604:	00f5f293          	andi	t0,a1,15
     608:	967a                	add	a2,a2,t5
     60a:	05e2                	slli	a1,a1,0x18
     60c:	0642                	slli	a2,a2,0x10
     60e:	85e1                	srai	a1,a1,0x18
     610:	00374f83          	lbu	t6,3(a4)
     614:	8241                	srli	a2,a2,0x10
     616:	0405d363          	bgez	a1,65c <KM_AnalyzeConfigDesc+0x154>
     61a:	2378                	lbu	a4,6(a4)
     61c:	00a78f33          	add	t5,a5,a0
     620:	00a805b3          	add	a1,a6,a0
     624:	02ef0023          	sb	a4,32(t5)
     628:	27b8                	lbu	a4,10(a5)
     62a:	05a1                	addi	a1,a1,8
     62c:	0586                	slli	a1,a1,0x1
     62e:	95ce                	add	a1,a1,s3
     630:	0705                	addi	a4,a4,1
     632:	0505                	addi	a0,a0,1
     634:	005f05a3          	sb	t0,11(t5)
     638:	01ff07a3          	sb	t6,15(t5)
     63c:	a1d2                	sh	a2,4(a1)
     63e:	a7b8                	sb	a4,10(a5)
     640:	0ff57513          	andi	a0,a0,255
     644:	bf71                	j	5e0 <KM_AnalyzeConfigDesc+0xd8>
     646:	f77710e3          	bne	a4,s7,5a6 <KM_AnalyzeConfigDesc+0x9e>
     64a:	11000793          	li	a5,272
     64e:	02f487b3          	mul	a5,s1,a5
     652:	97d2                	add	a5,a5,s4
     654:	97ce                	add	a5,a5,s3
     656:	01778223          	sb	s7,4(a5)
     65a:	b781                	j	59a <KM_AnalyzeConfigDesc+0x92>
     65c:	00d78733          	add	a4,a5,a3
     660:	025704a3          	sb	t0,41(a4)
     664:	03f706a3          	sb	t6,45(a4)
     668:	00d80733          	add	a4,a6,a3
     66c:	0741                	addi	a4,a4,16
     66e:	0706                	slli	a4,a4,0x1
     670:	974e                	add	a4,a4,s3
     672:	ab32                	sh	a2,18(a4)
     674:	0287c703          	lbu	a4,40(a5)
     678:	0685                	addi	a3,a3,1
     67a:	0ff6f693          	andi	a3,a3,255
     67e:	0705                	addi	a4,a4,1
     680:	02e78423          	sb	a4,40(a5)
     684:	bfb1                	j	5e0 <KM_AnalyzeConfigDesc+0xd8>
     686:	f5d61de3          	bne	a2,t4,5e0 <KM_AnalyzeConfigDesc+0xd8>
     68a:	2710                	lbu	a2,8(a4)
     68c:	3378                	lbu	a4,7(a4)
     68e:	0622                	slli	a2,a2,0x8
     690:	8f51                	or	a4,a4,a2
     692:	a3fa                	sh	a4,6(a5)
     694:	b7b1                	j	5e0 <KM_AnalyzeConfigDesc+0xd8>
     696:	4785                	li	a5,1
     698:	00f69e63          	bne	a3,a5,6b4 <KM_AnalyzeConfigDesc+0x1ac>
     69c:	11000793          	li	a5,272
     6a0:	02f487b3          	mul	a5,s1,a5
     6a4:	97d2                	add	a5,a5,s4
     6a6:	97ce                	add	a5,a5,s3
     6a8:	23d8                	lbu	a4,4(a5)
     6aa:	00d71563          	bne	a4,a3,6b4 <KM_AnalyzeConfigDesc+0x1ac>
     6ae:	577d                	li	a4,-1
     6b0:	04e78123          	sb	a4,66(a5)
     6b4:	0485                	addi	s1,s1,1
     6b6:	0ff4f493          	andi	s1,s1,255
     6ba:	bd95                	j	52e <KM_AnalyzeConfigDesc+0x26>
     6bc:	11000793          	li	a5,272
     6c0:	02f487b3          	mul	a5,s1,a5
     6c4:	577d                	li	a4,-1
     6c6:	97d2                	add	a5,a5,s4
     6c8:	97ce                	add	a5,a5,s3
     6ca:	a3d8                	sb	a4,4(a5)
     6cc:	008907b3          	add	a5,s2,s0
     6d0:	239c                	lbu	a5,0(a5)
     6d2:	943e                	add	s0,s0,a5
     6d4:	0442                	slli	s0,s0,0x10
     6d6:	8041                	srli	s0,s0,0x10
     6d8:	bff1                	j	6b4 <KM_AnalyzeConfigDesc+0x1ac>
     6da:	11000713          	li	a4,272
     6de:	02e484b3          	mul	s1,s1,a4
     6e2:	44400713          	li	a4,1092
     6e6:	200007b7          	lui	a5,0x20000
     6ea:	02ec0c33          	mul	s8,s8,a4
     6ee:	9c26                	add	s8,s8,s1
     6f0:	4a478493          	addi	s1,a5,1188 # 200004a4 <HostCtl>
     6f4:	94e2                	add	s1,s1,s8
     6f6:	57fd                	li	a5,-1
     6f8:	a0dc                	sb	a5,4(s1)
     6fa:	4501                	li	a0,0
     6fc:	b451                	j	180 <__riscv_restore_10>

000006fe <KM_AnalyzeHidReportDesc>:
     6fe:	8901c683          	lbu	a3,-1904(gp) # 20000090 <Com_Buf>
     702:	4795                	li	a5,5
     704:	18f69763          	bne	a3,a5,892 <__stack_size+0x92>
     708:	89018713          	addi	a4,gp,-1904 # 20000090 <Com_Buf>
     70c:	3314                	lbu	a3,1(a4)
     70e:	4785                	li	a5,1
     710:	18f69163          	bne	a3,a5,892 <__stack_size+0x92>
     714:	2334                	lbu	a3,2(a4)
     716:	47a5                	li	a5,9
     718:	16f69d63          	bne	a3,a5,892 <__stack_size+0x92>
     71c:	3334                	lbu	a3,3(a4)
     71e:	4799                	li	a5,6
     720:	16f69963          	bne	a3,a5,892 <__stack_size+0x92>
     724:	11000693          	li	a3,272
     728:	44400813          	li	a6,1092
     72c:	03050833          	mul	a6,a0,a6
     730:	200008b7          	lui	a7,0x20000
     734:	4a488613          	addi	a2,a7,1188 # 200004a4 <HostCtl>
     738:	1101                	addi	sp,sp,-32
     73a:	ce22                	sw	s0,28(sp)
     73c:	cc26                	sw	s1,24(sp)
     73e:	ca4a                	sw	s2,20(sp)
     740:	c84e                	sw	s3,16(sp)
     742:	c652                	sw	s4,12(sp)
     744:	c456                	sw	s5,8(sp)
     746:	02d586b3          	mul	a3,a1,a3
     74a:	c25a                	sw	s6,4(sp)
     74c:	c05e                	sw	s7,0(sp)
     74e:	4791                	li	a5,4
     750:	4301                	li	t1,0
     752:	4e81                	li	t4,0
     754:	4f01                	li	t5,0
     756:	4e01                	li	t3,0
     758:	4a488893          	addi	a7,a7,1188
     75c:	4411                	li	s0,4
     75e:	96c2                	add	a3,a3,a6
     760:	9636                	add	a2,a2,a3
     762:	00665383          	lhu	t2,6(a2)
     766:	4801                	li	a6,0
     768:	07000f93          	li	t6,112
     76c:	08000493          	li	s1,128
     770:	09000293          	li	t0,144
     774:	4921                	li	s2,8
     776:	49c1                	li	s3,16
     778:	02000a13          	li	s4,32
     77c:	4a85                	li	s5,1
     77e:	0477e063          	bltu	a5,t2,7be <KM_AnalyzeHidReportDesc+0xc0>
     782:	47a1                	li	a5,8
     784:	0ef31a63          	bne	t1,a5,878 <__stack_size+0x78>
     788:	11000793          	li	a5,272
     78c:	44400713          	li	a4,1092
     790:	02f587b3          	mul	a5,a1,a5
     794:	02e50733          	mul	a4,a0,a4
     798:	97ba                	add	a5,a5,a4
     79a:	00f885b3          	add	a1,a7,a5
     79e:	0425c783          	lbu	a5,66(a1)
     7a2:	e781                	bnez	a5,7aa <KM_AnalyzeHidReportDesc+0xac>
     7a4:	4785                	li	a5,1
     7a6:	04f58123          	sb	a5,66(a1)
     7aa:	4472                	lw	s0,28(sp)
     7ac:	44e2                	lw	s1,24(sp)
     7ae:	4952                	lw	s2,20(sp)
     7b0:	49c2                	lw	s3,16(sp)
     7b2:	4a32                	lw	s4,12(sp)
     7b4:	4aa2                	lw	s5,8(sp)
     7b6:	4b12                	lw	s6,4(sp)
     7b8:	4b82                	lw	s7,0(sp)
     7ba:	6105                	addi	sp,sp,32
     7bc:	8082                	ret
     7be:	00f706b3          	add	a3,a4,a5
     7c2:	2294                	lbu	a3,0(a3)
     7c4:	0785                	addi	a5,a5,1
     7c6:	07c2                	slli	a5,a5,0x10
     7c8:	00c6fb93          	andi	s7,a3,12
     7cc:	0036fb13          	andi	s6,a3,3
     7d0:	83c1                	srli	a5,a5,0x10
     7d2:	0f06f693          	andi	a3,a3,240
     7d6:	028b8d63          	beq	s7,s0,810 <__stack_size+0x10>
     7da:	072b8b63          	beq	s7,s2,850 <__stack_size+0x50>
     7de:	020b9563          	bnez	s7,808 <__stack_size+0x8>
     7e2:	02569363          	bne	a3,t0,808 <__stack_size+0x8>
     7e6:	02080163          	beqz	a6,808 <__stack_size+0x8>
     7ea:	03ee86b3          	mul	a3,t4,t5
     7ee:	9336                	add	t1,t1,a3
     7f0:	0342                	slli	t1,t1,0x10
     7f2:	01035313          	srli	t1,t1,0x10
     7f6:	000e0963          	beqz	t3,808 <__stack_size+0x8>
     7fa:	03e64683          	lbu	a3,62(a2)
     7fe:	e689                	bnez	a3,808 <__stack_size+0x8>
     800:	03560f23          	sb	s5,62(a2)
     804:	03c60fa3          	sb	t3,63(a2)
     808:	97da                	add	a5,a5,s6
     80a:	07c2                	slli	a5,a5,0x10
     80c:	83c1                	srli	a5,a5,0x10
     80e:	bf85                	j	77e <KM_AnalyzeHidReportDesc+0x80>
     810:	03f68b63          	beq	a3,t6,846 <__stack_size+0x46>
     814:	00dfeb63          	bltu	t6,a3,82a <__stack_size+0x2a>
     818:	fae5                	bnez	a3,808 <__stack_size+0x8>
     81a:	00f706b3          	add	a3,a4,a5
     81e:	0006c803          	lbu	a6,0(a3)
     822:	1861                	addi	a6,a6,-8
     824:	00183813          	seqz	a6,a6
     828:	b7c5                	j	808 <__stack_size+0x8>
     82a:	00968963          	beq	a3,s1,83c <__stack_size+0x3c>
     82e:	fc569de3          	bne	a3,t0,808 <__stack_size+0x8>
     832:	00f706b3          	add	a3,a4,a5
     836:	0006ce83          	lbu	t4,0(a3)
     83a:	b7f9                	j	808 <__stack_size+0x8>
     83c:	00f706b3          	add	a3,a4,a5
     840:	0006ce03          	lbu	t3,0(a3)
     844:	b7d1                	j	808 <__stack_size+0x8>
     846:	00f706b3          	add	a3,a4,a5
     84a:	0006cf03          	lbu	t5,0(a3)
     84e:	bf6d                	j	808 <__stack_size+0x8>
     850:	01368c63          	beq	a3,s3,868 <__stack_size+0x68>
     854:	fb469ae3          	bne	a3,s4,808 <__stack_size+0x8>
     858:	fa0808e3          	beqz	a6,808 <__stack_size+0x8>
     85c:	00f706b3          	add	a3,a4,a5
     860:	2294                	lbu	a3,0(a3)
     862:	04d600a3          	sb	a3,65(a2)
     866:	b74d                	j	808 <__stack_size+0x8>
     868:	fa0800e3          	beqz	a6,808 <__stack_size+0x8>
     86c:	00f706b3          	add	a3,a4,a5
     870:	2294                	lbu	a3,0(a3)
     872:	04d60023          	sb	a3,64(a2)
     876:	bf49                	j	808 <__stack_size+0x8>
     878:	11000793          	li	a5,272
     87c:	02f587b3          	mul	a5,a1,a5
     880:	44400593          	li	a1,1092
     884:	02b50533          	mul	a0,a0,a1
     888:	97aa                	add	a5,a5,a0
     88a:	97c6                	add	a5,a5,a7
     88c:	04078123          	sb	zero,66(a5)
     890:	bf29                	j	7aa <KM_AnalyzeHidReportDesc+0xac>
     892:	8082                	ret

00000894 <KM_DealHidReportDesc>:
     894:	8adff2ef          	jal	t0,140 <__riscv_save_12>
     898:	44400793          	li	a5,1092
     89c:	02f50bb3          	mul	s7,a0,a5
     8a0:	200004b7          	lui	s1,0x20000
     8a4:	4a448913          	addi	s2,s1,1188 # 200004a4 <HostCtl>
     8a8:	1141                	addi	sp,sp,-16
     8aa:	89aa                	mv	s3,a0
     8ac:	c42e                	sw	a1,8(sp)
     8ae:	4d81                	li	s11,0
     8b0:	4a448493          	addi	s1,s1,1188
     8b4:	11000a93          	li	s5,272
     8b8:	995e                	add	s2,s2,s7
     8ba:	00094d03          	lbu	s10,0(s2)
     8be:	8a5e                	mv	s4,s7
     8c0:	4c15                	li	s8,5
     8c2:	060d0c63          	beqz	s10,93a <KM_DealHidReportDesc+0xa6>
     8c6:	00094403          	lbu	s0,0(s2)
     8ca:	41a40433          	sub	s0,s0,s10
     8ce:	0ff47413          	andi	s0,s0,255
     8d2:	03540cb3          	mul	s9,s0,s5
     8d6:	014c8733          	add	a4,s9,s4
     8da:	9726                	add	a4,a4,s1
     8dc:	237a                	lhu	a4,6(a4)
     8de:	c731                	beqz	a4,92a <KM_DealHidReportDesc+0x96>
     8e0:	9cde                	add	s9,s9,s7
     8e2:	006c8713          	addi	a4,s9,6
     8e6:	9726                	add	a4,a4,s1
     8e8:	4522                	lw	a0,8(sp)
     8ea:	86ba                	mv	a3,a4
     8ec:	89018613          	addi	a2,gp,-1904 # 20000090 <Com_Buf>
     8f0:	85a2                	mv	a1,s0
     8f2:	c63a                	sw	a4,12(sp)
     8f4:	0d85                	addi	s11,s11,1
     8f6:	6be010ef          	jal	ra,1fb4 <HID_GetHidDesr>
     8fa:	0ffdfd93          	andi	s11,s11,255
     8fe:	4732                	lw	a4,12(sp)
     900:	e90d                	bnez	a0,932 <KM_DealHidReportDesc+0x9e>
     902:	85a2                	mv	a1,s0
     904:	03540433          	mul	s0,s0,s5
     908:	854e                	mv	a0,s3
     90a:	3bd5                	jal	6fe <KM_AnalyzeHidReportDesc>
     90c:	046c8613          	addi	a2,s9,70
     910:	9626                	add	a2,a2,s1
     912:	89018513          	addi	a0,gp,-1904 # 20000090 <Com_Buf>
     916:	9452                	add	s0,s0,s4
     918:	9426                	add	s0,s0,s1
     91a:	206e                	lhu	a1,6(s0)
     91c:	2ee010ef          	jal	ra,1c0a <parse_report_descriptor>
     920:	084c8513          	addi	a0,s9,132
     924:	9526                	add	a0,a0,s1
     926:	344020ef          	jal	ra,2c6a <FifoInit>
     92a:	1d7d                	addi	s10,s10,-1
     92c:	0ffd7d13          	andi	s10,s10,255
     930:	bf49                	j	8c2 <KM_DealHidReportDesc+0x2e>
     932:	fbbc7be3          	bgeu	s8,s11,8e8 <KM_DealHidReportDesc+0x54>
     936:	04800d13          	li	s10,72
     93a:	856a                	mv	a0,s10
     93c:	0141                	addi	sp,sp,16
     93e:	83fff06f          	j	17c <__riscv_restore_12>

00000942 <HUB_AnalyzeConfigDesc>:
     942:	44400713          	li	a4,1092
     946:	02e50533          	mul	a0,a0,a4
     94a:	89018793          	addi	a5,gp,-1904 # 20000090 <Com_Buf>
     94e:	33b0                	lbu	a2,3(a5)
     950:	23bc                	lbu	a5,2(a5)
     952:	200006b7          	lui	a3,0x20000
     956:	0622                	slli	a2,a2,0x8
     958:	4a468693          	addi	a3,a3,1188 # 200004a4 <HostCtl>
     95c:	963e                	add	a2,a2,a5
     95e:	89018593          	addi	a1,gp,-1904 # 20000090 <Com_Buf>
     962:	4781                	li	a5,0
     964:	4309                	li	t1,2
     966:	4811                	li	a6,4
     968:	4e25                	li	t3,9
     96a:	4e95                	li	t4,5
     96c:	9536                	add	a0,a0,a3
     96e:	4885                	li	a7,1
     970:	00c7c463          	blt	a5,a2,978 <HUB_AnalyzeConfigDesc+0x36>
     974:	4501                	li	a0,0
     976:	8082                	ret
     978:	00f58733          	add	a4,a1,a5
     97c:	00074f03          	lbu	t5,0(a4)
     980:	3314                	lbu	a3,1(a4)
     982:	97fa                	add	a5,a5,t5
     984:	07c2                	slli	a5,a5,0x10
     986:	83c1                	srli	a5,a5,0x10
     988:	00669a63          	bne	a3,t1,99c <HUB_AnalyzeConfigDesc+0x5a>
     98c:	2358                	lbu	a4,4(a4)
     98e:	00e8f563          	bgeu	a7,a4,998 <HUB_AnalyzeConfigDesc+0x56>
     992:	01150023          	sb	a7,0(a0)
     996:	bfe9                	j	970 <HUB_AnalyzeConfigDesc+0x2e>
     998:	a118                	sb	a4,0(a0)
     99a:	bfd9                	j	970 <HUB_AnalyzeConfigDesc+0x2e>
     99c:	fd069ae3          	bne	a3,a6,970 <HUB_AnalyzeConfigDesc+0x2e>
     9a0:	3358                	lbu	a4,5(a4)
     9a2:	fdc717e3          	bne	a4,t3,970 <HUB_AnalyzeConfigDesc+0x2e>
     9a6:	00f58733          	add	a4,a1,a5
     9aa:	3314                	lbu	a3,1(a4)
     9ac:	fd0682e3          	beq	a3,a6,970 <HUB_AnalyzeConfigDesc+0x2e>
     9b0:	fcc7d0e3          	bge	a5,a2,970 <HUB_AnalyzeConfigDesc+0x2e>
     9b4:	00074f03          	lbu	t5,0(a4)
     9b8:	97fa                	add	a5,a5,t5
     9ba:	07c2                	slli	a5,a5,0x10
     9bc:	83c1                	srli	a5,a5,0x10
     9be:	ffd694e3          	bne	a3,t4,9a6 <HUB_AnalyzeConfigDesc+0x64>
     9c2:	2334                	lbu	a3,2(a4)
     9c4:	01869f13          	slli	t5,a3,0x18
     9c8:	418f5f13          	srai	t5,t5,0x18
     9cc:	fc0f5de3          	bgez	t5,9a6 <HUB_AnalyzeConfigDesc+0x64>
     9d0:	8abd                	andi	a3,a3,15
     9d2:	b534                	sb	a3,11(a0)
     9d4:	3334                	lbu	a3,3(a4)
     9d6:	00474f03          	lbu	t5,4(a4)
     9da:	b574                	sb	a3,15(a0)
     9dc:	3354                	lbu	a3,5(a4)
     9de:	2378                	lbu	a4,6(a4)
     9e0:	06a2                	slli	a3,a3,0x8
     9e2:	02e50023          	sb	a4,32(a0)
     9e6:	2538                	lbu	a4,10(a0)
     9e8:	96fa                	add	a3,a3,t5
     9ea:	a956                	sh	a3,20(a0)
     9ec:	0705                	addi	a4,a4,1
     9ee:	a538                	sb	a4,10(a0)
     9f0:	bf5d                	j	9a6 <HUB_AnalyzeConfigDesc+0x64>

000009f2 <USBH_EnumHubDevice>:
     9f2:	f64ff2ef          	jal	t0,156 <__riscv_save_4>
     9f6:	20002437          	lui	s0,0x20002
     9fa:	9f840793          	addi	a5,s0,-1544 # 200019f8 <RootHubDev>
     9fe:	33c8                	lbu	a0,5(a5)
     a00:	1141                	addi	sp,sp,-16
     a02:	3781                	jal	942 <HUB_AnalyzeConfigDesc>
     a04:	892a                	mv	s2,a0
     a06:	ed55                	bnez	a0,ac2 <USBH_EnumHubDevice+0xd0>
     a08:	89018793          	addi	a5,gp,-1904 # 20000090 <Com_Buf>
     a0c:	23ec                	lbu	a1,6(a5)
     a0e:	9f840413          	addi	s0,s0,-1544
     a12:	89018a13          	addi	s4,gp,-1904 # 20000090 <Com_Buf>
     a16:	c591                	beqz	a1,a22 <USBH_EnumHubDevice+0x30>
     a18:	2048                	lbu	a0,4(s0)
     a1a:	89018613          	addi	a2,gp,-1904 # 20000090 <Com_Buf>
     a1e:	683000ef          	jal	ra,18a0 <USBFSH_GetStrDescr>
     a22:	c9018793          	addi	a5,gp,-880 # 20000490 <DevDesc_Buf>
     a26:	27ec                	lbu	a1,14(a5)
     a28:	c9018913          	addi	s2,gp,-880 # 20000490 <DevDesc_Buf>
     a2c:	c591                	beqz	a1,a38 <USBH_EnumHubDevice+0x46>
     a2e:	2048                	lbu	a0,4(s0)
     a30:	89018613          	addi	a2,gp,-1904 # 20000090 <Com_Buf>
     a34:	66d000ef          	jal	ra,18a0 <USBFSH_GetStrDescr>
     a38:	00f94583          	lbu	a1,15(s2)
     a3c:	c591                	beqz	a1,a48 <USBH_EnumHubDevice+0x56>
     a3e:	2048                	lbu	a0,4(s0)
     a40:	89018613          	addi	a2,gp,-1904 # 20000090 <Com_Buf>
     a44:	65d000ef          	jal	ra,18a0 <USBFSH_GetStrDescr>
     a48:	01094583          	lbu	a1,16(s2)
     a4c:	c591                	beqz	a1,a58 <USBH_EnumHubDevice+0x66>
     a4e:	2048                	lbu	a0,4(s0)
     a50:	89018613          	addi	a2,gp,-1904 # 20000090 <Com_Buf>
     a54:	64d000ef          	jal	ra,18a0 <USBFSH_GetStrDescr>
     a58:	4995                	li	s3,5
     a5a:	2048                	lbu	a0,4(s0)
     a5c:	00e10613          	addi	a2,sp,14
     a60:	89018593          	addi	a1,gp,-1904 # 20000090 <Com_Buf>
     a64:	65c010ef          	jal	ra,20c0 <HUB_GetClassDevDescr>
     a68:	892a                	mv	s2,a0
     a6a:	e529                	bnez	a0,ab4 <USBH_EnumHubDevice+0xc2>
     a6c:	002a4703          	lbu	a4,2(s4)
     a70:	4791                	li	a5,4
     a72:	02e7ef63          	bltu	a5,a4,ab0 <USBH_EnumHubDevice+0xbe>
     a76:	a078                	sb	a4,6(s0)
     a78:	4981                	li	s3,0
     a7a:	4485                	li	s1,1
     a7c:	4a11                	li	s4,4
     a7e:	207c                	lbu	a5,6(s0)
     a80:	0497e163          	bltu	a5,s1,ac2 <USBH_EnumHubDevice+0xd0>
     a84:	2048                	lbu	a0,4(s0)
     a86:	4621                	li	a2,8
     a88:	0ff4f593          	andi	a1,s1,255
     a8c:	60a010ef          	jal	ra,2096 <HUB_SetPortFeature>
     a90:	cd01                	beqz	a0,aa8 <USBH_EnumHubDevice+0xb6>
     a92:	14fd                	addi	s1,s1,-1
     a94:	0985                	addi	s3,s3,1
     a96:	4515                	li	a0,5
     a98:	04c2                	slli	s1,s1,0x10
     a9a:	0ff9f993          	andi	s3,s3,255
     a9e:	09b020ef          	jal	ra,3338 <Delay_Ms>
     aa2:	80c1                	srli	s1,s1,0x10
     aa4:	013a6d63          	bltu	s4,s3,abe <USBH_EnumHubDevice+0xcc>
     aa8:	0485                	addi	s1,s1,1
     aaa:	04c2                	slli	s1,s1,0x10
     aac:	80c1                	srli	s1,s1,0x10
     aae:	bfc1                	j	a7e <USBH_EnumHubDevice+0x8c>
     ab0:	a07c                	sb	a5,6(s0)
     ab2:	b7d9                	j	a78 <USBH_EnumHubDevice+0x86>
     ab4:	19fd                	addi	s3,s3,-1
     ab6:	0ff9f993          	andi	s3,s3,255
     aba:	fa0990e3          	bnez	s3,a5a <USBH_EnumHubDevice+0x68>
     abe:	0fe00913          	li	s2,254
     ac2:	854a                	mv	a0,s2
     ac4:	0141                	addi	sp,sp,16
     ac6:	ec4ff06f          	j	18a <__riscv_restore_4>

00000aca <HUB_Port_PreEnum1>:
     aca:	e8cff2ef          	jal	t0,156 <__riscv_save_4>
     ace:	219c                	lbu	a5,0(a1)
     ad0:	1141                	addi	sp,sp,-16
     ad2:	40a7d7b3          	sra	a5,a5,a0
     ad6:	8b85                	andi	a5,a5,1
     ad8:	c395                	beqz	a5,afc <HUB_Port_PreEnum1+0x32>
     ada:	20002937          	lui	s2,0x20002
     ade:	9f890793          	addi	a5,s2,-1544 # 200019f8 <RootHubDev>
     ae2:	85aa                	mv	a1,a0
     ae4:	84aa                	mv	s1,a0
     ae6:	23c8                	lbu	a0,4(a5)
     ae8:	0070                	addi	a2,sp,12
     aea:	9f890913          	addi	s2,s2,-1544
     aee:	54e010ef          	jal	ra,203c <HUB_GetPortStatus>
     af2:	842a                	mv	s0,a0
     af4:	e539                	bnez	a0,b42 <HUB_Port_PreEnum1+0x78>
     af6:	871c                	lbu	a5,14(sp)
     af8:	8b85                	andi	a5,a5,1
     afa:	e781                	bnez	a5,b02 <HUB_Port_PreEnum1+0x38>
     afc:	0fe00413          	li	s0,254
     b00:	a089                	j	b42 <HUB_Port_PreEnum1+0x78>
     b02:	00494503          	lbu	a0,4(s2)
     b06:	4641                	li	a2,16
     b08:	85a6                	mv	a1,s1
     b0a:	562010ef          	jal	ra,206c <HUB_ClearPortFeature>
     b0e:	842a                	mv	s0,a0
     b10:	e90d                	bnez	a0,b42 <HUB_Port_PreEnum1+0x78>
     b12:	49a9                	li	s3,10
     b14:	00494503          	lbu	a0,4(s2)
     b18:	0070                	addi	a2,sp,12
     b1a:	85a6                	mv	a1,s1
     b1c:	520010ef          	jal	ra,203c <HUB_GetPortStatus>
     b20:	e50d                	bnez	a0,b4a <HUB_Port_PreEnum1+0x80>
     b22:	871c                	lbu	a5,14(sp)
     b24:	0405                	addi	s0,s0,1
     b26:	0ff47413          	andi	s0,s0,255
     b2a:	8b85                	andi	a5,a5,1
     b2c:	c781                	beqz	a5,b34 <HUB_Port_PreEnum1+0x6a>
     b2e:	ff3413e3          	bne	s0,s3,b14 <HUB_Port_PreEnum1+0x4a>
     b32:	b7e9                	j	afc <HUB_Port_PreEnum1+0x32>
     b34:	47a9                	li	a5,10
     b36:	fcf403e3          	beq	s0,a5,afc <HUB_Port_PreEnum1+0x32>
     b3a:	861c                	lbu	a5,12(sp)
     b3c:	4459                	li	s0,22
     b3e:	8b85                	andi	a5,a5,1
     b40:	ffd5                	bnez	a5,afc <HUB_Port_PreEnum1+0x32>
     b42:	8522                	mv	a0,s0
     b44:	0141                	addi	sp,sp,16
     b46:	e44ff06f          	j	18a <__riscv_restore_4>
     b4a:	842a                	mv	s0,a0
     b4c:	bfdd                	j	b42 <HUB_Port_PreEnum1+0x78>

00000b4e <HUB_Port_PreEnum2>:
     b4e:	e08ff2ef          	jal	t0,156 <__riscv_save_4>
     b52:	219c                	lbu	a5,0(a1)
     b54:	1141                	addi	sp,sp,-16
     b56:	0fe00413          	li	s0,254
     b5a:	40a7d7b3          	sra	a5,a5,a0
     b5e:	8b85                	andi	a5,a5,1
     b60:	c7c1                	beqz	a5,be8 <HUB_Port_PreEnum2+0x9a>
     b62:	20002937          	lui	s2,0x20002
     b66:	9f890793          	addi	a5,s2,-1544 # 200019f8 <RootHubDev>
     b6a:	85aa                	mv	a1,a0
     b6c:	84aa                	mv	s1,a0
     b6e:	23c8                	lbu	a0,4(a5)
     b70:	4611                	li	a2,4
     b72:	9f890913          	addi	s2,s2,-1544
     b76:	520010ef          	jal	ra,2096 <HUB_SetPortFeature>
     b7a:	842a                	mv	s0,a0
     b7c:	e535                	bnez	a0,be8 <HUB_Port_PreEnum2+0x9a>
     b7e:	4529                	li	a0,10
     b80:	7b8020ef          	jal	ra,3338 <Delay_Ms>
     b84:	49ad                	li	s3,11
     b86:	00494503          	lbu	a0,4(s2)
     b8a:	0070                	addi	a2,sp,12
     b8c:	85a6                	mv	a1,s1
     b8e:	4ae010ef          	jal	ra,203c <HUB_GetPortStatus>
     b92:	e931                	bnez	a0,be6 <HUB_Port_PreEnum2+0x98>
     b94:	871c                	lbu	a5,14(sp)
     b96:	0405                	addi	s0,s0,1
     b98:	0ff47413          	andi	s0,s0,255
     b9c:	8bc1                	andi	a5,a5,16
     b9e:	ef9d                	bnez	a5,bdc <HUB_Port_PreEnum2+0x8e>
     ba0:	ff3413e3          	bne	s0,s3,b86 <HUB_Port_PreEnum2+0x38>
     ba4:	00494503          	lbu	a0,4(s2)
     ba8:	4651                	li	a2,20
     baa:	85a6                	mv	a1,s1
     bac:	4c0010ef          	jal	ra,206c <HUB_ClearPortFeature>
     bb0:	4401                	li	s0,0
     bb2:	49ad                	li	s3,11
     bb4:	00494503          	lbu	a0,4(s2)
     bb8:	0070                	addi	a2,sp,12
     bba:	85a6                	mv	a1,s1
     bbc:	480010ef          	jal	ra,203c <HUB_GetPortStatus>
     bc0:	e11d                	bnez	a0,be6 <HUB_Port_PreEnum2+0x98>
     bc2:	871c                	lbu	a5,14(sp)
     bc4:	0405                	addi	s0,s0,1
     bc6:	0ff47413          	andi	s0,s0,255
     bca:	8bc1                	andi	a5,a5,16
     bcc:	c395                	beqz	a5,bf0 <HUB_Port_PreEnum2+0xa2>
     bce:	ff3413e3          	bne	s0,s3,bb4 <HUB_Port_PreEnum2+0x66>
     bd2:	861c                	lbu	a5,12(sp)
     bd4:	8b85                	andi	a5,a5,1
     bd6:	c791                	beqz	a5,be2 <HUB_Port_PreEnum2+0x94>
     bd8:	4555                	li	a0,21
     bda:	a031                	j	be6 <HUB_Port_PreEnum2+0x98>
     bdc:	47a9                	li	a5,10
     bde:	fcf413e3          	bne	s0,a5,ba4 <HUB_Port_PreEnum2+0x56>
     be2:	0fe00513          	li	a0,254
     be6:	842a                	mv	s0,a0
     be8:	8522                	mv	a0,s0
     bea:	0141                	addi	sp,sp,16
     bec:	d9eff06f          	j	18a <__riscv_restore_4>
     bf0:	47a9                	li	a5,10
     bf2:	fef408e3          	beq	s0,a5,be2 <HUB_Port_PreEnum2+0x94>
     bf6:	bff1                	j	bd2 <HUB_Port_PreEnum2+0x84>

00000bf8 <HUB_CheckPortSpeed>:
     bf8:	d78ff2ef          	jal	t0,170 <__riscv_save_0>
     bfc:	200027b7          	lui	a5,0x20002
     c00:	842e                	mv	s0,a1
     c02:	862e                	mv	a2,a1
     c04:	85aa                	mv	a1,a0
     c06:	9fc7c503          	lbu	a0,-1540(a5) # 200019fc <RootHubDev+0x4>
     c0a:	432010ef          	jal	ra,203c <HUB_GetPortStatus>
     c0e:	e911                	bnez	a0,c22 <HUB_CheckPortSpeed+0x2a>
     c10:	301c                	lbu	a5,1(s0)
     c12:	0027f713          	andi	a4,a5,2
     c16:	e711                	bnez	a4,c22 <HUB_CheckPortSpeed+0x2a>
     c18:	0047f513          	andi	a0,a5,4
     c1c:	00a03533          	snez	a0,a0
     c20:	0505                	addi	a0,a0,1
     c22:	d72ff06f          	j	194 <__riscv_restore_0>

00000c26 <USBH_EnumHubPortDevice>:
     c26:	d22ff2ef          	jal	t0,148 <__riscv_save_10>
     c2a:	4799                	li	a5,6
     c2c:	02f507b3          	mul	a5,a0,a5
     c30:	20002437          	lui	s0,0x20002
     c34:	9f840913          	addi	s2,s0,-1544 # 200019f8 <RootHubDev>
     c38:	1141                	addi	sp,sp,-16
     c3a:	89aa                	mv	s3,a0
     c3c:	8b2e                	mv	s6,a1
     c3e:	8a32                	mv	s4,a2
     c40:	44a9                	li	s1,10
     c42:	9f840413          	addi	s0,s0,-1544
     c46:	07ad                	addi	a5,a5,11
     c48:	993e                	add	s2,s2,a5
     c4a:	8ade                	mv	s5,s7
     c4c:	c9018593          	addi	a1,gp,-880 # 20000490 <DevDesc_Buf>
     c50:	854a                	mv	a0,s2
     c52:	3a1000ef          	jal	ra,17f2 <USBFSH_GetDeviceDescr>
     c56:	c911                	beqz	a0,c6a <USBH_EnumHubPortDevice+0x44>
     c58:	14fd                	addi	s1,s1,-1
     c5a:	0ff4f493          	andi	s1,s1,255
     c5e:	f4fd                	bnez	s1,c4c <USBH_EnumHubPortDevice+0x26>
     c60:	04500513          	li	a0,69
     c64:	0141                	addi	sp,sp,16
     c66:	d1aff06f          	j	180 <__riscv_restore_10>
     c6a:	4499                	li	s1,6
     c6c:	029984b3          	mul	s1,s3,s1
     c70:	4929                	li	s2,10
     c72:	94a2                	add	s1,s1,s0
     c74:	24cc                	lbu	a1,12(s1)
     c76:	34a8                	lbu	a0,11(s1)
     c78:	0589                	addi	a1,a1,2
     c7a:	0ff5f593          	andi	a1,a1,255
     c7e:	47d000ef          	jal	ra,18fa <USBFSH_SetUsbAddress>
     c82:	e13d                	bnez	a0,ce8 <USBH_EnumHubPortDevice+0xc2>
     c84:	4919                	li	s2,6
     c86:	03298933          	mul	s2,s3,s2
     c8a:	24dc                	lbu	a5,12(s1)
     c8c:	4515                	li	a0,5
     c8e:	0789                	addi	a5,a5,2
     c90:	00fb0023          	sb	a5,0(s6)
     c94:	6a4020ef          	jal	ra,3338 <Delay_Ms>
     c98:	44a9                	li	s1,10
     c9a:	89018b13          	addi	s6,gp,-1904 # 20000090 <Com_Buf>
     c9e:	9922                	add	s2,s2,s0
     ca0:	00b94503          	lbu	a0,11(s2)
     ca4:	00e10693          	addi	a3,sp,14
     ca8:	40000613          	li	a2,1024
     cac:	85da                	mv	a1,s6
     cae:	387000ef          	jal	ra,1834 <USBFSH_GetConfigDescr>
     cb2:	e139                	bnez	a0,cf8 <USBH_EnumHubPortDevice+0xd2>
     cb4:	8652                	mv	a2,s4
     cb6:	89018593          	addi	a1,gp,-1904 # 20000090 <Com_Buf>
     cba:	c9018513          	addi	a0,gp,-880 # 20000490 <DevDesc_Buf>
     cbe:	005b4903          	lbu	s2,5(s6)
     cc2:	f0cff0ef          	jal	ra,3ce <USBH_AnalyseType>
     cc6:	4799                	li	a5,6
     cc8:	02f989b3          	mul	s3,s3,a5
     ccc:	44a9                	li	s1,10
     cce:	944e                	add	s0,s0,s3
     cd0:	3428                	lbu	a0,11(s0)
     cd2:	85ca                	mv	a1,s2
     cd4:	45d000ef          	jal	ra,1930 <USBFSH_SetUsbConfig>
     cd8:	d551                	beqz	a0,c64 <USBH_EnumHubPortDevice+0x3e>
     cda:	14fd                	addi	s1,s1,-1
     cdc:	0ff4f493          	andi	s1,s1,255
     ce0:	f8e5                	bnez	s1,cd0 <USBH_EnumHubPortDevice+0xaa>
     ce2:	04900513          	li	a0,73
     ce6:	bfbd                	j	c64 <USBH_EnumHubPortDevice+0x3e>
     ce8:	197d                	addi	s2,s2,-1
     cea:	0ff97913          	andi	s2,s2,255
     cee:	f80913e3          	bnez	s2,c74 <USBH_EnumHubPortDevice+0x4e>
     cf2:	04600513          	li	a0,70
     cf6:	b7bd                	j	c64 <USBH_EnumHubPortDevice+0x3e>
     cf8:	14fd                	addi	s1,s1,-1
     cfa:	0ff4f493          	andi	s1,s1,255
     cfe:	f0cd                	bnez	s1,ca0 <USBH_EnumHubPortDevice+0x7a>
     d00:	b785                	j	c60 <USBH_EnumHubPortDevice+0x3a>

00000d02 <KB_AnalyzeKeyValue>:
     d02:	c3eff2ef          	jal	t0,140 <__riscv_save_12>
     d06:	11000d13          	li	s10,272
     d0a:	03a58d33          	mul	s10,a1,s10
     d0e:	44400593          	li	a1,1092
     d12:	200007b7          	lui	a5,0x20000
     d16:	8932                	mv	s2,a2
     d18:	8c36                	mv	s8,a3
     d1a:	4985                	li	s3,1
     d1c:	4b09                	li	s6,2
     d1e:	4b8d                	li	s7,3
     d20:	02b50533          	mul	a0,a0,a1
     d24:	956a                	add	a0,a0,s10
     d26:	4a478d13          	addi	s10,a5,1188 # 200004a4 <HostCtl>
     d2a:	9d2a                	add	s10,s10,a0
     d2c:	040d4a03          	lbu	s4,64(s10)
     d30:	043d4483          	lbu	s1,67(s10)
     d34:	041d4a83          	lbu	s5,65(s10)
     d38:	8dd2                	mv	s11,s4
     d3a:	414d8433          	sub	s0,s11,s4
     d3e:	0ff47413          	andi	s0,s0,255
     d42:	043d4c83          	lbu	s9,67(s10)
     d46:	01bafa63          	bgeu	s5,s11,d5a <KB_AnalyzeKeyValue+0x58>
     d4a:	41948433          	sub	s0,s1,s9
     d4e:	00803433          	snez	s0,s0
     d52:	048d0223          	sb	s0,68(s10)
     d56:	c26ff06f          	j	17c <__riscv_restore_12>
     d5a:	013d9f63          	bne	s11,s3,d78 <KB_AnalyzeKeyValue+0x76>
     d5e:	8662                	mv	a2,s8
     d60:	05300593          	li	a1,83
     d64:	854a                	mv	a0,s2
     d66:	608020ef          	jal	ra,336e <memchr>
     d6a:	008d9433          	sll	s0,s11,s0
     d6e:	e105                	bnez	a0,d8e <KB_AnalyzeKeyValue+0x8c>
     d70:	0d85                	addi	s11,s11,1
     d72:	0ffdfd93          	andi	s11,s11,255
     d76:	b7d1                	j	d3a <KB_AnalyzeKeyValue+0x38>
     d78:	036d9063          	bne	s11,s6,d98 <KB_AnalyzeKeyValue+0x96>
     d7c:	8662                	mv	a2,s8
     d7e:	03900593          	li	a1,57
     d82:	854a                	mv	a0,s2
     d84:	5ea020ef          	jal	ra,336e <memchr>
     d88:	d565                	beqz	a0,d70 <KB_AnalyzeKeyValue+0x6e>
     d8a:	00899433          	sll	s0,s3,s0
     d8e:	01944433          	xor	s0,s0,s9
     d92:	048d01a3          	sb	s0,67(s10)
     d96:	bfe9                	j	d70 <KB_AnalyzeKeyValue+0x6e>
     d98:	fd7d9ce3          	bne	s11,s7,d70 <KB_AnalyzeKeyValue+0x6e>
     d9c:	8662                	mv	a2,s8
     d9e:	04700593          	li	a1,71
     da2:	b7c5                	j	d82 <KB_AnalyzeKeyValue+0x80>

00000da4 <KB_SetReport>:
     da4:	bccff2ef          	jal	t0,170 <__riscv_save_0>
     da8:	86aa                	mv	a3,a0
     daa:	44400813          	li	a6,1092
     dae:	852e                	mv	a0,a1
     db0:	85b2                	mv	a1,a2
     db2:	11000613          	li	a2,272
     db6:	03068833          	mul	a6,a3,a6
     dba:	20000737          	lui	a4,0x20000
     dbe:	4a470793          	addi	a5,a4,1188 # 200004a4 <HostCtl>
     dc2:	1141                	addi	sp,sp,-16
     dc4:	4a470713          	addi	a4,a4,1188
     dc8:	02c58633          	mul	a2,a1,a2
     dcc:	9642                	add	a2,a2,a6
     dce:	97b2                	add	a5,a5,a2
     dd0:	03e7c803          	lbu	a6,62(a5)
     dd4:	0437c603          	lbu	a2,67(a5)
     dd8:	04080063          	beqz	a6,e18 <KB_SetReport+0x74>
     ddc:	03f7c783          	lbu	a5,63(a5)
     de0:	86d0                	sb	a2,13(sp)
     de2:	865c                	sb	a5,12(sp)
     de4:	4789                	li	a5,2
     de6:	44400613          	li	a2,1092
     dea:	877c                	sh	a5,14(sp)
     dec:	11000793          	li	a5,272
     df0:	02c686b3          	mul	a3,a3,a2
     df4:	4885                	li	a7,1
     df6:	02f587b3          	mul	a5,a1,a5
     dfa:	00d78833          	add	a6,a5,a3
     dfe:	983a                	add	a6,a6,a4
     e00:	04284603          	lbu	a2,66(a6)
     e04:	01161d63          	bne	a2,a7,e1e <KB_SetReport+0x7a>
     e08:	00e10693          	addi	a3,sp,14
     e0c:	0070                	addi	a2,sp,12
     e0e:	1d4010ef          	jal	ra,1fe2 <HID_SetReport>
     e12:	0141                	addi	sp,sp,16
     e14:	b80ff06f          	j	194 <__riscv_restore_0>
     e18:	8650                	sb	a2,12(sp)
     e1a:	4785                	li	a5,1
     e1c:	b7e9                	j	de6 <KB_SetReport+0x42>
     e1e:	0ff00593          	li	a1,255
     e22:	4501                	li	a0,0
     e24:	feb617e3          	bne	a2,a1,e12 <KB_SetReport+0x6e>
     e28:	03a78793          	addi	a5,a5,58
     e2c:	97b6                	add	a5,a5,a3
     e2e:	02984503          	lbu	a0,41(a6)
     e32:	8734                	lhu	a3,14(sp)
     e34:	0070                	addi	a2,sp,12
     e36:	00f705b3          	add	a1,a4,a5
     e3a:	385000ef          	jal	ra,19be <USBFSH_SendEndpData>
     e3e:	bfd1                	j	e12 <KB_SetReport+0x6e>

00000e40 <USBH_EnumHidDevice>:
     e40:	b08ff2ef          	jal	t0,148 <__riscv_save_10>
     e44:	89aa                	mv	s3,a0
     e46:	84ae                	mv	s1,a1
     e48:	ec0ff0ef          	jal	ra,508 <KM_AnalyzeConfigDesc>
     e4c:	8a2a                	mv	s4,a0
     e4e:	e935                	bnez	a0,ec2 <USBH_EnumHidDevice+0x82>
     e50:	89018793          	addi	a5,gp,-1904 # 20000090 <Com_Buf>
     e54:	23ec                	lbu	a1,6(a5)
     e56:	c591                	beqz	a1,e62 <USBH_EnumHidDevice+0x22>
     e58:	89018613          	addi	a2,gp,-1904 # 20000090 <Com_Buf>
     e5c:	8526                	mv	a0,s1
     e5e:	243000ef          	jal	ra,18a0 <USBFSH_GetStrDescr>
     e62:	85a6                	mv	a1,s1
     e64:	854e                	mv	a0,s3
     e66:	343d                	jal	894 <KM_DealHidReportDesc>
     e68:	c9018793          	addi	a5,gp,-880 # 20000490 <DevDesc_Buf>
     e6c:	27ec                	lbu	a1,14(a5)
     e6e:	c9018913          	addi	s2,gp,-880 # 20000490 <DevDesc_Buf>
     e72:	c591                	beqz	a1,e7e <USBH_EnumHidDevice+0x3e>
     e74:	89018613          	addi	a2,gp,-1904 # 20000090 <Com_Buf>
     e78:	8526                	mv	a0,s1
     e7a:	227000ef          	jal	ra,18a0 <USBFSH_GetStrDescr>
     e7e:	00f94583          	lbu	a1,15(s2)
     e82:	c591                	beqz	a1,e8e <USBH_EnumHidDevice+0x4e>
     e84:	89018613          	addi	a2,gp,-1904 # 20000090 <Com_Buf>
     e88:	8526                	mv	a0,s1
     e8a:	217000ef          	jal	ra,18a0 <USBFSH_GetStrDescr>
     e8e:	01094583          	lbu	a1,16(s2)
     e92:	c591                	beqz	a1,e9e <USBH_EnumHidDevice+0x5e>
     e94:	89018613          	addi	a2,gp,-1904 # 20000090 <Com_Buf>
     e98:	8526                	mv	a0,s1
     e9a:	207000ef          	jal	ra,18a0 <USBFSH_GetStrDescr>
     e9e:	44400913          	li	s2,1092
     ea2:	03298933          	mul	s2,s3,s2
     ea6:	20000ab7          	lui	s5,0x20000
     eaa:	4a4a8a93          	addi	s5,s5,1188 # 200004a4 <HostCtl>
     eae:	4401                	li	s0,0
     eb0:	11000b93          	li	s7,272
     eb4:	4c05                	li	s8,1
     eb6:	01590b33          	add	s6,s2,s5
     eba:	000b4783          	lbu	a5,0(s6)
     ebe:	00f46563          	bltu	s0,a5,ec8 <USBH_EnumHidDevice+0x88>
     ec2:	8552                	mv	a0,s4
     ec4:	abcff06f          	j	180 <__riscv_restore_10>
     ec8:	037407b3          	mul	a5,s0,s7
     ecc:	97ca                	add	a5,a5,s2
     ece:	97d6                	add	a5,a5,s5
     ed0:	23d8                	lbu	a4,4(a5)
     ed2:	01871863          	bne	a4,s8,ee2 <USBH_EnumHidDevice+0xa2>
     ed6:	040781a3          	sb	zero,67(a5)
     eda:	8622                	mv	a2,s0
     edc:	85a6                	mv	a1,s1
     ede:	854e                	mv	a0,s3
     ee0:	35d1                	jal	da4 <KB_SetReport>
     ee2:	0405                	addi	s0,s0,1
     ee4:	0ff47413          	andi	s0,s0,255
     ee8:	bfc9                	j	eba <USBH_EnumHidDevice+0x7a>

00000eea <USBH_MainDeal>:
     eea:	a56ff2ef          	jal	t0,140 <__riscv_save_12>
     eee:	20002bb7          	lui	s7,0x20002
     ef2:	9f8bc503          	lbu	a0,-1544(s7) # 200019f8 <RootHubDev>
     ef6:	7179                	addi	sp,sp,-48
     ef8:	9f8b8413          	addi	s0,s7,-1544
     efc:	2ba1                	jal	1454 <USBFSH_CheckRootHubPortStatus>
     efe:	4705                	li	a4,1
     f00:	8d2a                	mv	s10,a0
     f02:	0ae51863          	bne	a0,a4,fb2 <USBH_MainDeal+0xc8>
     f06:	a008                	sb	a0,0(s0)
     f08:	000402a3          	sb	zero,5(s0)
     f0c:	d04ff0ef          	jal	ra,410 <USBH_EnumRootDevice>
     f10:	8d2a                	mv	s10,a0
     f12:	e959                	bnez	a0,fa8 <USBH_MainDeal+0xbe>
     f14:	3018                	lbu	a4,1(s0)
     f16:	468d                	li	a3,3
     f18:	00d71963          	bne	a4,a3,f2a <USBH_MainDeal+0x40>
     f1c:	204c                	lbu	a1,4(s0)
     f1e:	3048                	lbu	a0,5(s0)
     f20:	3705                	jal	e40 <USBH_EnumHidDevice>
     f22:	e909                	bnez	a0,f34 <USBH_MainDeal+0x4a>
     f24:	470d                	li	a4,3
     f26:	a018                	sb	a4,0(s0)
     f28:	a829                	j	f42 <USBH_MainDeal+0x58>
     f2a:	46a5                	li	a3,9
     f2c:	fed71ce3          	bne	a4,a3,f24 <USBH_MainDeal+0x3a>
     f30:	34c9                	jal	9f2 <USBH_EnumHubDevice>
     f32:	bfc5                	j	f22 <USBH_MainDeal+0x38>
     f34:	4759                	li	a4,22
     f36:	4d59                	li	s10,22
     f38:	00e50563          	beq	a0,a4,f42 <USBH_MainDeal+0x58>
     f3c:	4789                	li	a5,2
     f3e:	a01c                	sb	a5,0(s0)
     f40:	8d2a                	mv	s10,a0
     f42:	2014                	lbu	a3,0(s0)
     f44:	4709                	li	a4,2
     f46:	1cd77c63          	bgeu	a4,a3,111e <USBH_MainDeal+0x234>
     f4a:	3018                	lbu	a4,1(s0)
     f4c:	468d                	li	a3,3
     f4e:	3044                	lbu	s1,5(s0)
     f50:	18d71f63          	bne	a4,a3,10ee <USBH_MainDeal+0x204>
     f54:	44400b13          	li	s6,1092
     f58:	03648b33          	mul	s6,s1,s6
     f5c:	20000ab7          	lui	s5,0x20000
     f60:	4a4a8c13          	addi	s8,s5,1188 # 200004a4 <HostCtl>
     f64:	4901                	li	s2,0
     f66:	4a4a8a93          	addi	s5,s5,1188
     f6a:	018b07b3          	add	a5,s6,s8
     f6e:	c63e                	sw	a5,12(sp)
     f70:	8cbe                	mv	s9,a5
     f72:	01cb0793          	addi	a5,s6,28
     f76:	ca5a                	sw	s6,20(sp)
     f78:	ce3e                	sw	a5,28(sp)
     f7a:	000cc703          	lbu	a4,0(s9)
     f7e:	1ae97063          	bgeu	s2,a4,111e <USBH_MainDeal+0x234>
     f82:	11000713          	li	a4,272
     f86:	02e90733          	mul	a4,s2,a4
     f8a:	084b0693          	addi	a3,s6,132
     f8e:	4a01                	li	s4,0
     f90:	96ba                	add	a3,a3,a4
     f92:	00da87b3          	add	a5,s5,a3
     f96:	c83e                	sw	a5,16(sp)
     f98:	47d2                	lw	a5,20(sp)
     f9a:	00f709b3          	add	s3,a4,a5
     f9e:	47f2                	lw	a5,28(sp)
     fa0:	99d6                	add	s3,s3,s5
     fa2:	97ba                	add	a5,a5,a4
     fa4:	cc3e                	sw	a5,24(sp)
     fa6:	a075                	j	1052 <USBH_MainDeal+0x168>
     fa8:	4759                	li	a4,22
     faa:	f8e50ce3          	beq	a0,a4,f42 <USBH_MainDeal+0x58>
     fae:	4709                	li	a4,2
     fb0:	bf9d                	j	f26 <USBH_MainDeal+0x3c>
     fb2:	f941                	bnez	a0,f42 <USBH_MainDeal+0x58>
     fb4:	3044                	lbu	s1,5(s0)
     fb6:	467d                	li	a2,31
     fb8:	4581                	li	a1,0
     fba:	9f8b8513          	addi	a0,s7,-1544
     fbe:	9e2ff0ef          	jal	ra,1a0 <memset>
     fc2:	44400513          	li	a0,1092
     fc6:	02a484b3          	mul	s1,s1,a0
     fca:	20000537          	lui	a0,0x20000
     fce:	4a450513          	addi	a0,a0,1188 # 200004a4 <HostCtl>
     fd2:	44400613          	li	a2,1092
     fd6:	4581                	li	a1,0
     fd8:	9526                	add	a0,a0,s1
     fda:	9c6ff0ef          	jal	ra,1a0 <memset>
     fde:	b795                	j	f42 <USBH_MainDeal+0x58>
     fe0:	01498c33          	add	s8,s3,s4
     fe4:	024c4683          	lbu	a3,36(s8)
     fe8:	020c4603          	lbu	a2,32(s8)
     fec:	06c6e063          	bltu	a3,a2,104c <USBH_MainDeal+0x162>
     ff0:	02c6f6b3          	remu	a3,a3,a2
     ff4:	47e2                	lw	a5,24(sp)
     ff6:	00bc4503          	lbu	a0,11(s8)
     ffa:	89018613          	addi	a2,gp,-1904 # 20000090 <Com_Buf>
     ffe:	014785b3          	add	a1,a5,s4
    1002:	95d6                	add	a1,a1,s5
    1004:	02dc0223          	sb	a3,36(s8)
    1008:	02e10693          	addi	a3,sp,46
    100c:	16d000ef          	jal	ra,1978 <USBFSH_GetEndpData>
    1010:	8d2a                	mv	s10,a0
    1012:	e939                	bnez	a0,1068 <USBH_MainDeal+0x17e>
    1014:	02e15603          	lhu	a2,46(sp)
    1018:	4542                	lw	a0,16(sp)
    101a:	89018593          	addi	a1,gp,-1904 # 20000090 <Com_Buf>
    101e:	10c98823          	sb	a2,272(s3)
    1022:	4b1010ef          	jal	ra,2cd2 <FifoWrite>
    1026:	0049c683          	lbu	a3,4(s3)
    102a:	4705                	li	a4,1
    102c:	02e69063          	bne	a3,a4,104c <USBH_MainDeal+0x162>
    1030:	02e15683          	lhu	a3,46(sp)
    1034:	89018613          	addi	a2,gp,-1904 # 20000090 <Com_Buf>
    1038:	85ca                	mv	a1,s2
    103a:	8526                	mv	a0,s1
    103c:	31d9                	jal	d02 <KB_AnalyzeKeyValue>
    103e:	0449c703          	lbu	a4,68(s3)
    1042:	c709                	beqz	a4,104c <USBH_MainDeal+0x162>
    1044:	204c                	lbu	a1,4(s0)
    1046:	864a                	mv	a2,s2
    1048:	8526                	mv	a0,s1
    104a:	3ba9                	jal	da4 <KB_SetReport>
    104c:	0a05                	addi	s4,s4,1
    104e:	0ffa7a13          	andi	s4,s4,255
    1052:	00a9c703          	lbu	a4,10(s3)
    1056:	f8ea65e3          	bltu	s4,a4,fe0 <USBH_MainDeal+0xf6>
    105a:	4759                	li	a4,22
    105c:	0ced0163          	beq	s10,a4,111e <USBH_MainDeal+0x234>
    1060:	0905                	addi	s2,s2,1
    1062:	0ff97913          	andi	s2,s2,255
    1066:	bf11                	j	f7a <USBH_MainDeal+0x90>
    1068:	47d9                	li	a5,22
    106a:	0af50a63          	beq	a0,a5,111e <USBH_MainDeal+0x234>
    106e:	02e00693          	li	a3,46
    1072:	fcd51de3          	bne	a0,a3,104c <USBH_MainDeal+0x162>
    1076:	00bc4583          	lbu	a1,11(s8)
    107a:	2048                	lbu	a0,4(s0)
    107c:	0805e593          	ori	a1,a1,128
    1080:	0d5000ef          	jal	ra,1954 <USBFSH_ClearEndpStall>
    1084:	001cc683          	lbu	a3,1(s9)
    1088:	000c0e23          	sb	zero,28(s8)
    108c:	4625                	li	a2,9
    108e:	0685                	addi	a3,a3,1
    1090:	0ff6f693          	andi	a3,a3,255
    1094:	00dc80a3          	sb	a3,1(s9)
    1098:	fad67ae3          	bgeu	a2,a3,104c <USBH_MainDeal+0x162>
    109c:	467d                	li	a2,31
    109e:	4581                	li	a1,0
    10a0:	9f8b8513          	addi	a0,s7,-1544
    10a4:	8fcff0ef          	jal	ra,1a0 <memset>
    10a8:	b68ff0ef          	jal	ra,410 <USBH_EnumRootDevice>
    10ac:	8d2a                	mv	s10,a0
    10ae:	e915                	bnez	a0,10e2 <USBH_MainDeal+0x1f8>
    10b0:	00bc4583          	lbu	a1,11(s8)
    10b4:	2048                	lbu	a0,4(s0)
    10b6:	0805e593          	ori	a1,a1,128
    10ba:	09b000ef          	jal	ra,1954 <USBFSH_ClearEndpStall>
    10be:	4532                	lw	a0,12(sp)
    10c0:	4785                	li	a5,1
    10c2:	44400613          	li	a2,1092
    10c6:	4581                	li	a1,0
    10c8:	000c80a3          	sb	zero,1(s9)
    10cc:	a01c                	sb	a5,0(s0)
    10ce:	000402a3          	sb	zero,5(s0)
    10d2:	8ceff0ef          	jal	ra,1a0 <memset>
    10d6:	204c                	lbu	a1,4(s0)
    10d8:	8526                	mv	a0,s1
    10da:	339d                	jal	e40 <USBH_EnumHidDevice>
    10dc:	8d2a                	mv	s10,a0
    10de:	470d                	li	a4,3
    10e0:	c509                	beqz	a0,10ea <USBH_MainDeal+0x200>
    10e2:	47d9                	li	a5,22
    10e4:	f6fd04e3          	beq	s10,a5,104c <USBH_MainDeal+0x162>
    10e8:	4709                	li	a4,2
    10ea:	a018                	sb	a4,0(s0)
    10ec:	b785                	j	104c <USBH_MainDeal+0x162>
    10ee:	46a5                	li	a3,9
    10f0:	02d71763          	bne	a4,a3,111e <USBH_MainDeal+0x234>
    10f4:	44400993          	li	s3,1092
    10f8:	033489b3          	mul	s3,s1,s3
    10fc:	20000937          	lui	s2,0x20000
    1100:	4a490a13          	addi	s4,s2,1188 # 200004a4 <HostCtl>
    1104:	4a490913          	addi	s2,s2,1188
    1108:	9a4e                	add	s4,s4,s3
    110a:	024a4703          	lbu	a4,36(s4)
    110e:	020a4683          	lbu	a3,32(s4)
    1112:	00d77963          	bgeu	a4,a3,1124 <USBH_MainDeal+0x23a>
    1116:	4b01                	li	s6,0
    1118:	2078                	lbu	a4,6(s0)
    111a:	16eb6563          	bltu	s6,a4,1284 <USBH_MainDeal+0x39a>
    111e:	6145                	addi	sp,sp,48
    1120:	85cff06f          	j	17c <__riscv_restore_12>
    1124:	02d77733          	remu	a4,a4,a3
    1128:	2028                	lbu	a0,2(s0)
    112a:	89018a93          	addi	s5,gp,-1904 # 20000090 <Com_Buf>
    112e:	02ea0223          	sb	a4,36(s4)
    1132:	2685                	jal	1492 <USBFSH_SetSelfAddr>
    1134:	3028                	lbu	a0,3(s0)
    1136:	2e85                	jal	14a6 <USBFSH_SetSelfSpeed>
    1138:	00ba4503          	lbu	a0,11(s4)
    113c:	01c98593          	addi	a1,s3,28
    1140:	02e10693          	addi	a3,sp,46
    1144:	89018613          	addi	a2,gp,-1904 # 20000090 <Com_Buf>
    1148:	95ca                	add	a1,a1,s2
    114a:	02f000ef          	jal	ra,1978 <USBFSH_GetEndpData>
    114e:	8d2a                	mv	s10,a0
    1150:	f179                	bnez	a0,1116 <USBH_MainDeal+0x22c>
    1152:	000ac703          	lbu	a4,0(s5)
    1156:	4c01                	li	s8,0
    1158:	4cd5                	li	s9,21
    115a:	02e106a3          	sb	a4,45(sp)
    115e:	4999                	li	s3,6
    1160:	4a8d                	li	s5,3
    1162:	50000bb7          	lui	s7,0x50000
    1166:	4b05                	li	s6,1
    1168:	2074                	lbu	a3,6(s0)
    116a:	fadc76e3          	bgeu	s8,a3,1116 <USBH_MainDeal+0x22c>
    116e:	001c0d93          	addi	s11,s8,1
    1172:	0ffdfa13          	andi	s4,s11,255
    1176:	02d10593          	addi	a1,sp,45
    117a:	8552                	mv	a0,s4
    117c:	94fff0ef          	jal	ra,aca <HUB_Port_PreEnum1>
    1180:	47d9                	li	a5,22
    1182:	8d2a                	mv	s10,a0
    1184:	04f51463          	bne	a0,a5,11cc <USBH_MainDeal+0x2e2>
    1188:	033c0c33          	mul	s8,s8,s3
    118c:	02d14683          	lbu	a3,45(sp)
    1190:	01bb1db3          	sll	s11,s6,s11
    1194:	fffdcd93          	not	s11,s11
    1198:	00ddfdb3          	and	s11,s11,a3
    119c:	44400613          	li	a2,1092
    11a0:	4581                	li	a1,0
    11a2:	03b106a3          	sb	s11,45(sp)
    11a6:	01840733          	add	a4,s0,s8
    11aa:	2748                	lbu	a0,12(a4)
    11ac:	44400713          	li	a4,1092
    11b0:	02e50533          	mul	a0,a0,a4
    11b4:	954a                	add	a0,a0,s2
    11b6:	febfe0ef          	jal	ra,1a0 <memset>
    11ba:	007c0513          	addi	a0,s8,7
    11be:	4619                	li	a2,6
    11c0:	4581                	li	a1,0
    11c2:	9522                	add	a0,a0,s0
    11c4:	fddfe0ef          	jal	ra,1a0 <memset>
    11c8:	8c52                	mv	s8,s4
    11ca:	bf79                	j	1168 <USBH_MainDeal+0x27e>
    11cc:	06400513          	li	a0,100
    11d0:	168020ef          	jal	ra,3338 <Delay_Ms>
    11d4:	02d10593          	addi	a1,sp,45
    11d8:	8552                	mv	a0,s4
    11da:	975ff0ef          	jal	ra,b4e <HUB_Port_PreEnum2>
    11de:	8d2a                	mv	s10,a0
    11e0:	07951d63          	bne	a0,s9,125a <USBH_MainDeal+0x370>
    11e4:	033c07b3          	mul	a5,s8,s3
    11e8:	4685                	li	a3,1
    11ea:	97a2                	add	a5,a5,s0
    11ec:	b3f4                	sb	a3,7(a5)
    11ee:	46a1                	li	a3,8
    11f0:	b7b4                	sb	a3,11(a5)
    11f2:	01478623          	sb	s4,12(a5)
    11f6:	033c0db3          	mul	s11,s8,s3
    11fa:	89018593          	addi	a1,gp,-1904 # 20000090 <Com_Buf>
    11fe:	8552                	mv	a0,s4
    1200:	3ae5                	jal	bf8 <HUB_CheckPortSpeed>
    1202:	9da2                	add	s11,s11,s0
    1204:	00ad8523          	sb	a0,10(s11)
    1208:	009dc503          	lbu	a0,9(s11)
    120c:	2459                	jal	1492 <USBFSH_SetSelfAddr>
    120e:	00adc503          	lbu	a0,10(s11)
    1212:	2c51                	jal	14a6 <USBFSH_SetSelfSpeed>
    1214:	303c                	lbu	a5,3(s0)
    1216:	c799                	beqz	a5,1224 <USBH_MainDeal+0x33a>
    1218:	001bc783          	lbu	a5,1(s7) # 50000001 <_eusrstack+0x2fffb001>
    121c:	0fb7f793          	andi	a5,a5,251
    1220:	00fb80a3          	sb	a5,1(s7)
    1224:	033c0db3          	mul	s11,s8,s3
    1228:	8562                	mv	a0,s8
    122a:	008d8613          	addi	a2,s11,8
    122e:	009d8593          	addi	a1,s11,9
    1232:	9622                	add	a2,a2,s0
    1234:	95a2                	add	a1,a1,s0
    1236:	3ac5                	jal	c26 <USBH_EnumHubPortDevice>
    1238:	8d2a                	mv	s10,a0
    123a:	9da2                	add	s11,s11,s0
    123c:	e121                	bnez	a0,127c <USBH_MainDeal+0x392>
    123e:	008dc703          	lbu	a4,8(s11)
    1242:	01571963          	bne	a4,s5,1254 <USBH_MainDeal+0x36a>
    1246:	00bdc583          	lbu	a1,11(s11)
    124a:	00cdc503          	lbu	a0,12(s11)
    124e:	3ecd                	jal	e40 <USBH_EnumHidDevice>
    1250:	8d2a                	mv	s10,a0
    1252:	f93d                	bnez	a0,11c8 <USBH_MainDeal+0x2de>
    1254:	015d83a3          	sb	s5,7(s11)
    1258:	bf85                	j	11c8 <USBH_MainDeal+0x2de>
    125a:	02d14683          	lbu	a3,45(sp)
    125e:	01bb1db3          	sll	s11,s6,s11
    1262:	fffdcd93          	not	s11,s11
    1266:	00ddfdb3          	and	s11,s11,a3
    126a:	033c06b3          	mul	a3,s8,s3
    126e:	03b106a3          	sb	s11,45(sp)
    1272:	96a2                	add	a3,a3,s0
    1274:	32f4                	lbu	a3,7(a3)
    1276:	f56699e3          	bne	a3,s6,11c8 <USBH_MainDeal+0x2de>
    127a:	bfb5                	j	11f6 <USBH_MainDeal+0x30c>
    127c:	4789                	li	a5,2
    127e:	00fd83a3          	sb	a5,7(s11)
    1282:	b799                	j	11c8 <USBH_MainDeal+0x2de>
    1284:	4799                	li	a5,6
    1286:	02fb04b3          	mul	s1,s6,a5
    128a:	468d                	li	a3,3
    128c:	94a2                	add	s1,s1,s0
    128e:	30f8                	lbu	a4,7(s1)
    1290:	10d71063          	bne	a4,a3,1390 <USBH_MainDeal+0x4a6>
    1294:	2494                	lbu	a3,8(s1)
    1296:	0ee69d63          	bne	a3,a4,1390 <USBH_MainDeal+0x4a6>
    129a:	00c4cc83          	lbu	s9,12(s1)
    129e:	44400793          	li	a5,1092
    12a2:	4a81                	li	s5,0
    12a4:	02fc8bb3          	mul	s7,s9,a5
    12a8:	084b8793          	addi	a5,s7,132
    12ac:	c85e                	sw	s7,16(sp)
    12ae:	01790db3          	add	s11,s2,s7
    12b2:	cc3e                	sw	a5,24(sp)
    12b4:	000dc703          	lbu	a4,0(s11)
    12b8:	0ceafc63          	bgeu	s5,a4,1390 <USBH_MainDeal+0x4a6>
    12bc:	11000713          	li	a4,272
    12c0:	02ea8733          	mul	a4,s5,a4
    12c4:	47e2                	lw	a5,24(sp)
    12c6:	4a01                	li	s4,0
    12c8:	00e786b3          	add	a3,a5,a4
    12cc:	00d907b3          	add	a5,s2,a3
    12d0:	c63e                	sw	a5,12(sp)
    12d2:	47c2                	lw	a5,16(sp)
    12d4:	01cb8693          	addi	a3,s7,28
    12d8:	00f709b3          	add	s3,a4,a5
    12dc:	00e687b3          	add	a5,a3,a4
    12e0:	99ca                	add	s3,s3,s2
    12e2:	ca3e                	sw	a5,20(sp)
    12e4:	a079                	j	1372 <USBH_MainDeal+0x488>
    12e6:	014986b3          	add	a3,s3,s4
    12ea:	0246c703          	lbu	a4,36(a3)
    12ee:	0206c603          	lbu	a2,32(a3)
    12f2:	06c76d63          	bltu	a4,a2,136c <USBH_MainDeal+0x482>
    12f6:	02c77733          	remu	a4,a4,a2
    12fa:	3488                	lbu	a0,9(s1)
    12fc:	02e68223          	sb	a4,36(a3)
    1300:	2a49                	jal	1492 <USBFSH_SetSelfAddr>
    1302:	24a8                	lbu	a0,10(s1)
    1304:	224d                	jal	14a6 <USBFSH_SetSelfSpeed>
    1306:	303c                	lbu	a5,3(s0)
    1308:	c799                	beqz	a5,1316 <USBH_MainDeal+0x42c>
    130a:	50000737          	lui	a4,0x50000
    130e:	331c                	lbu	a5,1(a4)
    1310:	0fb7f793          	andi	a5,a5,251
    1314:	b31c                	sb	a5,1(a4)
    1316:	47d2                	lw	a5,20(sp)
    1318:	02e10693          	addi	a3,sp,46
    131c:	89018613          	addi	a2,gp,-1904 # 20000090 <Com_Buf>
    1320:	014785b3          	add	a1,a5,s4
    1324:	014987b3          	add	a5,s3,s4
    1328:	37a8                	lbu	a0,11(a5)
    132a:	95ca                	add	a1,a1,s2
    132c:	64c000ef          	jal	ra,1978 <USBFSH_GetEndpData>
    1330:	8d2a                	mv	s10,a0
    1332:	e939                	bnez	a0,1388 <USBH_MainDeal+0x49e>
    1334:	02e15603          	lhu	a2,46(sp)
    1338:	4532                	lw	a0,12(sp)
    133a:	89018593          	addi	a1,gp,-1904 # 20000090 <Com_Buf>
    133e:	10c98823          	sb	a2,272(s3)
    1342:	191010ef          	jal	ra,2cd2 <FifoWrite>
    1346:	0049c683          	lbu	a3,4(s3)
    134a:	4705                	li	a4,1
    134c:	02e69063          	bne	a3,a4,136c <USBH_MainDeal+0x482>
    1350:	02e15683          	lhu	a3,46(sp)
    1354:	89018613          	addi	a2,gp,-1904 # 20000090 <Com_Buf>
    1358:	85d6                	mv	a1,s5
    135a:	8566                	mv	a0,s9
    135c:	325d                	jal	d02 <KB_AnalyzeKeyValue>
    135e:	0449c703          	lbu	a4,68(s3)
    1362:	c709                	beqz	a4,136c <USBH_MainDeal+0x482>
    1364:	34ac                	lbu	a1,11(s1)
    1366:	8656                	mv	a2,s5
    1368:	8566                	mv	a0,s9
    136a:	3c2d                	jal	da4 <KB_SetReport>
    136c:	0a05                	addi	s4,s4,1
    136e:	0ffa7a13          	andi	s4,s4,255
    1372:	00a9c703          	lbu	a4,10(s3)
    1376:	f6ea68e3          	bltu	s4,a4,12e6 <USBH_MainDeal+0x3fc>
    137a:	4759                	li	a4,22
    137c:	00ed0963          	beq	s10,a4,138e <USBH_MainDeal+0x4a4>
    1380:	0a85                	addi	s5,s5,1
    1382:	0ffafa93          	andi	s5,s5,255
    1386:	b73d                	j	12b4 <USBH_MainDeal+0x3ca>
    1388:	4759                	li	a4,22
    138a:	fee511e3          	bne	a0,a4,136c <USBH_MainDeal+0x482>
    138e:	4d59                	li	s10,22
    1390:	0b05                	addi	s6,s6,1
    1392:	0ffb7b13          	andi	s6,s6,255
    1396:	b349                	j	1118 <USBH_MainDeal+0x22e>

00001398 <USBFSH_SetSelfSpeed.part.0>:
    1398:	50000737          	lui	a4,0x50000
    139c:	231c                	lbu	a5,0(a4)
    139e:	0bf7f793          	andi	a5,a5,191
    13a2:	a31c                	sb	a5,0(a4)
    13a4:	331c                	lbu	a5,1(a4)
    13a6:	0fb7f793          	andi	a5,a5,251
    13aa:	b31c                	sb	a5,1(a4)
    13ac:	3b7e                	lhu	a5,54(a4)
    13ae:	07c2                	slli	a5,a5,0x10
    13b0:	83c1                	srli	a5,a5,0x10
    13b2:	bff7f793          	andi	a5,a5,-1025
    13b6:	07c2                	slli	a5,a5,0x10
    13b8:	83c1                	srli	a5,a5,0x10
    13ba:	bb7e                	sh	a5,54(a4)
    13bc:	8082                	ret

000013be <USBFS_RCC_Init>:
    13be:	db3fe2ef          	jal	t0,170 <__riscv_save_0>
    13c2:	200007b7          	lui	a5,0x20000
    13c6:	0047a703          	lw	a4,4(a5) # 20000004 <SystemCoreClock>
    13ca:	089547b7          	lui	a5,0x8954
    13ce:	40078793          	addi	a5,a5,1024 # 8954400 <_data_lma+0x8950f8c>
    13d2:	4509                	li	a0,2
    13d4:	02f70063          	beq	a4,a5,13f4 <USBFS_RCC_Init+0x36>
    13d8:	05b8e7b7          	lui	a5,0x5b8e
    13dc:	80078793          	addi	a5,a5,-2048 # 5b8d800 <_data_lma+0x5b8a38c>
    13e0:	4505                	li	a0,1
    13e2:	00f70963          	beq	a4,a5,13f4 <USBFS_RCC_Init+0x36>
    13e6:	02dc77b7          	lui	a5,0x2dc7
    13ea:	c0078793          	addi	a5,a5,-1024 # 2dc6c00 <_data_lma+0x2dc378c>
    13ee:	00f71563          	bne	a4,a5,13f8 <USBFS_RCC_Init+0x3a>
    13f2:	4501                	li	a0,0
    13f4:	5b9010ef          	jal	ra,31ac <RCC_USBCLKConfig>
    13f8:	4585                	li	a1,1
    13fa:	6505                	lui	a0,0x1
    13fc:	5cb010ef          	jal	ra,31c6 <RCC_AHBPeriphClockCmd>
    1400:	d95fe06f          	j	194 <__riscv_restore_0>

00001404 <USBFS_Host_Init>:
    1404:	d6dfe2ef          	jal	t0,170 <__riscv_save_0>
    1408:	4785                	li	a5,1
    140a:	50000437          	lui	s0,0x50000
    140e:	02f51b63          	bne	a0,a5,1444 <USBFS_Host_Init+0x40>
    1412:	4799                	li	a5,6
    1414:	a01c                	sb	a5,0(s0)
    1416:	4529                	li	a0,10
    1418:	6eb010ef          	jal	ra,3302 <Delay_Us>
    141c:	f8900793          	li	a5,-119
    1420:	00040023          	sb	zero,0(s0) # 50000000 <_eusrstack+0x2fffb000>
    1424:	a01c                	sb	a5,0(s0)
    1426:	04800793          	li	a5,72
    142a:	b45c                	sb	a5,13(s0)
    142c:	200027b7          	lui	a5,0x20002
    1430:	a1878793          	addi	a5,a5,-1512 # 20001a18 <USBFS_RX_Buf>
    1434:	cc1c                	sw	a5,24(s0)
    1436:	200027b7          	lui	a5,0x20002
    143a:	a5878793          	addi	a5,a5,-1448 # 20001a58 <USBFS_TX_Buf>
    143e:	cc5c                	sw	a5,28(s0)
    1440:	d55fe06f          	j	194 <__riscv_restore_0>
    1444:	4799                	li	a5,6
    1446:	a01c                	sb	a5,0(s0)
    1448:	4529                	li	a0,10
    144a:	6b9010ef          	jal	ra,3302 <Delay_Us>
    144e:	00040023          	sb	zero,0(s0)
    1452:	b7fd                	j	1440 <USBFS_Host_Init+0x3c>

00001454 <USBFSH_CheckRootHubPortStatus>:
    1454:	50000737          	lui	a4,0x50000
    1458:	237c                	lbu	a5,6(a4)
    145a:	8b85                	andi	a5,a5,1
    145c:	c385                	beqz	a5,147c <USBFSH_CheckRootHubPortStatus+0x28>
    145e:	4785                	li	a5,1
    1460:	a37c                	sb	a5,6(a4)
    1462:	3354                	lbu	a3,5(a4)
    1464:	4781                	li	a5,0
    1466:	8a85                	andi	a3,a3,1
    1468:	ca99                	beqz	a3,147e <USBFSH_CheckRootHubPortStatus+0x2a>
    146a:	4785                	li	a5,1
    146c:	c909                	beqz	a0,147e <USBFSH_CheckRootHubPortStatus+0x2a>
    146e:	4789                	li	a5,2
    1470:	00f50663          	beq	a0,a5,147c <USBFSH_CheckRootHubPortStatus+0x28>
    1474:	3318                	lbu	a4,1(a4)
    1476:	4785                	li	a5,1
    1478:	8b05                	andi	a4,a4,1
    147a:	c311                	beqz	a4,147e <USBFSH_CheckRootHubPortStatus+0x2a>
    147c:	4789                	li	a5,2
    147e:	853e                	mv	a0,a5
    1480:	8082                	ret

00001482 <USBFSH_CheckRootHubPortSpeed>:
    1482:	500007b7          	lui	a5,0x50000
    1486:	33c8                	lbu	a0,5(a5)
    1488:	8105                	srli	a0,a0,0x1
    148a:	00154513          	xori	a0,a0,1
    148e:	8905                	andi	a0,a0,1
    1490:	8082                	ret

00001492 <USBFSH_SetSelfAddr>:
    1492:	50000737          	lui	a4,0x50000
    1496:	333c                	lbu	a5,3(a4)
    1498:	07f57513          	andi	a0,a0,127
    149c:	0807f793          	andi	a5,a5,128
    14a0:	8fc9                	or	a5,a5,a0
    14a2:	b33c                	sb	a5,3(a4)
    14a4:	8082                	ret

000014a6 <USBFSH_SetSelfSpeed>:
    14a6:	4785                	li	a5,1
    14a8:	00f51763          	bne	a0,a5,14b6 <USBFSH_SetSelfSpeed+0x10>
    14ac:	cc5fe2ef          	jal	t0,170 <__riscv_save_0>
    14b0:	35e5                	jal	1398 <USBFSH_SetSelfSpeed.part.0>
    14b2:	ce3fe06f          	j	194 <__riscv_restore_0>
    14b6:	500007b7          	lui	a5,0x50000
    14ba:	2398                	lbu	a4,0(a5)
    14bc:	04076713          	ori	a4,a4,64
    14c0:	a398                	sb	a4,0(a5)
    14c2:	3398                	lbu	a4,1(a5)
    14c4:	00476713          	ori	a4,a4,4
    14c8:	b398                	sb	a4,1(a5)
    14ca:	3bfa                	lhu	a4,54(a5)
    14cc:	40076713          	ori	a4,a4,1024
    14d0:	bbfa                	sh	a4,54(a5)
    14d2:	8082                	ret

000014d4 <USBFSH_ResetRootHubPort>:
    14d4:	c9dfe2ef          	jal	t0,170 <__riscv_save_0>
    14d8:	842a                	mv	s0,a0
    14da:	4501                	li	a0,0
    14dc:	3f5d                	jal	1492 <USBFSH_SetSelfAddr>
    14de:	3d6d                	jal	1398 <USBFSH_SetSelfSpeed.part.0>
    14e0:	4785                	li	a5,1
    14e2:	0087ec63          	bltu	a5,s0,14fa <USBFSH_ResetRootHubPort+0x26>
    14e6:	50000737          	lui	a4,0x50000
    14ea:	331c                	lbu	a5,1(a4)
    14ec:	0027e793          	ori	a5,a5,2
    14f0:	b31c                	sb	a5,1(a4)
    14f2:	e811                	bnez	s0,1506 <USBFSH_ResetRootHubPort+0x32>
    14f4:	452d                	li	a0,11
    14f6:	643010ef          	jal	ra,3338 <Delay_Ms>
    14fa:	50000737          	lui	a4,0x50000
    14fe:	331c                	lbu	a5,1(a4)
    1500:	0fd7f793          	andi	a5,a5,253
    1504:	b31c                	sb	a5,1(a4)
    1506:	4509                	li	a0,2
    1508:	631010ef          	jal	ra,3338 <Delay_Ms>
    150c:	500007b7          	lui	a5,0x50000
    1510:	23f8                	lbu	a4,6(a5)
    1512:	8b05                	andi	a4,a4,1
    1514:	c711                	beqz	a4,1520 <USBFSH_ResetRootHubPort+0x4c>
    1516:	33d8                	lbu	a4,5(a5)
    1518:	8b05                	andi	a4,a4,1
    151a:	c319                	beqz	a4,1520 <USBFSH_ResetRootHubPort+0x4c>
    151c:	4705                	li	a4,1
    151e:	a3f8                	sb	a4,6(a5)
    1520:	c75fe06f          	j	194 <__riscv_restore_0>

00001524 <USBFSH_EnableRootHubPort>:
    1524:	50000737          	lui	a4,0x50000
    1528:	335c                	lbu	a5,5(a4)
    152a:	8b85                	andi	a5,a5,1
    152c:	cb85                	beqz	a5,155c <USBFSH_EnableRootHubPort+0x38>
    152e:	c43fe2ef          	jal	t0,170 <__riscv_save_0>
    1532:	331c                	lbu	a5,1(a4)
    1534:	8b85                	andi	a5,a5,1
    1536:	e791                	bnez	a5,1542 <USBFSH_EnableRootHubPort+0x1e>
    1538:	842a                	mv	s0,a0
    153a:	37a1                	jal	1482 <USBFSH_CheckRootHubPortSpeed>
    153c:	a008                	sb	a0,0(s0)
    153e:	e111                	bnez	a0,1542 <USBFSH_EnableRootHubPort+0x1e>
    1540:	379d                	jal	14a6 <USBFSH_SetSelfSpeed>
    1542:	500007b7          	lui	a5,0x50000
    1546:	3398                	lbu	a4,1(a5)
    1548:	4501                	li	a0,0
    154a:	00176713          	ori	a4,a4,1
    154e:	b398                	sb	a4,1(a5)
    1550:	3bfa                	lhu	a4,54(a5)
    1552:	00476713          	ori	a4,a4,4
    1556:	bbfa                	sh	a4,54(a5)
    1558:	c3dfe06f          	j	194 <__riscv_restore_0>
    155c:	4559                	li	a0,22
    155e:	8082                	ret

00001560 <USBFSH_Transact>:
    1560:	be9fe2ef          	jal	t0,148 <__riscv_save_10>
    1564:	500007b7          	lui	a5,0x50000
    1568:	02b78da3          	sb	a1,59(a5) # 5000003b <_eusrstack+0x2fffb03b>
    156c:	6a41                	lui	s4,0x10
    156e:	8b2a                	mv	s6,a0
    1570:	8932                	mv	s2,a2
    1572:	02b78f23          	sb	a1,62(a5)
    1576:	00455993          	srli	s3,a0,0x4
    157a:	4481                	li	s1,0
    157c:	50000437          	lui	s0,0x50000
    1580:	4b89                	li	s7,2
    1582:	4c39                	li	s8,14
    1584:	4aa9                	li	s5,10
    1586:	4ca5                	li	s9,9
    1588:	1a7d                	addi	s4,s4,-1
    158a:	03640c23          	sb	s6,56(s0) # 50000038 <_eusrstack+0x2fffb038>
    158e:	01740323          	sb	s7,6(s0)
    1592:	3e800d13          	li	s10,1000
    1596:	207c                	lbu	a5,6(s0)
    1598:	8b89                	andi	a5,a5,2
    159a:	eb91                	bnez	a5,15ae <USBFSH_Transact+0x4e>
    159c:	1d7d                	addi	s10,s10,-1
    159e:	0d42                	slli	s10,s10,0x10
    15a0:	4505                	li	a0,1
    15a2:	010d5d13          	srli	s10,s10,0x10
    15a6:	55d010ef          	jal	ra,3302 <Delay_Us>
    15aa:	fe0d16e3          	bnez	s10,1596 <USBFSH_Transact+0x36>
    15ae:	02040c23          	sb	zero,56(s0)
    15b2:	207c                	lbu	a5,6(s0)
    15b4:	8b89                	andi	a5,a5,2
    15b6:	e781                	bnez	a5,15be <USBFSH_Transact+0x5e>
    15b8:	0fe00513          	li	a0,254
    15bc:	a89d                	j	1632 <USBFSH_Transact+0xd2>
    15be:	307c                	lbu	a5,7(s0)
    15c0:	0407f793          	andi	a5,a5,64
    15c4:	efb5                	bnez	a5,1640 <USBFSH_Transact+0xe0>
    15c6:	307c                	lbu	a5,7(s0)
    15c8:	0ff7f793          	andi	a5,a5,255
    15cc:	00f7f513          	andi	a0,a5,15
    15d0:	07850a63          	beq	a0,s8,1644 <USBFSH_Transact+0xe4>
    15d4:	05551463          	bne	a0,s5,161c <USBFSH_Transact+0xbc>
    15d8:	06090963          	beqz	s2,164a <USBFSH_Transact+0xea>
    15dc:	01490663          	beq	s2,s4,15e8 <USBFSH_Transact+0x88>
    15e0:	197d                	addi	s2,s2,-1
    15e2:	0942                	slli	s2,s2,0x10
    15e4:	01095913          	srli	s2,s2,0x10
    15e8:	14fd                	addi	s1,s1,-1
    15ea:	0ff4f493          	andi	s1,s1,255
    15ee:	4551                	li	a0,20
    15f0:	513010ef          	jal	ra,3302 <Delay_Us>
    15f4:	207c                	lbu	a5,6(s0)
    15f6:	8b85                	andi	a5,a5,1
    15f8:	cb91                	beqz	a5,160c <USBFSH_Transact+0xac>
    15fa:	0c800513          	li	a0,200
    15fe:	505010ef          	jal	ra,3302 <Delay_Us>
    1602:	301c                	lbu	a5,1(s0)
    1604:	8b85                	andi	a5,a5,1
    1606:	c7a9                	beqz	a5,1650 <USBFSH_Transact+0xf0>
    1608:	4785                	li	a5,1
    160a:	a07c                	sb	a5,6(s0)
    160c:	0485                	addi	s1,s1,1
    160e:	0ff4f493          	andi	s1,s1,255
    1612:	f7549ce3          	bne	s1,s5,158a <USBFSH_Transact+0x2a>
    1616:	02000513          	li	a0,32
    161a:	a821                	j	1632 <USBFSH_Transact+0xd2>
    161c:	01998d63          	beq	s3,s9,1636 <USBFSH_Transact+0xd6>
    1620:	47b5                	li	a5,13
    1622:	00f98563          	beq	s3,a5,162c <USBFSH_Transact+0xcc>
    1626:	4785                	li	a5,1
    1628:	f8f998e3          	bne	s3,a5,15b8 <USBFSH_Transact+0x58>
    162c:	d169                	beqz	a0,15ee <USBFSH_Transact+0x8e>
    162e:	02056513          	ori	a0,a0,32
    1632:	b4ffe06f          	j	180 <__riscv_restore_10>
    1636:	8b9d                	andi	a5,a5,7
    1638:	470d                	li	a4,3
    163a:	fee799e3          	bne	a5,a4,162c <USBFSH_Transact+0xcc>
    163e:	bf45                	j	15ee <USBFSH_Transact+0x8e>
    1640:	4501                	li	a0,0
    1642:	bfc5                	j	1632 <USBFSH_Transact+0xd2>
    1644:	02e00513          	li	a0,46
    1648:	b7ed                	j	1632 <USBFSH_Transact+0xd2>
    164a:	02a00513          	li	a0,42
    164e:	b7d5                	j	1632 <USBFSH_Transact+0xd2>
    1650:	4559                	li	a0,22
    1652:	b7c5                	j	1632 <USBFSH_Transact+0xd2>

00001654 <USBFSH_CtrlTransfer>:
    1654:	af5fe2ef          	jal	t0,148 <__riscv_save_10>
    1658:	89aa                	mv	s3,a0
    165a:	84b2                	mv	s1,a2
    165c:	06400513          	li	a0,100
    1660:	892e                	mv	s2,a1
    1662:	4a1010ef          	jal	ra,3302 <Delay_Us>
    1666:	c099                	beqz	s1,166c <USBFSH_CtrlTransfer+0x18>
    1668:	00049023          	sh	zero,0(s1)
    166c:	50000437          	lui	s0,0x50000
    1670:	47a1                	li	a5,8
    1672:	6a89                	lui	s5,0x2
    1674:	bc5e                	sh	a5,60(s0)
    1676:	710a8613          	addi	a2,s5,1808 # 2710 <ProcessMouse+0x192>
    167a:	4581                	li	a1,0
    167c:	0d000513          	li	a0,208
    1680:	35c5                	jal	1560 <USBFSH_Transact>
    1682:	14051463          	bnez	a0,17ca <USBFSH_CtrlTransfer+0x176>
    1686:	4791                	li	a5,4
    1688:	02f40da3          	sb	a5,59(s0) # 5000003b <_eusrstack+0x2fffb03b>
    168c:	20002b37          	lui	s6,0x20002
    1690:	02f40f23          	sb	a5,62(s0)
    1694:	a58b0793          	addi	a5,s6,-1448 # 20001a58 <USBFS_TX_Buf>
    1698:	23e2                	lhu	s0,6(a5)
    169a:	a58b0b13          	addi	s6,s6,-1448
    169e:	0e040863          	beqz	s0,178e <USBFSH_CtrlTransfer+0x13a>
    16a2:	0e090663          	beqz	s2,178e <USBFSH_CtrlTransfer+0x13a>
    16a6:	00078783          	lb	a5,0(a5)
    16aa:	0607c263          	bltz	a5,170e <USBFSH_CtrlTransfer+0xba>
    16ae:	8bce                	mv	s7,s3
    16b0:	09c2                	slli	s3,s3,0x10
    16b2:	0109d993          	srli	s3,s3,0x10
    16b6:	50000a37          	lui	s4,0x50000
    16ba:	710a8a93          	addi	s5,s5,1808
    16be:	06400513          	li	a0,100
    16c2:	441010ef          	jal	ra,3302 <Delay_Us>
    16c6:	87de                	mv	a5,s7
    16c8:	01347363          	bgeu	s0,s3,16ce <USBFSH_CtrlTransfer+0x7a>
    16cc:	87a2                	mv	a5,s0
    16ce:	02fa1e23          	sh	a5,60(s4) # 5000003c <_eusrstack+0x2fffb03c>
    16d2:	4781                	li	a5,0
    16d4:	03ca5703          	lhu	a4,60(s4)
    16d8:	10e79363          	bne	a5,a4,17de <USBFSH_CtrlTransfer+0x18a>
    16dc:	03ea4583          	lbu	a1,62(s4)
    16e0:	8656                	mv	a2,s5
    16e2:	4541                	li	a0,16
    16e4:	3db5                	jal	1560 <USBFSH_Transact>
    16e6:	e175                	bnez	a0,17ca <USBFSH_CtrlTransfer+0x176>
    16e8:	03ea4783          	lbu	a5,62(s4)
    16ec:	0047c793          	xori	a5,a5,4
    16f0:	02fa0f23          	sb	a5,62(s4)
    16f4:	03ca5783          	lhu	a5,60(s4)
    16f8:	8c1d                	sub	s0,s0,a5
    16fa:	0442                	slli	s0,s0,0x10
    16fc:	8041                	srli	s0,s0,0x10
    16fe:	c491                	beqz	s1,170a <USBFSH_CtrlTransfer+0xb6>
    1700:	03ca5783          	lhu	a5,60(s4)
    1704:	209a                	lhu	a4,0(s1)
    1706:	97ba                	add	a5,a5,a4
    1708:	a09e                	sh	a5,0(s1)
    170a:	f855                	bnez	s0,16be <USBFSH_CtrlTransfer+0x6a>
    170c:	a049                	j	178e <USBFSH_CtrlTransfer+0x13a>
    170e:	20002b37          	lui	s6,0x20002
    1712:	50000a37          	lui	s4,0x50000
    1716:	710a8a93          	addi	s5,s5,1808
    171a:	a18b0b13          	addi	s6,s6,-1512 # 20001a18 <USBFS_RX_Buf>
    171e:	19fd                	addi	s3,s3,-1
    1720:	06400513          	li	a0,100
    1724:	3df010ef          	jal	ra,3302 <Delay_Us>
    1728:	03ba4583          	lbu	a1,59(s4) # 5000003b <_eusrstack+0x2fffb03b>
    172c:	8656                	mv	a2,s5
    172e:	09000513          	li	a0,144
    1732:	353d                	jal	1560 <USBFSH_Transact>
    1734:	e959                	bnez	a0,17ca <USBFSH_CtrlTransfer+0x176>
    1736:	03ba4783          	lbu	a5,59(s4)
    173a:	0047c793          	xori	a5,a5,4
    173e:	02fa0da3          	sb	a5,59(s4)
    1742:	008a5703          	lhu	a4,8(s4)
    1746:	87a2                	mv	a5,s0
    1748:	00877663          	bgeu	a4,s0,1754 <USBFSH_CtrlTransfer+0x100>
    174c:	008a5783          	lhu	a5,8(s4)
    1750:	07c2                	slli	a5,a5,0x10
    1752:	83c1                	srli	a5,a5,0x10
    1754:	8c1d                	sub	s0,s0,a5
    1756:	0442                	slli	s0,s0,0x10
    1758:	8041                	srli	s0,s0,0x10
    175a:	c481                	beqz	s1,1762 <USBFSH_CtrlTransfer+0x10e>
    175c:	209a                	lhu	a4,0(s1)
    175e:	973e                	add	a4,a4,a5
    1760:	a09a                	sh	a4,0(s1)
    1762:	4701                	li	a4,0
    1764:	01071693          	slli	a3,a4,0x10
    1768:	82c1                	srli	a3,a3,0x10
    176a:	06d79263          	bne	a5,a3,17ce <USBFSH_CtrlTransfer+0x17a>
    176e:	993e                	add	s2,s2,a5
    1770:	008a5783          	lhu	a5,8(s4)
    1774:	07c2                	slli	a5,a5,0x10
    1776:	83c1                	srli	a5,a5,0x10
    1778:	c799                	beqz	a5,1786 <USBFSH_CtrlTransfer+0x132>
    177a:	008a5783          	lhu	a5,8(s4)
    177e:	00f9f7b3          	and	a5,s3,a5
    1782:	e391                	bnez	a5,1786 <USBFSH_CtrlTransfer+0x132>
    1784:	fc51                	bnez	s0,1720 <USBFSH_CtrlTransfer+0xcc>
    1786:	500007b7          	lui	a5,0x50000
    178a:	02079e23          	sh	zero,60(a5) # 5000003c <_eusrstack+0x2fffb03c>
    178e:	06400513          	li	a0,100
    1792:	371010ef          	jal	ra,3302 <Delay_Us>
    1796:	500007b7          	lui	a5,0x50000
    179a:	3fde                	lhu	a5,60(a5)
    179c:	09000513          	li	a0,144
    17a0:	07c2                	slli	a5,a5,0x10
    17a2:	83c1                	srli	a5,a5,0x10
    17a4:	e391                	bnez	a5,17a8 <USBFSH_CtrlTransfer+0x154>
    17a6:	4541                	li	a0,16
    17a8:	6609                	lui	a2,0x2
    17aa:	71060613          	addi	a2,a2,1808 # 2710 <ProcessMouse+0x192>
    17ae:	4591                	li	a1,4
    17b0:	3b45                	jal	1560 <USBFSH_Transact>
    17b2:	ed01                	bnez	a0,17ca <USBFSH_CtrlTransfer+0x176>
    17b4:	50000737          	lui	a4,0x50000
    17b8:	3f5e                	lhu	a5,60(a4)
    17ba:	07c2                	slli	a5,a5,0x10
    17bc:	83c1                	srli	a5,a5,0x10
    17be:	c791                	beqz	a5,17ca <USBFSH_CtrlTransfer+0x176>
    17c0:	271e                	lhu	a5,8(a4)
    17c2:	07c2                	slli	a5,a5,0x10
    17c4:	83c1                	srli	a5,a5,0x10
    17c6:	c391                	beqz	a5,17ca <USBFSH_CtrlTransfer+0x176>
    17c8:	455d                	li	a0,23
    17ca:	9b7fe06f          	j	180 <__riscv_restore_10>
    17ce:	00eb06b3          	add	a3,s6,a4
    17d2:	2290                	lbu	a2,0(a3)
    17d4:	00e906b3          	add	a3,s2,a4
    17d8:	0705                	addi	a4,a4,1
    17da:	a290                	sb	a2,0(a3)
    17dc:	b761                	j	1764 <USBFSH_CtrlTransfer+0x110>
    17de:	00094683          	lbu	a3,0(s2)
    17e2:	00fb0733          	add	a4,s6,a5
    17e6:	0785                	addi	a5,a5,1
    17e8:	07c2                	slli	a5,a5,0x10
    17ea:	a314                	sb	a3,0(a4)
    17ec:	0905                	addi	s2,s2,1
    17ee:	83c1                	srli	a5,a5,0x10
    17f0:	b5d5                	j	16d4 <USBFSH_CtrlTransfer+0x80>

000017f2 <USBFSH_GetDeviceDescr>:
    17f2:	97ffe2ef          	jal	t0,170 <__riscv_save_0>
    17f6:	81818413          	addi	s0,gp,-2024 # 20000018 <SetupGetDevDesc>
    17fa:	47a1                	li	a5,8
    17fc:	4018                	lw	a4,0(s0)
    17fe:	a11c                	sb	a5,0(a0)
    1800:	200027b7          	lui	a5,0x20002
    1804:	a5878793          	addi	a5,a5,-1448 # 20001a58 <USBFS_TX_Buf>
    1808:	c398                	sw	a4,0(a5)
    180a:	4058                	lw	a4,4(s0)
    180c:	84aa                	mv	s1,a0
    180e:	1141                	addi	sp,sp,-16
    1810:	c3d8                	sw	a4,4(a5)
    1812:	2108                	lbu	a0,0(a0)
    1814:	00e10613          	addi	a2,sp,14
    1818:	892e                	mv	s2,a1
    181a:	3d2d                	jal	1654 <USBFSH_CtrlTransfer>
    181c:	e909                	bnez	a0,182e <USBFSH_GetDeviceDescr+0x3c>
    181e:	00794783          	lbu	a5,7(s2)
    1822:	207a                	lhu	a4,6(s0)
    1824:	a09c                	sb	a5,0(s1)
    1826:	873c                	lhu	a5,14(sp)
    1828:	00e7f363          	bgeu	a5,a4,182e <USBFSH_GetDeviceDescr+0x3c>
    182c:	455d                	li	a0,23
    182e:	0141                	addi	sp,sp,16
    1830:	965fe06f          	j	194 <__riscv_restore_0>

00001834 <USBFSH_GetConfigDescr>:
    1834:	923fe2ef          	jal	t0,156 <__riscv_save_4>
    1838:	81018713          	addi	a4,gp,-2032 # 20000010 <SetupGetCfgDesc>
    183c:	89b2                	mv	s3,a2
    183e:	4310                	lw	a2,0(a4)
    1840:	4358                	lw	a4,4(a4)
    1842:	20002437          	lui	s0,0x20002
    1846:	a5840793          	addi	a5,s0,-1448 # 20001a58 <USBFS_TX_Buf>
    184a:	1141                	addi	sp,sp,-16
    184c:	c390                	sw	a2,0(a5)
    184e:	c3d8                	sw	a4,4(a5)
    1850:	8636                	mv	a2,a3
    1852:	8a2a                	mv	s4,a0
    1854:	892e                	mv	s2,a1
    1856:	c636                	sw	a3,12(sp)
    1858:	3bf5                	jal	1654 <USBFSH_CtrlTransfer>
    185a:	e121                	bnez	a0,189a <USBFSH_GetConfigDescr+0x66>
    185c:	46b2                	lw	a3,12(sp)
    185e:	81018713          	addi	a4,gp,-2032 # 20000010 <SetupGetCfgDesc>
    1862:	2372                	lhu	a2,6(a4)
    1864:	228e                	lhu	a1,0(a3)
    1866:	455d                	li	a0,23
    1868:	02c5e963          	bltu	a1,a2,189a <USBFSH_GetConfigDescr+0x66>
    186c:	00394603          	lbu	a2,3(s2)
    1870:	00294583          	lbu	a1,2(s2)
    1874:	a5840793          	addi	a5,s0,-1448
    1878:	0622                	slli	a2,a2,0x8
    187a:	8e4d                	or	a2,a2,a1
    187c:	85b2                	mv	a1,a2
    187e:	00c9f363          	bgeu	s3,a2,1884 <USBFSH_GetConfigDescr+0x50>
    1882:	85ce                	mv	a1,s3
    1884:	4310                	lw	a2,0(a4)
    1886:	4358                	lw	a4,4(a4)
    1888:	a28e                	sh	a1,0(a3)
    188a:	c390                	sw	a2,0(a5)
    188c:	c3d8                	sw	a4,4(a5)
    188e:	229a                	lhu	a4,0(a3)
    1890:	8636                	mv	a2,a3
    1892:	85ca                	mv	a1,s2
    1894:	a3fa                	sh	a4,6(a5)
    1896:	8552                	mv	a0,s4
    1898:	3b75                	jal	1654 <USBFSH_CtrlTransfer>
    189a:	0141                	addi	sp,sp,16
    189c:	8effe06f          	j	18a <__riscv_restore_4>

000018a0 <USBFSH_GetStrDescr>:
    18a0:	8b7fe2ef          	jal	t0,156 <__riscv_save_4>
    18a4:	82018793          	addi	a5,gp,-2016 # 20000020 <SetupGetStrDesc>
    18a8:	0007aa03          	lw	s4,0(a5)
    18ac:	20002437          	lui	s0,0x20002
    18b0:	0047a983          	lw	s3,4(a5)
    18b4:	a5840413          	addi	s0,s0,-1448 # 20001a58 <USBFS_TX_Buf>
    18b8:	1141                	addi	sp,sp,-16
    18ba:	84b2                	mv	s1,a2
    18bc:	3005e913          	ori	s2,a1,768
    18c0:	01442023          	sw	s4,0(s0)
    18c4:	00e10613          	addi	a2,sp,14
    18c8:	85a6                	mv	a1,s1
    18ca:	8aaa                	mv	s5,a0
    18cc:	01342223          	sw	s3,4(s0)
    18d0:	01241123          	sh	s2,2(s0)
    18d4:	3341                	jal	1654 <USBFSH_CtrlTransfer>
    18d6:	ed19                	bnez	a0,18f4 <USBFSH_GetStrDescr+0x54>
    18d8:	209c                	lbu	a5,0(s1)
    18da:	00e10613          	addi	a2,sp,14
    18de:	01442023          	sw	s4,0(s0)
    18e2:	01342223          	sw	s3,4(s0)
    18e6:	85a6                	mv	a1,s1
    18e8:	8556                	mv	a0,s5
    18ea:	877c                	sh	a5,14(sp)
    18ec:	01241123          	sh	s2,2(s0)
    18f0:	a07e                	sh	a5,6(s0)
    18f2:	338d                	jal	1654 <USBFSH_CtrlTransfer>
    18f4:	0141                	addi	sp,sp,16
    18f6:	895fe06f          	j	18a <__riscv_restore_4>

000018fa <USBFSH_SetUsbAddress>:
    18fa:	877fe2ef          	jal	t0,170 <__riscv_save_0>
    18fe:	82818713          	addi	a4,gp,-2008 # 20000028 <SetupSetAddr>
    1902:	4314                	lw	a3,0(a4)
    1904:	200027b7          	lui	a5,0x20002
    1908:	4358                	lw	a4,4(a4)
    190a:	a5878793          	addi	a5,a5,-1448 # 20001a58 <USBFS_TX_Buf>
    190e:	c394                	sw	a3,0(a5)
    1910:	a3ae                	sh	a1,2(a5)
    1912:	84ae                	mv	s1,a1
    1914:	c3d8                	sw	a4,4(a5)
    1916:	4601                	li	a2,0
    1918:	4581                	li	a1,0
    191a:	3b2d                	jal	1654 <USBFSH_CtrlTransfer>
    191c:	842a                	mv	s0,a0
    191e:	e511                	bnez	a0,192a <USBFSH_SetUsbAddress+0x30>
    1920:	8526                	mv	a0,s1
    1922:	3e85                	jal	1492 <USBFSH_SetSelfAddr>
    1924:	4515                	li	a0,5
    1926:	213010ef          	jal	ra,3338 <Delay_Ms>
    192a:	8522                	mv	a0,s0
    192c:	869fe06f          	j	194 <__riscv_restore_0>

00001930 <USBFSH_SetUsbConfig>:
    1930:	841fe2ef          	jal	t0,170 <__riscv_save_0>
    1934:	83018713          	addi	a4,gp,-2000 # 20000030 <SetupSetConfig>
    1938:	4314                	lw	a3,0(a4)
    193a:	200027b7          	lui	a5,0x20002
    193e:	4358                	lw	a4,4(a4)
    1940:	a5878793          	addi	a5,a5,-1448 # 20001a58 <USBFS_TX_Buf>
    1944:	c394                	sw	a3,0(a5)
    1946:	a3ae                	sh	a1,2(a5)
    1948:	c3d8                	sw	a4,4(a5)
    194a:	4601                	li	a2,0
    194c:	4581                	li	a1,0
    194e:	3319                	jal	1654 <USBFSH_CtrlTransfer>
    1950:	845fe06f          	j	194 <__riscv_restore_0>

00001954 <USBFSH_ClearEndpStall>:
    1954:	81dfe2ef          	jal	t0,170 <__riscv_save_0>
    1958:	80818713          	addi	a4,gp,-2040 # 20000008 <SetupClearEndpStall>
    195c:	4314                	lw	a3,0(a4)
    195e:	4358                	lw	a4,4(a4)
    1960:	200027b7          	lui	a5,0x20002
    1964:	a5878793          	addi	a5,a5,-1448 # 20001a58 <USBFS_TX_Buf>
    1968:	c3d8                	sw	a4,4(a5)
    196a:	a3ce                	sh	a1,4(a5)
    196c:	c394                	sw	a3,0(a5)
    196e:	4601                	li	a2,0
    1970:	4581                	li	a1,0
    1972:	31cd                	jal	1654 <USBFSH_CtrlTransfer>
    1974:	821fe06f          	j	194 <__riscv_restore_0>

00001978 <USBFSH_GetEndpData>:
    1978:	ff8fe2ef          	jal	t0,170 <__riscv_save_0>
    197c:	842e                	mv	s0,a1
    197e:	218c                	lbu	a1,0(a1)
    1980:	1141                	addi	sp,sp,-16
    1982:	8932                	mv	s2,a2
    1984:	09056513          	ori	a0,a0,144
    1988:	4601                	li	a2,0
    198a:	c636                	sw	a3,12(sp)
    198c:	3ed1                	jal	1560 <USBFSH_Transact>
    198e:	84aa                	mv	s1,a0
    1990:	46b2                	lw	a3,12(sp)
    1992:	e115                	bnez	a0,19b6 <USBFSH_GetEndpData+0x3e>
    1994:	500007b7          	lui	a5,0x50000
    1998:	2792                	lhu	a2,8(a5)
    199a:	200025b7          	lui	a1,0x20002
    199e:	a1858593          	addi	a1,a1,-1512 # 20001a18 <USBFS_RX_Buf>
    19a2:	0642                	slli	a2,a2,0x10
    19a4:	8241                	srli	a2,a2,0x10
    19a6:	a292                	sh	a2,0(a3)
    19a8:	854a                	mv	a0,s2
    19aa:	1dd010ef          	jal	ra,3386 <memcpy>
    19ae:	201c                	lbu	a5,0(s0)
    19b0:	0047c793          	xori	a5,a5,4
    19b4:	a01c                	sb	a5,0(s0)
    19b6:	8526                	mv	a0,s1
    19b8:	0141                	addi	sp,sp,16
    19ba:	fdafe06f          	j	194 <__riscv_restore_0>

000019be <USBFSH_SendEndpData>:
    19be:	fb2fe2ef          	jal	t0,170 <__riscv_save_0>
    19c2:	84aa                	mv	s1,a0
    19c4:	20002537          	lui	a0,0x20002
    19c8:	1141                	addi	sp,sp,-16
    19ca:	842e                	mv	s0,a1
    19cc:	a5850513          	addi	a0,a0,-1448 # 20001a58 <USBFS_TX_Buf>
    19d0:	85b2                	mv	a1,a2
    19d2:	8636                	mv	a2,a3
    19d4:	c636                	sw	a3,12(sp)
    19d6:	1b1010ef          	jal	ra,3386 <memcpy>
    19da:	46b2                	lw	a3,12(sp)
    19dc:	500007b7          	lui	a5,0x50000
    19e0:	4601                	li	a2,0
    19e2:	bfd6                	sh	a3,60(a5)
    19e4:	200c                	lbu	a1,0(s0)
    19e6:	0104e513          	ori	a0,s1,16
    19ea:	b77ff0ef          	jal	ra,1560 <USBFSH_Transact>
    19ee:	e509                	bnez	a0,19f8 <USBFSH_SendEndpData+0x3a>
    19f0:	201c                	lbu	a5,0(s0)
    19f2:	0047c793          	xori	a5,a5,4
    19f6:	a01c                	sb	a5,0(s0)
    19f8:	0141                	addi	sp,sp,16
    19fa:	f9afe06f          	j	194 <__riscv_restore_0>

000019fe <GamepadDecode>:
    19fe:	10c54603          	lbu	a2,268(a0)
    1a02:	e619                	bnez	a2,1a10 <GamepadDecode+0x12>
    1a04:	4509                	li	a0,2
    1a06:	8082                	ret
    1a08:	4509                	li	a0,2
    1a0a:	6161                	addi	sp,sp,80
    1a0c:	f7efe06f          	j	18a <__riscv_restore_4>
    1a10:	f46fe2ef          	jal	t0,156 <__riscv_save_4>
    1a14:	200029b7          	lui	s3,0x20002
    1a18:	715d                	addi	sp,sp,-80
    1a1a:	84aa                	mv	s1,a0
    1a1c:	a9898593          	addi	a1,s3,-1384 # 20001a98 <gamepad_report_data>
    1a20:	08050513          	addi	a0,a0,128
    1a24:	a9898413          	addi	s0,s3,-1384
    1a28:	258010ef          	jal	ra,2c80 <FifoRead>
    1a2c:	dd71                	beqz	a0,1a08 <GamepadDecode+0xa>
    1a2e:	01010913          	addi	s2,sp,16
    1a32:	03e00613          	li	a2,62
    1a36:	04248593          	addi	a1,s1,66
    1a3a:	854a                	mv	a0,s2
    1a3c:	14b010ef          	jal	ra,3386 <memcpy>
    1a40:	0434c783          	lbu	a5,67(s1)
    1a44:	0405                	addi	s0,s0,1
    1a46:	e399                	bnez	a5,1a4c <GamepadDecode+0x4e>
    1a48:	a9898413          	addi	s0,s3,-1384
    1a4c:	86bc                	lhu	a5,28(sp)
    1a4e:	87b4                	lhu	a3,30(sp)
    1a50:	01a14603          	lbu	a2,26(sp)
    1a54:	84ac                	lhu	a1,24(sp)
    1a56:	00f6b6b3          	sltu	a3,a3,a5
    1a5a:	8522                	mv	a0,s0
    1a5c:	2d6010ef          	jal	ra,2d32 <collect_bits>
    1a60:	02615783          	lhu	a5,38(sp)
    1a64:	02415683          	lhu	a3,36(sp)
    1a68:	02214603          	lbu	a2,34(sp)
    1a6c:	02015583          	lhu	a1,32(sp)
    1a70:	8668                	sh	a0,12(sp)
    1a72:	00d7b6b3          	sltu	a3,a5,a3
    1a76:	8522                	mv	a0,s0
    1a78:	2ba010ef          	jal	ra,2d32 <collect_bits>
    1a7c:	8768                	sh	a0,14(sp)
    1a7e:	874a                	mv	a4,s2
    1a80:	854a                	mv	a0,s2
    1a82:	4781                	li	a5,0
    1a84:	4581                	li	a1,0
    1a86:	4805                	li	a6,1
    1a88:	4611                	li	a2,4
    1a8a:	2f14                	lbu	a3,24(a4)
    1a8c:	01974883          	lbu	a7,25(a4) # 50000019 <_eusrstack+0x2fffb019>
    1a90:	96a2                	add	a3,a3,s0
    1a92:	2294                	lbu	a3,0(a3)
    1a94:	0116f6b3          	and	a3,a3,a7
    1a98:	c691                	beqz	a3,1aa4 <GamepadDecode+0xa6>
    1a9a:	00f816b3          	sll	a3,a6,a5
    1a9e:	8dd5                	or	a1,a1,a3
    1aa0:	0ff5f593          	andi	a1,a1,255
    1aa4:	0785                	addi	a5,a5,1
    1aa6:	0709                	addi	a4,a4,2
    1aa8:	fec791e3          	bne	a5,a2,1a8a <GamepadDecode+0x8c>
    1aac:	874a                	mv	a4,s2
    1aae:	4781                	li	a5,0
    1ab0:	4801                	li	a6,0
    1ab2:	4885                	li	a7,1
    1ab4:	4621                	li	a2,8
    1ab6:	02074683          	lbu	a3,32(a4)
    1aba:	02174303          	lbu	t1,33(a4)
    1abe:	96a2                	add	a3,a3,s0
    1ac0:	2294                	lbu	a3,0(a3)
    1ac2:	0066f6b3          	and	a3,a3,t1
    1ac6:	c699                	beqz	a3,1ad4 <GamepadDecode+0xd6>
    1ac8:	00f896b3          	sll	a3,a7,a5
    1acc:	0106e833          	or	a6,a3,a6
    1ad0:	0ff87813          	andi	a6,a6,255
    1ad4:	0785                	addi	a5,a5,1
    1ad6:	0709                	addi	a4,a4,2
    1ad8:	fcc79fe3          	bne	a5,a2,1ab6 <GamepadDecode+0xb8>
    1adc:	007c                	addi	a5,sp,12
    1ade:	4e09                	li	t3,2
    1ae0:	07e00f13          	li	t5,126
    1ae4:	07f00313          	li	t1,127
    1ae8:	f8100e93          	li	t4,-127
    1aec:	2576                	lhu	a3,14(a0)
    1aee:	00c55883          	lhu	a7,12(a0)
    1af2:	41168733          	sub	a4,a3,a7
    1af6:	03c74fb3          	div	t6,a4,t3
    1afa:	03e74633          	div	a2,a4,t5
    1afe:	00079703          	lh	a4,0(a5) # 50000000 <_eusrstack+0x2fffb000>
    1b02:	09175b63          	bge	a4,a7,1b98 <GamepadDecode+0x19a>
    1b06:	01179023          	sh	a7,0(a5)
    1b0a:	96c6                	add	a3,a3,a7
    1b0c:	03c6c733          	div	a4,a3,t3
    1b10:	2396                	lhu	a3,0(a5)
    1b12:	8e99                	sub	a3,a3,a4
    1b14:	01069713          	slli	a4,a3,0x10
    1b18:	8341                	srli	a4,a4,0x10
    1b1a:	01071893          	slli	a7,a4,0x10
    1b1e:	4108d893          	srai	a7,a7,0x10
    1b22:	40cf86b3          	sub	a3,t6,a2
    1b26:	01179023          	sh	a7,0(a5)
    1b2a:	40c00fb3          	neg	t6,a2
    1b2e:	07f8d963          	bge	a7,t6,1ba0 <GamepadDecode+0x1a2>
    1b32:	9732                	add	a4,a4,a2
    1b34:	a39a                	sh	a4,0(a5)
    1b36:	00079703          	lh	a4,0(a5)
    1b3a:	02670733          	mul	a4,a4,t1
    1b3e:	02d74733          	div	a4,a4,a3
    1b42:	0742                	slli	a4,a4,0x10
    1b44:	8741                	srai	a4,a4,0x10
    1b46:	07d75463          	bge	a4,t4,1bae <GamepadDecode+0x1b0>
    1b4a:	01d79023          	sh	t4,0(a5)
    1b4e:	239a                	lhu	a4,0(a5)
    1b50:	0789                	addi	a5,a5,2
    1b52:	0521                	addi	a0,a0,8
    1b54:	07f70713          	addi	a4,a4,127
    1b58:	fee79f23          	sh	a4,-2(a5)
    1b5c:	f8f918e3          	bne	s2,a5,1aec <GamepadDecode+0xee>
    1b60:	00c11703          	lh	a4,12(sp)
    1b64:	03f00693          	li	a3,63
    1b68:	4789                	li	a5,2
    1b6a:	00e6d663          	bge	a3,a4,1b76 <GamepadDecode+0x178>
    1b6e:	0c172793          	slti	a5,a4,193
    1b72:	0017c793          	xori	a5,a5,1
    1b76:	00e11703          	lh	a4,14(sp)
    1b7a:	03f00693          	li	a3,63
    1b7e:	02e6cf63          	blt	a3,a4,1bbc <GamepadDecode+0x1be>
    1b82:	0087e793          	ori	a5,a5,8
    1b86:	0592                	slli	a1,a1,0x4
    1b88:	8ddd                	or	a1,a1,a5
    1b8a:	87018793          	addi	a5,gp,-1936 # 20000070 <_edata>
    1b8e:	a38c                	sb	a1,0(a5)
    1b90:	010780a3          	sb	a6,1(a5)
    1b94:	4501                	li	a0,0
    1b96:	bd95                	j	1a0a <GamepadDecode+0xc>
    1b98:	f6e6d9e3          	bge	a3,a4,1b0a <GamepadDecode+0x10c>
    1b9c:	a396                	sh	a3,0(a5)
    1b9e:	b7b5                	j	1b0a <GamepadDecode+0x10c>
    1ba0:	01165463          	bge	a2,a7,1ba8 <GamepadDecode+0x1aa>
    1ba4:	8f11                	sub	a4,a4,a2
    1ba6:	b779                	j	1b34 <GamepadDecode+0x136>
    1ba8:	00079023          	sh	zero,0(a5)
    1bac:	b769                	j	1b36 <GamepadDecode+0x138>
    1bae:	00e34463          	blt	t1,a4,1bb6 <GamepadDecode+0x1b8>
    1bb2:	a39a                	sh	a4,0(a5)
    1bb4:	bf69                	j	1b4e <GamepadDecode+0x150>
    1bb6:	00679023          	sh	t1,0(a5)
    1bba:	bf51                	j	1b4e <GamepadDecode+0x150>
    1bbc:	0c000693          	li	a3,192
    1bc0:	fce6d3e3          	bge	a3,a4,1b86 <GamepadDecode+0x188>
    1bc4:	0047e793          	ori	a5,a5,4
    1bc8:	bf7d                	j	1b86 <GamepadDecode+0x188>

00001bca <GetGamepadInfo>:
    1bca:	da6fe2ef          	jal	t0,170 <__riscv_save_0>
    1bce:	3d05                	jal	19fe <GamepadDecode>
    1bd0:	c501                	beqz	a0,1bd8 <GetGamepadInfo+0xe>
    1bd2:	4501                	li	a0,0
    1bd4:	dc0fe06f          	j	194 <__riscv_restore_0>
    1bd8:	87018513          	addi	a0,gp,-1936 # 20000070 <_edata>
    1bdc:	bfe5                	j	1bd4 <GetGamepadInfo+0xa>

00001bde <report_is_usable>:
    1bde:	810d                	srli	a0,a0,0x3
    1be0:	a228                	sb	a0,2(a2)
    1be2:	2208                	lbu	a0,0(a2)
    1be4:	478d                	li	a5,3
    1be6:	890d                	andi	a0,a0,3
    1be8:	00f51863          	bne	a0,a5,1bf8 <report_is_usable+0x1a>
    1bec:	0075f513          	andi	a0,a1,7
    1bf0:	1565                	addi	a0,a0,-7
    1bf2:	00153513          	seqz	a0,a0
    1bf6:	8082                	ret
    1bf8:	4785                	li	a5,1
    1bfa:	00f51663          	bne	a0,a5,1c06 <report_is_usable+0x28>
    1bfe:	00f5f513          	andi	a0,a1,15
    1c02:	1545                	addi	a0,a0,-15
    1c04:	b7fd                	j	1bf2 <report_is_usable+0x14>
    1c06:	1579                	addi	a0,a0,-2
    1c08:	b7ed                	j	1bf2 <report_is_usable+0x14>

00001c0a <parse_report_descriptor>:
    1c0a:	d36fe2ef          	jal	t0,140 <__riscv_save_12>
    1c0e:	678d                	lui	a5,0x3
    1c10:	7179                	addi	sp,sp,-48
    1c12:	44c78793          	addi	a5,a5,1100 # 344c <memcpy+0xc6>
    1c16:	c63e                	sw	a5,12(sp)
    1c18:	678d                	lui	a5,0x3
    1c1a:	43878793          	addi	a5,a5,1080 # 3438 <memcpy+0xb2>
    1c1e:	8aaa                	mv	s5,a0
    1c20:	89ae                	mv	s3,a1
    1c22:	8432                	mv	s0,a2
    1c24:	5cfd                	li	s9,-1
    1c26:	5dfd                	li	s11,-1
    1c28:	56fd                	li	a3,-1
    1c2a:	5d7d                	li	s10,-1
    1c2c:	4f01                	li	t5,0
    1c2e:	4581                	li	a1,0
    1c30:	4e01                	li	t3,0
    1c32:	4e81                	li	t4,0
    1c34:	4901                	li	s2,0
    1c36:	4501                	li	a0,0
    1c38:	4301                	li	t1,0
    1c3a:	4801                	li	a6,0
    1c3c:	4481                	li	s1,0
    1c3e:	58fd                	li	a7,-1
    1c40:	4c01                	li	s8,0
    1c42:	4a01                	li	s4,0
    1c44:	4b01                	li	s6,0
    1c46:	4b85                	li	s7,1
    1c48:	4f8d                	li	t6,3
    1c4a:	c83e                	sw	a5,16(sp)
    1c4c:	00099463          	bnez	s3,1c54 <parse_report_descriptor+0x4a>
    1c50:	4501                	li	a0,0
    1c52:	aeb1                	j	1fae <parse_report_descriptor+0x3a4>
    1c54:	000ac283          	lbu	t0,0(s5)
    1c58:	0022d613          	srli	a2,t0,0x2
    1c5c:	0042d713          	srli	a4,t0,0x4
    1c60:	0032f293          	andi	t0,t0,3
    1c64:	8a0d                	andi	a2,a2,3
    1c66:	02029563          	bnez	t0,1c90 <parse_report_descriptor+0x86>
    1c6a:	19fd                	addi	s3,s3,-1
    1c6c:	09c2                	slli	s3,s3,0x10
    1c6e:	0a85                	addi	s5,s5,1
    1c70:	0109d993          	srli	s3,s3,0x10
    1c74:	4781                	li	a5,0
    1c76:	060c0d63          	beqz	s8,1cf0 <parse_report_descriptor+0xe6>
    1c7a:	fa69                	bnez	a2,1c4c <parse_report_descriptor+0x42>
    1c7c:	47a9                	li	a5,10
    1c7e:	04f71c63          	bne	a4,a5,1cd6 <parse_report_descriptor+0xcc>
    1c82:	0c05                	addi	s8,s8,1
    1c84:	0485                	addi	s1,s1,1
    1c86:	0ffc7c13          	andi	s8,s8,255
    1c8a:	0ff4f493          	andi	s1,s1,255
    1c8e:	bf7d                	j	1c4c <parse_report_descriptor+0x42>
    1c90:	001ac783          	lbu	a5,1(s5)
    1c94:	01729863          	bne	t0,s7,1ca4 <parse_report_descriptor+0x9a>
    1c98:	0a89                	addi	s5,s5,2
    1c9a:	19f9                	addi	s3,s3,-2
    1c9c:	09c2                	slli	s3,s3,0x10
    1c9e:	0109d993          	srli	s3,s3,0x10
    1ca2:	bfd1                	j	1c76 <parse_report_descriptor+0x6c>
    1ca4:	002ac383          	lbu	t2,2(s5)
    1ca8:	03a2                	slli	t2,t2,0x8
    1caa:	979e                	add	a5,a5,t2
    1cac:	01f28563          	beq	t0,t6,1cb6 <parse_report_descriptor+0xac>
    1cb0:	0a8d                	addi	s5,s5,3
    1cb2:	19f5                	addi	s3,s3,-3
    1cb4:	b7e5                	j	1c9c <parse_report_descriptor+0x92>
    1cb6:	003ac283          	lbu	t0,3(s5)
    1cba:	004ac383          	lbu	t2,4(s5)
    1cbe:	19ed                	addi	s3,s3,-5
    1cc0:	02c2                	slli	t0,t0,0x10
    1cc2:	03e2                	slli	t2,t2,0x18
    1cc4:	0072e2b3          	or	t0,t0,t2
    1cc8:	09c2                	slli	s3,s3,0x10
    1cca:	0057e7b3          	or	a5,a5,t0
    1cce:	0109d993          	srli	s3,s3,0x10
    1cd2:	0a95                	addi	s5,s5,5
    1cd4:	b74d                	j	1c76 <parse_report_descriptor+0x6c>
    1cd6:	47b1                	li	a5,12
    1cd8:	f6f71ae3          	bne	a4,a5,1c4c <parse_report_descriptor+0x42>
    1cdc:	14fd                	addi	s1,s1,-1
    1cde:	1c7d                	addi	s8,s8,-1
    1ce0:	0ff4f493          	andi	s1,s1,255
    1ce4:	0ffc7c13          	andi	s8,s8,255
    1ce8:	f714d2e3          	bge	s1,a7,1c4c <parse_report_descriptor+0x42>
    1cec:	58fd                	li	a7,-1
    1cee:	bfb9                	j	1c4c <parse_report_descriptor+0x42>
    1cf0:	1b760463          	beq	a2,s7,1e98 <parse_report_descriptor+0x28e>
    1cf4:	ce01                	beqz	a2,1d0c <parse_report_descriptor+0x102>
    1cf6:	4289                	li	t0,2
    1cf8:	f4561ae3          	bne	a2,t0,1c4c <parse_report_descriptor+0x42>
    1cfc:	2b770263          	beq	a4,s7,1fa0 <parse_report_descriptor+0x396>
    1d00:	20070063          	beqz	a4,1f00 <parse_report_descriptor+0x2f6>
    1d04:	f4c714e3          	bne	a4,a2,1c4c <parse_report_descriptor+0x42>
    1d08:	97ca                	add	a5,a5,s2
    1d0a:	ac71                	j	1fa6 <parse_report_descriptor+0x39c>
    1d0c:	0721                	addi	a4,a4,8
    1d0e:	8b3d                	andi	a4,a4,15
    1d10:	4611                	li	a2,4
    1d12:	f2e66fe3          	bltu	a2,a4,1c50 <parse_report_descriptor+0x46>
    1d16:	4642                	lw	a2,16(sp)
    1d18:	070a                	slli	a4,a4,0x2
    1d1a:	9732                	add	a4,a4,a2
    1d1c:	4318                	lw	a4,0(a4)
    1d1e:	8702                	jr	a4
    1d20:	040f0763          	beqz	t5,1d6e <parse_report_descriptor+0x164>
    1d24:	201c                	lbu	a5,0(s0)
    1d26:	8b85                	andi	a5,a5,1
    1d28:	c3b9                	beqz	a5,1d6e <parse_report_descriptor+0x164>
    1d2a:	02680f33          	mul	t5,a6,t1
    1d2e:	01840613          	addi	a2,s0,24
    1d32:	4701                	li	a4,0
    1d34:	42b1                	li	t0,12
    1d36:	0fff7f13          	andi	t5,t5,255
    1d3a:	0ff77793          	andi	a5,a4,255
    1d3e:	0067fe63          	bgeu	a5,t1,1d5a <parse_report_descriptor+0x150>
    1d42:	00e507b3          	add	a5,a0,a4
    1d46:	07c2                	slli	a5,a5,0x10
    1d48:	83c1                	srli	a5,a5,0x10
    1d4a:	0037d393          	srli	t2,a5,0x3
    1d4e:	8b9d                	andi	a5,a5,7
    1d50:	00fb97b3          	sll	a5,s7,a5
    1d54:	00760023          	sb	t2,0(a2)
    1d58:	b21c                	sb	a5,1(a2)
    1d5a:	0705                	addi	a4,a4,1
    1d5c:	0609                	addi	a2,a2,2
    1d5e:	fc571ee3          	bne	a4,t0,1d3a <parse_report_descriptor+0x130>
    1d62:	03e40e23          	sb	t5,60(s0)
    1d66:	066be363          	bltu	s7,t1,1dcc <parse_report_descriptor+0x1c2>
    1d6a:	0045e593          	ori	a1,a1,4
    1d6e:	01081793          	slli	a5,a6,0x10
    1d72:	83c1                	srli	a5,a5,0x10
    1d74:	040dcf63          	bltz	s11,1dd2 <parse_report_descriptor+0x1c8>
    1d78:	2018                	lbu	a4,0(s0)
    1d7a:	8b05                	andi	a4,a4,1
    1d7c:	c305                	beqz	a4,1d9c <parse_report_descriptor+0x192>
    1d7e:	03b78db3          	mul	s11,a5,s11
    1d82:	01d41623          	sh	t4,12(s0)
    1d86:	01c41723          	sh	t3,14(s0)
    1d8a:	01040523          	sb	a6,10(s0)
    1d8e:	0015e593          	ori	a1,a1,1
    1d92:	9daa                	add	s11,s11,a0
    1d94:	01b41423          	sh	s11,8(s0)
    1d98:	040cd263          	bgez	s9,1ddc <parse_report_descriptor+0x1d2>
    1d9c:	040d4e63          	bltz	s10,1df8 <parse_report_descriptor+0x1ee>
    1da0:	2018                	lbu	a4,0(s0)
    1da2:	8b0d                	andi	a4,a4,3
    1da4:	05f71a63          	bne	a4,t6,1df8 <parse_report_descriptor+0x1ee>
    1da8:	03a78d33          	mul	s10,a5,s10
    1dac:	03040923          	sb	a6,50(s0)
    1db0:	9d2a                	add	s10,s10,a0
    1db2:	03a41823          	sh	s10,48(s0)
    1db6:	026787b3          	mul	a5,a5,t1
    1dba:	4f01                	li	t5,0
    1dbc:	5cfd                	li	s9,-1
    1dbe:	5dfd                	li	s11,-1
    1dc0:	5d7d                	li	s10,-1
    1dc2:	953e                	add	a0,a0,a5
    1dc4:	0542                	slli	a0,a0,0x10
    1dc6:	8141                	srli	a0,a0,0x10
    1dc8:	4901                	li	s2,0
    1dca:	b549                	j	1c4c <parse_report_descriptor+0x42>
    1dcc:	00c5e593          	ori	a1,a1,12
    1dd0:	bf79                	j	1d6e <parse_report_descriptor+0x164>
    1dd2:	fc0cc5e3          	bltz	s9,1d9c <parse_report_descriptor+0x192>
    1dd6:	2018                	lbu	a4,0(s0)
    1dd8:	8b05                	andi	a4,a4,1
    1dda:	d369                	beqz	a4,1d9c <parse_report_descriptor+0x192>
    1ddc:	03978cb3          	mul	s9,a5,s9
    1de0:	01d41a23          	sh	t4,20(s0)
    1de4:	01c41b23          	sh	t3,22(s0)
    1de8:	01040923          	sb	a6,18(s0)
    1dec:	0025e593          	ori	a1,a1,2
    1df0:	9caa                	add	s9,s9,a0
    1df2:	01941823          	sh	s9,16(s0)
    1df6:	b75d                	j	1d9c <parse_report_descriptor+0x192>
    1df8:	fa06cfe3          	bltz	a3,1db6 <parse_report_descriptor+0x1ac>
    1dfc:	2018                	lbu	a4,0(s0)
    1dfe:	8b0d                	andi	a4,a4,3
    1e00:	fb771be3          	bne	a4,s7,1db6 <parse_report_descriptor+0x1ac>
    1e04:	02d786b3          	mul	a3,a5,a3
    1e08:	03d41c23          	sh	t4,56(s0)
    1e0c:	03c41d23          	sh	t3,58(s0)
    1e10:	03040b23          	sb	a6,54(s0)
    1e14:	96aa                	add	a3,a3,a0
    1e16:	b856                	sh	a3,52(s0)
    1e18:	56fd                	li	a3,-1
    1e1a:	bf71                	j	1db6 <parse_report_descriptor+0x1ac>
    1e1c:	0485                	addi	s1,s1,1
    1e1e:	0ff4f493          	andi	s1,s1,255
    1e22:	01779763          	bne	a5,s7,1e30 <parse_report_descriptor+0x226>
    1e26:	0b05                	addi	s6,s6,1
    1e28:	0b62                	slli	s6,s6,0x18
    1e2a:	418b5b13          	srai	s6,s6,0x18
    1e2e:	bf69                	j	1dc8 <parse_report_descriptor+0x1be>
    1e30:	e791                	bnez	a5,1e3c <parse_report_descriptor+0x232>
    1e32:	0a05                	addi	s4,s4,1
    1e34:	0a62                	slli	s4,s4,0x18
    1e36:	418a5a13          	srai	s4,s4,0x18
    1e3a:	b779                	j	1dc8 <parse_report_descriptor+0x1be>
    1e3c:	4709                	li	a4,2
    1e3e:	fee78ae3          	beq	a5,a4,1e32 <parse_report_descriptor+0x228>
    1e42:	4901                	li	s2,0
    1e44:	4c05                	li	s8,1
    1e46:	b519                	j	1c4c <parse_report_descriptor+0x42>
    1e48:	14fd                	addi	s1,s1,-1
    1e4a:	0ff4f493          	andi	s1,s1,255
    1e4e:	0114d363          	bge	s1,a7,1e54 <parse_report_descriptor+0x24a>
    1e52:	58fd                	li	a7,-1
    1e54:	000a0763          	beqz	s4,1e62 <parse_report_descriptor+0x258>
    1e58:	1a7d                	addi	s4,s4,-1
    1e5a:	0a62                	slli	s4,s4,0x18
    1e5c:	418a5a13          	srai	s4,s4,0x18
    1e60:	b3f5                	j	1c4c <parse_report_descriptor+0x42>
    1e62:	d636                	sw	a3,44(sp)
    1e64:	d446                	sw	a7,40(sp)
    1e66:	d27a                	sw	t5,36(sp)
    1e68:	d076                	sw	t4,32(sp)
    1e6a:	ce1a                	sw	t1,28(sp)
    1e6c:	cc72                	sw	t3,24(sp)
    1e6e:	ca42                	sw	a6,20(sp)
    1e70:	de0b00e3          	beqz	s6,1c50 <parse_report_descriptor+0x46>
    1e74:	1b7d                	addi	s6,s6,-1
    1e76:	0b62                	slli	s6,s6,0x18
    1e78:	8622                	mv	a2,s0
    1e7a:	418b5b13          	srai	s6,s6,0x18
    1e7e:	3385                	jal	1bde <report_is_usable>
    1e80:	12051663          	bnez	a0,1fac <parse_report_descriptor+0x3a2>
    1e84:	4581                	li	a1,0
    1e86:	4852                	lw	a6,20(sp)
    1e88:	4e62                	lw	t3,24(sp)
    1e8a:	4372                	lw	t1,28(sp)
    1e8c:	5e82                	lw	t4,32(sp)
    1e8e:	5f12                	lw	t5,36(sp)
    1e90:	58a2                	lw	a7,40(sp)
    1e92:	56b2                	lw	a3,44(sp)
    1e94:	4f8d                	li	t6,3
    1e96:	bb5d                	j	1c4c <parse_report_descriptor+0x42>
    1e98:	4625                	li	a2,9
    1e9a:	dae66be3          	bltu	a2,a4,1c50 <parse_report_descriptor+0x46>
    1e9e:	4632                	lw	a2,12(sp)
    1ea0:	070a                	slli	a4,a4,0x2
    1ea2:	9732                	add	a4,a4,a2
    1ea4:	4318                	lw	a4,0(a4)
    1ea6:	8702                	jr	a4
    1ea8:	ffb78613          	addi	a2,a5,-5
    1eac:	471d                	li	a4,7
    1eae:	00c76e63          	bltu	a4,a2,1eca <parse_report_descriptor+0x2c0>
    1eb2:	08d00713          	li	a4,141
    1eb6:	00c75733          	srl	a4,a4,a2
    1eba:	8b05                	andi	a4,a4,1
    1ebc:	d80718e3          	bnez	a4,1c4c <parse_report_descriptor+0x42>
    1ec0:	4725                	li	a4,9
    1ec2:	d8e795e3          	bne	a5,a4,1c4c <parse_report_descriptor+0x42>
    1ec6:	4f05                	li	t5,1
    1ec8:	b351                	j	1c4c <parse_report_descriptor+0x42>
    1eca:	d97791e3          	bne	a5,s7,1c4c <parse_report_descriptor+0x42>
    1ece:	d608dfe3          	bgez	a7,1c4c <parse_report_descriptor+0x42>
    1ed2:	01849893          	slli	a7,s1,0x18
    1ed6:	4188d893          	srai	a7,a7,0x18
    1eda:	bb8d                	j	1c4c <parse_report_descriptor+0x42>
    1edc:	01079e93          	slli	t4,a5,0x10
    1ee0:	010ede93          	srli	t4,t4,0x10
    1ee4:	b3a5                	j	1c4c <parse_report_descriptor+0x42>
    1ee6:	01079e13          	slli	t3,a5,0x10
    1eea:	010e5e13          	srli	t3,t3,0x10
    1eee:	bbb9                	j	1c4c <parse_report_descriptor+0x42>
    1ef0:	0ff7f813          	andi	a6,a5,255
    1ef4:	bba1                	j	1c4c <parse_report_descriptor+0x42>
    1ef6:	b01c                	sb	a5,1(s0)
    1ef8:	bb91                	j	1c4c <parse_report_descriptor+0x42>
    1efa:	0ff7f313          	andi	t1,a5,255
    1efe:	b3b9                	j	1c4c <parse_report_descriptor+0x42>
    1f00:	ec8d                	bnez	s1,1f3a <parse_report_descriptor+0x330>
    1f02:	4719                	li	a4,6
    1f04:	00e79c63          	bne	a5,a4,1f1c <parse_report_descriptor+0x312>
    1f08:	201c                	lbu	a5,0(s0)
    1f0a:	9bf1                	andi	a5,a5,-4
    1f0c:	0027e793          	ori	a5,a5,2
    1f10:	a01c                	sb	a5,0(s0)
    1f12:	0905                	addi	s2,s2,1
    1f14:	0942                	slli	s2,s2,0x10
    1f16:	01095913          	srli	s2,s2,0x10
    1f1a:	bb0d                	j	1c4c <parse_report_descriptor+0x42>
    1f1c:	00c79763          	bne	a5,a2,1f2a <parse_report_descriptor+0x320>
    1f20:	201c                	lbu	a5,0(s0)
    1f22:	9bf1                	andi	a5,a5,-4
    1f24:	0017e793          	ori	a5,a5,1
    1f28:	b7e5                	j	1f10 <parse_report_descriptor+0x306>
    1f2a:	ffc78713          	addi	a4,a5,-4
    1f2e:	00ebe663          	bltu	s7,a4,1f3a <parse_report_descriptor+0x330>
    1f32:	201c                	lbu	a5,0(s0)
    1f34:	0037e793          	ori	a5,a5,3
    1f38:	bfe1                	j	1f10 <parse_report_descriptor+0x306>
    1f3a:	fd778ce3          	beq	a5,s7,1f12 <parse_report_descriptor+0x308>
    1f3e:	fd078713          	addi	a4,a5,-48
    1f42:	02ebe263          	bltu	s7,a4,1f66 <parse_report_descriptor+0x35c>
    1f46:	fc0b06e3          	beqz	s6,1f12 <parse_report_descriptor+0x308>
    1f4a:	2018                	lbu	a4,0(s0)
    1f4c:	8b05                	andi	a4,a4,1
    1f4e:	d371                	beqz	a4,1f12 <parse_report_descriptor+0x308>
    1f50:	01891713          	slli	a4,s2,0x18
    1f54:	03000613          	li	a2,48
    1f58:	8761                	srai	a4,a4,0x18
    1f5a:	00c79463          	bne	a5,a2,1f62 <parse_report_descriptor+0x358>
    1f5e:	8dba                	mv	s11,a4
    1f60:	bf4d                	j	1f12 <parse_report_descriptor+0x308>
    1f62:	8cba                	mv	s9,a4
    1f64:	b77d                	j	1f12 <parse_report_descriptor+0x308>
    1f66:	03900713          	li	a4,57
    1f6a:	00e79d63          	bne	a5,a4,1f84 <parse_report_descriptor+0x37a>
    1f6e:	fa0b02e3          	beqz	s6,1f12 <parse_report_descriptor+0x308>
    1f72:	201c                	lbu	a5,0(s0)
    1f74:	8b8d                	andi	a5,a5,3
    1f76:	f9f79ee3          	bne	a5,t6,1f12 <parse_report_descriptor+0x308>
    1f7a:	01891d13          	slli	s10,s2,0x18
    1f7e:	418d5d13          	srai	s10,s10,0x18
    1f82:	bf41                	j	1f12 <parse_report_descriptor+0x308>
    1f84:	03800713          	li	a4,56
    1f88:	f8e795e3          	bne	a5,a4,1f12 <parse_report_descriptor+0x308>
    1f8c:	f80b03e3          	beqz	s6,1f12 <parse_report_descriptor+0x308>
    1f90:	201c                	lbu	a5,0(s0)
    1f92:	8b8d                	andi	a5,a5,3
    1f94:	f7779fe3          	bne	a5,s7,1f12 <parse_report_descriptor+0x308>
    1f98:	01891693          	slli	a3,s2,0x18
    1f9c:	86e1                	srai	a3,a3,0x18
    1f9e:	bf95                	j	1f12 <parse_report_descriptor+0x308>
    1fa0:	0905                	addi	s2,s2,1
    1fa2:	40f907b3          	sub	a5,s2,a5
    1fa6:	01079913          	slli	s2,a5,0x10
    1faa:	b7b5                	j	1f16 <parse_report_descriptor+0x30c>
    1fac:	4505                	li	a0,1
    1fae:	6145                	addi	sp,sp,48
    1fb0:	9ccfe06f          	j	17c <__riscv_restore_12>

00001fb4 <HID_GetHidDesr>:
    1fb4:	9bcfe2ef          	jal	t0,170 <__riscv_save_0>
    1fb8:	83818713          	addi	a4,gp,-1992 # 20000038 <SetupGetHidDes>
    1fbc:	8832                	mv	a6,a2
    1fbe:	4310                	lw	a2,0(a4)
    1fc0:	4358                	lw	a4,4(a4)
    1fc2:	200027b7          	lui	a5,0x20002
    1fc6:	a4c7ac23          	sw	a2,-1448(a5) # 20001a58 <USBFS_TX_Buf>
    1fca:	a5878793          	addi	a5,a5,-1448
    1fce:	c3d8                	sw	a4,4(a5)
    1fd0:	a3ce                	sh	a1,4(a5)
    1fd2:	229a                	lhu	a4,0(a3)
    1fd4:	8636                	mv	a2,a3
    1fd6:	85c2                	mv	a1,a6
    1fd8:	a3fa                	sh	a4,6(a5)
    1fda:	e7aff0ef          	jal	ra,1654 <USBFSH_CtrlTransfer>
    1fde:	9b6fe06f          	j	194 <__riscv_restore_0>

00001fe2 <HID_SetReport>:
    1fe2:	98efe2ef          	jal	t0,170 <__riscv_save_0>
    1fe6:	84018713          	addi	a4,gp,-1984 # 20000040 <SetupSetReport>
    1fea:	8832                	mv	a6,a2
    1fec:	4310                	lw	a2,0(a4)
    1fee:	4358                	lw	a4,4(a4)
    1ff0:	200027b7          	lui	a5,0x20002
    1ff4:	a4c7ac23          	sw	a2,-1448(a5) # 20001a58 <USBFS_TX_Buf>
    1ff8:	a5878793          	addi	a5,a5,-1448
    1ffc:	c3d8                	sw	a4,4(a5)
    1ffe:	a3ce                	sh	a1,4(a5)
    2000:	8636                	mv	a2,a3
    2002:	85c2                	mv	a1,a6
    2004:	e50ff0ef          	jal	ra,1654 <USBFSH_CtrlTransfer>
    2008:	98cfe06f          	j	194 <__riscv_restore_0>

0000200c <HID_SetIdle>:
    200c:	964fe2ef          	jal	t0,170 <__riscv_save_0>
    2010:	84818713          	addi	a4,gp,-1976 # 20000048 <SetupSetidle>
    2014:	00072803          	lw	a6,0(a4)
    2018:	4358                	lw	a4,4(a4)
    201a:	200027b7          	lui	a5,0x20002
    201e:	a507ac23          	sw	a6,-1448(a5) # 20001a58 <USBFS_TX_Buf>
    2022:	0622                	slli	a2,a2,0x8
    2024:	a5878793          	addi	a5,a5,-1448
    2028:	8ed1                	or	a3,a3,a2
    202a:	c3d8                	sw	a4,4(a5)
    202c:	a3ce                	sh	a1,4(a5)
    202e:	a3b6                	sh	a3,2(a5)
    2030:	4601                	li	a2,0
    2032:	4581                	li	a1,0
    2034:	e20ff0ef          	jal	ra,1654 <USBFSH_CtrlTransfer>
    2038:	95cfe06f          	j	194 <__riscv_restore_0>

0000203c <HUB_GetPortStatus>:
    203c:	934fe2ef          	jal	t0,170 <__riscv_save_0>
    2040:	86018713          	addi	a4,gp,-1952 # 20000060 <GetPortStatus>
    2044:	86b2                	mv	a3,a2
    2046:	4310                	lw	a2,0(a4)
    2048:	4358                	lw	a4,4(a4)
    204a:	200027b7          	lui	a5,0x20002
    204e:	a4c7ac23          	sw	a2,-1448(a5) # 20001a58 <USBFS_TX_Buf>
    2052:	a5878793          	addi	a5,a5,-1448
    2056:	1141                	addi	sp,sp,-16
    2058:	c3d8                	sw	a4,4(a5)
    205a:	a3ce                	sh	a1,4(a5)
    205c:	00e10613          	addi	a2,sp,14
    2060:	85b6                	mv	a1,a3
    2062:	df2ff0ef          	jal	ra,1654 <USBFSH_CtrlTransfer>
    2066:	0141                	addi	sp,sp,16
    2068:	92cfe06f          	j	194 <__riscv_restore_0>

0000206c <HUB_ClearPortFeature>:
    206c:	904fe2ef          	jal	t0,170 <__riscv_save_0>
    2070:	85018713          	addi	a4,gp,-1968 # 20000050 <ClearPortFeature>
    2074:	4314                	lw	a3,0(a4)
    2076:	4358                	lw	a4,4(a4)
    2078:	200027b7          	lui	a5,0x20002
    207c:	a4d7ac23          	sw	a3,-1448(a5) # 20001a58 <USBFS_TX_Buf>
    2080:	a5878793          	addi	a5,a5,-1448
    2084:	c3d8                	sw	a4,4(a5)
    2086:	a3b2                	sh	a2,2(a5)
    2088:	a3ce                	sh	a1,4(a5)
    208a:	4601                	li	a2,0
    208c:	4581                	li	a1,0
    208e:	dc6ff0ef          	jal	ra,1654 <USBFSH_CtrlTransfer>
    2092:	902fe06f          	j	194 <__riscv_restore_0>

00002096 <HUB_SetPortFeature>:
    2096:	8dafe2ef          	jal	t0,170 <__riscv_save_0>
    209a:	86818713          	addi	a4,gp,-1944 # 20000068 <SetPortFeature>
    209e:	4314                	lw	a3,0(a4)
    20a0:	4358                	lw	a4,4(a4)
    20a2:	200027b7          	lui	a5,0x20002
    20a6:	a4d7ac23          	sw	a3,-1448(a5) # 20001a58 <USBFS_TX_Buf>
    20aa:	a5878793          	addi	a5,a5,-1448
    20ae:	c3d8                	sw	a4,4(a5)
    20b0:	a3b2                	sh	a2,2(a5)
    20b2:	a3ce                	sh	a1,4(a5)
    20b4:	4601                	li	a2,0
    20b6:	4581                	li	a1,0
    20b8:	d9cff0ef          	jal	ra,1654 <USBFSH_CtrlTransfer>
    20bc:	8d8fe06f          	j	194 <__riscv_restore_0>

000020c0 <HUB_GetClassDevDescr>:
    20c0:	896fe2ef          	jal	t0,156 <__riscv_save_4>
    20c4:	85818793          	addi	a5,gp,-1960 # 20000058 <GetHubDescr>
    20c8:	4398                	lw	a4,0(a5)
    20ca:	43dc                	lw	a5,4(a5)
    20cc:	20002437          	lui	s0,0x20002
    20d0:	a4e42c23          	sw	a4,-1448(s0) # 20001a58 <USBFS_TX_Buf>
    20d4:	a5840413          	addi	s0,s0,-1448
    20d8:	89aa                	mv	s3,a0
    20da:	84ae                	mv	s1,a1
    20dc:	8932                	mv	s2,a2
    20de:	c05c                	sw	a5,4(s0)
    20e0:	d74ff0ef          	jal	ra,1654 <USBFSH_CtrlTransfer>
    20e4:	e911                	bnez	a0,20f8 <HUB_GetClassDevDescr+0x38>
    20e6:	209c                	lbu	a5,0(s1)
    20e8:	864a                	mv	a2,s2
    20ea:	85a6                	mv	a1,s1
    20ec:	00f91023          	sh	a5,0(s2)
    20f0:	854e                	mv	a0,s3
    20f2:	a07e                	sh	a5,6(s0)
    20f4:	d60ff0ef          	jal	ra,1654 <USBFSH_CtrlTransfer>
    20f8:	892fe06f          	j	18a <__riscv_restore_4>

000020fc <USBH_MouseDecode>:
    20fc:	10c54603          	lbu	a2,268(a0)
    2100:	e619                	bnez	a2,210e <USBH_MouseDecode+0x12>
    2102:	4509                	li	a0,2
    2104:	8082                	ret
    2106:	4509                	li	a0,2
    2108:	0141                	addi	sp,sp,16
    210a:	880fe06f          	j	18a <__riscv_restore_4>
    210e:	848fe2ef          	jal	t0,156 <__riscv_save_4>
    2112:	87418493          	addi	s1,gp,-1932 # 20000074 <mouse_report_data>
    2116:	1141                	addi	sp,sp,-16
    2118:	842a                	mv	s0,a0
    211a:	0004a023          	sw	zero,0(s1)
    211e:	0004a223          	sw	zero,4(s1)
    2122:	87418593          	addi	a1,gp,-1932 # 20000074 <mouse_report_data>
    2126:	08050513          	addi	a0,a0,128
    212a:	357000ef          	jal	ra,2c80 <FifoRead>
    212e:	dd61                	beqz	a0,2106 <USBH_MouseDecode+0xa>
    2130:	04344783          	lbu	a5,67(s0)
    2134:	0485                	addi	s1,s1,1
    2136:	e399                	bnez	a5,213c <USBH_MouseDecode+0x40>
    2138:	87418493          	addi	s1,gp,-1932 # 20000074 <mouse_report_data>
    213c:	04e45783          	lhu	a5,78(s0)
    2140:	05045683          	lhu	a3,80(s0)
    2144:	04c44603          	lbu	a2,76(s0)
    2148:	04a45583          	lhu	a1,74(s0)
    214c:	00f6b6b3          	sltu	a3,a3,a5
    2150:	8526                	mv	a0,s1
    2152:	3e1000ef          	jal	ra,2d32 <collect_bits>
    2156:	05645683          	lhu	a3,86(s0)
    215a:	05845783          	lhu	a5,88(s0)
    215e:	05245583          	lhu	a1,82(s0)
    2162:	05444603          	lbu	a2,84(s0)
    2166:	01051a13          	slli	s4,a0,0x10
    216a:	00d7b6b3          	sltu	a3,a5,a3
    216e:	410a5a13          	srai	s4,s4,0x10
    2172:	8526                	mv	a0,s1
    2174:	01411623          	sh	s4,12(sp)
    2178:	3bb000ef          	jal	ra,2d32 <collect_bits>
    217c:	01051993          	slli	s3,a0,0x10
    2180:	4109d993          	srai	s3,s3,0x10
    2184:	01311723          	sh	s3,14(sp)
    2188:	05a40693          	addi	a3,s0,90
    218c:	4701                	li	a4,0
    218e:	4901                	li	s2,0
    2190:	4505                	li	a0,1
    2192:	4591                	li	a1,4
    2194:	2290                	lbu	a2,0(a3)
    2196:	329c                	lbu	a5,1(a3)
    2198:	9626                	add	a2,a2,s1
    219a:	2210                	lbu	a2,0(a2)
    219c:	8e7d                	and	a2,a2,a5
    219e:	c619                	beqz	a2,21ac <USBH_MouseDecode+0xb0>
    21a0:	00e51633          	sll	a2,a0,a4
    21a4:	012667b3          	or	a5,a2,s2
    21a8:	0ff7f913          	andi	s2,a5,255
    21ac:	0705                	addi	a4,a4,1
    21ae:	0689                	addi	a3,a3,2
    21b0:	feb712e3          	bne	a4,a1,2194 <USBH_MouseDecode+0x98>
    21b4:	07c45783          	lhu	a5,124(s0)
    21b8:	07a45683          	lhu	a3,122(s0)
    21bc:	07844603          	lbu	a2,120(s0)
    21c0:	07645583          	lhu	a1,118(s0)
    21c4:	00d7b6b3          	sltu	a3,a5,a3
    21c8:	8526                	mv	a0,s1
    21ca:	369000ef          	jal	ra,2d32 <collect_bits>
    21ce:	04244703          	lbu	a4,66(s0)
    21d2:	4785                	li	a5,1
    21d4:	8b0d                	andi	a4,a4,3
    21d6:	06f71d63          	bne	a4,a5,2250 <USBH_MouseDecode+0x154>
    21da:	07f00713          	li	a4,127
    21de:	01475463          	bge	a4,s4,21e6 <USBH_MouseDecode+0xea>
    21e2:	8678                	sh	a4,12(sp)
    21e4:	a029                	j	21ee <USBH_MouseDecode+0xf2>
    21e6:	f8000713          	li	a4,-128
    21ea:	feea4ce3          	blt	s4,a4,21e2 <USBH_MouseDecode+0xe6>
    21ee:	07f00713          	li	a4,127
    21f2:	01375463          	bge	a4,s3,21fa <USBH_MouseDecode+0xfe>
    21f6:	8778                	sh	a4,14(sp)
    21f8:	a029                	j	2202 <USBH_MouseDecode+0x106>
    21fa:	f8000713          	li	a4,-128
    21fe:	fee9cce3          	blt	s3,a4,21f6 <USBH_MouseDecode+0xfa>
    2202:	872a                	mv	a4,a0
    2204:	0542                	slli	a0,a0,0x10
    2206:	8541                	srai	a0,a0,0x10
    2208:	f8000793          	li	a5,-128
    220c:	00f55463          	bge	a0,a5,2214 <USBH_MouseDecode+0x118>
    2210:	f8000713          	li	a4,-128
    2214:	47b2                	lw	a5,12(sp)
    2216:	200026b7          	lui	a3,0x20002
    221a:	ad868613          	addi	a2,a3,-1320 # 20001ad8 <mouse_info>
    221e:	c21c                	sw	a5,0(a2)
    2220:	00197793          	andi	a5,s2,1
    2224:	a25c                	sb	a5,4(a2)
    2226:	00295793          	srli	a5,s2,0x2
    222a:	8b85                	andi	a5,a5,1
    222c:	00195593          	srli	a1,s2,0x1
    2230:	a27c                	sb	a5,6(a2)
    2232:	8985                	andi	a1,a1,1
    2234:	87ba                	mv	a5,a4
    2236:	b24c                	sb	a1,5(a2)
    2238:	01079613          	slli	a2,a5,0x10
    223c:	8641                	srai	a2,a2,0x10
    223e:	07f00713          	li	a4,127
    2242:	ad868693          	addi	a3,a3,-1320
    2246:	00c75463          	bge	a4,a2,224e <USBH_MouseDecode+0x152>
    224a:	07f00793          	li	a5,127
    224e:	a69e                	sh	a5,8(a3)
    2250:	4501                	li	a0,0
    2252:	bd5d                	j	2108 <USBH_MouseDecode+0xc>

00002254 <USBH_GetMouseInfo>:
    2254:	f1dfd2ef          	jal	t0,170 <__riscv_save_0>
    2258:	3555                	jal	20fc <USBH_MouseDecode>
    225a:	c501                	beqz	a0,2262 <USBH_GetMouseInfo+0xe>
    225c:	4501                	li	a0,0
    225e:	f37fd06f          	j	194 <__riscv_restore_0>
    2262:	20002537          	lui	a0,0x20002
    2266:	ad850513          	addi	a0,a0,-1320 # 20001ad8 <mouse_info>
    226a:	bfd5                	j	225e <USBH_GetMouseInfo+0xa>

0000226c <NMI_Handler>:
    226c:	30200073          	mret

00002270 <HardFault_Handler>:
    2270:	a001                	j	2270 <HardFault_Handler>

00002272 <EXTI1_IRQHandler>:
    2272:	4509                	li	a0,2
    2274:	4e9000ef          	jal	ra,2f5c <EXTI_GetITStatus>
    2278:	c511                	beqz	a0,2284 <EXTI1_IRQHandler+0x12>
    227a:	6d2000ef          	jal	ra,294c <ProcessScrollIRQ>
    227e:	4509                	li	a0,2
    2280:	4fb000ef          	jal	ra,2f7a <EXTI_ClearITPendingBit>
    2284:	30200073          	mret

00002288 <ProcessGamepad>:
    2288:	c551                	beqz	a0,2314 <ProcessGamepad+0x8c>
    228a:	ee7fd2ef          	jal	t0,170 <__riscv_save_0>
    228e:	2110                	lbu	a2,0(a0)
    2290:	400114b7          	lui	s1,0x40011
    2294:	842a                	mv	s0,a0
    2296:	fff64613          	not	a2,a2
    229a:	80048513          	addi	a0,s1,-2048 # 40010800 <_eusrstack+0x2000b800>
    229e:	8a05                	andi	a2,a2,1
    22a0:	45a1                	li	a1,8
    22a2:	60b000ef          	jal	ra,30ac <GPIO_WriteBit>
    22a6:	2010                	lbu	a2,0(s0)
    22a8:	80048513          	addi	a0,s1,-2048
    22ac:	45c1                	li	a1,16
    22ae:	8205                	srli	a2,a2,0x1
    22b0:	fff64613          	not	a2,a2
    22b4:	8a05                	andi	a2,a2,1
    22b6:	5f7000ef          	jal	ra,30ac <GPIO_WriteBit>
    22ba:	2010                	lbu	a2,0(s0)
    22bc:	80048513          	addi	a0,s1,-2048
    22c0:	02000593          	li	a1,32
    22c4:	8209                	srli	a2,a2,0x2
    22c6:	fff64613          	not	a2,a2
    22ca:	8a05                	andi	a2,a2,1
    22cc:	5e1000ef          	jal	ra,30ac <GPIO_WriteBit>
    22d0:	2010                	lbu	a2,0(s0)
    22d2:	80048513          	addi	a0,s1,-2048
    22d6:	08000593          	li	a1,128
    22da:	820d                	srli	a2,a2,0x3
    22dc:	fff64613          	not	a2,a2
    22e0:	8a05                	andi	a2,a2,1
    22e2:	5cb000ef          	jal	ra,30ac <GPIO_WriteBit>
    22e6:	2010                	lbu	a2,0(s0)
    22e8:	80048513          	addi	a0,s1,-2048
    22ec:	04000593          	li	a1,64
    22f0:	8211                	srli	a2,a2,0x4
    22f2:	fff64613          	not	a2,a2
    22f6:	8a05                	andi	a2,a2,1
    22f8:	5b5000ef          	jal	ra,30ac <GPIO_WriteBit>
    22fc:	2010                	lbu	a2,0(s0)
    22fe:	4591                	li	a1,4
    2300:	80048513          	addi	a0,s1,-2048
    2304:	8219                	srli	a2,a2,0x6
    2306:	fff64613          	not	a2,a2
    230a:	8a05                	andi	a2,a2,1
    230c:	5a1000ef          	jal	ra,30ac <GPIO_WriteBit>
    2310:	e85fd06f          	j	194 <__riscv_restore_0>
    2314:	8082                	ret

00002316 <GPIO_Config>:
    2316:	e5bfd2ef          	jal	t0,170 <__riscv_save_0>
    231a:	7179                	addi	sp,sp,-48
    231c:	4585                	li	a1,1
    231e:	4511                	li	a0,4
    2320:	6c5000ef          	jal	ra,31e4 <RCC_APB2PeriphClockCmd>
    2324:	4585                	li	a1,1
    2326:	4521                	li	a0,8
    2328:	6bd000ef          	jal	ra,31e4 <RCC_APB2PeriphClockCmd>
    232c:	4585                	li	a1,1
    232e:	4541                	li	a0,16
    2330:	6b5000ef          	jal	ra,31e4 <RCC_APB2PeriphClockCmd>
    2334:	4585                	li	a1,1
    2336:	4505                	li	a0,1
    2338:	6ad000ef          	jal	ra,31e4 <RCC_APB2PeriphClockCmd>
    233c:	40011437          	lui	s0,0x40011
    2340:	4605                	li	a2,1
    2342:	80040513          	addi	a0,s0,-2048 # 40010800 <_eusrstack+0x2000b800>
    2346:	04400593          	li	a1,68
    234a:	ca02                	sw	zero,20(sp)
    234c:	cc02                	sw	zero,24(sp)
    234e:	ce02                	sw	zero,28(sp)
    2350:	55d000ef          	jal	ra,30ac <GPIO_WriteBit>
    2354:	0fc00793          	li	a5,252
    2358:	82fc                	sh	a5,20(sp)
    235a:	47c1                	li	a5,16
    235c:	ce3e                	sw	a5,28(sp)
    235e:	084c                	addi	a1,sp,20
    2360:	478d                	li	a5,3
    2362:	80040513          	addi	a0,s0,-2048
    2366:	cc3e                	sw	a5,24(sp)
    2368:	41d000ef          	jal	ra,2f84 <GPIO_Init>
    236c:	4789                	li	a5,2
    236e:	82fc                	sh	a5,20(sp)
    2370:	084c                	addi	a1,sp,20
    2372:	04800793          	li	a5,72
    2376:	80040513          	addi	a0,s0,-2048
    237a:	ce3e                	sw	a5,28(sp)
    237c:	d002                	sw	zero,32(sp)
    237e:	d202                	sw	zero,36(sp)
    2380:	d402                	sw	zero,40(sp)
    2382:	d602                	sw	zero,44(sp)
    2384:	c602                	sw	zero,12(sp)
    2386:	c802                	sw	zero,16(sp)
    2388:	3fd000ef          	jal	ra,2f84 <GPIO_Init>
    238c:	4585                	li	a1,1
    238e:	4501                	li	a0,0
    2390:	54b000ef          	jal	ra,30da <GPIO_EXTILineConfig>
    2394:	4789                	li	a5,2
    2396:	4405                	li	s0,1
    2398:	d03e                	sw	a5,32(sp)
    239a:	1008                	addi	a0,sp,32
    239c:	47b1                	li	a5,12
    239e:	d43e                	sw	a5,40(sp)
    23a0:	d622                	sw	s0,44(sp)
    23a2:	d202                	sw	zero,36(sp)
    23a4:	34f000ef          	jal	ra,2ef2 <EXTI_Init>
    23a8:	11700793          	li	a5,279
    23ac:	0068                	addi	a0,sp,12
    23ae:	867c                	sh	a5,12(sp)
    23b0:	8740                	sb	s0,14(sp)
    23b2:	c822                	sw	s0,16(sp)
    23b4:	553000ef          	jal	ra,3106 <NVIC_Init>
    23b8:	6145                	addi	sp,sp,48
    23ba:	ddbfd06f          	j	194 <__riscv_restore_0>

000023be <main>:
    23be:	d8bfd2ef          	jal	t0,148 <__riscv_save_10>
    23c2:	717000ef          	jal	ra,32d8 <Delay_Init>
    23c6:	200007b7          	lui	a5,0x20000
    23ca:	0047a583          	lw	a1,4(a5) # 20000004 <SystemCoreClock>
    23ce:	6789                	lui	a5,0x2
    23d0:	71078793          	addi	a5,a5,1808 # 2710 <ProcessMouse+0x192>
    23d4:	02f5d5b3          	divu	a1,a1,a5
    23d8:	4525                	li	a0,9
    23da:	20002937          	lui	s2,0x20002
    23de:	20000437          	lui	s0,0x20000
    23e2:	4a0d                	li	s4,3
    23e4:	4a440b13          	addi	s6,s0,1188 # 200004a4 <HostCtl>
    23e8:	11000a93          	li	s5,272
    23ec:	4b85                	li	s7,1
    23ee:	4c11                	li	s8,4
    23f0:	15fd                	addi	a1,a1,-1
    23f2:	05c2                	slli	a1,a1,0x10
    23f4:	81c1                	srli	a1,a1,0x10
    23f6:	e53fd0ef          	jal	ra,248 <TIM3_Init>
    23fa:	fc5fe0ef          	jal	ra,13be <USBFS_RCC_Init>
    23fe:	4505                	li	a0,1
    2400:	804ff0ef          	jal	ra,1404 <USBFS_Host_Init>
    2404:	467d                	li	a2,31
    2406:	4581                	li	a1,0
    2408:	9f890513          	addi	a0,s2,-1544 # 200019f8 <RootHubDev>
    240c:	d95fd0ef          	jal	ra,1a0 <memset>
    2410:	6605                	lui	a2,0x1
    2412:	55460613          	addi	a2,a2,1364 # 1554 <USBFSH_EnableRootHubPort+0x30>
    2416:	4581                	li	a1,0
    2418:	4a440513          	addi	a0,s0,1188
    241c:	d85fd0ef          	jal	ra,1a0 <memset>
    2420:	742000ef          	jal	ra,2b62 <TIM2_Init>
    2424:	9f890913          	addi	s2,s2,-1544
    2428:	79c000ef          	jal	ra,2bc4 <TIM4_Init>
    242c:	35ed                	jal	2316 <GPIO_Config>
    242e:	2889                	jal	2480 <InitMouse>
    2430:	abbfe0ef          	jal	ra,eea <USBH_MainDeal>
    2434:	00194783          	lbu	a5,1(s2)
    2438:	ff479ce3          	bne	a5,s4,2430 <main+0x72>
    243c:	4a440993          	addi	s3,s0,1188
    2440:	4481                	li	s1,0
    2442:	035487b3          	mul	a5,s1,s5
    2446:	97da                	add	a5,a5,s6
    2448:	0467d783          	lhu	a5,70(a5)
    244c:	8b8d                	andi	a5,a5,3
    244e:	01779663          	bne	a5,s7,245a <main+0x9c>
    2452:	00498513          	addi	a0,s3,4
    2456:	3bfd                	jal	2254 <USBH_GetMouseInfo>
    2458:	221d                	jal	257e <ProcessMouse>
    245a:	035487b3          	mul	a5,s1,s5
    245e:	97da                	add	a5,a5,s6
    2460:	0467d783          	lhu	a5,70(a5)
    2464:	8b8d                	andi	a5,a5,3
    2466:	01479763          	bne	a5,s4,2474 <main+0xb6>
    246a:	00498513          	addi	a0,s3,4
    246e:	f5cff0ef          	jal	ra,1bca <GetGamepadInfo>
    2472:	3d19                	jal	2288 <ProcessGamepad>
    2474:	0485                	addi	s1,s1,1
    2476:	11098993          	addi	s3,s3,272
    247a:	fd8494e3          	bne	s1,s8,2442 <main+0x84>
    247e:	bf4d                	j	2430 <main+0x72>

00002480 <InitMouse>:
    2480:	cf1fd2ef          	jal	t0,170 <__riscv_save_0>
    2484:	20002537          	lui	a0,0x20002
    2488:	ae450513          	addi	a0,a0,-1308 # 20001ae4 <ScrollBuffer>
    248c:	7de000ef          	jal	ra,2c6a <FifoInit>
    2490:	d05fd06f          	j	194 <__riscv_restore_0>

00002494 <processMouseMovement>:
    2494:	08a05e63          	blez	a0,2530 <processMouseMovement+0x9c>
    2498:	c689                	beqz	a3,24a2 <processMouseMovement+0xe>
    249a:	4785                	li	a5,1
    249c:	00f50363          	beq	a0,a5,24a2 <processMouseMovement+0xe>
    24a0:	8505                	srai	a0,a0,0x1
    24a2:	0542                	slli	a0,a0,0x10
    24a4:	8141                	srli	a0,a0,0x10
    24a6:	e195                	bnez	a1,24ca <processMouseMovement+0x36>
    24a8:	87e18793          	addi	a5,gp,-1922 # 2000007e <mouseDistanceX>
    24ac:	239a                	lhu	a4,0(a5)
    24ae:	953a                	add	a0,a0,a4
    24b0:	0542                	slli	a0,a0,0x10
    24b2:	8541                	srai	a0,a0,0x10
    24b4:	a38a                	sh	a0,0(a5)
    24b6:	87e18713          	addi	a4,gp,-1922 # 2000007e <mouseDistanceX>
    24ba:	231a                	lhu	a4,0(a4)
    24bc:	12c00693          	li	a3,300
    24c0:	87e18793          	addi	a5,gp,-1922 # 2000007e <mouseDistanceX>
    24c4:	0742                	slli	a4,a4,0x10
    24c6:	8741                	srai	a4,a4,0x10
    24c8:	a00d                	j	24ea <processMouseMovement+0x56>
    24ca:	88018793          	addi	a5,gp,-1920 # 20000080 <mouseDistanceY>
    24ce:	239a                	lhu	a4,0(a5)
    24d0:	953a                	add	a0,a0,a4
    24d2:	0542                	slli	a0,a0,0x10
    24d4:	8541                	srai	a0,a0,0x10
    24d6:	a38a                	sh	a0,0(a5)
    24d8:	88018713          	addi	a4,gp,-1920 # 20000080 <mouseDistanceY>
    24dc:	231a                	lhu	a4,0(a4)
    24de:	12c00693          	li	a3,300
    24e2:	88018793          	addi	a5,gp,-1920 # 20000080 <mouseDistanceY>
    24e6:	0742                	slli	a4,a4,0x10
    24e8:	8741                	srai	a4,a4,0x10
    24ea:	00e6d363          	bge	a3,a4,24f0 <processMouseMovement+0x5c>
    24ee:	a396                	sh	a3,0(a5)
    24f0:	238a                	lhu	a0,0(a5)
    24f2:	07f00713          	li	a4,127
    24f6:	01051793          	slli	a5,a0,0x10
    24fa:	83c1                	srli	a5,a5,0x10
    24fc:	06f76e63          	bltu	a4,a5,2578 <processMouseMovement+0xe4>
    2500:	0ff00513          	li	a0,255
    2504:	c39d                	beqz	a5,252a <processMouseMovement+0x96>
    2506:	6509                	lui	a0,0x2
    2508:	71050513          	addi	a0,a0,1808 # 2710 <ProcessMouse+0x192>
    250c:	02f54533          	div	a0,a0,a5
    2510:	8119                	srli	a0,a0,0x6
    2512:	157d                	addi	a0,a0,-1
    2514:	0542                	slli	a0,a0,0x10
    2516:	8141                	srli	a0,a0,0x10
    2518:	ca09                	beqz	a2,252a <processMouseMovement+0x96>
    251a:	4719                	li	a4,6
    251c:	87aa                	mv	a5,a0
    251e:	00e57363          	bgeu	a0,a4,2524 <processMouseMovement+0x90>
    2522:	4799                	li	a5,6
    2524:	01079513          	slli	a0,a5,0x10
    2528:	8141                	srli	a0,a0,0x10
    252a:	0ff57513          	andi	a0,a0,255
    252e:	8082                	ret
    2530:	cd0d                	beqz	a0,256a <processMouseMovement+0xd6>
    2532:	c699                	beqz	a3,2540 <processMouseMovement+0xac>
    2534:	57fd                	li	a5,-1
    2536:	00f50563          	beq	a0,a5,2540 <processMouseMovement+0xac>
    253a:	4789                	li	a5,2
    253c:	02f54533          	div	a0,a0,a5
    2540:	0542                	slli	a0,a0,0x10
    2542:	8141                	srli	a0,a0,0x10
    2544:	e991                	bnez	a1,2558 <processMouseMovement+0xc4>
    2546:	87e18713          	addi	a4,gp,-1922 # 2000007e <mouseDistanceX>
    254a:	231e                	lhu	a5,0(a4)
    254c:	40a78533          	sub	a0,a5,a0
    2550:	0542                	slli	a0,a0,0x10
    2552:	8541                	srai	a0,a0,0x10
    2554:	a30a                	sh	a0,0(a4)
    2556:	b785                	j	24b6 <processMouseMovement+0x22>
    2558:	88018713          	addi	a4,gp,-1920 # 20000080 <mouseDistanceY>
    255c:	231e                	lhu	a5,0(a4)
    255e:	40a78533          	sub	a0,a5,a0
    2562:	0542                	slli	a0,a0,0x10
    2564:	8541                	srai	a0,a0,0x10
    2566:	a30a                	sh	a0,0(a4)
    2568:	bf85                	j	24d8 <processMouseMovement+0x44>
    256a:	e581                	bnez	a1,2572 <processMouseMovement+0xde>
    256c:	86019f23          	sh	zero,-1922(gp) # 2000007e <mouseDistanceX>
    2570:	b799                	j	24b6 <processMouseMovement+0x22>
    2572:	88019023          	sh	zero,-1920(gp) # 20000080 <mouseDistanceY>
    2576:	b78d                	j	24d8 <processMouseMovement+0x44>
    2578:	07f00793          	li	a5,127
    257c:	b769                	j	2506 <processMouseMovement+0x72>

0000257e <ProcessMouse>:
    257e:	1a050463          	beqz	a0,2726 <ProcessMouse+0x1a8>
    2582:	bd5fd2ef          	jal	t0,156 <__riscv_save_4>
    2586:	00051703          	lh	a4,0(a0)
    258a:	1141                	addi	sp,sp,-16
    258c:	0ee05a63          	blez	a4,2680 <ProcessMouse+0x102>
    2590:	87c18793          	addi	a5,gp,-1924 # 2000007c <mouseDirectionX>
    2594:	2394                	lbu	a3,0(a5)
    2596:	06e2                	slli	a3,a3,0x18
    2598:	86e1                	srai	a3,a3,0x18
    259a:	10069163          	bnez	a3,269c <ProcessMouse+0x11e>
    259e:	86019f23          	sh	zero,-1922(gp) # 2000007e <mouseDistanceX>
    25a2:	4685                	li	a3,1
    25a4:	a394                	sb	a3,0(a5)
    25a6:	842a                	mv	s0,a0
    25a8:	01871513          	slli	a0,a4,0x18
    25ac:	4681                	li	a3,0
    25ae:	4601                	li	a2,0
    25b0:	4581                	li	a1,0
    25b2:	8561                	srai	a0,a0,0x18
    25b4:	35c5                	jal	2494 <processMouseMovement>
    25b6:	200007b7          	lui	a5,0x20000
    25ba:	00a78023          	sb	a0,0(a5) # 20000000 <_data_vma>
    25be:	00240503          	lb	a0,2(s0)
    25c2:	4681                	li	a3,0
    25c4:	4601                	li	a2,0
    25c6:	4585                	li	a1,1
    25c8:	35f1                	jal	2494 <processMouseMovement>
    25ca:	00440603          	lb	a2,4(s0)
    25ce:	200007b7          	lui	a5,0x20000
    25d2:	00a780a3          	sb	a0,1(a5) # 20000001 <yTimerTop>
    25d6:	40011537          	lui	a0,0x40011
    25da:	00163613          	seqz	a2,a2
    25de:	04000593          	li	a1,64
    25e2:	80050513          	addi	a0,a0,-2048 # 40010800 <_eusrstack+0x2000b800>
    25e6:	2c7000ef          	jal	ra,30ac <GPIO_WriteBit>
    25ea:	88418793          	addi	a5,gp,-1916 # 20000084 <previousMMB>
    25ee:	239c                	lbu	a5,0(a5)
    25f0:	000107a3          	sb	zero,15(sp)
    25f4:	00841483          	lh	s1,8(s0)
    25f8:	0ff7f793          	andi	a5,a5,255
    25fc:	88418913          	addi	s2,gp,-1916 # 20000084 <previousMMB>
    2600:	e39d                	bnez	a5,2626 <ProcessMouse+0xa8>
    2602:	00640983          	lb	s3,6(s0)
    2606:	4785                	li	a5,1
    2608:	00f99f63          	bne	s3,a5,2626 <ProcessMouse+0xa8>
    260c:	20002537          	lui	a0,0x20002
    2610:	47b5                	li	a5,13
    2612:	4605                	li	a2,1
    2614:	00f10593          	addi	a1,sp,15
    2618:	ae450513          	addi	a0,a0,-1308 # 20001ae4 <ScrollBuffer>
    261c:	87dc                	sb	a5,15(sp)
    261e:	6b4000ef          	jal	ra,2cd2 <FifoWrite>
    2622:	01390023          	sb	s3,0(s2)
    2626:	00094783          	lbu	a5,0(s2)
    262a:	4705                	li	a4,1
    262c:	02f71963          	bne	a4,a5,265e <ProcessMouse+0xe0>
    2630:	00640783          	lb	a5,6(s0)
    2634:	e78d                	bnez	a5,265e <ProcessMouse+0xe0>
    2636:	200029b7          	lui	s3,0x20002
    263a:	47b9                	li	a5,14
    263c:	4605                	li	a2,1
    263e:	00f10593          	addi	a1,sp,15
    2642:	ae498513          	addi	a0,s3,-1308 # 20001ae4 <ScrollBuffer>
    2646:	87dc                	sb	a5,15(sp)
    2648:	68a000ef          	jal	ra,2cd2 <FifoWrite>
    264c:	4605                	li	a2,1
    264e:	00f10593          	addi	a1,sp,15
    2652:	ae498513          	addi	a0,s3,-1308
    2656:	67c000ef          	jal	ra,2cd2 <FifoWrite>
    265a:	00090023          	sb	zero,0(s2)
    265e:	00841783          	lh	a5,8(s0)
    2662:	eba5                	bnez	a5,26d2 <ProcessMouse+0x154>
    2664:	00540603          	lb	a2,5(s0)
    2668:	40011537          	lui	a0,0x40011
    266c:	4591                	li	a1,4
    266e:	00163613          	seqz	a2,a2
    2672:	80050513          	addi	a0,a0,-2048 # 40010800 <_eusrstack+0x2000b800>
    2676:	237000ef          	jal	ra,30ac <GPIO_WriteBit>
    267a:	0141                	addi	sp,sp,16
    267c:	b0ffd06f          	j	18a <__riscv_restore_4>
    2680:	cf11                	beqz	a4,269c <ProcessMouse+0x11e>
    2682:	87c18793          	addi	a5,gp,-1924 # 2000007c <mouseDirectionX>
    2686:	2394                	lbu	a3,0(a5)
    2688:	4605                	li	a2,1
    268a:	06e2                	slli	a3,a3,0x18
    268c:	86e1                	srai	a3,a3,0x18
    268e:	00c69763          	bne	a3,a2,269c <ProcessMouse+0x11e>
    2692:	86019f23          	sh	zero,-1922(gp) # 2000007e <mouseDistanceX>
    2696:	00078023          	sb	zero,0(a5)
    269a:	b731                	j	25a6 <ProcessMouse+0x28>
    269c:	00251783          	lh	a5,2(a0)
    26a0:	00f05c63          	blez	a5,26b8 <ProcessMouse+0x13a>
    26a4:	87d18793          	addi	a5,gp,-1923 # 2000007d <mouseDirectionY>
    26a8:	2394                	lbu	a3,0(a5)
    26aa:	06e2                	slli	a3,a3,0x18
    26ac:	86e1                	srai	a3,a3,0x18
    26ae:	ee069ce3          	bnez	a3,25a6 <ProcessMouse+0x28>
    26b2:	88019023          	sh	zero,-1920(gp) # 20000080 <mouseDistanceY>
    26b6:	b5f5                	j	25a2 <ProcessMouse+0x24>
    26b8:	ee0787e3          	beqz	a5,25a6 <ProcessMouse+0x28>
    26bc:	87d18793          	addi	a5,gp,-1923 # 2000007d <mouseDirectionY>
    26c0:	2394                	lbu	a3,0(a5)
    26c2:	4605                	li	a2,1
    26c4:	06e2                	slli	a3,a3,0x18
    26c6:	86e1                	srai	a3,a3,0x18
    26c8:	ecc69fe3          	bne	a3,a2,25a6 <ProcessMouse+0x28>
    26cc:	88019023          	sh	zero,-1920(gp) # 20000080 <mouseDistanceY>
    26d0:	b7d9                	j	2696 <ProcessMouse+0x118>
    26d2:	41f4d713          	srai	a4,s1,0x1f
    26d6:	8cb9                	xor	s1,s1,a4
    26d8:	8c99                	sub	s1,s1,a4
    26da:	0ff4f493          	andi	s1,s1,255
    26de:	02f05363          	blez	a5,2704 <ProcessMouse+0x186>
    26e2:	47ad                	li	a5,11
    26e4:	87dc                	sb	a5,15(sp)
    26e6:	4901                	li	s2,0
    26e8:	200029b7          	lui	s3,0x20002
    26ec:	f6990ce3          	beq	s2,s1,2664 <ProcessMouse+0xe6>
    26f0:	4605                	li	a2,1
    26f2:	00f10593          	addi	a1,sp,15
    26f6:	ae498513          	addi	a0,s3,-1308 # 20001ae4 <ScrollBuffer>
    26fa:	0905                	addi	s2,s2,1
    26fc:	2bd9                	jal	2cd2 <FifoWrite>
    26fe:	0ff97913          	andi	s2,s2,255
    2702:	b7ed                	j	26ec <ProcessMouse+0x16e>
    2704:	479d                	li	a5,7
    2706:	87dc                	sb	a5,15(sp)
    2708:	4901                	li	s2,0
    270a:	200029b7          	lui	s3,0x20002
    270e:	f4990be3          	beq	s2,s1,2664 <ProcessMouse+0xe6>
    2712:	4605                	li	a2,1
    2714:	00f10593          	addi	a1,sp,15
    2718:	ae498513          	addi	a0,s3,-1308 # 20001ae4 <ScrollBuffer>
    271c:	0905                	addi	s2,s2,1
    271e:	2b55                	jal	2cd2 <FifoWrite>
    2720:	0ff97913          	andi	s2,s2,255
    2724:	b7ed                	j	270e <ProcessMouse+0x190>
    2726:	8082                	ret

00002728 <ProcessX_IRQ>:
    2728:	a49fd2ef          	jal	t0,170 <__riscv_save_0>
    272c:	87e18793          	addi	a5,gp,-1922 # 2000007e <mouseDistanceX>
    2730:	239e                	lhu	a5,0(a5)
    2732:	88218413          	addi	s0,gp,-1918 # 20000082 <mouseEncoderPhaseX>
    2736:	07c2                	slli	a5,a5,0x10
    2738:	87c1                	srai	a5,a5,0x10
    273a:	0ef05863          	blez	a5,282a <ProcessX_IRQ+0x102>
    273e:	201c                	lbu	a5,0(s0)
    2740:	87e18493          	addi	s1,gp,-1922 # 2000007e <mouseDistanceX>
    2744:	07e2                	slli	a5,a5,0x18
    2746:	87e1                	srai	a5,a5,0x18
    2748:	eb91                	bnez	a5,275c <ProcessX_IRQ+0x34>
    274a:	40011537          	lui	a0,0x40011
    274e:	4601                	li	a2,0
    2750:	02000593          	li	a1,32
    2754:	80050513          	addi	a0,a0,-2048 # 40010800 <_eusrstack+0x2000b800>
    2758:	155000ef          	jal	ra,30ac <GPIO_WriteBit>
    275c:	201c                	lbu	a5,0(s0)
    275e:	4705                	li	a4,1
    2760:	07e2                	slli	a5,a5,0x18
    2762:	87e1                	srai	a5,a5,0x18
    2764:	00e79a63          	bne	a5,a4,2778 <ProcessX_IRQ+0x50>
    2768:	40011537          	lui	a0,0x40011
    276c:	4601                	li	a2,0
    276e:	45a1                	li	a1,8
    2770:	80050513          	addi	a0,a0,-2048 # 40010800 <_eusrstack+0x2000b800>
    2774:	139000ef          	jal	ra,30ac <GPIO_WriteBit>
    2778:	201c                	lbu	a5,0(s0)
    277a:	4709                	li	a4,2
    277c:	07e2                	slli	a5,a5,0x18
    277e:	87e1                	srai	a5,a5,0x18
    2780:	00e79b63          	bne	a5,a4,2796 <ProcessX_IRQ+0x6e>
    2784:	40011537          	lui	a0,0x40011
    2788:	4605                	li	a2,1
    278a:	02000593          	li	a1,32
    278e:	80050513          	addi	a0,a0,-2048 # 40010800 <_eusrstack+0x2000b800>
    2792:	11b000ef          	jal	ra,30ac <GPIO_WriteBit>
    2796:	201c                	lbu	a5,0(s0)
    2798:	470d                	li	a4,3
    279a:	07e2                	slli	a5,a5,0x18
    279c:	87e1                	srai	a5,a5,0x18
    279e:	00e79a63          	bne	a5,a4,27b2 <ProcessX_IRQ+0x8a>
    27a2:	40011537          	lui	a0,0x40011
    27a6:	4605                	li	a2,1
    27a8:	45a1                	li	a1,8
    27aa:	80050513          	addi	a0,a0,-2048 # 40010800 <_eusrstack+0x2000b800>
    27ae:	0ff000ef          	jal	ra,30ac <GPIO_WriteBit>
    27b2:	87c18713          	addi	a4,gp,-1924 # 2000007c <mouseDirectionX>
    27b6:	2318                	lbu	a4,0(a4)
    27b8:	87c18793          	addi	a5,gp,-1924 # 2000007c <mouseDirectionX>
    27bc:	0762                	slli	a4,a4,0x18
    27be:	8761                	srai	a4,a4,0x18
    27c0:	e335                	bnez	a4,2824 <ProcessX_IRQ+0xfc>
    27c2:	2018                	lbu	a4,0(s0)
    27c4:	177d                	addi	a4,a4,-1
    27c6:	0762                	slli	a4,a4,0x18
    27c8:	8761                	srai	a4,a4,0x18
    27ca:	a018                	sb	a4,0(s0)
    27cc:	209a                	lhu	a4,0(s1)
    27ce:	4685                	li	a3,1
    27d0:	177d                	addi	a4,a4,-1
    27d2:	0742                	slli	a4,a4,0x10
    27d4:	8741                	srai	a4,a4,0x10
    27d6:	a09a                	sh	a4,0(s1)
    27d8:	2398                	lbu	a4,0(a5)
    27da:	0762                	slli	a4,a4,0x18
    27dc:	8761                	srai	a4,a4,0x18
    27de:	00d71a63          	bne	a4,a3,27f2 <ProcessX_IRQ+0xca>
    27e2:	2018                	lbu	a4,0(s0)
    27e4:	468d                	li	a3,3
    27e6:	0762                	slli	a4,a4,0x18
    27e8:	8761                	srai	a4,a4,0x18
    27ea:	00e6d463          	bge	a3,a4,27f2 <ProcessX_IRQ+0xca>
    27ee:	00040023          	sb	zero,0(s0)
    27f2:	239c                	lbu	a5,0(a5)
    27f4:	07e2                	slli	a5,a5,0x18
    27f6:	87e1                	srai	a5,a5,0x18
    27f8:	eb81                	bnez	a5,2808 <ProcessX_IRQ+0xe0>
    27fa:	201c                	lbu	a5,0(s0)
    27fc:	07e2                	slli	a5,a5,0x18
    27fe:	87e1                	srai	a5,a5,0x18
    2800:	0007d463          	bgez	a5,2808 <ProcessX_IRQ+0xe0>
    2804:	478d                	li	a5,3
    2806:	a01c                	sb	a5,0(s0)
    2808:	200007b7          	lui	a5,0x20000
    280c:	00078793          	mv	a5,a5
    2810:	2398                	lbu	a4,0(a5)
    2812:	0ff77713          	andi	a4,a4,255
    2816:	ef09                	bnez	a4,2830 <ProcessX_IRQ+0x108>
    2818:	400007b7          	lui	a5,0x40000
    281c:	4705                	li	a4,1
    281e:	b7da                	sh	a4,44(a5)
    2820:	975fd06f          	j	194 <__riscv_restore_0>
    2824:	2018                	lbu	a4,0(s0)
    2826:	0705                	addi	a4,a4,1
    2828:	bf79                	j	27c6 <ProcessX_IRQ+0x9e>
    282a:	00040023          	sb	zero,0(s0)
    282e:	bfe9                	j	2808 <ProcessX_IRQ+0xe0>
    2830:	239c                	lbu	a5,0(a5)
    2832:	40000737          	lui	a4,0x40000
    2836:	b75e                	sh	a5,44(a4)
    2838:	b7e5                	j	2820 <ProcessX_IRQ+0xf8>

0000283a <ProcessY_IRQ>:
    283a:	937fd2ef          	jal	t0,170 <__riscv_save_0>
    283e:	88018793          	addi	a5,gp,-1920 # 20000080 <mouseDistanceY>
    2842:	239e                	lhu	a5,0(a5)
    2844:	88318413          	addi	s0,gp,-1917 # 20000083 <mouseEncoderPhaseY>
    2848:	07c2                	slli	a5,a5,0x10
    284a:	87c1                	srai	a5,a5,0x10
    284c:	0ef05963          	blez	a5,293e <ProcessY_IRQ+0x104>
    2850:	201c                	lbu	a5,0(s0)
    2852:	470d                	li	a4,3
    2854:	88018493          	addi	s1,gp,-1920 # 20000080 <mouseDistanceY>
    2858:	07e2                	slli	a5,a5,0x18
    285a:	87e1                	srai	a5,a5,0x18
    285c:	00e79a63          	bne	a5,a4,2870 <ProcessY_IRQ+0x36>
    2860:	40011537          	lui	a0,0x40011
    2864:	4605                	li	a2,1
    2866:	45c1                	li	a1,16
    2868:	80050513          	addi	a0,a0,-2048 # 40010800 <_eusrstack+0x2000b800>
    286c:	041000ef          	jal	ra,30ac <GPIO_WriteBit>
    2870:	201c                	lbu	a5,0(s0)
    2872:	4709                	li	a4,2
    2874:	07e2                	slli	a5,a5,0x18
    2876:	87e1                	srai	a5,a5,0x18
    2878:	00e79b63          	bne	a5,a4,288e <ProcessY_IRQ+0x54>
    287c:	40011537          	lui	a0,0x40011
    2880:	4605                	li	a2,1
    2882:	08000593          	li	a1,128
    2886:	80050513          	addi	a0,a0,-2048 # 40010800 <_eusrstack+0x2000b800>
    288a:	023000ef          	jal	ra,30ac <GPIO_WriteBit>
    288e:	201c                	lbu	a5,0(s0)
    2890:	4705                	li	a4,1
    2892:	07e2                	slli	a5,a5,0x18
    2894:	87e1                	srai	a5,a5,0x18
    2896:	00e79a63          	bne	a5,a4,28aa <ProcessY_IRQ+0x70>
    289a:	40011537          	lui	a0,0x40011
    289e:	4601                	li	a2,0
    28a0:	45c1                	li	a1,16
    28a2:	80050513          	addi	a0,a0,-2048 # 40010800 <_eusrstack+0x2000b800>
    28a6:	007000ef          	jal	ra,30ac <GPIO_WriteBit>
    28aa:	201c                	lbu	a5,0(s0)
    28ac:	07e2                	slli	a5,a5,0x18
    28ae:	87e1                	srai	a5,a5,0x18
    28b0:	eb91                	bnez	a5,28c4 <ProcessY_IRQ+0x8a>
    28b2:	40011537          	lui	a0,0x40011
    28b6:	4601                	li	a2,0
    28b8:	08000593          	li	a1,128
    28bc:	80050513          	addi	a0,a0,-2048 # 40010800 <_eusrstack+0x2000b800>
    28c0:	7ec000ef          	jal	ra,30ac <GPIO_WriteBit>
    28c4:	87d18713          	addi	a4,gp,-1923 # 2000007d <mouseDirectionY>
    28c8:	2318                	lbu	a4,0(a4)
    28ca:	87d18793          	addi	a5,gp,-1923 # 2000007d <mouseDirectionY>
    28ce:	0762                	slli	a4,a4,0x18
    28d0:	8761                	srai	a4,a4,0x18
    28d2:	e33d                	bnez	a4,2938 <ProcessY_IRQ+0xfe>
    28d4:	2018                	lbu	a4,0(s0)
    28d6:	177d                	addi	a4,a4,-1
    28d8:	0762                	slli	a4,a4,0x18
    28da:	8761                	srai	a4,a4,0x18
    28dc:	a018                	sb	a4,0(s0)
    28de:	209a                	lhu	a4,0(s1)
    28e0:	4685                	li	a3,1
    28e2:	177d                	addi	a4,a4,-1
    28e4:	0742                	slli	a4,a4,0x10
    28e6:	8741                	srai	a4,a4,0x10
    28e8:	a09a                	sh	a4,0(s1)
    28ea:	2398                	lbu	a4,0(a5)
    28ec:	0762                	slli	a4,a4,0x18
    28ee:	8761                	srai	a4,a4,0x18
    28f0:	00d71a63          	bne	a4,a3,2904 <ProcessY_IRQ+0xca>
    28f4:	2018                	lbu	a4,0(s0)
    28f6:	468d                	li	a3,3
    28f8:	0762                	slli	a4,a4,0x18
    28fa:	8761                	srai	a4,a4,0x18
    28fc:	00e6d463          	bge	a3,a4,2904 <ProcessY_IRQ+0xca>
    2900:	00040023          	sb	zero,0(s0)
    2904:	239c                	lbu	a5,0(a5)
    2906:	07e2                	slli	a5,a5,0x18
    2908:	87e1                	srai	a5,a5,0x18
    290a:	eb81                	bnez	a5,291a <ProcessY_IRQ+0xe0>
    290c:	201c                	lbu	a5,0(s0)
    290e:	07e2                	slli	a5,a5,0x18
    2910:	87e1                	srai	a5,a5,0x18
    2912:	0007d463          	bgez	a5,291a <ProcessY_IRQ+0xe0>
    2916:	478d                	li	a5,3
    2918:	a01c                	sb	a5,0(s0)
    291a:	200007b7          	lui	a5,0x20000
    291e:	00178793          	addi	a5,a5,1 # 20000001 <yTimerTop>
    2922:	2398                	lbu	a4,0(a5)
    2924:	0ff77713          	andi	a4,a4,255
    2928:	ef11                	bnez	a4,2944 <ProcessY_IRQ+0x10a>
    292a:	400017b7          	lui	a5,0x40001
    292e:	4705                	li	a4,1
    2930:	82e79623          	sh	a4,-2004(a5) # 4000082c <_eusrstack+0x1fffb82c>
    2934:	861fd06f          	j	194 <__riscv_restore_0>
    2938:	2018                	lbu	a4,0(s0)
    293a:	0705                	addi	a4,a4,1
    293c:	bf71                	j	28d8 <ProcessY_IRQ+0x9e>
    293e:	00040023          	sb	zero,0(s0)
    2942:	bfe1                	j	291a <ProcessY_IRQ+0xe0>
    2944:	2398                	lbu	a4,0(a5)
    2946:	400017b7          	lui	a5,0x40001
    294a:	b7dd                	j	2930 <ProcessY_IRQ+0xf6>

0000294c <ProcessScrollIRQ>:
    294c:	80bfd2ef          	jal	t0,156 <__riscv_save_4>
    2950:	40011437          	lui	s0,0x40011
    2954:	1141                	addi	sp,sp,-16
    2956:	80040513          	addi	a0,s0,-2048 # 40010800 <_eusrstack+0x2000b800>
    295a:	000107a3          	sb	zero,15(sp)
    295e:	732000ef          	jal	ra,3090 <GPIO_ReadOutputData>
    2962:	84aa                	mv	s1,a0
    2964:	20002537          	lui	a0,0x20002
    2968:	4605                	li	a2,1
    296a:	00f10593          	addi	a1,sp,15
    296e:	ae450513          	addi	a0,a0,-1308 # 20001ae4 <ScrollBuffer>
    2972:	2639                	jal	2c80 <FifoRead>
    2974:	4601                	li	a2,0
    2976:	4591                	li	a1,4
    2978:	80040513          	addi	a0,s0,-2048
    297c:	730000ef          	jal	ra,30ac <GPIO_WriteBit>
    2980:	879c                	lbu	a5,15(sp)
    2982:	eb9d                	bnez	a5,29b8 <ProcessScrollIRQ+0x6c>
    2984:	4605                	li	a2,1
    2986:	45a1                	li	a1,8
    2988:	80040513          	addi	a0,s0,-2048
    298c:	720000ef          	jal	ra,30ac <GPIO_WriteBit>
    2990:	4605                	li	a2,1
    2992:	45c1                	li	a1,16
    2994:	80040513          	addi	a0,s0,-2048
    2998:	714000ef          	jal	ra,30ac <GPIO_WriteBit>
    299c:	4605                	li	a2,1
    299e:	02000593          	li	a1,32
    29a2:	80040513          	addi	a0,s0,-2048
    29a6:	706000ef          	jal	ra,30ac <GPIO_WriteBit>
    29aa:	4605                	li	a2,1
    29ac:	08000593          	li	a1,128
    29b0:	80040513          	addi	a0,s0,-2048
    29b4:	6f8000ef          	jal	ra,30ac <GPIO_WriteBit>
    29b8:	8798                	lbu	a4,15(sp)
    29ba:	47ad                	li	a5,11
    29bc:	02f71a63          	bne	a4,a5,29f0 <ProcessScrollIRQ+0xa4>
    29c0:	40011437          	lui	s0,0x40011
    29c4:	4601                	li	a2,0
    29c6:	45a1                	li	a1,8
    29c8:	80040513          	addi	a0,s0,-2048 # 40010800 <_eusrstack+0x2000b800>
    29cc:	25c5                	jal	30ac <GPIO_WriteBit>
    29ce:	4601                	li	a2,0
    29d0:	45c1                	li	a1,16
    29d2:	80040513          	addi	a0,s0,-2048
    29d6:	2dd9                	jal	30ac <GPIO_WriteBit>
    29d8:	4605                	li	a2,1
    29da:	02000593          	li	a1,32
    29de:	80040513          	addi	a0,s0,-2048
    29e2:	25e9                	jal	30ac <GPIO_WriteBit>
    29e4:	4605                	li	a2,1
    29e6:	08000593          	li	a1,128
    29ea:	80040513          	addi	a0,s0,-2048
    29ee:	2d7d                	jal	30ac <GPIO_WriteBit>
    29f0:	8798                	lbu	a4,15(sp)
    29f2:	479d                	li	a5,7
    29f4:	02f71a63          	bne	a4,a5,2a28 <ProcessScrollIRQ+0xdc>
    29f8:	40011437          	lui	s0,0x40011
    29fc:	4605                	li	a2,1
    29fe:	45a1                	li	a1,8
    2a00:	80040513          	addi	a0,s0,-2048 # 40010800 <_eusrstack+0x2000b800>
    2a04:	2565                	jal	30ac <GPIO_WriteBit>
    2a06:	4601                	li	a2,0
    2a08:	45c1                	li	a1,16
    2a0a:	80040513          	addi	a0,s0,-2048
    2a0e:	2d79                	jal	30ac <GPIO_WriteBit>
    2a10:	4601                	li	a2,0
    2a12:	02000593          	li	a1,32
    2a16:	80040513          	addi	a0,s0,-2048
    2a1a:	2d49                	jal	30ac <GPIO_WriteBit>
    2a1c:	4605                	li	a2,1
    2a1e:	08000593          	li	a1,128
    2a22:	80040513          	addi	a0,s0,-2048
    2a26:	2559                	jal	30ac <GPIO_WriteBit>
    2a28:	8798                	lbu	a4,15(sp)
    2a2a:	47b5                	li	a5,13
    2a2c:	02f71a63          	bne	a4,a5,2a60 <ProcessScrollIRQ+0x114>
    2a30:	40011437          	lui	s0,0x40011
    2a34:	4601                	li	a2,0
    2a36:	45a1                	li	a1,8
    2a38:	80040513          	addi	a0,s0,-2048 # 40010800 <_eusrstack+0x2000b800>
    2a3c:	2d85                	jal	30ac <GPIO_WriteBit>
    2a3e:	4601                	li	a2,0
    2a40:	45c1                	li	a1,16
    2a42:	80040513          	addi	a0,s0,-2048
    2a46:	259d                	jal	30ac <GPIO_WriteBit>
    2a48:	4605                	li	a2,1
    2a4a:	02000593          	li	a1,32
    2a4e:	80040513          	addi	a0,s0,-2048
    2a52:	2da9                	jal	30ac <GPIO_WriteBit>
    2a54:	4601                	li	a2,0
    2a56:	08000593          	li	a1,128
    2a5a:	80040513          	addi	a0,s0,-2048
    2a5e:	25b9                	jal	30ac <GPIO_WriteBit>
    2a60:	8798                	lbu	a4,15(sp)
    2a62:	47b9                	li	a5,14
    2a64:	02f71a63          	bne	a4,a5,2a98 <ProcessScrollIRQ+0x14c>
    2a68:	40011437          	lui	s0,0x40011
    2a6c:	4605                	li	a2,1
    2a6e:	45a1                	li	a1,8
    2a70:	80040513          	addi	a0,s0,-2048 # 40010800 <_eusrstack+0x2000b800>
    2a74:	2d25                	jal	30ac <GPIO_WriteBit>
    2a76:	4601                	li	a2,0
    2a78:	45c1                	li	a1,16
    2a7a:	80040513          	addi	a0,s0,-2048
    2a7e:	253d                	jal	30ac <GPIO_WriteBit>
    2a80:	4601                	li	a2,0
    2a82:	02000593          	li	a1,32
    2a86:	80040513          	addi	a0,s0,-2048
    2a8a:	250d                	jal	30ac <GPIO_WriteBit>
    2a8c:	4601                	li	a2,0
    2a8e:	08000593          	li	a1,128
    2a92:	80040513          	addi	a0,s0,-2048
    2a96:	2d19                	jal	30ac <GPIO_WriteBit>
    2a98:	40011437          	lui	s0,0x40011
    2a9c:	80040993          	addi	s3,s0,-2048 # 40010800 <_eusrstack+0x2000b800>
    2aa0:	4905                	li	s2,1
    2aa2:	4589                	li	a1,2
    2aa4:	854e                	mv	a0,s3
    2aa6:	2bc1                	jal	3076 <GPIO_ReadInputDataBit>
    2aa8:	ff251de3          	bne	a0,s2,2aa2 <ProcessScrollIRQ+0x156>
    2aac:	85a6                	mv	a1,s1
    2aae:	80040513          	addi	a0,s0,-2048
    2ab2:	2d11                	jal	30c6 <GPIO_Write>
    2ab4:	0141                	addi	sp,sp,16
    2ab6:	ed4fd06f          	j	18a <__riscv_restore_4>

00002aba <SystemInit>:
    2aba:	400217b7          	lui	a5,0x40021
    2abe:	4398                	lw	a4,0(a5)
    2ac0:	f8ff06b7          	lui	a3,0xf8ff0
    2ac4:	00176713          	ori	a4,a4,1
    2ac8:	c398                	sw	a4,0(a5)
    2aca:	43d8                	lw	a4,4(a5)
    2acc:	8f75                	and	a4,a4,a3
    2ace:	c3d8                	sw	a4,4(a5)
    2ad0:	4398                	lw	a4,0(a5)
    2ad2:	fef706b7          	lui	a3,0xfef70
    2ad6:	16fd                	addi	a3,a3,-1
    2ad8:	8f75                	and	a4,a4,a3
    2ada:	c398                	sw	a4,0(a5)
    2adc:	4398                	lw	a4,0(a5)
    2ade:	fffc06b7          	lui	a3,0xfffc0
    2ae2:	16fd                	addi	a3,a3,-1
    2ae4:	8f75                	and	a4,a4,a3
    2ae6:	c398                	sw	a4,0(a5)
    2ae8:	43d8                	lw	a4,4(a5)
    2aea:	ff8106b7          	lui	a3,0xff810
    2aee:	16fd                	addi	a3,a3,-1
    2af0:	8f75                	and	a4,a4,a3
    2af2:	c3d8                	sw	a4,4(a5)
    2af4:	009f0737          	lui	a4,0x9f0
    2af8:	c798                	sw	a4,8(a5)
    2afa:	400246b7          	lui	a3,0x40024
    2afe:	8006a703          	lw	a4,-2048(a3) # 40023800 <_eusrstack+0x2001e800>
    2b02:	01076713          	ori	a4,a4,16
    2b06:	80e6a023          	sw	a4,-2048(a3)
    2b0a:	43d8                	lw	a4,4(a5)
    2b0c:	ffc106b7          	lui	a3,0xffc10
    2b10:	16fd                	addi	a3,a3,-1
    2b12:	c3d8                	sw	a4,4(a5)
    2b14:	43d8                	lw	a4,4(a5)
    2b16:	c3d8                	sw	a4,4(a5)
    2b18:	43d8                	lw	a4,4(a5)
    2b1a:	40076713          	ori	a4,a4,1024
    2b1e:	c3d8                	sw	a4,4(a5)
    2b20:	43d8                	lw	a4,4(a5)
    2b22:	8f75                	and	a4,a4,a3
    2b24:	c3d8                	sw	a4,4(a5)
    2b26:	43d8                	lw	a4,4(a5)
    2b28:	003c06b7          	lui	a3,0x3c0
    2b2c:	8f55                	or	a4,a4,a3
    2b2e:	c3d8                	sw	a4,4(a5)
    2b30:	4398                	lw	a4,0(a5)
    2b32:	010006b7          	lui	a3,0x1000
    2b36:	8f55                	or	a4,a4,a3
    2b38:	c398                	sw	a4,0(a5)
    2b3a:	4398                	lw	a4,0(a5)
    2b3c:	00671693          	slli	a3,a4,0x6
    2b40:	fe06dde3          	bgez	a3,2b3a <SystemInit+0x80>
    2b44:	43d8                	lw	a4,4(a5)
    2b46:	400216b7          	lui	a3,0x40021
    2b4a:	9b71                	andi	a4,a4,-4
    2b4c:	c3d8                	sw	a4,4(a5)
    2b4e:	43d8                	lw	a4,4(a5)
    2b50:	00276713          	ori	a4,a4,2
    2b54:	c3d8                	sw	a4,4(a5)
    2b56:	4721                	li	a4,8
    2b58:	42dc                	lw	a5,4(a3)
    2b5a:	8bb1                	andi	a5,a5,12
    2b5c:	fee79ee3          	bne	a5,a4,2b58 <SystemInit+0x9e>
    2b60:	8082                	ret

00002b62 <TIM2_Init>:
    2b62:	e0efd2ef          	jal	t0,170 <__riscv_save_0>
    2b66:	1101                	addi	sp,sp,-32
    2b68:	4585                	li	a1,1
    2b6a:	4505                	li	a0,1
    2b6c:	ca02                	sw	zero,20(sp)
    2b6e:	cc02                	sw	zero,24(sp)
    2b70:	00011e23          	sh	zero,28(sp)
    2b74:	c602                	sw	zero,12(sp)
    2b76:	c802                	sw	zero,16(sp)
    2b78:	2569                	jal	3202 <RCC_APB1PeriphClockCmd>
    2b7a:	6795                	lui	a5,0x5
    2b7c:	91f78793          	addi	a5,a5,-1761 # 491f <_data_lma+0x14ab>
    2b80:	ca3e                	sw	a5,20(sp)
    2b82:	084c                	addi	a1,sp,20
    2b84:	3e800793          	li	a5,1000
    2b88:	40000537          	lui	a0,0x40000
    2b8c:	cc3e                	sw	a5,24(sp)
    2b8e:	2d49                	jal	3220 <TIM_TimeBaseInit>
    2b90:	4605                	li	a2,1
    2b92:	4585                	li	a1,1
    2b94:	40000537          	lui	a0,0x40000
    2b98:	2729                	jal	32a2 <TIM_ITConfig>
    2b9a:	42c00793          	li	a5,1068
    2b9e:	867c                	sh	a5,12(sp)
    2ba0:	4785                	li	a5,1
    2ba2:	875c                	sb	a5,14(sp)
    2ba4:	0068                	addi	a0,sp,12
    2ba6:	4785                	li	a5,1
    2ba8:	c83e                	sw	a5,16(sp)
    2baa:	2bb1                	jal	3106 <NVIC_Init>
    2bac:	4585                	li	a1,1
    2bae:	40000537          	lui	a0,0x40000
    2bb2:	2de1                	jal	328a <TIM_Cmd>
    2bb4:	e000e7b7          	lui	a5,0xe000e
    2bb8:	6705                	lui	a4,0x1
    2bba:	10e7a223          	sw	a4,260(a5) # e000e104 <_eusrstack+0xc0009104>
    2bbe:	6105                	addi	sp,sp,32
    2bc0:	dd4fd06f          	j	194 <__riscv_restore_0>

00002bc4 <TIM4_Init>:
    2bc4:	dacfd2ef          	jal	t0,170 <__riscv_save_0>
    2bc8:	1101                	addi	sp,sp,-32
    2bca:	4585                	li	a1,1
    2bcc:	4511                	li	a0,4
    2bce:	ca02                	sw	zero,20(sp)
    2bd0:	cc02                	sw	zero,24(sp)
    2bd2:	00011e23          	sh	zero,28(sp)
    2bd6:	c602                	sw	zero,12(sp)
    2bd8:	c802                	sw	zero,16(sp)
    2bda:	2525                	jal	3202 <RCC_APB1PeriphClockCmd>
    2bdc:	6795                	lui	a5,0x5
    2bde:	40001437          	lui	s0,0x40001
    2be2:	91f78793          	addi	a5,a5,-1761 # 491f <_data_lma+0x14ab>
    2be6:	ca3e                	sw	a5,20(sp)
    2be8:	084c                	addi	a1,sp,20
    2bea:	3e800793          	li	a5,1000
    2bee:	80040513          	addi	a0,s0,-2048 # 40000800 <_eusrstack+0x1fffb800>
    2bf2:	cc3e                	sw	a5,24(sp)
    2bf4:	2535                	jal	3220 <TIM_TimeBaseInit>
    2bf6:	4605                	li	a2,1
    2bf8:	4585                	li	a1,1
    2bfa:	80040513          	addi	a0,s0,-2048
    2bfe:	2555                	jal	32a2 <TIM_ITConfig>
    2c00:	32e00793          	li	a5,814
    2c04:	867c                	sh	a5,12(sp)
    2c06:	4785                	li	a5,1
    2c08:	875c                	sb	a5,14(sp)
    2c0a:	0068                	addi	a0,sp,12
    2c0c:	4785                	li	a5,1
    2c0e:	c83e                	sw	a5,16(sp)
    2c10:	29dd                	jal	3106 <NVIC_Init>
    2c12:	4585                	li	a1,1
    2c14:	80040513          	addi	a0,s0,-2048
    2c18:	2d8d                	jal	328a <TIM_Cmd>
    2c1a:	e000e7b7          	lui	a5,0xe000e
    2c1e:	6711                	lui	a4,0x4
    2c20:	10e7a223          	sw	a4,260(a5) # e000e104 <_eusrstack+0xc0009104>
    2c24:	6105                	addi	sp,sp,32
    2c26:	d6efd06f          	j	194 <__riscv_restore_0>

00002c2a <TIM2_IRQHandler>:
    2c2a:	4585                	li	a1,1
    2c2c:	40000537          	lui	a0,0x40000
    2c30:	2551                	jal	32b4 <TIM_GetITStatus>
    2c32:	c519                	beqz	a0,2c40 <TIM2_IRQHandler+0x16>
    2c34:	af5ff0ef          	jal	ra,2728 <ProcessX_IRQ>
    2c38:	4585                	li	a1,1
    2c3a:	40000537          	lui	a0,0x40000
    2c3e:	2579                	jal	32cc <TIM_ClearITPendingBit>
    2c40:	30200073          	mret

00002c44 <TIM4_IRQHandler>:
    2c44:	1141                	addi	sp,sp,-16
    2c46:	c622                	sw	s0,12(sp)
    2c48:	40001437          	lui	s0,0x40001
    2c4c:	4585                	li	a1,1
    2c4e:	80040513          	addi	a0,s0,-2048 # 40000800 <_eusrstack+0x1fffb800>
    2c52:	258d                	jal	32b4 <TIM_GetITStatus>
    2c54:	c519                	beqz	a0,2c62 <TIM4_IRQHandler+0x1e>
    2c56:	be5ff0ef          	jal	ra,283a <ProcessY_IRQ>
    2c5a:	4585                	li	a1,1
    2c5c:	80040513          	addi	a0,s0,-2048
    2c60:	25b5                	jal	32cc <TIM_ClearITPendingBit>
    2c62:	4432                	lw	s0,12(sp)
    2c64:	0141                	addi	sp,sp,16
    2c66:	30200073          	mret

00002c6a <FifoInit>:
    2c6a:	08000793          	li	a5,128
    2c6e:	a51e                	sh	a5,8(a0)
    2c70:	00b50793          	addi	a5,a0,11 # 4000000b <_eusrstack+0x1fffb00b>
    2c74:	00052223          	sw	zero,4(a0)
    2c78:	00050523          	sb	zero,10(a0)
    2c7c:	c11c                	sw	a5,0(a0)
    2c7e:	8082                	ret

00002c80 <FifoRead>:
    2c80:	2538                	lbu	a4,10(a0)
    2c82:	87aa                	mv	a5,a0
    2c84:	c709                	beqz	a4,2c8e <FifoRead+0xe>
    2c86:	00078523          	sb	zero,10(a5)
    2c8a:	8532                	mv	a0,a2
    2c8c:	8082                	ret
    2c8e:	4705                	li	a4,1
    2c90:	a538                	sb	a4,10(a0)
    2c92:	4681                	li	a3,0
    2c94:	01069513          	slli	a0,a3,0x10
    2c98:	8141                	srli	a0,a0,0x10
    2c9a:	fec576e3          	bgeu	a0,a2,2c86 <FifoRead+0x6>
    2c9e:	0067d803          	lhu	a6,6(a5)
    2ca2:	23da                	lhu	a4,4(a5)
    2ca4:	03070463          	beq	a4,a6,2ccc <FifoRead+0x4c>
    2ca8:	4398                	lw	a4,0(a5)
    2caa:	9742                	add	a4,a4,a6
    2cac:	2308                	lbu	a0,0(a4)
    2cae:	00d58733          	add	a4,a1,a3
    2cb2:	a308                	sb	a0,0(a4)
    2cb4:	23fa                	lhu	a4,6(a5)
    2cb6:	278a                	lhu	a0,8(a5)
    2cb8:	0705                	addi	a4,a4,1
    2cba:	0742                	slli	a4,a4,0x10
    2cbc:	8341                	srli	a4,a4,0x10
    2cbe:	a3fa                	sh	a4,6(a5)
    2cc0:	00e51463          	bne	a0,a4,2cc8 <FifoRead+0x48>
    2cc4:	00079323          	sh	zero,6(a5)
    2cc8:	0685                	addi	a3,a3,1
    2cca:	b7e9                	j	2c94 <FifoRead+0x14>
    2ccc:	00078523          	sb	zero,10(a5)
    2cd0:	8082                	ret

00002cd2 <FifoWrite>:
    2cd2:	2538                	lbu	a4,10(a0)
    2cd4:	87aa                	mv	a5,a0
    2cd6:	c709                	beqz	a4,2ce0 <FifoWrite+0xe>
    2cd8:	00078523          	sb	zero,10(a5)
    2cdc:	8532                	mv	a0,a2
    2cde:	8082                	ret
    2ce0:	4705                	li	a4,1
    2ce2:	a538                	sb	a4,10(a0)
    2ce4:	4681                	li	a3,0
    2ce6:	01069513          	slli	a0,a3,0x10
    2cea:	8141                	srli	a0,a0,0x10
    2cec:	fec576e3          	bgeu	a0,a2,2cd8 <FifoWrite+0x6>
    2cf0:	0047d803          	lhu	a6,4(a5)
    2cf4:	23fa                	lhu	a4,6(a5)
    2cf6:	00180893          	addi	a7,a6,1
    2cfa:	00e88763          	beq	a7,a4,2d08 <FifoWrite+0x36>
    2cfe:	0087d303          	lhu	t1,8(a5)
    2d02:	00689663          	bne	a7,t1,2d0e <FifoWrite+0x3c>
    2d06:	e701                	bnez	a4,2d0e <FifoWrite+0x3c>
    2d08:	00078523          	sb	zero,10(a5)
    2d0c:	8082                	ret
    2d0e:	00d58733          	add	a4,a1,a3
    2d12:	2308                	lbu	a0,0(a4)
    2d14:	4398                	lw	a4,0(a5)
    2d16:	9742                	add	a4,a4,a6
    2d18:	a308                	sb	a0,0(a4)
    2d1a:	23da                	lhu	a4,4(a5)
    2d1c:	278a                	lhu	a0,8(a5)
    2d1e:	0705                	addi	a4,a4,1
    2d20:	0742                	slli	a4,a4,0x10
    2d22:	8341                	srli	a4,a4,0x10
    2d24:	a3da                	sh	a4,4(a5)
    2d26:	00e51463          	bne	a0,a4,2d2e <FifoWrite+0x5c>
    2d2a:	00079223          	sh	zero,4(a5)
    2d2e:	0685                	addi	a3,a3,1
    2d30:	bf5d                	j	2ce6 <FifoWrite+0x14>

00002d32 <collect_bits>:
    2d32:	0035d813          	srli	a6,a1,0x3
    2d36:	0ff87813          	andi	a6,a6,255
    2d3a:	899d                	andi	a1,a1,7
    2d3c:	010508b3          	add	a7,a0,a6
    2d40:	0ff00793          	li	a5,255
    2d44:	0ff5f713          	andi	a4,a1,255
    2d48:	00b797b3          	sll	a5,a5,a1
    2d4c:	0008c583          	lbu	a1,0(a7)
    2d50:	48a1                	li	a7,8
    2d52:	40e888b3          	sub	a7,a7,a4
    2d56:	8fed                	and	a5,a5,a1
    2d58:	0ff8f893          	andi	a7,a7,255
    2d5c:	40e7d7b3          	sra	a5,a5,a4
    2d60:	07166563          	bltu	a2,a7,2dca <collect_bits+0x98>
    2d64:	00180593          	addi	a1,a6,1
    2d68:	ff860813          	addi	a6,a2,-8
    2d6c:	07c2                	slli	a5,a5,0x10
    2d6e:	9742                	add	a4,a4,a6
    2d70:	0ff5f593          	andi	a1,a1,255
    2d74:	83c1                	srli	a5,a5,0x10
    2d76:	0ff77713          	andi	a4,a4,255
    2d7a:	4e9d                	li	t4,7
    2d7c:	0ff00f13          	li	t5,255
    2d80:	4e21                	li	t3,8
    2d82:	cb39                	beqz	a4,2dd8 <collect_bits+0xa6>
    2d84:	0ff00813          	li	a6,255
    2d88:	00eee863          	bltu	t4,a4,2d98 <collect_bits+0x66>
    2d8c:	40ee0833          	sub	a6,t3,a4
    2d90:	410f5833          	sra	a6,t5,a6
    2d94:	0ff87813          	andi	a6,a6,255
    2d98:	00158313          	addi	t1,a1,1
    2d9c:	95aa                	add	a1,a1,a0
    2d9e:	218c                	lbu	a1,0(a1)
    2da0:	0ff37313          	andi	t1,t1,255
    2da4:	00b87833          	and	a6,a6,a1
    2da8:	01181833          	sll	a6,a6,a7
    2dac:	97c2                	add	a5,a5,a6
    2dae:	07c2                	slli	a5,a5,0x10
    2db0:	08a1                	addi	a7,a7,8
    2db2:	83c1                	srli	a5,a5,0x10
    2db4:	0ff8f893          	andi	a7,a7,255
    2db8:	85ba                	mv	a1,a4
    2dba:	00ee7363          	bgeu	t3,a4,2dc0 <collect_bits+0x8e>
    2dbe:	45a1                	li	a1,8
    2dc0:	8f0d                	sub	a4,a4,a1
    2dc2:	0ff77713          	andi	a4,a4,255
    2dc6:	859a                	mv	a1,t1
    2dc8:	bf6d                	j	2d82 <collect_bits+0x50>
    2dca:	4505                	li	a0,1
    2dcc:	00c51533          	sll	a0,a0,a2
    2dd0:	157d                	addi	a0,a0,-1
    2dd2:	8fe9                	and	a5,a5,a0
    2dd4:	07c2                	slli	a5,a5,0x10
    2dd6:	83c1                	srli	a5,a5,0x10
    2dd8:	c285                	beqz	a3,2df8 <collect_bits+0xc6>
    2dda:	fff60713          	addi	a4,a2,-1
    2dde:	4605                	li	a2,1
    2de0:	00e61633          	sll	a2,a2,a4
    2de4:	0642                	slli	a2,a2,0x10
    2de6:	8241                	srli	a2,a2,0x10
    2de8:	00c7f733          	and	a4,a5,a2
    2dec:	c711                	beqz	a4,2df8 <collect_bits+0xc6>
    2dee:	8fd1                	or	a5,a5,a2
    2df0:	0606                	slli	a2,a2,0x1
    2df2:	0642                	slli	a2,a2,0x10
    2df4:	8241                	srli	a2,a2,0x10
    2df6:	fe65                	bnez	a2,2dee <collect_bits+0xbc>
    2df8:	853e                	mv	a0,a5
    2dfa:	8082                	ret
    2dfc:	a001                	j	2dfc <collect_bits+0xca>
    2dfe:	a001                	j	2dfe <collect_bits+0xcc>

00002e00 <Ecall_M_Mode_Handler>:
    2e00:	a001                	j	2e00 <Ecall_M_Mode_Handler>

00002e02 <Ecall_U_Mode_Handler>:
    2e02:	a001                	j	2e02 <Ecall_U_Mode_Handler>

00002e04 <Break_Point_Handler>:
    2e04:	a001                	j	2e04 <Break_Point_Handler>

00002e06 <SysTick_Handler>:
    2e06:	a001                	j	2e06 <SysTick_Handler>

00002e08 <SW_Handler>:
    2e08:	a001                	j	2e08 <SW_Handler>

00002e0a <WWDG_IRQHandler>:
    2e0a:	a001                	j	2e0a <WWDG_IRQHandler>

00002e0c <PVD_IRQHandler>:
    2e0c:	a001                	j	2e0c <PVD_IRQHandler>

00002e0e <TAMPER_IRQHandler>:
    2e0e:	a001                	j	2e0e <TAMPER_IRQHandler>

00002e10 <RTC_IRQHandler>:
    2e10:	a001                	j	2e10 <RTC_IRQHandler>

00002e12 <FLASH_IRQHandler>:
    2e12:	a001                	j	2e12 <FLASH_IRQHandler>

00002e14 <RCC_IRQHandler>:
    2e14:	a001                	j	2e14 <RCC_IRQHandler>

00002e16 <EXTI0_IRQHandler>:
    2e16:	a001                	j	2e16 <EXTI0_IRQHandler>
    2e18:	a001                	j	2e18 <EXTI0_IRQHandler+0x2>

00002e1a <EXTI2_IRQHandler>:
    2e1a:	a001                	j	2e1a <EXTI2_IRQHandler>

00002e1c <EXTI3_IRQHandler>:
    2e1c:	a001                	j	2e1c <EXTI3_IRQHandler>

00002e1e <EXTI4_IRQHandler>:
    2e1e:	a001                	j	2e1e <EXTI4_IRQHandler>

00002e20 <DMA1_Channel1_IRQHandler>:
    2e20:	a001                	j	2e20 <DMA1_Channel1_IRQHandler>

00002e22 <DMA1_Channel2_IRQHandler>:
    2e22:	a001                	j	2e22 <DMA1_Channel2_IRQHandler>

00002e24 <DMA1_Channel3_IRQHandler>:
    2e24:	a001                	j	2e24 <DMA1_Channel3_IRQHandler>

00002e26 <DMA1_Channel4_IRQHandler>:
    2e26:	a001                	j	2e26 <DMA1_Channel4_IRQHandler>

00002e28 <DMA1_Channel5_IRQHandler>:
    2e28:	a001                	j	2e28 <DMA1_Channel5_IRQHandler>

00002e2a <DMA1_Channel6_IRQHandler>:
    2e2a:	a001                	j	2e2a <DMA1_Channel6_IRQHandler>

00002e2c <DMA1_Channel7_IRQHandler>:
    2e2c:	a001                	j	2e2c <DMA1_Channel7_IRQHandler>

00002e2e <ADC1_2_IRQHandler>:
    2e2e:	a001                	j	2e2e <ADC1_2_IRQHandler>

00002e30 <USB_HP_CAN1_TX_IRQHandler>:
    2e30:	a001                	j	2e30 <USB_HP_CAN1_TX_IRQHandler>

00002e32 <USB_LP_CAN1_RX0_IRQHandler>:
    2e32:	a001                	j	2e32 <USB_LP_CAN1_RX0_IRQHandler>

00002e34 <CAN1_RX1_IRQHandler>:
    2e34:	a001                	j	2e34 <CAN1_RX1_IRQHandler>

00002e36 <CAN1_SCE_IRQHandler>:
    2e36:	a001                	j	2e36 <CAN1_SCE_IRQHandler>

00002e38 <EXTI9_5_IRQHandler>:
    2e38:	a001                	j	2e38 <EXTI9_5_IRQHandler>

00002e3a <TIM1_BRK_IRQHandler>:
    2e3a:	a001                	j	2e3a <TIM1_BRK_IRQHandler>

00002e3c <TIM1_UP_IRQHandler>:
    2e3c:	a001                	j	2e3c <TIM1_UP_IRQHandler>

00002e3e <TIM1_TRG_COM_IRQHandler>:
    2e3e:	a001                	j	2e3e <TIM1_TRG_COM_IRQHandler>

00002e40 <TIM1_CC_IRQHandler>:
    2e40:	a001                	j	2e40 <TIM1_CC_IRQHandler>
    2e42:	a001                	j	2e42 <TIM1_CC_IRQHandler+0x2>
    2e44:	a001                	j	2e44 <TIM1_CC_IRQHandler+0x4>
    2e46:	a001                	j	2e46 <TIM1_CC_IRQHandler+0x6>

00002e48 <I2C1_EV_IRQHandler>:
    2e48:	a001                	j	2e48 <I2C1_EV_IRQHandler>

00002e4a <I2C1_ER_IRQHandler>:
    2e4a:	a001                	j	2e4a <I2C1_ER_IRQHandler>

00002e4c <I2C2_EV_IRQHandler>:
    2e4c:	a001                	j	2e4c <I2C2_EV_IRQHandler>

00002e4e <I2C2_ER_IRQHandler>:
    2e4e:	a001                	j	2e4e <I2C2_ER_IRQHandler>

00002e50 <SPI1_IRQHandler>:
    2e50:	a001                	j	2e50 <SPI1_IRQHandler>

00002e52 <SPI2_IRQHandler>:
    2e52:	a001                	j	2e52 <SPI2_IRQHandler>

00002e54 <USART1_IRQHandler>:
    2e54:	a001                	j	2e54 <USART1_IRQHandler>

00002e56 <USART2_IRQHandler>:
    2e56:	a001                	j	2e56 <USART2_IRQHandler>

00002e58 <USART3_IRQHandler>:
    2e58:	a001                	j	2e58 <USART3_IRQHandler>

00002e5a <EXTI15_10_IRQHandler>:
    2e5a:	a001                	j	2e5a <EXTI15_10_IRQHandler>

00002e5c <RTCAlarm_IRQHandler>:
    2e5c:	a001                	j	2e5c <RTCAlarm_IRQHandler>

00002e5e <USBWakeUp_IRQHandler>:
    2e5e:	a001                	j	2e5e <USBWakeUp_IRQHandler>

00002e60 <USBHD_IRQHandler>:
    2e60:	a001                	j	2e60 <USBHD_IRQHandler>

00002e62 <USBHDWakeUp_IRQHandler>:
    2e62:	a001                	j	2e62 <USBHDWakeUp_IRQHandler>

00002e64 <UART4_IRQHandler>:
    2e64:	a001                	j	2e64 <UART4_IRQHandler>

00002e66 <DMA1_Channel8_IRQHandler>:
    2e66:	a001                	j	2e66 <DMA1_Channel8_IRQHandler>

00002e68 <handle_reset>:
    2e68:	1fffe197          	auipc	gp,0x1fffe
    2e6c:	99818193          	addi	gp,gp,-1640 # 20000800 <__global_pointer$>
    2e70:	20002117          	auipc	sp,0x20002
    2e74:	19010113          	addi	sp,sp,400 # 20005000 <_eusrstack>
    2e78:	00000517          	auipc	a0,0x0
    2e7c:	5fc50513          	addi	a0,a0,1532 # 3474 <_data_lma>
    2e80:	1fffd597          	auipc	a1,0x1fffd
    2e84:	18058593          	addi	a1,a1,384 # 20000000 <_data_vma>
    2e88:	87018613          	addi	a2,gp,-1936 # 20000070 <_edata>
    2e8c:	00c5fa63          	bgeu	a1,a2,2ea0 <handle_reset+0x38>
    2e90:	00052283          	lw	t0,0(a0)
    2e94:	0055a023          	sw	t0,0(a1)
    2e98:	0511                	addi	a0,a0,4
    2e9a:	0591                	addi	a1,a1,4
    2e9c:	fec5eae3          	bltu	a1,a2,2e90 <handle_reset+0x28>
    2ea0:	87018513          	addi	a0,gp,-1936 # 20000070 <_edata>
    2ea4:	1ffff597          	auipc	a1,0x1ffff
    2ea8:	ccc58593          	addi	a1,a1,-820 # 20001b70 <_ebss>
    2eac:	00b57763          	bgeu	a0,a1,2eba <handle_reset+0x52>
    2eb0:	00052023          	sw	zero,0(a0)
    2eb4:	0511                	addi	a0,a0,4
    2eb6:	feb56de3          	bltu	a0,a1,2eb0 <handle_reset+0x48>
    2eba:	42fd                	li	t0,31
    2ebc:	bc029073          	csrw	0xbc0,t0
    2ec0:	428d                	li	t0,3
    2ec2:	80429073          	csrw	0x804,t0
    2ec6:	08800293          	li	t0,136
    2eca:	3002a073          	csrs	mstatus,t0
    2ece:	ffffd297          	auipc	t0,0xffffd
    2ed2:	16a28293          	addi	t0,t0,362 # 38 <_einit>
    2ed6:	0032e293          	ori	t0,t0,3
    2eda:	30529073          	csrw	mtvec,t0
    2ede:	bddff0ef          	jal	ra,2aba <SystemInit>
    2ee2:	fffff297          	auipc	t0,0xfffff
    2ee6:	4dc28293          	addi	t0,t0,1244 # 23be <main>
    2eea:	34129073          	csrw	mepc,t0
    2eee:	30200073          	mret

00002ef2 <EXTI_Init>:
    2ef2:	4158                	lw	a4,4(a0)
    2ef4:	00052803          	lw	a6,0(a0)
    2ef8:	454c                	lw	a1,12(a0)
    2efa:	40010637          	lui	a2,0x40010
    2efe:	40060793          	addi	a5,a2,1024 # 40010400 <_eusrstack+0x2000b400>
    2f02:	973e                	add	a4,a4,a5
    2f04:	fff84693          	not	a3,a6
    2f08:	c5b1                	beqz	a1,2f54 <EXTI_Init+0x62>
    2f0a:	40062583          	lw	a1,1024(a2)
    2f0e:	8df5                	and	a1,a1,a3
    2f10:	40b62023          	sw	a1,1024(a2)
    2f14:	43d0                	lw	a2,4(a5)
    2f16:	8ef1                	and	a3,a3,a2
    2f18:	c3d4                	sw	a3,4(a5)
    2f1a:	4314                	lw	a3,0(a4)
    2f1c:	0106e6b3          	or	a3,a3,a6
    2f20:	c314                	sw	a3,0(a4)
    2f22:	4118                	lw	a4,0(a0)
    2f24:	4790                	lw	a2,8(a5)
    2f26:	fff74693          	not	a3,a4
    2f2a:	8e75                	and	a2,a2,a3
    2f2c:	c790                	sw	a2,8(a5)
    2f2e:	47d0                	lw	a2,12(a5)
    2f30:	8ef1                	and	a3,a3,a2
    2f32:	c7d4                	sw	a3,12(a5)
    2f34:	4514                	lw	a3,8(a0)
    2f36:	4641                	li	a2,16
    2f38:	00c69963          	bne	a3,a2,2f4a <EXTI_Init+0x58>
    2f3c:	4794                	lw	a3,8(a5)
    2f3e:	8ed9                	or	a3,a3,a4
    2f40:	c794                	sw	a3,8(a5)
    2f42:	47d4                	lw	a3,12(a5)
    2f44:	8f55                	or	a4,a4,a3
    2f46:	c7d8                	sw	a4,12(a5)
    2f48:	8082                	ret
    2f4a:	97b6                	add	a5,a5,a3
    2f4c:	4394                	lw	a3,0(a5)
    2f4e:	8f55                	or	a4,a4,a3
    2f50:	c398                	sw	a4,0(a5)
    2f52:	8082                	ret
    2f54:	431c                	lw	a5,0(a4)
    2f56:	8ff5                	and	a5,a5,a3
    2f58:	c31c                	sw	a5,0(a4)
    2f5a:	8082                	ret

00002f5c <EXTI_GetITStatus>:
    2f5c:	400107b7          	lui	a5,0x40010
    2f60:	40078713          	addi	a4,a5,1024 # 40010400 <_eusrstack+0x2000b400>
    2f64:	4007a783          	lw	a5,1024(a5)
    2f68:	4b58                	lw	a4,20(a4)
    2f6a:	8f69                	and	a4,a4,a0
    2f6c:	c709                	beqz	a4,2f76 <EXTI_GetITStatus+0x1a>
    2f6e:	8d7d                	and	a0,a0,a5
    2f70:	00a03533          	snez	a0,a0
    2f74:	8082                	ret
    2f76:	4501                	li	a0,0
    2f78:	8082                	ret

00002f7a <EXTI_ClearITPendingBit>:
    2f7a:	400107b7          	lui	a5,0x40010
    2f7e:	40a7aa23          	sw	a0,1044(a5) # 40010414 <_eusrstack+0x2000b414>
    2f82:	8082                	ret

00002f84 <GPIO_Init>:
    2f84:	459c                	lw	a5,8(a1)
    2f86:	0107f713          	andi	a4,a5,16
    2f8a:	00f7f813          	andi	a6,a5,15
    2f8e:	c701                	beqz	a4,2f96 <GPIO_Init+0x12>
    2f90:	41d8                	lw	a4,4(a1)
    2f92:	00e86833          	or	a6,a6,a4
    2f96:	40022737          	lui	a4,0x40022
    2f9a:	5b14                	lw	a3,48(a4)
    2f9c:	0f000737          	lui	a4,0xf000
    2fa0:	8f75                	and	a4,a4,a3
    2fa2:	eb4d                	bnez	a4,3054 <GPIO_Init+0xd0>
    2fa4:	4685                	li	a3,1
    2fa6:	88d182a3          	sb	a3,-1915(gp) # 20000085 <MCU_Version>
    2faa:	40011737          	lui	a4,0x40011
    2fae:	00e51563          	bne	a0,a4,2fb8 <GPIO_Init+0x34>
    2fb2:	219a                	lhu	a4,0(a1)
    2fb4:	8335                	srli	a4,a4,0xd
    2fb6:	a19a                	sh	a4,0(a1)
    2fb8:	218e                	lhu	a1,0(a1)
    2fba:	0ff5f713          	andi	a4,a1,255
    2fbe:	c339                	beqz	a4,3004 <GPIO_Init+0x80>
    2fc0:	4118                	lw	a4,0(a0)
    2fc2:	4681                	li	a3,0
    2fc4:	4e85                	li	t4,1
    2fc6:	4f3d                	li	t5,15
    2fc8:	02800f93          	li	t6,40
    2fcc:	04800293          	li	t0,72
    2fd0:	4e21                	li	t3,8
    2fd2:	00de9633          	sll	a2,t4,a3
    2fd6:	00c5f8b3          	and	a7,a1,a2
    2fda:	03161163          	bne	a2,a7,2ffc <GPIO_Init+0x78>
    2fde:	00269893          	slli	a7,a3,0x2
    2fe2:	011f1333          	sll	t1,t5,a7
    2fe6:	fff34313          	not	t1,t1
    2fea:	00e37733          	and	a4,t1,a4
    2fee:	011818b3          	sll	a7,a6,a7
    2ff2:	00e8e733          	or	a4,a7,a4
    2ff6:	07f79763          	bne	a5,t6,3064 <GPIO_Init+0xe0>
    2ffa:	c950                	sw	a2,20(a0)
    2ffc:	0685                	addi	a3,a3,1
    2ffe:	fdc69ae3          	bne	a3,t3,2fd2 <GPIO_Init+0x4e>
    3002:	c118                	sw	a4,0(a0)
    3004:	0ff00713          	li	a4,255
    3008:	04b77563          	bgeu	a4,a1,3052 <GPIO_Init+0xce>
    300c:	4154                	lw	a3,4(a0)
    300e:	4621                	li	a2,8
    3010:	4e85                	li	t4,1
    3012:	4f3d                	li	t5,15
    3014:	02800f93          	li	t6,40
    3018:	04800293          	li	t0,72
    301c:	4e41                	li	t3,16
    301e:	00ce98b3          	sll	a7,t4,a2
    3022:	0115f733          	and	a4,a1,a7
    3026:	02e89263          	bne	a7,a4,304a <GPIO_Init+0xc6>
    302a:	00261713          	slli	a4,a2,0x2
    302e:	1701                	addi	a4,a4,-32
    3030:	00ef1333          	sll	t1,t5,a4
    3034:	fff34313          	not	t1,t1
    3038:	00d376b3          	and	a3,t1,a3
    303c:	00e81733          	sll	a4,a6,a4
    3040:	8ed9                	or	a3,a3,a4
    3042:	03f79563          	bne	a5,t6,306c <GPIO_Init+0xe8>
    3046:	01152a23          	sw	a7,20(a0)
    304a:	0605                	addi	a2,a2,1
    304c:	fdc619e3          	bne	a2,t3,301e <GPIO_Init+0x9a>
    3050:	c154                	sw	a3,4(a0)
    3052:	8082                	ret
    3054:	40011737          	lui	a4,0x40011
    3058:	f6e510e3          	bne	a0,a4,2fb8 <GPIO_Init+0x34>
    305c:	8851c703          	lbu	a4,-1915(gp) # 20000085 <MCU_Version>
    3060:	df21                	beqz	a4,2fb8 <GPIO_Init+0x34>
    3062:	bf81                	j	2fb2 <GPIO_Init+0x2e>
    3064:	f8579ce3          	bne	a5,t0,2ffc <GPIO_Init+0x78>
    3068:	c910                	sw	a2,16(a0)
    306a:	bf49                	j	2ffc <GPIO_Init+0x78>
    306c:	fc579fe3          	bne	a5,t0,304a <GPIO_Init+0xc6>
    3070:	01152823          	sw	a7,16(a0)
    3074:	bfd9                	j	304a <GPIO_Init+0xc6>

00003076 <GPIO_ReadInputDataBit>:
    3076:	400117b7          	lui	a5,0x40011
    307a:	00f51663          	bne	a0,a5,3086 <GPIO_ReadInputDataBit+0x10>
    307e:	8851c783          	lbu	a5,-1915(gp) # 20000085 <MCU_Version>
    3082:	c391                	beqz	a5,3086 <GPIO_ReadInputDataBit+0x10>
    3084:	81b5                	srli	a1,a1,0xd
    3086:	4508                	lw	a0,8(a0)
    3088:	8d6d                	and	a0,a0,a1
    308a:	00a03533          	snez	a0,a0
    308e:	8082                	ret

00003090 <GPIO_ReadOutputData>:
    3090:	400117b7          	lui	a5,0x40011
    3094:	00f51a63          	bne	a0,a5,30a8 <GPIO_ReadOutputData+0x18>
    3098:	8851c783          	lbu	a5,-1915(gp) # 20000085 <MCU_Version>
    309c:	c791                	beqz	a5,30a8 <GPIO_ReadOutputData+0x18>
    309e:	4548                	lw	a0,12(a0)
    30a0:	0536                	slli	a0,a0,0xd
    30a2:	0542                	slli	a0,a0,0x10
    30a4:	8141                	srli	a0,a0,0x10
    30a6:	8082                	ret
    30a8:	4548                	lw	a0,12(a0)
    30aa:	bfe5                	j	30a2 <GPIO_ReadOutputData+0x12>

000030ac <GPIO_WriteBit>:
    30ac:	400117b7          	lui	a5,0x40011
    30b0:	00f51663          	bne	a0,a5,30bc <GPIO_WriteBit+0x10>
    30b4:	8851c783          	lbu	a5,-1915(gp) # 20000085 <MCU_Version>
    30b8:	c391                	beqz	a5,30bc <GPIO_WriteBit+0x10>
    30ba:	81b5                	srli	a1,a1,0xd
    30bc:	c219                	beqz	a2,30c2 <GPIO_WriteBit+0x16>
    30be:	c90c                	sw	a1,16(a0)
    30c0:	8082                	ret
    30c2:	c94c                	sw	a1,20(a0)
    30c4:	8082                	ret

000030c6 <GPIO_Write>:
    30c6:	400117b7          	lui	a5,0x40011
    30ca:	00f51663          	bne	a0,a5,30d6 <GPIO_Write+0x10>
    30ce:	8851c783          	lbu	a5,-1915(gp) # 20000085 <MCU_Version>
    30d2:	c391                	beqz	a5,30d6 <GPIO_Write+0x10>
    30d4:	81b5                	srli	a1,a1,0xd
    30d6:	c54c                	sw	a1,12(a0)
    30d8:	8082                	ret

000030da <GPIO_EXTILineConfig>:
    30da:	0fc5f713          	andi	a4,a1,252
    30de:	0035f793          	andi	a5,a1,3
    30e2:	400105b7          	lui	a1,0x40010
    30e6:	95ba                	add	a1,a1,a4
    30e8:	4594                	lw	a3,8(a1)
    30ea:	078a                	slli	a5,a5,0x2
    30ec:	473d                	li	a4,15
    30ee:	00f71733          	sll	a4,a4,a5
    30f2:	fff74713          	not	a4,a4
    30f6:	8f75                	and	a4,a4,a3
    30f8:	c598                	sw	a4,8(a1)
    30fa:	4598                	lw	a4,8(a1)
    30fc:	00f51533          	sll	a0,a0,a5
    3100:	8d59                	or	a0,a0,a4
    3102:	c588                	sw	a0,8(a1)
    3104:	8082                	ret

00003106 <NVIC_Init>:
    3106:	88818793          	addi	a5,gp,-1912 # 20000088 <NVIC_Priority_Group>
    310a:	4394                	lw	a3,0(a5)
    310c:	2118                	lbu	a4,0(a0)
    310e:	e681                	bnez	a3,3116 <NVIC_Init+0x10>
    3110:	213c                	lbu	a5,2(a0)
    3112:	0792                	slli	a5,a5,0x4
    3114:	a821                	j	312c <NVIC_Init+0x26>
    3116:	4394                	lw	a3,0(a5)
    3118:	4605                	li	a2,1
    311a:	02c69f63          	bne	a3,a2,3158 <NVIC_Init+0x52>
    311e:	213c                	lbu	a5,2(a0)
    3120:	3110                	lbu	a2,1(a0)
    3122:	0792                	slli	a5,a5,0x4
    3124:	00d61463          	bne	a2,a3,312c <NVIC_Init+0x26>
    3128:	f807e793          	ori	a5,a5,-128
    312c:	e000e6b7          	lui	a3,0xe000e
    3130:	0ff7f793          	andi	a5,a5,255
    3134:	96ba                	add	a3,a3,a4
    3136:	40f68023          	sb	a5,1024(a3) # e000e400 <_eusrstack+0xc0009400>
    313a:	4685                	li	a3,1
    313c:	00575793          	srli	a5,a4,0x5
    3140:	00e69733          	sll	a4,a3,a4
    3144:	4154                	lw	a3,4(a0)
    3146:	c2a5                	beqz	a3,31a6 <NVIC_Init+0xa0>
    3148:	04078793          	addi	a5,a5,64 # 40011040 <_eusrstack+0x2000c040>
    314c:	078a                	slli	a5,a5,0x2
    314e:	e000e6b7          	lui	a3,0xe000e
    3152:	97b6                	add	a5,a5,a3
    3154:	c398                	sw	a4,0(a5)
    3156:	8082                	ret
    3158:	438c                	lw	a1,0(a5)
    315a:	4689                	li	a3,2
    315c:	02d59163          	bne	a1,a3,317e <NVIC_Init+0x78>
    3160:	3114                	lbu	a3,1(a0)
    3162:	213c                	lbu	a5,2(a0)
    3164:	00d66563          	bltu	a2,a3,316e <NVIC_Init+0x68>
    3168:	068a                	slli	a3,a3,0x2
    316a:	97b6                	add	a5,a5,a3
    316c:	b75d                	j	3112 <NVIC_Init+0xc>
    316e:	03e68693          	addi	a3,a3,62 # e000e03e <_eusrstack+0xc000903e>
    3172:	068a                	slli	a3,a3,0x2
    3174:	97b6                	add	a5,a5,a3
    3176:	0ff7f793          	andi	a5,a5,255
    317a:	0792                	slli	a5,a5,0x4
    317c:	b775                	j	3128 <NVIC_Init+0x22>
    317e:	4390                	lw	a2,0(a5)
    3180:	468d                	li	a3,3
    3182:	00d61c63          	bne	a2,a3,319a <NVIC_Init+0x94>
    3186:	3114                	lbu	a3,1(a0)
    3188:	213c                	lbu	a5,2(a0)
    318a:	00d66463          	bltu	a2,a3,3192 <NVIC_Init+0x8c>
    318e:	0686                	slli	a3,a3,0x1
    3190:	bfe9                	j	316a <NVIC_Init+0x64>
    3192:	07c68693          	addi	a3,a3,124
    3196:	0686                	slli	a3,a3,0x1
    3198:	bff1                	j	3174 <NVIC_Init+0x6e>
    319a:	4394                	lw	a3,0(a5)
    319c:	4791                	li	a5,4
    319e:	f8f69ee3          	bne	a3,a5,313a <NVIC_Init+0x34>
    31a2:	311c                	lbu	a5,1(a0)
    31a4:	b7bd                	j	3112 <NVIC_Init+0xc>
    31a6:	06078793          	addi	a5,a5,96
    31aa:	b74d                	j	314c <NVIC_Init+0x46>

000031ac <RCC_USBCLKConfig>:
    31ac:	400217b7          	lui	a5,0x40021
    31b0:	43d8                	lw	a4,4(a5)
    31b2:	ff4006b7          	lui	a3,0xff400
    31b6:	16fd                	addi	a3,a3,-1
    31b8:	8f75                	and	a4,a4,a3
    31ba:	c3d8                	sw	a4,4(a5)
    31bc:	43d8                	lw	a4,4(a5)
    31be:	055a                	slli	a0,a0,0x16
    31c0:	8d59                	or	a0,a0,a4
    31c2:	c3c8                	sw	a0,4(a5)
    31c4:	8082                	ret

000031c6 <RCC_AHBPeriphClockCmd>:
    31c6:	c599                	beqz	a1,31d4 <RCC_AHBPeriphClockCmd+0xe>
    31c8:	40021737          	lui	a4,0x40021
    31cc:	4b5c                	lw	a5,20(a4)
    31ce:	8d5d                	or	a0,a0,a5
    31d0:	cb48                	sw	a0,20(a4)
    31d2:	8082                	ret
    31d4:	400217b7          	lui	a5,0x40021
    31d8:	4bd8                	lw	a4,20(a5)
    31da:	fff54513          	not	a0,a0
    31de:	8d79                	and	a0,a0,a4
    31e0:	cbc8                	sw	a0,20(a5)
    31e2:	8082                	ret

000031e4 <RCC_APB2PeriphClockCmd>:
    31e4:	c599                	beqz	a1,31f2 <RCC_APB2PeriphClockCmd+0xe>
    31e6:	40021737          	lui	a4,0x40021
    31ea:	4f1c                	lw	a5,24(a4)
    31ec:	8d5d                	or	a0,a0,a5
    31ee:	cf08                	sw	a0,24(a4)
    31f0:	8082                	ret
    31f2:	400217b7          	lui	a5,0x40021
    31f6:	4f98                	lw	a4,24(a5)
    31f8:	fff54513          	not	a0,a0
    31fc:	8d79                	and	a0,a0,a4
    31fe:	cf88                	sw	a0,24(a5)
    3200:	8082                	ret

00003202 <RCC_APB1PeriphClockCmd>:
    3202:	c599                	beqz	a1,3210 <RCC_APB1PeriphClockCmd+0xe>
    3204:	40021737          	lui	a4,0x40021
    3208:	4f5c                	lw	a5,28(a4)
    320a:	8d5d                	or	a0,a0,a5
    320c:	cf48                	sw	a0,28(a4)
    320e:	8082                	ret
    3210:	400217b7          	lui	a5,0x40021
    3214:	4fd8                	lw	a4,28(a5)
    3216:	fff54513          	not	a0,a0
    321a:	8d79                	and	a0,a0,a4
    321c:	cfc8                	sw	a0,28(a5)
    321e:	8082                	ret

00003220 <TIM_TimeBaseInit>:
    3220:	211e                	lhu	a5,0(a0)
    3222:	40013737          	lui	a4,0x40013
    3226:	c0070713          	addi	a4,a4,-1024 # 40012c00 <_eusrstack+0x2000dc00>
    322a:	07c2                	slli	a5,a5,0x10
    322c:	83c1                	srli	a5,a5,0x10
    322e:	02e50463          	beq	a0,a4,3256 <TIM_TimeBaseInit+0x36>
    3232:	40000737          	lui	a4,0x40000
    3236:	02e50063          	beq	a0,a4,3256 <TIM_TimeBaseInit+0x36>
    323a:	40070713          	addi	a4,a4,1024 # 40000400 <_eusrstack+0x1fffb400>
    323e:	00e50c63          	beq	a0,a4,3256 <TIM_TimeBaseInit+0x36>
    3242:	40001737          	lui	a4,0x40001
    3246:	80070693          	addi	a3,a4,-2048 # 40000800 <_eusrstack+0x1fffb800>
    324a:	00d50663          	beq	a0,a3,3256 <TIM_TimeBaseInit+0x36>
    324e:	c0070713          	addi	a4,a4,-1024
    3252:	00e51663          	bne	a0,a4,325e <TIM_TimeBaseInit+0x3e>
    3256:	21ba                	lhu	a4,2(a1)
    3258:	f8f7f793          	andi	a5,a5,-113
    325c:	8fd9                	or	a5,a5,a4
    325e:	21fa                	lhu	a4,6(a1)
    3260:	cff7f793          	andi	a5,a5,-769
    3264:	07c2                	slli	a5,a5,0x10
    3266:	83c1                	srli	a5,a5,0x10
    3268:	8fd9                	or	a5,a5,a4
    326a:	a11e                	sh	a5,0(a0)
    326c:	21de                	lhu	a5,4(a1)
    326e:	b55e                	sh	a5,44(a0)
    3270:	219e                	lhu	a5,0(a1)
    3272:	b51e                	sh	a5,40(a0)
    3274:	400137b7          	lui	a5,0x40013
    3278:	c0078793          	addi	a5,a5,-1024 # 40012c00 <_eusrstack+0x2000dc00>
    327c:	00f51463          	bne	a0,a5,3284 <TIM_TimeBaseInit+0x64>
    3280:	259c                	lbu	a5,8(a1)
    3282:	b91e                	sh	a5,48(a0)
    3284:	4785                	li	a5,1
    3286:	a95e                	sh	a5,20(a0)
    3288:	8082                	ret

0000328a <TIM_Cmd>:
    328a:	211e                	lhu	a5,0(a0)
    328c:	c589                	beqz	a1,3296 <TIM_Cmd+0xc>
    328e:	0017e793          	ori	a5,a5,1
    3292:	a11e                	sh	a5,0(a0)
    3294:	8082                	ret
    3296:	07c2                	slli	a5,a5,0x10
    3298:	83c1                	srli	a5,a5,0x10
    329a:	9bf9                	andi	a5,a5,-2
    329c:	07c2                	slli	a5,a5,0x10
    329e:	83c1                	srli	a5,a5,0x10
    32a0:	bfcd                	j	3292 <TIM_Cmd+0x8>

000032a2 <TIM_ITConfig>:
    32a2:	255e                	lhu	a5,12(a0)
    32a4:	c601                	beqz	a2,32ac <TIM_ITConfig+0xa>
    32a6:	8ddd                	or	a1,a1,a5
    32a8:	a54e                	sh	a1,12(a0)
    32aa:	8082                	ret
    32ac:	fff5c593          	not	a1,a1
    32b0:	8dfd                	and	a1,a1,a5
    32b2:	bfdd                	j	32a8 <TIM_ITConfig+0x6>

000032b4 <TIM_GetITStatus>:
    32b4:	291e                	lhu	a5,16(a0)
    32b6:	254a                	lhu	a0,12(a0)
    32b8:	8fed                	and	a5,a5,a1
    32ba:	0542                	slli	a0,a0,0x10
    32bc:	8141                	srli	a0,a0,0x10
    32be:	c789                	beqz	a5,32c8 <TIM_GetITStatus+0x14>
    32c0:	8d6d                	and	a0,a0,a1
    32c2:	00a03533          	snez	a0,a0
    32c6:	8082                	ret
    32c8:	4501                	li	a0,0
    32ca:	8082                	ret

000032cc <TIM_ClearITPendingBit>:
    32cc:	fff5c593          	not	a1,a1
    32d0:	05c2                	slli	a1,a1,0x10
    32d2:	81c1                	srli	a1,a1,0x10
    32d4:	a90e                	sh	a1,16(a0)
    32d6:	8082                	ret

000032d8 <Delay_Init>:
    32d8:	200007b7          	lui	a5,0x20000
    32dc:	0047a783          	lw	a5,4(a5) # 20000004 <SystemCoreClock>
    32e0:	007a1737          	lui	a4,0x7a1
    32e4:	20070713          	addi	a4,a4,512 # 7a1200 <_data_lma+0x79dd8c>
    32e8:	02e7d7b3          	divu	a5,a5,a4
    32ec:	0ff7f793          	andi	a5,a5,255
    32f0:	88f18723          	sb	a5,-1906(gp) # 2000008e <p_us>
    32f4:	3e800713          	li	a4,1000
    32f8:	02e787b3          	mul	a5,a5,a4
    32fc:	88f19623          	sh	a5,-1908(gp) # 2000008c <p_ms>
    3300:	8082                	ret

00003302 <Delay_Us>:
    3302:	e000f7b7          	lui	a5,0xe000f
    3306:	43d8                	lw	a4,4(a5)
    3308:	4681                	li	a3,0
    330a:	9b79                	andi	a4,a4,-2
    330c:	c3d8                	sw	a4,4(a5)
    330e:	88e1c703          	lbu	a4,-1906(gp) # 2000008e <p_us>
    3312:	02a70633          	mul	a2,a4,a0
    3316:	cb90                	sw	a2,16(a5)
    3318:	cbd4                	sw	a3,20(a5)
    331a:	4398                	lw	a4,0(a5)
    331c:	01076713          	ori	a4,a4,16
    3320:	c398                	sw	a4,0(a5)
    3322:	4398                	lw	a4,0(a5)
    3324:	02176713          	ori	a4,a4,33
    3328:	c398                	sw	a4,0(a5)
    332a:	43d8                	lw	a4,4(a5)
    332c:	8b05                	andi	a4,a4,1
    332e:	df75                	beqz	a4,332a <Delay_Us+0x28>
    3330:	4398                	lw	a4,0(a5)
    3332:	9b79                	andi	a4,a4,-2
    3334:	c398                	sw	a4,0(a5)
    3336:	8082                	ret

00003338 <Delay_Ms>:
    3338:	e000f7b7          	lui	a5,0xe000f
    333c:	43d8                	lw	a4,4(a5)
    333e:	4681                	li	a3,0
    3340:	9b79                	andi	a4,a4,-2
    3342:	c3d8                	sw	a4,4(a5)
    3344:	88c1d703          	lhu	a4,-1908(gp) # 2000008c <p_ms>
    3348:	02a70633          	mul	a2,a4,a0
    334c:	cb90                	sw	a2,16(a5)
    334e:	cbd4                	sw	a3,20(a5)
    3350:	4398                	lw	a4,0(a5)
    3352:	01076713          	ori	a4,a4,16
    3356:	c398                	sw	a4,0(a5)
    3358:	4398                	lw	a4,0(a5)
    335a:	02176713          	ori	a4,a4,33
    335e:	c398                	sw	a4,0(a5)
    3360:	43d8                	lw	a4,4(a5)
    3362:	8b05                	andi	a4,a4,1
    3364:	df75                	beqz	a4,3360 <Delay_Ms+0x28>
    3366:	4398                	lw	a4,0(a5)
    3368:	9b79                	andi	a4,a4,-2
    336a:	c398                	sw	a4,0(a5)
    336c:	8082                	ret

0000336e <memchr>:
    336e:	0ff5f593          	andi	a1,a1,255
    3372:	962a                	add	a2,a2,a0
    3374:	00c51463          	bne	a0,a2,337c <memchr+0xe>
    3378:	4501                	li	a0,0
    337a:	8082                	ret
    337c:	211c                	lbu	a5,0(a0)
    337e:	feb78ee3          	beq	a5,a1,337a <memchr+0xc>
    3382:	0505                	addi	a0,a0,1
    3384:	bfc5                	j	3374 <memchr+0x6>

00003386 <memcpy>:
    3386:	00a5c7b3          	xor	a5,a1,a0
    338a:	8b8d                	andi	a5,a5,3
    338c:	00c50733          	add	a4,a0,a2
    3390:	e781                	bnez	a5,3398 <memcpy+0x12>
    3392:	478d                	li	a5,3
    3394:	00c7ed63          	bltu	a5,a2,33ae <memcpy+0x28>
    3398:	87aa                	mv	a5,a0
    339a:	08e57e63          	bgeu	a0,a4,3436 <memcpy+0xb0>
    339e:	2194                	lbu	a3,0(a1)
    33a0:	0785                	addi	a5,a5,1
    33a2:	0585                	addi	a1,a1,1
    33a4:	fed78fa3          	sb	a3,-1(a5) # e000efff <_eusrstack+0xc0009fff>
    33a8:	fee7ebe3          	bltu	a5,a4,339e <memcpy+0x18>
    33ac:	8082                	ret
    33ae:	00357693          	andi	a3,a0,3
    33b2:	87aa                	mv	a5,a0
    33b4:	ca89                	beqz	a3,33c6 <memcpy+0x40>
    33b6:	2194                	lbu	a3,0(a1)
    33b8:	0785                	addi	a5,a5,1
    33ba:	0585                	addi	a1,a1,1
    33bc:	fed78fa3          	sb	a3,-1(a5)
    33c0:	0037f693          	andi	a3,a5,3
    33c4:	bfc5                	j	33b4 <memcpy+0x2e>
    33c6:	ffc77693          	andi	a3,a4,-4
    33ca:	fe068613          	addi	a2,a3,-32 # ff3fffe0 <_eusrstack+0xdf3fafe0>
    33ce:	06c7f063          	bgeu	a5,a2,342e <memcpy+0xa8>
    33d2:	0005a383          	lw	t2,0(a1) # 40010000 <_eusrstack+0x2000b000>
    33d6:	0045a283          	lw	t0,4(a1)
    33da:	0085af83          	lw	t6,8(a1)
    33de:	00c5af03          	lw	t5,12(a1)
    33e2:	0105ae83          	lw	t4,16(a1)
    33e6:	0145ae03          	lw	t3,20(a1)
    33ea:	0185a303          	lw	t1,24(a1)
    33ee:	01c5a883          	lw	a7,28(a1)
    33f2:	02458593          	addi	a1,a1,36
    33f6:	0077a023          	sw	t2,0(a5)
    33fa:	ffc5a803          	lw	a6,-4(a1)
    33fe:	0057a223          	sw	t0,4(a5)
    3402:	01f7a423          	sw	t6,8(a5)
    3406:	01e7a623          	sw	t5,12(a5)
    340a:	01d7a823          	sw	t4,16(a5)
    340e:	01c7aa23          	sw	t3,20(a5)
    3412:	0067ac23          	sw	t1,24(a5)
    3416:	0117ae23          	sw	a7,28(a5)
    341a:	02478793          	addi	a5,a5,36
    341e:	ff07ae23          	sw	a6,-4(a5)
    3422:	b775                	j	33ce <memcpy+0x48>
    3424:	4190                	lw	a2,0(a1)
    3426:	0791                	addi	a5,a5,4
    3428:	0591                	addi	a1,a1,4
    342a:	fec7ae23          	sw	a2,-4(a5)
    342e:	fed7ebe3          	bltu	a5,a3,3424 <memcpy+0x9e>
    3432:	f6e7e6e3          	bltu	a5,a4,339e <memcpy+0x18>
    3436:	8082                	ret
    3438:	1d20                	addi	s0,sp,696
    343a:	0000                	unimp
    343c:	1c4c                	addi	a1,sp,564
    343e:	0000                	unimp
    3440:	1e1c                	addi	a5,sp,816
    3442:	0000                	unimp
    3444:	1c4c                	addi	a1,sp,564
    3446:	0000                	unimp
    3448:	1e48                	addi	a0,sp,820
    344a:	0000                	unimp
    344c:	1ea8                	addi	a0,sp,888
    344e:	0000                	unimp
    3450:	1edc                	addi	a5,sp,884
    3452:	0000                	unimp
    3454:	1ee6                	slli	t4,t4,0x39
    3456:	0000                	unimp
    3458:	1c4c                	addi	a1,sp,564
    345a:	0000                	unimp
    345c:	1c4c                	addi	a1,sp,564
    345e:	0000                	unimp
    3460:	1c4c                	addi	a1,sp,564
    3462:	0000                	unimp
    3464:	1c4c                	addi	a1,sp,564
    3466:	0000                	unimp
    3468:	1ef0                	addi	a2,sp,892
    346a:	0000                	unimp
    346c:	1ef6                	slli	t4,t4,0x3d
    346e:	0000                	unimp
    3470:	1efa                	slli	t4,t4,0x3e
	...
