
Bootloader.elf:     file format elf32-littleriscv
Bootloader.elf
architecture: riscv:rv32, flags 0x00000112:
EXEC_P, HAS_SYMS, D_PAGED
start address 0x00000000

Program Header:
    LOAD off    0x00001000 vaddr 0x00000000 paddr 0x00000000 align 2**12
         filesz 0x00004bc4 memsz 0x00004bc4 flags r-x
    LOAD off    0x00006000 vaddr 0x20000000 paddr 0x00004bc4 align 2**12
         filesz 0x00000098 memsz 0x00000a50 flags rw-
    LOAD off    0x00006800 vaddr 0x20004800 paddr 0x20004800 align 2**12
         filesz 0x00000000 memsz 0x00000800 flags rw-

Sections:
Idx Name           Size      VMA       LMA       File off  Algn  Flags
  0 .init          00000038  00000000  00000000  00001000  2**1  CONTENTS, ALLOC, LOAD, READONLY, CODE
  1 .vector        00000108  00000038  00000038  00001038  2**1  CONTENTS, ALLOC, LOAD, READONLY, CODE
  2 .text          00004a84  00000140  00000140  00001140  2**2  CONTENTS, ALLOC, LOAD, READONLY, CODE
  3 .fini          00000000  00004bc4  00004bc4  00006098  2**0  CONTENTS, ALLOC, LOAD, CODE
  4 .dalign        00000000  20000000  20000000  00006098  2**0  CONTENTS
  5 .dlalign       00000000  00004bc4  00004bc4  00006098  2**0  CONTENTS
  6 .data          00000098  20000000  00004bc4  00006000  2**2  CONTENTS, ALLOC, LOAD, DATA
  7 .bss           000009b8  20000098  00004c5c  00006098  2**2  ALLOC
  8 .stack         00000800  20004800  20004800  00006800  2**0  ALLOC
  9 .debug_info    0000d2c3  00000000  00000000  00006098  2**0  CONTENTS, READONLY, DEBUGGING
 10 .debug_abbrev  000024e5  00000000  00000000  0001335b  2**0  CONTENTS, READONLY, DEBUGGING
 11 .debug_loc     00002f79  00000000  00000000  00015840  2**0  CONTENTS, READONLY, DEBUGGING
 12 .debug_aranges 000005c8  00000000  00000000  000187c0  2**3  CONTENTS, READONLY, DEBUGGING
 13 .debug_ranges  00000588  00000000  00000000  00018d88  2**3  CONTENTS, READONLY, DEBUGGING
 14 .debug_line    000093f6  00000000  00000000  00019310  2**0  CONTENTS, READONLY, DEBUGGING
 15 .debug_str     00002442  00000000  00000000  00022706  2**0  CONTENTS, READONLY, DEBUGGING
 16 .comment       00000033  00000000  00000000  00024b48  2**0  CONTENTS, READONLY
 17 .debug_frame   0000191c  00000000  00000000  00024b7c  2**2  CONTENTS, READONLY, DEBUGGING
 18 .stab          00000084  00000000  00000000  00026498  2**2  CONTENTS, READONLY, DEBUGGING
 19 .stabstr       00000117  00000000  00000000  0002651c  2**0  CONTENTS, READONLY, DEBUGGING
SYMBOL TABLE:
00000000 l    d  .init	00000000 .init
00000038 l    d  .vector	00000000 .vector
00000140 l    d  .text	00000000 .text
00004bc4 l    d  .fini	00000000 .fini
20000000 l    d  .dalign	00000000 .dalign
00004bc4 l    d  .dlalign	00000000 .dlalign
20000000 l    d  .data	00000000 .data
20000098 l    d  .bss	00000000 .bss
20004800 l    d  .stack	00000000 .stack
00000000 l    d  .debug_info	00000000 .debug_info
00000000 l    d  .debug_abbrev	00000000 .debug_abbrev
00000000 l    d  .debug_loc	00000000 .debug_loc
00000000 l    d  .debug_aranges	00000000 .debug_aranges
00000000 l    d  .debug_ranges	00000000 .debug_ranges
00000000 l    d  .debug_line	00000000 .debug_line
00000000 l    d  .debug_str	00000000 .debug_str
00000000 l    d  .comment	00000000 .comment
00000000 l    d  .debug_frame	00000000 .debug_frame
00000000 l    d  .stab	00000000 .stab
00000000 l    d  .stabstr	00000000 .stabstr
00000000 l    df *ABS*	00000000 ./Startup/startup_ch32v20x_D6.o
00000038 l       .vector	00000000 _vector_base
00000000 l    df *ABS*	00000000 ch32v20x_usbfs_host.c
000001e8 l     F .text	00000026 USBFSH_SetSelfSpeed.part.0
2000006c l     O .data	00000008 SetupClearEndpStall
20000074 l     O .data	00000008 SetupGetCfgDesc
2000007c l     O .data	00000008 SetupGetDevDesc
20000084 l     O .data	00000008 SetupSetAddr
2000008c l     O .data	00000008 SetupSetConfig
00000000 l    df *ABS*	00000000 usb_host_iap.c
20000098 l     O .bss	00000001 op_flag.5343
00000000 l    df *ABS*	00000000 ch32v20x_it.c
00000000 l    df *ABS*	00000000 main.c
00000000 l    df *ABS*	00000000 system_ch32v20x.c
00000000 l    df *ABS*	00000000 utils.c
00000000 l    df *ABS*	00000000 CH32V103UFI.c
00000000 l    df *ABS*	00000000 ch32v20x_flash.c
00000000 l    df *ABS*	00000000 ch32v20x_gpio.c
00000000 l    df *ABS*	00000000 ch32v20x_rcc.c
00000000 l    df *ABS*	00000000 debug.c
2000009a l     O .bss	00000002 p_ms
2000009c l     O .bss	00000001 p_us
20000064 l     O .data	00000004 curbrk.4576
00000000 l    df *ABS*	00000000 CHRV3MAI.c
00001a5a l     F .text	0000009a mBulkOnlyReset
00001af4 l     F .text	0000001a mUpdateStatus.part.1
00001f60 l     F .text	000000ac mReqDiskSense
0000200c l     F .text	0000014a mGetDiskSize
0000220c l     F .text	00000310 CHRV3s10
00000000 l    df *ABS*	00000000 CHRV3BYT.c
000032fa l     F .text	00000020 CHRV3s25.part.0
00000000 l    df *ABS*	00000000 printf.c
00000000 l    df *ABS*	00000000 putchar.c
00000000 l    df *ABS*	00000000 puts.c
00000000 l    df *ABS*	00000000 strcpy.c
00000000 l    df *ABS*	00000000 strlen.c
00000000 l    df *ABS*	00000000 wbuf.c
00000000 l    df *ABS*	00000000 wsetup.c
00000000 l    df *ABS*	00000000 fflush.c
00000000 l    df *ABS*	00000000 findfp.c
00003a2e l     F .text	0000006a std
00000000 l    df *ABS*	00000000 fwalk.c
00000000 l    df *ABS*	00000000 makebuf.c
00000000 l    df *ABS*	00000000 nano-mallocr.c
00000000 l    df *ABS*	00000000 nano-mallocr.c
00000000 l    df *ABS*	00000000 nano-vfprintf.c
00003eda l     F .text	0000002a __sfputc_r
00000000 l    df *ABS*	00000000 nano-vfprintf_i.c
00000000 l    df *ABS*	00000000 putc.c
00000000 l    df *ABS*	00000000 sbrkr.c
00000000 l    df *ABS*	00000000 stdio.c
00000000 l    df *ABS*	00000000 writer.c
00000000 l    df *ABS*	00000000 closer.c
00000000 l    df *ABS*	00000000 fstatr.c
00000000 l    df *ABS*	00000000 isattyr.c
00000000 l    df *ABS*	00000000 lseekr.c
00000000 l    df *ABS*	00000000 memchr.c
00000000 l    df *ABS*	00000000 mlock.c
00000000 l    df *ABS*	00000000 readr.c
00000000 l    df *ABS*	00000000 close.c
00000000 l    df *ABS*	00000000 fstat.c
00000000 l    df *ABS*	00000000 isatty.c
00000000 l    df *ABS*	00000000 lseek.c
00000000 l    df *ABS*	00000000 read.c
00000000 l    df *ABS*	00000000 impure.c
20000000 l     O .data	00000060 impure_data
00000000 l    df *ABS*	00000000 reent.c
00001690  w      .text	00000000 EXTI2_IRQHandler
0000358c g     F .text	0000002a putchar
00001c5e g     F .text	00000020 mClusterToLba
00004786 g     F .text	00000028 _isatty_r
0000369c g     F .text	00000012 strcpy
000035b6 g     F .text	000000da _puts_r
000047ae g     F .text	0000002c _lseek_r
200009bc g     O .bss	00000004 pTX_LEN_REG
200009c0 g     O .bss	00000004 mLinkClusSource
200009c4 g     O .bss	00000001 mDiskSecPerClusB
200009c8 g     O .bss	00000004 pDISK_FAT_BUF
00001b0e g     F .text	00000062 mReadSectorFAT
200009cc g     O .bss	00000001 mFatSecChanged
200009cd g     O .bss	00000001 CHRV3vDiskFat
0000354c g     F .text	00000040 printf
20000860 g       .data	00000000 __global_pointer$
000016b6  w      .text	00000000 TIM1_CC_IRQHandler
000046ca g     F .text	00000036 __sseek
00003ae8 g     F .text	0000006c __sinit
000036c0 g     F .text	000000c0 __swbuf_r
000010d2 g     F .text	00000002 HardFault_Handler
00003aa2 g     F .text	00000046 __sfmoreglue
000047f6 g     F .text	00000002 __malloc_unlock
000007f8 g     F .text	0000001c USBFSH_ClearEndpStall
000014de g     F .text	000000dc CHRV3WriteSector
200009d0 g     O .bss	00000004 CHRV3vDiskRoot
200009d4 g     O .bss	00000004 CHRV3vStartCluster
0000167c  w      .text	00000000 SysTick_Handler
200009d8 g     O .bss	00000004 mValue
20000128 g     O .bss	00000004 Flash_Operation_Key1
00001682  w      .text	00000000 PVD_IRQHandler
0000079c g     F .text	00000040 USBFSH_SetUsbAddress
200009dc g     O .bss	00000004 pTX_DMA_A_REG
000010ce g     F .text	00000004 NMI_Handler
000009da g     F .text	00000048 IAP_Flash_Program
000015ba g     F .text	00000042 CHRV3DiskConnect
00001692  w      .text	00000000 EXTI3_IRQHandler
0000020e g     F .text	00000046 USBFS_RCC_Init
00001282 g     F .text	0000012c USBHostTransact
000017b2 g     F .text	00000064 FLASH_ProgramPage_Fast
000015fc g     F .text	00000002 xFileNameEnumer
0000475c g     F .text	0000002a _fstat_r
00000706 g     F .text	00000096 USBFSH_GetConfigDescr
20000a4c g     O .bss	00000004 errno
000013ec g     F .text	0000000a CtrlSetUsbConfig
20000098 g       .bss	00000000 _sbss
00000800 g       *ABS*	00000000 __stack_size
00001a2e g     F .text	00000002 USART_Printf_Init
2000012c g     O .bss	0000010a HostCtl
200009e0 g     O .bss	00000004 pDISK_BASE_BUF
000007dc g     F .text	0000001c USBFSH_SetUsbConfig
00001bd2 g     F .text	00000046 mWriteSectorFAT
00003a98 g     F .text	0000000a _cleanup_r
0000168c  w      .text	00000000 EXTI0_IRQHandler
000016c2  w      .text	00000000 I2C2_EV_IRQHandler
00002156 g     F .text	000000b6 CHRV3AnalyzeError
00003690 g     F .text	0000000c puts
20000060 g     O .data	00000004 SystemCoreClock
20000238 g     O .bss	00000400 IAPLoadBuffer
00004830 g     F .text	0000000c _fstat
00000038 g       .init	00000000 _einit
200009e4 g     O .bss	00000004 CHRV3vCurrentOffset
00001758 g     F .text	0000001e FLASH_Unlock_Fast
0000197a g     F .text	0000001e RCC_APB2PeriphClockCmd
00002608 g     F .text	0000042e CHRV3s11
000016a4  w      .text	00000000 ADC1_2_IRQHandler
00001816 g     F .text	000000f8 GPIO_Init
0000167a  w      .text	00000000 Break_Point_Handler
000016c6  w      .text	00000000 SPI1_IRQHandler
00004622 g     F .text	0000002a _sbrk_r
00002d30 g     F .text	000004d2 CHRV3FileOpen
00001684  w      .text	00000000 TAMPER_IRQHandler
000047f8 g     F .text	0000002c _read_r
200009e8 g     O .bss	00000004 pRX_LEN_REG
00002a36 g     F .text	0000007e mSaveFatSector
00001670 g     F .text	00000002 mDelaymS
00001676  w      .text	00000000 Ecall_M_Mode_Handler
000013ce g     F .text	0000001e CtrlGetConfigDescrTB
20004800 g       .stack	00000000 _heap_end
20000638 g     O .bss	00000012 DevDesc_Buf
0000483c g     F .text	0000000c _isatty
000019c2 g     F .text	00000036 Delay_Us
00001c9c g     F .text	000002c4 CHRV3BulkOnlyCmd
20000094 g     O .data	00000004 _global_impure_ptr
0000195c g     F .text	0000001e RCC_AHBPeriphClockCmd
0000169c  w      .text	00000000 DMA1_Channel4_IRQHandler
00001a34 g     F .text	00000026 _sbrk
200009ec g     O .bss	00000001 mDiskBulkOutEndp
00001400 g     F .text	000000de CHRV3ReadSector
000016ce  w      .text	00000000 USART3_IRQHandler
00001686  w      .text	00000000 RTC_IRQHandler
20000a50 g       .bss	00000000 _ebss
000016a2  w      .text	00000000 DMA1_Channel7_IRQHandler
000016aa  w      .text	00000000 CAN1_RX1_IRQHandler
00001998 g     F .text	0000002a Delay_Init
200009f0 g     O .bss	00000004 mDiskRsvdSecEnd
200009f4 g     O .bss	00000004 CHRV3vLbaCurrent
0000459c g     F .text	00000086 _putc_r
200009f8 g     O .bss	00000001 CHRV3DiskStatus
000011ba g     F .text	00000048 blinkLed
200009fc g     O .bss	00000004 mTempAddrPoint
000016bc  w      .text	00000000 TIM4_IRQHandler
00001928 g     F .text	0000001a GPIO_WriteBit
00004b28 g     O .text	00000020 __sf_fake_stderr
20000a00 g     O .bss	00000001 CHRV3IntStatus
000013f6 g     F .text	0000000a CtrlClearEndpStall
20000a04 g     O .bss	00000004 mDiskFatSize
2000064c g     O .bss	00000004 IAP_WriteIn_Count
000016be  w      .text	00000000 I2C1_EV_IRQHandler
000016d6  w      .text	00000000 USBHD_IRQHandler
20000a08 g     O .bss	00000004 CHRV3vFileSize
20000650 g     O .bss	0000001f RootHubDev
00000ab2 g     F .text	00000210 USBH_EnumRootDevice
000002e2 g     F .text	0000000c USBFSH_CheckRootHubPortEnable
20000a0c g     O .bss	00000002 CHRV3vSectorSize
000016a0  w      .text	00000000 DMA1_Channel6_IRQHandler
20000a0e g     O .bss	00000002 CHRV3vFdtOffset
00003f04 g     F .text	00000044 __sfputs_r
000016da  w      .text	00000000 UART4_IRQHandler
000047da g     F .text	0000001a memchr
00001202 g     F .text	0000006c InitStuff
20000a10 g     O .bss	00000001 CHRV3vSubClassIs6
00003d5a g     F .text	000000a8 _free_r
000016ba  w      .text	00000000 TIM3_IRQHandler
0000168a  w      .text	00000000 RCC_IRQHandler
000016b4  w      .text	00000000 TIM1_TRG_COM_IRQHandler
00001696  w      .text	00000000 DMA1_Channel1_IRQHandler
0000331a g     F .text	00000232 CHRV3ByteRead
00000000 g       .init	00000000 _start
00004848 g     F .text	0000000c _lseek
20000a14 g     O .bss	00000004 mCurrentCluster
000016d0  w      .text	00000000 EXTI15_10_IRQHandler
00000a4c g     F .text	00000066 IAP_Initialization
20000a18 g     O .bss	00000004 CHRV3vFdtLba
000016dc  w      .text	00000000 DMA1_Channel8_IRQHandler
20000a1c g     O .bss	00000004 CHRV3vStartLba
20000a20 g     O .bss	00000001 CHRV3vSecPerClus
0000086e g     F .text	00000116 IAP_Flash_Write
20000a22 g     O .bss	00000002 CHRV3vPacketSize
00001784 g     F .text	0000002e FLASH_ErasePage_Fast
00004734 g     F .text	00000028 _close_r
20000000 g       .dalign	00000000 _data_vma
00001c18 g     F .text	00000046 mWriteSectorFDT
20000a24 g     O .bss	00000001 mLinkEndOfClus
20000099 g     O .bss	00000001 MCU_Version
00000318 g     F .text	00000016 USBFSH_SetSelfSpeed
00003780 g     F .text	0000010c __swsetup_r
000016ae  w      .text	00000000 EXTI9_5_IRQHandler
00003b54 g     F .text	000000a0 __sfp
00000814 g     F .text	0000005a IAP_Flash_Read
20000670 g     O .bss	00000004 IAP_WriteIn_Length
0000464c g     F .text	00000030 __sread
20000a26 g     O .bss	00000002 mDiskInfoSec
000047f4 g     F .text	00000002 __malloc_lock
000039c8 g     F .text	00000066 _fflush_r
00000cc2 g     F .text	000000c8 IAP_USBH_PreDeal
20000a28 g     O .bss	00000001 CHRV3vCurrentLun
000016c8  w      .text	00000000 SPI2_IRQHandler
00004b48 g     O .text	00000020 __sf_fake_stdin
200000a8 g     O .bss	00000040 RxBuffer
00000140 g     F .text	000000a8 memset
000010da g     F .text	00000038 main
00008000 g       .init	00000000 _bootloader_limit
00000a34 g     F .text	00000018 mStopIfError
00004700 g     F .text	00000006 __sclose
00000386 g     F .text	0000005e USBFSH_EnableRootHubPort
00003e02 g     F .text	000000d8 _malloc_r
20000a2c g     O .bss	00000004 mDiskTotalClus
0000169e  w      .text	00000000 DMA1_Channel5_IRQHandler
00001942 g     F .text	0000001a RCC_USBCLKConfig
00001694  w      .text	00000000 EXTI4_IRQHandler
000019f8 g     F .text	00000036 Delay_Ms
000016a8  w      .text	00000000 USB_LP_CAN1_RX0_IRQHandler
200000e8 g     O .bss	00000040 TxBuffer
20000a30 g     O .bss	00000004 mLbaBufferFAT
00001112 g     F .text	000000a8 SystemInit
000015fe g     F .text	00000072 CHRV3LibInit
0000251c g     F .text	000000ec CHRV3DiskReady
0000354c g     F .text	00000040 iprintf
20000674 g     O .bss	00000004 Flash_Operation_Key0
000016a6  w      .text	00000000 USB_HP_CAN1_TX_IRQHandler
00000000 g       .init	00000000 _sinit
000016d8  w      .text	00000000 USBHDWakeUp_IRQHandler
00004706 g     F .text	0000002e _write_r
0000169a  w      .text	00000000 DMA1_Channel3_IRQHandler
00000d8a g     F .text	00000344 IAP_Main_Deal
000041e6 g     F .text	0000010c _printf_common
20000068 g     O .data	00000004 _impure_ptr
000016b2  w      .text	00000000 TIM1_UP_IRQHandler
20000a34 g     O .bss	00000004 CHRV3vDataStart
20000a38 g     O .bss	00000004 mCurrentName
0000388c g     F .text	0000013c __sflush_r
00001b70 g     F .text	00000062 mReadSectorFDT
000006b2 g     F .text	00000054 USBFSH_GetDeviceDescr
00001680  w      .text	00000000 WWDG_IRQHandler
20000a3c g     O .bss	00000001 mDiskBulkInEndp
00001678  w      .text	00000000 Ecall_U_Mode_Handler
000016b8  w      .text	00000000 TIM2_IRQHandler
20005000 g       .stack	00000000 _eusrstack
000002ee g     F .text	00000012 USBFSH_CheckRootHubPortSpeed
000010d4 g     F .text	00000006 SW_Handler
000013ae g     F .text	00000020 HostCtrlTransfer
00001776 g     F .text	0000000e FLASH_Lock_Fast
20000a3d g     O .bss	00000001 CHRV3vSectorSizeB
000016b0  w      .text	00000000 TIM1_BRK_IRQHandler
00003c60 g     F .text	0000005a __swhatbuf_r
000002ac g     F .text	00000036 USBFSH_CheckRootHubPortStatus
0000168e  w      .text	00000000 EXTI1_IRQHandler
0000126e g     F .text	00000014 DeInitStuff
00001a30 g     F .text	00000004 _write
00000a22 g     F .text	00000012 IAP_Jump_APP
20000098 g       .data	00000000 _edata
20000a50 g       .bss	00000000 _end
20000678 g     O .bss	000000ff Com_Buffer
000016d2  w      .text	00000000 RTCAlarm_IRQHandler
00003202 g     F .text	00000050 mModifyFileSize
00004bc4 g       .dlalign	00000000 _data_lma
00000254 g     F .text	00000058 USBFS_Host_Init
2000077c g     O .bss	00000200 DISK_BASE_BUF
000016cc  w      .text	00000000 USART2_IRQHandler
0000467c g     F .text	0000004e __swrite
20000778 g     O .bss	00000004 IAP_Load_Addr_Offset
0000032e g     F .text	00000058 USBFSH_ResetRootHubPort
00003f48 g     F .text	0000029e _vfiprintf_r
00003bf4 g     F .text	0000006c _fwalk_reent
20000a40 g     O .bss	00000004 mLbaBufferFDT
20000a44 g     O .bss	00000004 pRX_DMA_A_REG
2000097c g     O .bss	00000040 mCmdParam
000016c4  w      .text	00000000 I2C2_ER_IRQHandler
00001698  w      .text	00000000 DMA1_Channel2_IRQHandler
00000984 g     F .text	00000056 IAP_Flash_Verify
00001c82 g     F .text	0000001a mUpdateStatus
00004b68 g     O .text	00000020 __sf_fake_stdout
00004854 g     F .text	0000000c _read
000016de  w      .text	00000000 handle_reset
00002ab4 g     F .text	0000027c CHRV3s20
000016ac  w      .text	00000000 CAN1_SCE_IRQHandler
00001688  w      .text	00000000 FLASH_IRQHandler
00001c7e g     F .text	00000004 CHRV3GetVer
20000a48 g     O .bss	00000001 mDiskInterfNumber
000016ca  w      .text	00000000 USART1_IRQHandler
00003cba g     F .text	000000a0 __smakebuf_r
20000a49 g     O .bss	00000001 mCurSecOffset
000036ae g     F .text	00000012 strlen
000042f2 g     F .text	000002aa _printf_i
200000a4 g     O .bss	00000004 __malloc_sbrk_start
00000300 g     F .text	00000018 USBFSH_SetSelfAddr
20000a4a g     O .bss	00000001 mFileSizeChanged
000016c0  w      .text	00000000 I2C1_ER_IRQHandler
000003e4 g     F .text	0000011a USBFSH_Transact
200000a0 g     O .bss	00000004 __malloc_free_list
00003f48 g     F .text	0000029e _vfprintf_r
20000a4b g     O .bss	00000001 mSaveDevEndpTog
0000190e g     F .text	0000001a GPIO_ReadInputDataBit
00003252 g     F .text	000000a8 CHRV3FileClose
000016d4  w      .text	00000000 USBWakeUp_IRQHandler
00004824 g     F .text	0000000c _close
000004fe g     F .text	000001b4 USBFSH_CtrlTransfer



Disassembly of section .init:

00000000 <_sinit>:
_start():
C:\Repository\RISKYKVM\firmware\Bootloader\obj/../Startup/startup_ch32v20x_D6.S:18

	.section	.init,"ax",@progbits
	.global	_start
	.align	1
_start:
	j	handle_reset
   0:	6de0106f          	j	16de <handle_reset>
   4:	00000013          	nop
   8:	00000013          	nop
   c:	00000013          	nop
  10:	00000013          	nop
  14:	00000013          	nop
  18:	00000013          	nop
  1c:	00000013          	nop
  20:	00000013          	nop
  24:	00000013          	nop
  28:	00000013          	nop
  2c:	00000013          	nop
  30:	00000013          	nop
  34:	00100073          	ebreak

Disassembly of section .vector:

00000038 <_vector_base>:
	...
_vector_base():
  40:	10ce                	slli	ra,ra,0x33
  42:	0000                	unimp
  44:	10d2                	slli	ra,ra,0x34
  46:	0000                	unimp
  48:	0000                	unimp
  4a:	0000                	unimp
  4c:	1676                	slli	a2,a2,0x3d
	...
  56:	0000                	unimp
  58:	1678                	addi	a4,sp,812
  5a:	0000                	unimp
  5c:	167a                	slli	a2,a2,0x3e
	...
  66:	0000                	unimp
  68:	167c                	addi	a5,sp,812
  6a:	0000                	unimp
  6c:	0000                	unimp
  6e:	0000                	unimp
  70:	10d4                	addi	a3,sp,100
  72:	0000                	unimp
  74:	0000                	unimp
  76:	0000                	unimp
  78:	1680                	addi	s0,sp,864
  7a:	0000                	unimp
  7c:	1682                	slli	a3,a3,0x20
  7e:	0000                	unimp
  80:	1684                	addi	s1,sp,864
  82:	0000                	unimp
  84:	1686                	slli	a3,a3,0x21
  86:	0000                	unimp
  88:	1688                	addi	a0,sp,864
  8a:	0000                	unimp
  8c:	168a                	slli	a3,a3,0x22
  8e:	0000                	unimp
  90:	168c                	addi	a1,sp,864
  92:	0000                	unimp
  94:	168e                	slli	a3,a3,0x23
  96:	0000                	unimp
  98:	1690                	addi	a2,sp,864
  9a:	0000                	unimp
  9c:	1692                	slli	a3,a3,0x24
  9e:	0000                	unimp
  a0:	1694                	addi	a3,sp,864
  a2:	0000                	unimp
  a4:	1696                	slli	a3,a3,0x25
  a6:	0000                	unimp
  a8:	1698                	addi	a4,sp,864
  aa:	0000                	unimp
  ac:	169a                	slli	a3,a3,0x26
  ae:	0000                	unimp
  b0:	169c                	addi	a5,sp,864
  b2:	0000                	unimp
  b4:	169e                	slli	a3,a3,0x27
  b6:	0000                	unimp
  b8:	16a0                	addi	s0,sp,872
  ba:	0000                	unimp
  bc:	16a2                	slli	a3,a3,0x28
  be:	0000                	unimp
  c0:	16a4                	addi	s1,sp,872
  c2:	0000                	unimp
  c4:	16a6                	slli	a3,a3,0x29
  c6:	0000                	unimp
  c8:	16a8                	addi	a0,sp,872
  ca:	0000                	unimp
  cc:	16aa                	slli	a3,a3,0x2a
  ce:	0000                	unimp
  d0:	16ac                	addi	a1,sp,872
  d2:	0000                	unimp
  d4:	16ae                	slli	a3,a3,0x2b
  d6:	0000                	unimp
  d8:	16b0                	addi	a2,sp,872
  da:	0000                	unimp
  dc:	16b2                	slli	a3,a3,0x2c
  de:	0000                	unimp
  e0:	16b4                	addi	a3,sp,872
  e2:	0000                	unimp
  e4:	16b6                	slli	a3,a3,0x2d
  e6:	0000                	unimp
  e8:	16b8                	addi	a4,sp,872
  ea:	0000                	unimp
  ec:	16ba                	slli	a3,a3,0x2e
  ee:	0000                	unimp
  f0:	16bc                	addi	a5,sp,872
  f2:	0000                	unimp
  f4:	16be                	slli	a3,a3,0x2f
  f6:	0000                	unimp
  f8:	16c0                	addi	s0,sp,868
  fa:	0000                	unimp
  fc:	16c2                	slli	a3,a3,0x30
  fe:	0000                	unimp
 100:	16c4                	addi	s1,sp,868
 102:	0000                	unimp
 104:	16c6                	slli	a3,a3,0x31
 106:	0000                	unimp
 108:	16c8                	addi	a0,sp,868
 10a:	0000                	unimp
 10c:	16ca                	slli	a3,a3,0x32
 10e:	0000                	unimp
 110:	16cc                	addi	a1,sp,868
 112:	0000                	unimp
 114:	16ce                	slli	a3,a3,0x33
 116:	0000                	unimp
 118:	16d0                	addi	a2,sp,868
 11a:	0000                	unimp
 11c:	16d2                	slli	a3,a3,0x34
 11e:	0000                	unimp
 120:	16d4                	addi	a3,sp,868
 122:	0000                	unimp
 124:	16d6                	slli	a3,a3,0x35
 126:	0000                	unimp
 128:	16d8                	addi	a4,sp,868
 12a:	0000                	unimp
 12c:	16da                	slli	a3,a3,0x36
 12e:	0000                	unimp
 130:	16dc                	addi	a5,sp,868
	...

Disassembly of section .text:

00000140 <memset>:
memset():
     140:	433d                	li	t1,15
     142:	872a                	mv	a4,a0
     144:	02c37363          	bgeu	t1,a2,16a <memset+0x2a>
     148:	00f77793          	andi	a5,a4,15
     14c:	efbd                	bnez	a5,1ca <memset+0x8a>
     14e:	e5ad                	bnez	a1,1b8 <memset+0x78>
     150:	ff067693          	andi	a3,a2,-16
     154:	8a3d                	andi	a2,a2,15
     156:	96ba                	add	a3,a3,a4
     158:	c30c                	sw	a1,0(a4)
     15a:	c34c                	sw	a1,4(a4)
     15c:	c70c                	sw	a1,8(a4)
     15e:	c74c                	sw	a1,12(a4)
     160:	0741                	addi	a4,a4,16
     162:	fed76be3          	bltu	a4,a3,158 <memset+0x18>
     166:	e211                	bnez	a2,16a <memset+0x2a>
     168:	8082                	ret
     16a:	40c306b3          	sub	a3,t1,a2
     16e:	068a                	slli	a3,a3,0x2
     170:	00000297          	auipc	t0,0x0
     174:	9696                	add	a3,a3,t0
     176:	00a68067          	jr	10(a3)
     17a:	00b70723          	sb	a1,14(a4)
     17e:	00b706a3          	sb	a1,13(a4)
     182:	00b70623          	sb	a1,12(a4)
     186:	00b705a3          	sb	a1,11(a4)
     18a:	00b70523          	sb	a1,10(a4)
     18e:	00b704a3          	sb	a1,9(a4)
     192:	00b70423          	sb	a1,8(a4)
     196:	00b703a3          	sb	a1,7(a4)
     19a:	00b70323          	sb	a1,6(a4)
     19e:	00b702a3          	sb	a1,5(a4)
     1a2:	00b70223          	sb	a1,4(a4)
     1a6:	00b701a3          	sb	a1,3(a4)
     1aa:	00b70123          	sb	a1,2(a4)
     1ae:	00b700a3          	sb	a1,1(a4)
     1b2:	00b70023          	sb	a1,0(a4)
     1b6:	8082                	ret
     1b8:	0ff5f593          	andi	a1,a1,255
     1bc:	00859693          	slli	a3,a1,0x8
     1c0:	8dd5                	or	a1,a1,a3
     1c2:	01059693          	slli	a3,a1,0x10
     1c6:	8dd5                	or	a1,a1,a3
     1c8:	b761                	j	150 <memset+0x10>
     1ca:	00279693          	slli	a3,a5,0x2
     1ce:	00000297          	auipc	t0,0x0
     1d2:	9696                	add	a3,a3,t0
     1d4:	8286                	mv	t0,ra
     1d6:	fa8680e7          	jalr	-88(a3)
     1da:	8096                	mv	ra,t0
     1dc:	17c1                	addi	a5,a5,-16
     1de:	8f1d                	sub	a4,a4,a5
     1e0:	963e                	add	a2,a2,a5
     1e2:	f8c374e3          	bgeu	t1,a2,16a <memset+0x2a>
     1e6:	b7a5                	j	14e <memset+0xe>

000001e8 <USBFSH_SetSelfSpeed.part.0>:
USBFSH_SetSelfSpeed():
C:\Repository\RISKYKVM\firmware\Bootloader\obj/../User/USB_Host/ch32v20x_usbfs_host.c:169
 */
void USBFSH_SetSelfSpeed( uint8_t speed )
{
    if( speed )
    {
        USBOTG_H_FS->BASE_CTRL &= ~USBFS_UC_LOW_SPEED;
     1e8:	50000737          	lui	a4,0x50000
     1ec:	00074783          	lbu	a5,0(a4) # 50000000 <_eusrstack+0x2fffb000>
     1f0:	0bf7f793          	andi	a5,a5,191
     1f4:	00f70023          	sb	a5,0(a4)
C:\Repository\RISKYKVM\firmware\Bootloader\obj/../User/USB_Host/ch32v20x_usbfs_host.c:170
        USBOTG_H_FS->HOST_SETUP &= ~USBFS_UH_PRE_PID_EN;
     1f8:	03675783          	lhu	a5,54(a4)
     1fc:	07c2                	slli	a5,a5,0x10
     1fe:	83c1                	srli	a5,a5,0x10
     200:	bff7f793          	andi	a5,a5,-1025
     204:	07c2                	slli	a5,a5,0x10
     206:	83c1                	srli	a5,a5,0x10
     208:	02f71b23          	sh	a5,54(a4)
C:\Repository\RISKYKVM\firmware\Bootloader\obj/../User/USB_Host/ch32v20x_usbfs_host.c:176
    }
    else
    {
        USBOTG_H_FS->BASE_CTRL |= USBFS_UC_LOW_SPEED;
    }
}
     20c:	8082                	ret

0000020e <USBFS_RCC_Init>:
USBFS_RCC_Init():
C:\Repository\RISKYKVM\firmware\Bootloader\obj/../User/USB_Host/ch32v20x_usbfs_host.c:32
    if( SystemCoreClock == 144000000 )
     20e:	200007b7          	lui	a5,0x20000
     212:	0607a703          	lw	a4,96(a5) # 20000060 <SystemCoreClock>
C:\Repository\RISKYKVM\firmware\Bootloader\obj/../User/USB_Host/ch32v20x_usbfs_host.c:31
{
     216:	1141                	addi	sp,sp,-16
C:\Repository\RISKYKVM\firmware\Bootloader\obj/../User/USB_Host/ch32v20x_usbfs_host.c:32
    if( SystemCoreClock == 144000000 )
     218:	089547b7          	lui	a5,0x8954
C:\Repository\RISKYKVM\firmware\Bootloader\obj/../User/USB_Host/ch32v20x_usbfs_host.c:31
{
     21c:	c606                	sw	ra,12(sp)
C:\Repository\RISKYKVM\firmware\Bootloader\obj/../User/USB_Host/ch32v20x_usbfs_host.c:32
    if( SystemCoreClock == 144000000 )
     21e:	40078793          	addi	a5,a5,1024 # 8954400 <_bootloader_limit+0x894c400>
C:\Repository\RISKYKVM\firmware\Bootloader\obj/../User/USB_Host/ch32v20x_usbfs_host.c:34
        RCC_USBCLKConfig( RCC_USBCLKSource_PLLCLK_Div3 );
     222:	4509                	li	a0,2
C:\Repository\RISKYKVM\firmware\Bootloader\obj/../User/USB_Host/ch32v20x_usbfs_host.c:32
    if( SystemCoreClock == 144000000 )
     224:	02f70063          	beq	a4,a5,244 <USBFS_RCC_Init+0x36>
C:\Repository\RISKYKVM\firmware\Bootloader\obj/../User/USB_Host/ch32v20x_usbfs_host.c:36
    else if( SystemCoreClock == 96000000 )
     228:	05b8e7b7          	lui	a5,0x5b8e
     22c:	80078793          	addi	a5,a5,-2048 # 5b8d800 <_bootloader_limit+0x5b85800>
C:\Repository\RISKYKVM\firmware\Bootloader\obj/../User/USB_Host/ch32v20x_usbfs_host.c:38
        RCC_USBCLKConfig( RCC_USBCLKSource_PLLCLK_Div2 );
     230:	4505                	li	a0,1
C:\Repository\RISKYKVM\firmware\Bootloader\obj/../User/USB_Host/ch32v20x_usbfs_host.c:36
    else if( SystemCoreClock == 96000000 )
     232:	00f70963          	beq	a4,a5,244 <USBFS_RCC_Init+0x36>
C:\Repository\RISKYKVM\firmware\Bootloader\obj/../User/USB_Host/ch32v20x_usbfs_host.c:40
    else if( SystemCoreClock == 48000000 )
     236:	02dc77b7          	lui	a5,0x2dc7
     23a:	c0078793          	addi	a5,a5,-1024 # 2dc6c00 <_bootloader_limit+0x2dbec00>
     23e:	00f71563          	bne	a4,a5,248 <USBFS_RCC_Init+0x3a>
C:\Repository\RISKYKVM\firmware\Bootloader\obj/../User/USB_Host/ch32v20x_usbfs_host.c:42
        RCC_USBCLKConfig( RCC_USBCLKSource_PLLCLK_Div1 );
     242:	4501                	li	a0,0
     244:	6fe010ef          	jal	ra,1942 <RCC_USBCLKConfig>
C:\Repository\RISKYKVM\firmware\Bootloader\obj/../User/USB_Host/ch32v20x_usbfs_host.c:45
}
     248:	40b2                	lw	ra,12(sp)
C:\Repository\RISKYKVM\firmware\Bootloader\obj/../User/USB_Host/ch32v20x_usbfs_host.c:44
    RCC_AHBPeriphClockCmd( RCC_AHBPeriph_OTG_FS, ENABLE );
     24a:	4585                	li	a1,1
     24c:	6505                	lui	a0,0x1
C:\Repository\RISKYKVM\firmware\Bootloader\obj/../User/USB_Host/ch32v20x_usbfs_host.c:45
}
     24e:	0141                	addi	sp,sp,16
C:\Repository\RISKYKVM\firmware\Bootloader\obj/../User/USB_Host/ch32v20x_usbfs_host.c:44
    RCC_AHBPeriphClockCmd( RCC_AHBPeriph_OTG_FS, ENABLE );
     250:	70c0106f          	j	195c <RCC_AHBPeriphClockCmd>

00000254 <USBFS_Host_Init>:
USBFS_Host_Init():
C:\Repository\RISKYKVM\firmware\Bootloader\obj/../User/USB_Host/ch32v20x_usbfs_host.c:57
    if( sta == ENABLE )
     254:	4785                	li	a5,1
     256:	04f51563          	bne	a0,a5,2a0 <USBFS_Host_Init+0x4c>
C:\Repository\RISKYKVM\firmware\Bootloader\obj/../User/USB_Host/ch32v20x_usbfs_host.c:59
        USBOTG_H_FS->BASE_CTRL = USBFS_UC_HOST_MODE;
     25a:	500007b7          	lui	a5,0x50000
     25e:	f8000713          	li	a4,-128
     262:	00e78023          	sb	a4,0(a5) # 50000000 <_eusrstack+0x2fffb000>
C:\Repository\RISKYKVM\firmware\Bootloader\obj/../User/USB_Host/ch32v20x_usbfs_host.c:60
        USBOTG_H_FS->HOST_CTRL = 0;
     266:	000780a3          	sb	zero,1(a5)
C:\Repository\RISKYKVM\firmware\Bootloader\obj/../User/USB_Host/ch32v20x_usbfs_host.c:61
        USBOTG_H_FS->DEV_ADDR = 0;
     26a:	000781a3          	sb	zero,3(a5)
C:\Repository\RISKYKVM\firmware\Bootloader\obj/../User/USB_Host/ch32v20x_usbfs_host.c:62
        USBOTG_H_FS->HOST_EP_MOD = USBFS_UH_EP_TX_EN | USBFS_UH_EP_RX_EN;
     26e:	04800713          	li	a4,72
     272:	00e786a3          	sb	a4,13(a5)
C:\Repository\RISKYKVM\firmware\Bootloader\obj/../User/USB_Host/ch32v20x_usbfs_host.c:64
        USBOTG_H_FS->HOST_RX_DMA = (uint32_t)USBFS_RX_Buf;
     276:	84818713          	addi	a4,gp,-1976 # 200000a8 <RxBuffer>
     27a:	cf98                	sw	a4,24(a5)
C:\Repository\RISKYKVM\firmware\Bootloader\obj/../User/USB_Host/ch32v20x_usbfs_host.c:65
        USBOTG_H_FS->HOST_TX_DMA = (uint32_t)USBFS_TX_Buf;
     27c:	88818713          	addi	a4,gp,-1912 # 200000e8 <TxBuffer>
     280:	cfd8                	sw	a4,28(a5)
C:\Repository\RISKYKVM\firmware\Bootloader\obj/../User/USB_Host/ch32v20x_usbfs_host.c:67
        USBOTG_H_FS->HOST_RX_CTRL = 0;
     282:	02078da3          	sb	zero,59(a5)
C:\Repository\RISKYKVM\firmware\Bootloader\obj/../User/USB_Host/ch32v20x_usbfs_host.c:68
        USBOTG_H_FS->HOST_TX_CTRL = 0;
     286:	02078f23          	sb	zero,62(a5)
C:\Repository\RISKYKVM\firmware\Bootloader\obj/../User/USB_Host/ch32v20x_usbfs_host.c:69
        USBOTG_H_FS->BASE_CTRL = USBFS_UC_HOST_MODE | USBFS_UC_INT_BUSY | USBFS_UC_DMA_EN;
     28a:	f8900713          	li	a4,-119
     28e:	00e78023          	sb	a4,0(a5)
C:\Repository\RISKYKVM\firmware\Bootloader\obj/../User/USB_Host/ch32v20x_usbfs_host.c:71
        USBOTG_H_FS->INT_FG = 0xFF;
     292:	577d                	li	a4,-1
     294:	00e78323          	sb	a4,6(a5)
C:\Repository\RISKYKVM\firmware\Bootloader\obj/../User/USB_Host/ch32v20x_usbfs_host.c:73
        USBOTG_H_FS->INT_EN = USBFS_UIE_TRANSFER | USBFS_UIE_DETECT;
     298:	470d                	li	a4,3
     29a:	00e78123          	sb	a4,2(a5)
     29e:	8082                	ret
C:\Repository\RISKYKVM\firmware\Bootloader\obj/../User/USB_Host/ch32v20x_usbfs_host.c:77
        USBOTG_H_FS->BASE_CTRL = USBFS_UC_RESET_SIE | USBFS_UC_CLR_ALL;
     2a0:	500007b7          	lui	a5,0x50000
     2a4:	4719                	li	a4,6
     2a6:	00e78023          	sb	a4,0(a5) # 50000000 <_eusrstack+0x2fffb000>
C:\Repository\RISKYKVM\firmware\Bootloader\obj/../User/USB_Host/ch32v20x_usbfs_host.c:79
}
     2aa:	8082                	ret

000002ac <USBFSH_CheckRootHubPortStatus>:
USBFSH_CheckRootHubPortStatus():
C:\Repository\RISKYKVM\firmware\Bootloader\obj/../User/USB_Host/ch32v20x_usbfs_host.c:93
    if( ( USBOTG_H_FS->INT_FG ) & USBFS_UIF_DETECT )
     2ac:	50000737          	lui	a4,0x50000
     2b0:	00674783          	lbu	a5,6(a4) # 50000006 <_eusrstack+0x2fffb006>
     2b4:	8b85                	andi	a5,a5,1
     2b6:	c39d                	beqz	a5,2dc <USBFSH_CheckRootHubPortStatus+0x30>
C:\Repository\RISKYKVM\firmware\Bootloader\obj/../User/USB_Host/ch32v20x_usbfs_host.c:95
        USBOTG_H_FS->INT_FG = USBFS_UIF_DETECT; // Clear flag
     2b8:	4785                	li	a5,1
     2ba:	00f70323          	sb	a5,6(a4)
C:\Repository\RISKYKVM\firmware\Bootloader\obj/../User/USB_Host/ch32v20x_usbfs_host.c:96
        if( USBOTG_H_FS->MIS_ST & USBFS_UMS_DEV_ATTACH ) // Check that the USB device has been connected to the port
     2be:	00574683          	lbu	a3,5(a4)
C:\Repository\RISKYKVM\firmware\Bootloader\obj/../User/USB_Host/ch32v20x_usbfs_host.c:109
            return ROOT_DEV_DISCONNECT;
     2c2:	4781                	li	a5,0
C:\Repository\RISKYKVM\firmware\Bootloader\obj/../User/USB_Host/ch32v20x_usbfs_host.c:96
        if( USBOTG_H_FS->MIS_ST & USBFS_UMS_DEV_ATTACH ) // Check that the USB device has been connected to the port
     2c4:	8a85                	andi	a3,a3,1
     2c6:	ce81                	beqz	a3,2de <USBFSH_CheckRootHubPortStatus+0x32>
C:\Repository\RISKYKVM\firmware\Bootloader\obj/../User/USB_Host/ch32v20x_usbfs_host.c:100
                return ROOT_DEV_CONNECTED;
     2c8:	4785                	li	a5,1
C:\Repository\RISKYKVM\firmware\Bootloader\obj/../User/USB_Host/ch32v20x_usbfs_host.c:98
            if( ( dev_sta == ROOT_DEV_DISCONNECT ) || ( ( dev_sta != ROOT_DEV_FAILED ) && ( USBFSH_CheckRootHubPortEnable( ) == 0x00 ) ) )
     2ca:	c911                	beqz	a0,2de <USBFSH_CheckRootHubPortStatus+0x32>
C:\Repository\RISKYKVM\firmware\Bootloader\obj/../User/USB_Host/ch32v20x_usbfs_host.c:98 (discriminator 1)
     2cc:	4789                	li	a5,2
     2ce:	00f50763          	beq	a0,a5,2dc <USBFSH_CheckRootHubPortStatus+0x30>
USBFSH_CheckRootHubPortEnable():
C:\Repository\RISKYKVM\firmware\Bootloader\obj/../User/USB_Host/ch32v20x_usbfs_host.c:127
    return ( USBOTG_H_FS->HOST_CTRL & USBFS_UH_PORT_EN );
     2d2:	00174703          	lbu	a4,1(a4)
USBFSH_CheckRootHubPortStatus():
C:\Repository\RISKYKVM\firmware\Bootloader\obj/../User/USB_Host/ch32v20x_usbfs_host.c:100
                return ROOT_DEV_CONNECTED;
     2d6:	4785                	li	a5,1
C:\Repository\RISKYKVM\firmware\Bootloader\obj/../User/USB_Host/ch32v20x_usbfs_host.c:98
            if( ( dev_sta == ROOT_DEV_DISCONNECT ) || ( ( dev_sta != ROOT_DEV_FAILED ) && ( USBFSH_CheckRootHubPortEnable( ) == 0x00 ) ) )
     2d8:	8b05                	andi	a4,a4,1
     2da:	c311                	beqz	a4,2de <USBFSH_CheckRootHubPortStatus+0x32>
C:\Repository\RISKYKVM\firmware\Bootloader\obj/../User/USB_Host/ch32v20x_usbfs_host.c:104
                return ROOT_DEV_FAILED;
     2dc:	4789                	li	a5,2
C:\Repository\RISKYKVM\firmware\Bootloader\obj/../User/USB_Host/ch32v20x_usbfs_host.c:116
}
     2de:	853e                	mv	a0,a5
     2e0:	8082                	ret

000002e2 <USBFSH_CheckRootHubPortEnable>:
USBFSH_CheckRootHubPortEnable():
C:\Repository\RISKYKVM\firmware\Bootloader\obj/../User/USB_Host/ch32v20x_usbfs_host.c:127
    return ( USBOTG_H_FS->HOST_CTRL & USBFS_UH_PORT_EN );
     2e2:	500007b7          	lui	a5,0x50000
     2e6:	0017c503          	lbu	a0,1(a5) # 50000001 <_eusrstack+0x2fffb001>
C:\Repository\RISKYKVM\firmware\Bootloader\obj/../User/USB_Host/ch32v20x_usbfs_host.c:128
}
     2ea:	8905                	andi	a0,a0,1
     2ec:	8082                	ret

000002ee <USBFSH_CheckRootHubPortSpeed>:
USBFSH_CheckRootHubPortSpeed():
C:\Repository\RISKYKVM\firmware\Bootloader\obj/../User/USB_Host/ch32v20x_usbfs_host.c:139
    return ( USBOTG_H_FS->MIS_ST & USBFS_UMS_DM_LEVEL? USB_LOW_SPEED: USB_FULL_SPEED );
     2ee:	500007b7          	lui	a5,0x50000
     2f2:	0057c503          	lbu	a0,5(a5) # 50000005 <_eusrstack+0x2fffb005>
     2f6:	8105                	srli	a0,a0,0x1
     2f8:	00154513          	xori	a0,a0,1
C:\Repository\RISKYKVM\firmware\Bootloader\obj/../User/USB_Host/ch32v20x_usbfs_host.c:140
}
     2fc:	8905                	andi	a0,a0,1
     2fe:	8082                	ret

00000300 <USBFSH_SetSelfAddr>:
USBFSH_SetSelfAddr():
C:\Repository\RISKYKVM\firmware\Bootloader\obj/../User/USB_Host/ch32v20x_usbfs_host.c:153
    USBOTG_H_FS->DEV_ADDR = ( USBOTG_H_FS->DEV_ADDR & USBFS_UDA_GP_BIT ) | ( addr & USBFS_USB_ADDR_MASK );
     300:	50000737          	lui	a4,0x50000
     304:	00374783          	lbu	a5,3(a4) # 50000003 <_eusrstack+0x2fffb003>
     308:	07f57513          	andi	a0,a0,127
     30c:	0807f793          	andi	a5,a5,128
     310:	8fc9                	or	a5,a5,a0
     312:	00f701a3          	sb	a5,3(a4)
C:\Repository\RISKYKVM\firmware\Bootloader\obj/../User/USB_Host/ch32v20x_usbfs_host.c:154
}
     316:	8082                	ret

00000318 <USBFSH_SetSelfSpeed>:
USBFSH_SetSelfSpeed():
C:\Repository\RISKYKVM\firmware\Bootloader\obj/../User/USB_Host/ch32v20x_usbfs_host.c:167
    if( speed )
     318:	c111                	beqz	a0,31c <USBFSH_SetSelfSpeed+0x4>
     31a:	b5f9                	j	1e8 <USBFSH_SetSelfSpeed.part.0>
C:\Repository\RISKYKVM\firmware\Bootloader\obj/../User/USB_Host/ch32v20x_usbfs_host.c:174
        USBOTG_H_FS->BASE_CTRL |= USBFS_UC_LOW_SPEED;
     31c:	50000737          	lui	a4,0x50000
     320:	00074783          	lbu	a5,0(a4) # 50000000 <_eusrstack+0x2fffb000>
     324:	0407e793          	ori	a5,a5,64
     328:	00f70023          	sb	a5,0(a4)
C:\Repository\RISKYKVM\firmware\Bootloader\obj/../User/USB_Host/ch32v20x_usbfs_host.c:176
}
     32c:	8082                	ret

0000032e <USBFSH_ResetRootHubPort>:
USBFSH_ResetRootHubPort():
C:\Repository\RISKYKVM\firmware\Bootloader\obj/../User/USB_Host/ch32v20x_usbfs_host.c:191
 *               2 -> end reset
 *
 * @return  none
 */
void USBFSH_ResetRootHubPort( uint8_t mode )
{
     32e:	1141                	addi	sp,sp,-16
     330:	c422                	sw	s0,8(sp)
     332:	842a                	mv	s0,a0
C:\Repository\RISKYKVM\firmware\Bootloader\obj/../User/USB_Host/ch32v20x_usbfs_host.c:192
    USBFSH_SetSelfAddr( 0x00 );
     334:	4501                	li	a0,0
C:\Repository\RISKYKVM\firmware\Bootloader\obj/../User/USB_Host/ch32v20x_usbfs_host.c:191
{
     336:	c606                	sw	ra,12(sp)
C:\Repository\RISKYKVM\firmware\Bootloader\obj/../User/USB_Host/ch32v20x_usbfs_host.c:192
    USBFSH_SetSelfAddr( 0x00 );
     338:	37e1                	jal	300 <USBFSH_SetSelfAddr>
USBFSH_SetSelfSpeed():
C:\Repository\RISKYKVM\firmware\Bootloader\obj/../User/USB_Host/ch32v20x_usbfs_host.c:167
    if( speed )
     33a:	357d                	jal	1e8 <USBFSH_SetSelfSpeed.part.0>
USBFSH_ResetRootHubPort():
C:\Repository\RISKYKVM\firmware\Bootloader\obj/../User/USB_Host/ch32v20x_usbfs_host.c:194
    USBFSH_SetSelfSpeed( 1 );
    if( mode <= 1 )
     33c:	4785                	li	a5,1
     33e:	0287e063          	bltu	a5,s0,35e <USBFSH_ResetRootHubPort+0x30>
C:\Repository\RISKYKVM\firmware\Bootloader\obj/../User/USB_Host/ch32v20x_usbfs_host.c:196
    {
        USBOTG_H_FS->HOST_CTRL = ( USBOTG_H_FS->HOST_CTRL & ~USBFS_UH_LOW_SPEED ) | USBFS_UH_BUS_RESET;
     342:	50000737          	lui	a4,0x50000
     346:	00174783          	lbu	a5,1(a4) # 50000001 <_eusrstack+0x2fffb001>
     34a:	0f97f793          	andi	a5,a5,249
     34e:	0027e793          	ori	a5,a5,2
     352:	00f700a3          	sb	a5,1(a4)
C:\Repository\RISKYKVM\firmware\Bootloader\obj/../User/USB_Host/ch32v20x_usbfs_host.c:198
    }
    if( mode == 0 )
     356:	ec01                	bnez	s0,36e <USBFSH_ResetRootHubPort+0x40>
C:\Repository\RISKYKVM\firmware\Bootloader\obj/../User/USB_Host/ch32v20x_usbfs_host.c:200
    {
        Delay_Ms( DEF_BUS_RESET_TIME ); // Reset time from 10mS to 20mS
     358:	452d                	li	a0,11
     35a:	69e010ef          	jal	ra,19f8 <Delay_Ms>
C:\Repository\RISKYKVM\firmware\Bootloader\obj/../User/USB_Host/ch32v20x_usbfs_host.c:204
    }
    if( mode != 1 )
    {
        USBOTG_H_FS->HOST_CTRL = USBOTG_H_FS->HOST_CTRL & ~USBFS_UH_BUS_RESET; // End Reset
     35e:	50000737          	lui	a4,0x50000
     362:	00174783          	lbu	a5,1(a4) # 50000001 <_eusrstack+0x2fffb001>
     366:	0fd7f793          	andi	a5,a5,253
     36a:	00f700a3          	sb	a5,1(a4)
C:\Repository\RISKYKVM\firmware\Bootloader\obj/../User/USB_Host/ch32v20x_usbfs_host.c:206
    }
    Delay_Ms( 2 );
     36e:	4509                	li	a0,2
     370:	688010ef          	jal	ra,19f8 <Delay_Ms>
C:\Repository\RISKYKVM\firmware\Bootloader\obj/../User/USB_Host/ch32v20x_usbfs_host.c:207
    USBOTG_H_FS->INT_FG = USBFS_UIF_DETECT;
     374:	500007b7          	lui	a5,0x50000
     378:	4705                	li	a4,1
     37a:	00e78323          	sb	a4,6(a5) # 50000006 <_eusrstack+0x2fffb006>
C:\Repository\RISKYKVM\firmware\Bootloader\obj/../User/USB_Host/ch32v20x_usbfs_host.c:208
}
     37e:	40b2                	lw	ra,12(sp)
     380:	4422                	lw	s0,8(sp)
     382:	0141                	addi	sp,sp,16
     384:	8082                	ret

00000386 <USBFSH_EnableRootHubPort>:
USBFSH_EnableRootHubPort():
C:\Repository\RISKYKVM\firmware\Bootloader\obj/../User/USB_Host/ch32v20x_usbfs_host.c:220
 * @para    *pspeed: USB speed.
 *
 * @return  Operation result of the enabled port.
 */
uint8_t USBFSH_EnableRootHubPort( uint8_t *pspeed )
{
     386:	1141                	addi	sp,sp,-16
     388:	c422                	sw	s0,8(sp)
     38a:	c606                	sw	ra,12(sp)
     38c:	c226                	sw	s1,4(sp)
C:\Repository\RISKYKVM\firmware\Bootloader\obj/../User/USB_Host/ch32v20x_usbfs_host.c:221
    if( USBOTG_H_FS->MIS_ST & USBFS_UMS_DEV_ATTACH )
     38e:	50000437          	lui	s0,0x50000
     392:	00544783          	lbu	a5,5(s0) # 50000005 <_eusrstack+0x2fffb005>
     396:	8b85                	andi	a5,a5,1
     398:	c7a1                	beqz	a5,3e0 <USBFSH_EnableRootHubPort+0x5a>
USBFSH_CheckRootHubPortEnable():
C:\Repository\RISKYKVM\firmware\Bootloader\obj/../User/USB_Host/ch32v20x_usbfs_host.c:127
    return ( USBOTG_H_FS->HOST_CTRL & USBFS_UH_PORT_EN );
     39a:	00144783          	lbu	a5,1(s0)
USBFSH_EnableRootHubPort():
C:\Repository\RISKYKVM\firmware\Bootloader\obj/../User/USB_Host/ch32v20x_usbfs_host.c:223
    {
        if( USBFSH_CheckRootHubPortEnable( ) == 0x00 )
     39e:	8b85                	andi	a5,a5,1
     3a0:	ef81                	bnez	a5,3b8 <USBFSH_EnableRootHubPort+0x32>
     3a2:	84aa                	mv	s1,a0
C:\Repository\RISKYKVM\firmware\Bootloader\obj/../User/USB_Host/ch32v20x_usbfs_host.c:225
        { 
            *pspeed = USBFSH_CheckRootHubPortSpeed( );
     3a4:	37a9                	jal	2ee <USBFSH_CheckRootHubPortSpeed>
     3a6:	00a48023          	sb	a0,0(s1)
C:\Repository\RISKYKVM\firmware\Bootloader\obj/../User/USB_Host/ch32v20x_usbfs_host.c:226
            if( *pspeed == 0 )
     3aa:	e519                	bnez	a0,3b8 <USBFSH_EnableRootHubPort+0x32>
C:\Repository\RISKYKVM\firmware\Bootloader\obj/../User/USB_Host/ch32v20x_usbfs_host.c:228
            {
                USBOTG_H_FS->HOST_CTRL |= USBFS_UH_LOW_SPEED;
     3ac:	00144783          	lbu	a5,1(s0)
     3b0:	0047e793          	ori	a5,a5,4
     3b4:	00f400a3          	sb	a5,1(s0)
C:\Repository\RISKYKVM\firmware\Bootloader\obj/../User/USB_Host/ch32v20x_usbfs_host.c:231
            }
        }
        USBOTG_H_FS->HOST_CTRL |= USBFS_UH_PORT_EN;
     3b8:	500007b7          	lui	a5,0x50000
     3bc:	0017c703          	lbu	a4,1(a5) # 50000001 <_eusrstack+0x2fffb001>
C:\Repository\RISKYKVM\firmware\Bootloader\obj/../User/USB_Host/ch32v20x_usbfs_host.c:234
        USBOTG_H_FS->HOST_SETUP |= USBFS_UH_SOF_EN;

        return ERR_SUCCESS;
     3c0:	4501                	li	a0,0
C:\Repository\RISKYKVM\firmware\Bootloader\obj/../User/USB_Host/ch32v20x_usbfs_host.c:231
        USBOTG_H_FS->HOST_CTRL |= USBFS_UH_PORT_EN;
     3c2:	00176713          	ori	a4,a4,1
     3c6:	00e780a3          	sb	a4,1(a5)
C:\Repository\RISKYKVM\firmware\Bootloader\obj/../User/USB_Host/ch32v20x_usbfs_host.c:232
        USBOTG_H_FS->HOST_SETUP |= USBFS_UH_SOF_EN;
     3ca:	0367d703          	lhu	a4,54(a5)
     3ce:	00476713          	ori	a4,a4,4
     3d2:	02e79b23          	sh	a4,54(a5)
C:\Repository\RISKYKVM\firmware\Bootloader\obj/../User/USB_Host/ch32v20x_usbfs_host.c:238
    }

    return ERR_USB_DISCON;
}
     3d6:	40b2                	lw	ra,12(sp)
     3d8:	4422                	lw	s0,8(sp)
     3da:	4492                	lw	s1,4(sp)
     3dc:	0141                	addi	sp,sp,16
     3de:	8082                	ret
C:\Repository\RISKYKVM\firmware\Bootloader\obj/../User/USB_Host/ch32v20x_usbfs_host.c:237
    return ERR_USB_DISCON;
     3e0:	4559                	li	a0,22
     3e2:	bfd5                	j	3d6 <USBFSH_EnableRootHubPort+0x50>

000003e4 <USBFSH_Transact>:
USBFSH_Transact():
C:\Repository\RISKYKVM\firmware\Bootloader\obj/../User/USB_Host/ch32v20x_usbfs_host.c:252
 *          timeout: Timeout time.
 *
 * @return  USB transfer result.
 */
uint8_t USBFSH_Transact( uint8_t endp_pid, uint8_t endp_tog, uint16_t timeout )
{
     3e4:	7179                	addi	sp,sp,-48
     3e6:	d422                	sw	s0,40(sp)
     3e8:	d226                	sw	s1,36(sp)
     3ea:	d04a                	sw	s2,32(sp)
     3ec:	ce4e                	sw	s3,28(sp)
     3ee:	cc52                	sw	s4,24(sp)
     3f0:	ca56                	sw	s5,20(sp)
     3f2:	c85a                	sw	s6,16(sp)
     3f4:	c65e                	sw	s7,12(sp)
     3f6:	c462                	sw	s8,8(sp)
     3f8:	c266                	sw	s9,4(sp)
     3fa:	d606                	sw	ra,44(sp)
     3fc:	c06a                	sw	s10,0(sp)
C:\Repository\RISKYKVM\firmware\Bootloader\obj/../User/USB_Host/ch32v20x_usbfs_host.c:256
    uint8_t  r, trans_rerty;
    uint16_t i;

    USBOTG_H_FS->HOST_TX_CTRL = USBOTG_H_FS->HOST_RX_CTRL = endp_tog;
     3fe:	500007b7          	lui	a5,0x50000
     402:	02b78da3          	sb	a1,59(a5) # 5000003b <_eusrstack+0x2fffb03b>
C:\Repository\RISKYKVM\firmware\Bootloader\obj/../User/USB_Host/ch32v20x_usbfs_host.c:289
            {
                if( timeout == 0 )
                {
                    return ( r | ERR_USB_TRANSFER );
                }
                if( timeout < 0xFFFF )
     406:	6a41                	lui	s4,0x10
C:\Repository\RISKYKVM\firmware\Bootloader\obj/../User/USB_Host/ch32v20x_usbfs_host.c:252
{
     408:	8aaa                	mv	s5,a0
     40a:	8932                	mv	s2,a2
C:\Repository\RISKYKVM\firmware\Bootloader\obj/../User/USB_Host/ch32v20x_usbfs_host.c:256
    USBOTG_H_FS->HOST_TX_CTRL = USBOTG_H_FS->HOST_RX_CTRL = endp_tog;
     40c:	02b78f23          	sb	a1,62(a5)
C:\Repository\RISKYKVM\firmware\Bootloader\obj/../User/USB_Host/ch32v20x_usbfs_host.c:295
                {
                    timeout--;
                }
                --trans_rerty;
            }
            else switch ( endp_pid >> 4 )
     410:	00455993          	srli	s3,a0,0x4
C:\Repository\RISKYKVM\firmware\Bootloader\obj/../User/USB_Host/ch32v20x_usbfs_host.c:257
    trans_rerty = 0;
     414:	4481                	li	s1,0
C:\Repository\RISKYKVM\firmware\Bootloader\obj/../User/USB_Host/ch32v20x_usbfs_host.c:260
        USBOTG_H_FS->HOST_EP_PID = endp_pid;       // Specify token PID and endpoint number
     416:	50000437          	lui	s0,0x50000
C:\Repository\RISKYKVM\firmware\Bootloader\obj/../User/USB_Host/ch32v20x_usbfs_host.c:261
        USBOTG_H_FS->INT_FG = USBFS_UIF_TRANSFER;  // Allow transmission
     41a:	4b89                	li	s7,2
C:\Repository\RISKYKVM\firmware\Bootloader\obj/../User/USB_Host/ch32v20x_usbfs_host.c:279
            if( r == USB_PID_STALL )
     41c:	4c39                	li	s8,14
C:\Repository\RISKYKVM\firmware\Bootloader\obj/../User/USB_Host/ch32v20x_usbfs_host.c:283
            if( r == USB_PID_NAK )
     41e:	4b29                	li	s6,10
     420:	4ca5                	li	s9,9
C:\Repository\RISKYKVM\firmware\Bootloader\obj/../User/USB_Host/ch32v20x_usbfs_host.c:289
                if( timeout < 0xFFFF )
     422:	1a7d                	addi	s4,s4,-1
C:\Repository\RISKYKVM\firmware\Bootloader\obj/../User/USB_Host/ch32v20x_usbfs_host.c:260
        USBOTG_H_FS->HOST_EP_PID = endp_pid;       // Specify token PID and endpoint number
     424:	03540c23          	sb	s5,56(s0) # 50000038 <_eusrstack+0x2fffb038>
C:\Repository\RISKYKVM\firmware\Bootloader\obj/../User/USB_Host/ch32v20x_usbfs_host.c:261
        USBOTG_H_FS->INT_FG = USBFS_UIF_TRANSFER;  // Allow transmission
     428:	01740323          	sb	s7,6(s0)
     42c:	3e800d13          	li	s10,1000
C:\Repository\RISKYKVM\firmware\Bootloader\obj/../User/USB_Host/ch32v20x_usbfs_host.c:262 (discriminator 3)
        for( i = DEF_WAIT_USB_TOUT_200US; ( i != 0 ) && ( ( USBOTG_H_FS->INT_FG & USBFS_UIF_TRANSFER ) == 0 ); i-- )
     430:	00644783          	lbu	a5,6(s0)
     434:	8b89                	andi	a5,a5,2
     436:	eb91                	bnez	a5,44a <USBFSH_Transact+0x66>
C:\Repository\RISKYKVM\firmware\Bootloader\obj/../User/USB_Host/ch32v20x_usbfs_host.c:264 (discriminator 4)
            Delay_Us( 1 );
     438:	1d7d                	addi	s10,s10,-1
     43a:	0d42                	slli	s10,s10,0x10
     43c:	4505                	li	a0,1
     43e:	010d5d13          	srli	s10,s10,0x10
     442:	580010ef          	jal	ra,19c2 <Delay_Us>
C:\Repository\RISKYKVM\firmware\Bootloader\obj/../User/USB_Host/ch32v20x_usbfs_host.c:262 (discriminator 4)
        for( i = DEF_WAIT_USB_TOUT_200US; ( i != 0 ) && ( ( USBOTG_H_FS->INT_FG & USBFS_UIF_TRANSFER ) == 0 ); i-- )
     446:	fe0d15e3          	bnez	s10,430 <USBFSH_Transact+0x4c>
C:\Repository\RISKYKVM\firmware\Bootloader\obj/../User/USB_Host/ch32v20x_usbfs_host.c:266
        USBOTG_H_FS->HOST_EP_PID = 0x00;  // Stop USB transfer
     44a:	02040c23          	sb	zero,56(s0)
C:\Repository\RISKYKVM\firmware\Bootloader\obj/../User/USB_Host/ch32v20x_usbfs_host.c:267
        if( ( USBOTG_H_FS->INT_FG & USBFS_UIF_TRANSFER ) == 0 )
     44e:	00644783          	lbu	a5,6(s0)
     452:	8b89                	andi	a5,a5,2
     454:	e781                	bnez	a5,45c <USBFSH_Transact+0x78>
C:\Repository\RISKYKVM\firmware\Bootloader\obj/../User/USB_Host/ch32v20x_usbfs_host.c:315
                    {
                        return ( r | ERR_USB_TRANSFER );
                    }
                    break;
                default:
                    return ERR_USB_UNKNOWN;
     456:	0fe00513          	li	a0,254
     45a:	a095                	j	4be <USBFSH_Transact+0xda>
C:\Repository\RISKYKVM\firmware\Bootloader\obj/../User/USB_Host/ch32v20x_usbfs_host.c:274
            if( USBOTG_H_FS->INT_ST & USBFS_UIS_TOG_OK )
     45c:	00744783          	lbu	a5,7(s0)
     460:	0407f793          	andi	a5,a5,64
     464:	e7c9                	bnez	a5,4ee <USBFSH_Transact+0x10a>
C:\Repository\RISKYKVM\firmware\Bootloader\obj/../User/USB_Host/ch32v20x_usbfs_host.c:278
            r = USBOTG_H_FS->INT_ST & USBFS_UIS_H_RES_MASK;  // USB device answer status
     466:	00744503          	lbu	a0,7(s0)
     46a:	893d                	andi	a0,a0,15
C:\Repository\RISKYKVM\firmware\Bootloader\obj/../User/USB_Host/ch32v20x_usbfs_host.c:279
            if( r == USB_PID_STALL )
     46c:	09850363          	beq	a0,s8,4f2 <USBFSH_Transact+0x10e>
C:\Repository\RISKYKVM\firmware\Bootloader\obj/../User/USB_Host/ch32v20x_usbfs_host.c:283
            if( r == USB_PID_NAK )
     470:	03651c63          	bne	a0,s6,4a8 <USBFSH_Transact+0xc4>
C:\Repository\RISKYKVM\firmware\Bootloader\obj/../User/USB_Host/ch32v20x_usbfs_host.c:285
                if( timeout == 0 )
     474:	08090263          	beqz	s2,4f8 <USBFSH_Transact+0x114>
C:\Repository\RISKYKVM\firmware\Bootloader\obj/../User/USB_Host/ch32v20x_usbfs_host.c:289
                if( timeout < 0xFFFF )
     478:	01490663          	beq	s2,s4,484 <USBFSH_Transact+0xa0>
C:\Repository\RISKYKVM\firmware\Bootloader\obj/../User/USB_Host/ch32v20x_usbfs_host.c:291
                    timeout--;
     47c:	197d                	addi	s2,s2,-1
     47e:	0942                	slli	s2,s2,0x10
     480:	01095913          	srli	s2,s2,0x10
C:\Repository\RISKYKVM\firmware\Bootloader\obj/../User/USB_Host/ch32v20x_usbfs_host.c:293
                --trans_rerty;
     484:	14fd                	addi	s1,s1,-1
     486:	0ff4f493          	andi	s1,s1,255
C:\Repository\RISKYKVM\firmware\Bootloader\obj/../User/USB_Host/ch32v20x_usbfs_host.c:318
            }
        } 
        Delay_Us( 15 );
     48a:	453d                	li	a0,15
     48c:	536010ef          	jal	ra,19c2 <Delay_Us>
C:\Repository\RISKYKVM\firmware\Bootloader\obj/../User/USB_Host/ch32v20x_usbfs_host.c:319
        if( USBOTG_H_FS->INT_FG & USBFS_UIF_DETECT )
     490:	00644783          	lbu	a5,6(s0)
     494:	8b85                	andi	a5,a5,1
     496:	e3b1                	bnez	a5,4da <USBFSH_Transact+0xf6>
C:\Repository\RISKYKVM\firmware\Bootloader\obj/../User/USB_Host/ch32v20x_usbfs_host.c:327
            if( USBFSH_CheckRootHubPortEnable( ) == 0 )
            {
                return ERR_USB_DISCON;  // USB device disconnect event
            }
        }
    }while( ++trans_rerty < 10 );
     498:	0485                	addi	s1,s1,1
     49a:	0ff4f493          	andi	s1,s1,255
     49e:	f96493e3          	bne	s1,s6,424 <USBFSH_Transact+0x40>
C:\Repository\RISKYKVM\firmware\Bootloader\obj/../User/USB_Host/ch32v20x_usbfs_host.c:329

    return ERR_USB_TRANSFER; // Reply timeout
     4a2:	02000513          	li	a0,32
     4a6:	a821                	j	4be <USBFSH_Transact+0xda>
C:\Repository\RISKYKVM\firmware\Bootloader\obj/../User/USB_Host/ch32v20x_usbfs_host.c:295
            else switch ( endp_pid >> 4 )
     4a8:	01998863          	beq	s3,s9,4b8 <USBFSH_Transact+0xd4>
     4ac:	47b5                	li	a5,13
     4ae:	00f98563          	beq	s3,a5,4b8 <USBFSH_Transact+0xd4>
     4b2:	4785                	li	a5,1
     4b4:	faf991e3          	bne	s3,a5,456 <USBFSH_Transact+0x72>
C:\Repository\RISKYKVM\firmware\Bootloader\obj/../User/USB_Host/ch32v20x_usbfs_host.c:309
                    else if( r )
     4b8:	d969                	beqz	a0,48a <USBFSH_Transact+0xa6>
C:\Repository\RISKYKVM\firmware\Bootloader\obj/../User/USB_Host/ch32v20x_usbfs_host.c:311
                        return ( r | ERR_USB_TRANSFER );
     4ba:	02056513          	ori	a0,a0,32
C:\Repository\RISKYKVM\firmware\Bootloader\obj/../User/USB_Host/ch32v20x_usbfs_host.c:330
}
     4be:	50b2                	lw	ra,44(sp)
     4c0:	5422                	lw	s0,40(sp)
     4c2:	5492                	lw	s1,36(sp)
     4c4:	5902                	lw	s2,32(sp)
     4c6:	49f2                	lw	s3,28(sp)
     4c8:	4a62                	lw	s4,24(sp)
     4ca:	4ad2                	lw	s5,20(sp)
     4cc:	4b42                	lw	s6,16(sp)
     4ce:	4bb2                	lw	s7,12(sp)
     4d0:	4c22                	lw	s8,8(sp)
     4d2:	4c92                	lw	s9,4(sp)
     4d4:	4d02                	lw	s10,0(sp)
     4d6:	6145                	addi	sp,sp,48
     4d8:	8082                	ret
C:\Repository\RISKYKVM\firmware\Bootloader\obj/../User/USB_Host/ch32v20x_usbfs_host.c:321
            Delay_Us( 200 );
     4da:	0c800513          	li	a0,200
     4de:	4e4010ef          	jal	ra,19c2 <Delay_Us>
USBFSH_CheckRootHubPortEnable():
C:\Repository\RISKYKVM\firmware\Bootloader\obj/../User/USB_Host/ch32v20x_usbfs_host.c:127
    return ( USBOTG_H_FS->HOST_CTRL & USBFS_UH_PORT_EN );
     4e2:	00144783          	lbu	a5,1(s0)
USBFSH_Transact():
C:\Repository\RISKYKVM\firmware\Bootloader\obj/../User/USB_Host/ch32v20x_usbfs_host.c:322
            if( USBFSH_CheckRootHubPortEnable( ) == 0 )
     4e6:	8b85                	andi	a5,a5,1
     4e8:	fbc5                	bnez	a5,498 <USBFSH_Transact+0xb4>
C:\Repository\RISKYKVM\firmware\Bootloader\obj/../User/USB_Host/ch32v20x_usbfs_host.c:324
                return ERR_USB_DISCON;  // USB device disconnect event
     4ea:	4559                	li	a0,22
     4ec:	bfc9                	j	4be <USBFSH_Transact+0xda>
C:\Repository\RISKYKVM\firmware\Bootloader\obj/../User/USB_Host/ch32v20x_usbfs_host.c:276
                return ERR_SUCCESS;
     4ee:	4501                	li	a0,0
     4f0:	b7f9                	j	4be <USBFSH_Transact+0xda>
C:\Repository\RISKYKVM\firmware\Bootloader\obj/../User/USB_Host/ch32v20x_usbfs_host.c:281
                return ( r | ERR_USB_TRANSFER );
     4f2:	02e00513          	li	a0,46
     4f6:	b7e1                	j	4be <USBFSH_Transact+0xda>
C:\Repository\RISKYKVM\firmware\Bootloader\obj/../User/USB_Host/ch32v20x_usbfs_host.c:287
                    return ( r | ERR_USB_TRANSFER );
     4f8:	02a00513          	li	a0,42
     4fc:	b7c9                	j	4be <USBFSH_Transact+0xda>

000004fe <USBFSH_CtrlTransfer>:
USBFSH_CtrlTransfer():
C:\Repository\RISKYKVM\firmware\Bootloader\obj/../User/USB_Host/ch32v20x_usbfs_host.c:344
 *          plen: Data length
 *
 * @return  USB control transfer result.
 */
uint8_t USBFSH_CtrlTransfer( uint8_t ep0_size, uint8_t *pbuf, uint16_t *plen )
{
     4fe:	7179                	addi	sp,sp,-48
     500:	d226                	sw	s1,36(sp)
     502:	d04a                	sw	s2,32(sp)
     504:	ca56                	sw	s5,20(sp)
     506:	d606                	sw	ra,44(sp)
     508:	d422                	sw	s0,40(sp)
     50a:	ce4e                	sw	s3,28(sp)
     50c:	cc52                	sw	s4,24(sp)
     50e:	c85a                	sw	s6,16(sp)
     510:	c65e                	sw	s7,12(sp)
     512:	8aaa                	mv	s5,a0
     514:	892e                	mv	s2,a1
     516:	84b2                	mv	s1,a2
C:\Repository\RISKYKVM\firmware\Bootloader\obj/../User/USB_Host/ch32v20x_usbfs_host.c:348
    uint8_t  s;
    uint16_t rem_len, rx_len, rx_cnt, tx_cnt;

    if( plen )
     518:	c219                	beqz	a2,51e <USBFSH_CtrlTransfer+0x20>
C:\Repository\RISKYKVM\firmware\Bootloader\obj/../User/USB_Host/ch32v20x_usbfs_host.c:350
    {
        *plen = 0;
     51a:	00061023          	sh	zero,0(a2)
C:\Repository\RISKYKVM\firmware\Bootloader\obj/../User/USB_Host/ch32v20x_usbfs_host.c:352
    }
    USBOTG_H_FS->HOST_TX_LEN = sizeof( USB_SETUP_REQ );
     51e:	50000437          	lui	s0,0x50000
     522:	47a1                	li	a5,8
C:\Repository\RISKYKVM\firmware\Bootloader\obj/../User/USB_Host/ch32v20x_usbfs_host.c:353
    s = USBFSH_Transact( USB_PID_SETUP << 4 | 0x00, 0x00, DEF_CTRL_TRANS_TIMEOVER_CNT );  // SETUP stage, 200mS timeout
     524:	69bd                	lui	s3,0xf
C:\Repository\RISKYKVM\firmware\Bootloader\obj/../User/USB_Host/ch32v20x_usbfs_host.c:352
    USBOTG_H_FS->HOST_TX_LEN = sizeof( USB_SETUP_REQ );
     526:	02f41e23          	sh	a5,60(s0) # 5000003c <_eusrstack+0x2fffb03c>
C:\Repository\RISKYKVM\firmware\Bootloader\obj/../User/USB_Host/ch32v20x_usbfs_host.c:353
    s = USBFSH_Transact( USB_PID_SETUP << 4 | 0x00, 0x00, DEF_CTRL_TRANS_TIMEOVER_CNT );  // SETUP stage, 200mS timeout
     52a:	a6098613          	addi	a2,s3,-1440 # ea60 <_bootloader_limit+0x6a60>
     52e:	4581                	li	a1,0
     530:	0d000513          	li	a0,208
     534:	3d45                	jal	3e4 <USBFSH_Transact>
C:\Repository\RISKYKVM\firmware\Bootloader\obj/../User/USB_Host/ch32v20x_usbfs_host.c:354
    if( s != ERR_SUCCESS )
     536:	12051e63          	bnez	a0,672 <USBFSH_CtrlTransfer+0x174>
C:\Repository\RISKYKVM\firmware\Bootloader\obj/../User/USB_Host/ch32v20x_usbfs_host.c:358
    {
        return s;
    }
    USBOTG_H_FS->HOST_TX_CTRL = USBOTG_H_FS->HOST_RX_CTRL = USBFS_UH_T_TOG | USBFS_UH_R_TOG | USBFS_UH_T_AUTO_TOG | USBFS_UH_R_AUTO_TOG; // Default DATA1
     53a:	47b1                	li	a5,12
     53c:	02f40da3          	sb	a5,59(s0)
     540:	02f40f23          	sb	a5,62(s0)
C:\Repository\RISKYKVM\firmware\Bootloader\obj/../User/USB_Host/ch32v20x_usbfs_host.c:359
    USBOTG_H_FS->HOST_TX_LEN = 0x01; // The default no-data state stage is IN
     544:	4785                	li	a5,1
     546:	02f41e23          	sh	a5,60(s0)
C:\Repository\RISKYKVM\firmware\Bootloader\obj/../User/USB_Host/ch32v20x_usbfs_host.c:360
    rem_len = pUSBFS_SetupRequest->wLength;
     54a:	88818713          	addi	a4,gp,-1912 # 200000e8 <TxBuffer>
     54e:	00675403          	lhu	s0,6(a4)
C:\Repository\RISKYKVM\firmware\Bootloader\obj/../User/USB_Host/ch32v20x_usbfs_host.c:361
    if( rem_len && pbuf )
     552:	88818b13          	addi	s6,gp,-1912 # 200000e8 <TxBuffer>
     556:	cc69                	beqz	s0,630 <USBFSH_CtrlTransfer+0x132>
     558:	0c090c63          	beqz	s2,630 <USBFSH_CtrlTransfer+0x132>
C:\Repository\RISKYKVM\firmware\Bootloader\obj/../User/USB_Host/ch32v20x_usbfs_host.c:363
    {
        if( pUSBFS_SetupRequest->bRequestType & USB_REQ_TYP_IN )
     55c:	88818783          	lb	a5,-1912(gp) # 200000e8 <TxBuffer>
     560:	0407ce63          	bltz	a5,5bc <USBFSH_CtrlTransfer+0xbe>
C:\Repository\RISKYKVM\firmware\Bootloader\obj/../User/USB_Host/ch32v20x_usbfs_host.c:399
        {
            /* Send data */
            while( rem_len )
            {
                Delay_Us( 100 );
                USBOTG_H_FS->HOST_TX_LEN = ( rem_len >= ep0_size )? ep0_size : rem_len;
     564:	8bd6                	mv	s7,s5
     566:	0ac2                	slli	s5,s5,0x10
     568:	010ada93          	srli	s5,s5,0x10
     56c:	50000a37          	lui	s4,0x50000
C:\Repository\RISKYKVM\firmware\Bootloader\obj/../User/USB_Host/ch32v20x_usbfs_host.c:405
                for( tx_cnt = 0; tx_cnt != USBOTG_H_FS->HOST_TX_LEN; tx_cnt++ )
                {
                    USBFS_TX_Buf[ tx_cnt ] = *pbuf;
                    pbuf++;
                }
                s = USBFSH_Transact( USB_PID_OUT << 4 | 0x00, USBOTG_H_FS->HOST_TX_CTRL, DEF_CTRL_TRANS_TIMEOVER_CNT ); // OUT
     570:	a6098993          	addi	s3,s3,-1440
C:\Repository\RISKYKVM\firmware\Bootloader\obj/../User/USB_Host/ch32v20x_usbfs_host.c:398
                Delay_Us( 100 );
     574:	06400513          	li	a0,100
     578:	44a010ef          	jal	ra,19c2 <Delay_Us>
C:\Repository\RISKYKVM\firmware\Bootloader\obj/../User/USB_Host/ch32v20x_usbfs_host.c:399
                USBOTG_H_FS->HOST_TX_LEN = ( rem_len >= ep0_size )? ep0_size : rem_len;
     57c:	87de                	mv	a5,s7
     57e:	01547363          	bgeu	s0,s5,584 <USBFSH_CtrlTransfer+0x86>
     582:	87a2                	mv	a5,s0
     584:	02fa1e23          	sh	a5,60(s4) # 5000003c <_eusrstack+0x2fffb03c>
C:\Repository\RISKYKVM\firmware\Bootloader\obj/../User/USB_Host/ch32v20x_usbfs_host.c:400
                for( tx_cnt = 0; tx_cnt != USBOTG_H_FS->HOST_TX_LEN; tx_cnt++ )
     588:	4781                	li	a5,0
     58a:	03ca5703          	lhu	a4,60(s4)
     58e:	10e79763          	bne	a5,a4,69c <USBFSH_CtrlTransfer+0x19e>
C:\Repository\RISKYKVM\firmware\Bootloader\obj/../User/USB_Host/ch32v20x_usbfs_host.c:405
                s = USBFSH_Transact( USB_PID_OUT << 4 | 0x00, USBOTG_H_FS->HOST_TX_CTRL, DEF_CTRL_TRANS_TIMEOVER_CNT ); // OUT
     592:	03ea4583          	lbu	a1,62(s4)
     596:	864e                	mv	a2,s3
     598:	4541                	li	a0,16
     59a:	35a9                	jal	3e4 <USBFSH_Transact>
C:\Repository\RISKYKVM\firmware\Bootloader\obj/../User/USB_Host/ch32v20x_usbfs_host.c:406
                if( s != ERR_SUCCESS )
     59c:	e979                	bnez	a0,672 <USBFSH_CtrlTransfer+0x174>
C:\Repository\RISKYKVM\firmware\Bootloader\obj/../User/USB_Host/ch32v20x_usbfs_host.c:410
                {
                    return s;
                }
                rem_len -= USBOTG_H_FS->HOST_TX_LEN;
     59e:	03ca5783          	lhu	a5,60(s4)
     5a2:	8c1d                	sub	s0,s0,a5
     5a4:	0442                	slli	s0,s0,0x10
     5a6:	8041                	srli	s0,s0,0x10
C:\Repository\RISKYKVM\firmware\Bootloader\obj/../User/USB_Host/ch32v20x_usbfs_host.c:411
                if( plen )
     5a8:	c881                	beqz	s1,5b8 <USBFSH_CtrlTransfer+0xba>
C:\Repository\RISKYKVM\firmware\Bootloader\obj/../User/USB_Host/ch32v20x_usbfs_host.c:413
                {
                    *plen += USBOTG_H_FS->HOST_TX_LEN; // The total length of the actual successful transmission and reception
     5aa:	03ca5783          	lhu	a5,60(s4)
     5ae:	0004d703          	lhu	a4,0(s1)
     5b2:	97ba                	add	a5,a5,a4
     5b4:	00f49023          	sh	a5,0(s1)
C:\Repository\RISKYKVM\firmware\Bootloader\obj/../User/USB_Host/ch32v20x_usbfs_host.c:396
            while( rem_len )
     5b8:	fc55                	bnez	s0,574 <USBFSH_CtrlTransfer+0x76>
     5ba:	a89d                	j	630 <USBFSH_CtrlTransfer+0x132>
C:\Repository\RISKYKVM\firmware\Bootloader\obj/../User/USB_Host/ch32v20x_usbfs_host.c:369
                s = USBFSH_Transact( USB_PID_IN << 4 | 0x00, USBOTG_H_FS->HOST_RX_CTRL, DEF_CTRL_TRANS_TIMEOVER_CNT );  // IN
     5bc:	50000a37          	lui	s4,0x50000
     5c0:	a6098993          	addi	s3,s3,-1440
C:\Repository\RISKYKVM\firmware\Bootloader\obj/../User/USB_Host/ch32v20x_usbfs_host.c:382
                    *pbuf = USBFS_RX_Buf[ rx_cnt ];
     5c4:	84818b13          	addi	s6,gp,-1976 # 200000a8 <RxBuffer>
C:\Repository\RISKYKVM\firmware\Bootloader\obj/../User/USB_Host/ch32v20x_usbfs_host.c:386
                if( ( USBOTG_H_FS->RX_LEN == 0 ) || ( USBOTG_H_FS->RX_LEN & ( ep0_size - 1 ) ) )
     5c8:	1afd                	addi	s5,s5,-1
C:\Repository\RISKYKVM\firmware\Bootloader\obj/../User/USB_Host/ch32v20x_usbfs_host.c:368
                Delay_Us( 100 );
     5ca:	06400513          	li	a0,100
     5ce:	3f4010ef          	jal	ra,19c2 <Delay_Us>
C:\Repository\RISKYKVM\firmware\Bootloader\obj/../User/USB_Host/ch32v20x_usbfs_host.c:369
                s = USBFSH_Transact( USB_PID_IN << 4 | 0x00, USBOTG_H_FS->HOST_RX_CTRL, DEF_CTRL_TRANS_TIMEOVER_CNT );  // IN
     5d2:	03ba4583          	lbu	a1,59(s4) # 5000003b <_eusrstack+0x2fffb03b>
     5d6:	864e                	mv	a2,s3
     5d8:	09000513          	li	a0,144
     5dc:	3521                	jal	3e4 <USBFSH_Transact>
C:\Repository\RISKYKVM\firmware\Bootloader\obj/../User/USB_Host/ch32v20x_usbfs_host.c:370
                if( s != ERR_SUCCESS )
     5de:	e951                	bnez	a0,672 <USBFSH_CtrlTransfer+0x174>
C:\Repository\RISKYKVM\firmware\Bootloader\obj/../User/USB_Host/ch32v20x_usbfs_host.c:374
                rx_len = ( USBOTG_H_FS->RX_LEN < rem_len )? USBOTG_H_FS->RX_LEN : rem_len;
     5e0:	008a5703          	lhu	a4,8(s4)
     5e4:	87a2                	mv	a5,s0
     5e6:	00877663          	bgeu	a4,s0,5f2 <USBFSH_CtrlTransfer+0xf4>
     5ea:	008a5783          	lhu	a5,8(s4)
     5ee:	07c2                	slli	a5,a5,0x10
     5f0:	83c1                	srli	a5,a5,0x10
C:\Repository\RISKYKVM\firmware\Bootloader\obj/../User/USB_Host/ch32v20x_usbfs_host.c:375
                rem_len -= rx_len;
     5f2:	8c1d                	sub	s0,s0,a5
     5f4:	0442                	slli	s0,s0,0x10
     5f6:	8041                	srli	s0,s0,0x10
C:\Repository\RISKYKVM\firmware\Bootloader\obj/../User/USB_Host/ch32v20x_usbfs_host.c:376
                if( plen )
     5f8:	c491                	beqz	s1,604 <USBFSH_CtrlTransfer+0x106>
C:\Repository\RISKYKVM\firmware\Bootloader\obj/../User/USB_Host/ch32v20x_usbfs_host.c:378
                    *plen += rx_len; // The total length of the actual successful transmission and reception
     5fa:	0004d703          	lhu	a4,0(s1)
     5fe:	973e                	add	a4,a4,a5
     600:	00e49023          	sh	a4,0(s1)
C:\Repository\RISKYKVM\firmware\Bootloader\obj/../User/USB_Host/ch32v20x_usbfs_host.c:374
                rx_len = ( USBOTG_H_FS->RX_LEN < rem_len )? USBOTG_H_FS->RX_LEN : rem_len;
     604:	4701                	li	a4,0
C:\Repository\RISKYKVM\firmware\Bootloader\obj/../User/USB_Host/ch32v20x_usbfs_host.c:380
                for( rx_cnt = 0; rx_cnt != rx_len; rx_cnt++ )
     606:	01071693          	slli	a3,a4,0x10
     60a:	82c1                	srli	a3,a3,0x10
     60c:	06d79e63          	bne	a5,a3,688 <USBFSH_CtrlTransfer+0x18a>
     610:	993e                	add	s2,s2,a5
C:\Repository\RISKYKVM\firmware\Bootloader\obj/../User/USB_Host/ch32v20x_usbfs_host.c:386
                if( ( USBOTG_H_FS->RX_LEN == 0 ) || ( USBOTG_H_FS->RX_LEN & ( ep0_size - 1 ) ) )
     612:	008a5783          	lhu	a5,8(s4)
     616:	07c2                	slli	a5,a5,0x10
     618:	83c1                	srli	a5,a5,0x10
     61a:	c799                	beqz	a5,628 <USBFSH_CtrlTransfer+0x12a>
     61c:	008a5783          	lhu	a5,8(s4)
     620:	00faf7b3          	and	a5,s5,a5
     624:	e391                	bnez	a5,628 <USBFSH_CtrlTransfer+0x12a>
C:\Repository\RISKYKVM\firmware\Bootloader\obj/../User/USB_Host/ch32v20x_usbfs_host.c:366
            while( rem_len )
     626:	f055                	bnez	s0,5ca <USBFSH_CtrlTransfer+0xcc>
C:\Repository\RISKYKVM\firmware\Bootloader\obj/../User/USB_Host/ch32v20x_usbfs_host.c:391
            USBOTG_H_FS->HOST_TX_LEN = 0x00; // Status stage is OUT
     628:	500007b7          	lui	a5,0x50000
     62c:	02079e23          	sh	zero,60(a5) # 5000003c <_eusrstack+0x2fffb03c>
C:\Repository\RISKYKVM\firmware\Bootloader\obj/../User/USB_Host/ch32v20x_usbfs_host.c:418
                }
            }
        }
    }
    Delay_Us( 100 );
     630:	06400513          	li	a0,100
     634:	38e010ef          	jal	ra,19c2 <Delay_Us>
C:\Repository\RISKYKVM\firmware\Bootloader\obj/../User/USB_Host/ch32v20x_usbfs_host.c:419
    s = USBFSH_Transact( ( USBOTG_H_FS->HOST_TX_LEN )? ( USB_PID_IN << 4 | 0x00 ) : ( USB_PID_OUT << 4 | 0x00 ), USBFS_UH_R_TOG | USBFS_UH_T_TOG, DEF_CTRL_TRANS_TIMEOVER_CNT );  /* STATUS */
     638:	500007b7          	lui	a5,0x50000
     63c:	03c7d783          	lhu	a5,60(a5) # 5000003c <_eusrstack+0x2fffb03c>
     640:	09000513          	li	a0,144
     644:	07c2                	slli	a5,a5,0x10
     646:	83c1                	srli	a5,a5,0x10
     648:	e391                	bnez	a5,64c <USBFSH_CtrlTransfer+0x14e>
     64a:	4541                	li	a0,16
     64c:	663d                	lui	a2,0xf
     64e:	a6060613          	addi	a2,a2,-1440 # ea60 <_bootloader_limit+0x6a60>
     652:	4591                	li	a1,4
     654:	3b41                	jal	3e4 <USBFSH_Transact>
C:\Repository\RISKYKVM\firmware\Bootloader\obj/../User/USB_Host/ch32v20x_usbfs_host.c:420
    if( s != ERR_SUCCESS )
     656:	ed11                	bnez	a0,672 <USBFSH_CtrlTransfer+0x174>
C:\Repository\RISKYKVM\firmware\Bootloader\obj/../User/USB_Host/ch32v20x_usbfs_host.c:424
    {
        return s;
    }
    if( USBOTG_H_FS->HOST_TX_LEN == 0 )
     658:	50000737          	lui	a4,0x50000
     65c:	03c75783          	lhu	a5,60(a4) # 5000003c <_eusrstack+0x2fffb03c>
     660:	07c2                	slli	a5,a5,0x10
     662:	83c1                	srli	a5,a5,0x10
     664:	c799                	beqz	a5,672 <USBFSH_CtrlTransfer+0x174>
C:\Repository\RISKYKVM\firmware\Bootloader\obj/../User/USB_Host/ch32v20x_usbfs_host.c:428
    {
        return ERR_SUCCESS;
    }
    if( USBOTG_H_FS->RX_LEN == 0 )
     666:	00875783          	lhu	a5,8(a4)
     66a:	07c2                	slli	a5,a5,0x10
     66c:	83c1                	srli	a5,a5,0x10
     66e:	c391                	beqz	a5,672 <USBFSH_CtrlTransfer+0x174>
C:\Repository\RISKYKVM\firmware\Bootloader\obj/../User/USB_Host/ch32v20x_usbfs_host.c:432
    {
        return ERR_SUCCESS;
    }
    return ERR_USB_BUF_OVER;
     670:	455d                	li	a0,23
C:\Repository\RISKYKVM\firmware\Bootloader\obj/../User/USB_Host/ch32v20x_usbfs_host.c:433
}
     672:	50b2                	lw	ra,44(sp)
     674:	5422                	lw	s0,40(sp)
     676:	5492                	lw	s1,36(sp)
     678:	5902                	lw	s2,32(sp)
     67a:	49f2                	lw	s3,28(sp)
     67c:	4a62                	lw	s4,24(sp)
     67e:	4ad2                	lw	s5,20(sp)
     680:	4b42                	lw	s6,16(sp)
     682:	4bb2                	lw	s7,12(sp)
     684:	6145                	addi	sp,sp,48
     686:	8082                	ret
C:\Repository\RISKYKVM\firmware\Bootloader\obj/../User/USB_Host/ch32v20x_usbfs_host.c:382
                    *pbuf = USBFS_RX_Buf[ rx_cnt ];
     688:	016706b3          	add	a3,a4,s6
     68c:	0006c603          	lbu	a2,0(a3)
     690:	00e906b3          	add	a3,s2,a4
     694:	0705                	addi	a4,a4,1
     696:	00c68023          	sb	a2,0(a3)
C:\Repository\RISKYKVM\firmware\Bootloader\obj/../User/USB_Host/ch32v20x_usbfs_host.c:383
                    pbuf++;
     69a:	b7b5                	j	606 <USBFSH_CtrlTransfer+0x108>
C:\Repository\RISKYKVM\firmware\Bootloader\obj/../User/USB_Host/ch32v20x_usbfs_host.c:402
                    USBFS_TX_Buf[ tx_cnt ] = *pbuf;
     69c:	00094683          	lbu	a3,0(s2)
     6a0:	00fb0733          	add	a4,s6,a5
C:\Repository\RISKYKVM\firmware\Bootloader\obj/../User/USB_Host/ch32v20x_usbfs_host.c:400
                for( tx_cnt = 0; tx_cnt != USBOTG_H_FS->HOST_TX_LEN; tx_cnt++ )
     6a4:	0785                	addi	a5,a5,1
     6a6:	07c2                	slli	a5,a5,0x10
C:\Repository\RISKYKVM\firmware\Bootloader\obj/../User/USB_Host/ch32v20x_usbfs_host.c:402
                    USBFS_TX_Buf[ tx_cnt ] = *pbuf;
     6a8:	00d70023          	sb	a3,0(a4)
C:\Repository\RISKYKVM\firmware\Bootloader\obj/../User/USB_Host/ch32v20x_usbfs_host.c:403
                    pbuf++;
     6ac:	0905                	addi	s2,s2,1
C:\Repository\RISKYKVM\firmware\Bootloader\obj/../User/USB_Host/ch32v20x_usbfs_host.c:400
                for( tx_cnt = 0; tx_cnt != USBOTG_H_FS->HOST_TX_LEN; tx_cnt++ )
     6ae:	83c1                	srli	a5,a5,0x10
     6b0:	bde9                	j	58a <USBFSH_CtrlTransfer+0x8c>

000006b2 <USBFSH_GetDeviceDescr>:
USBFSH_GetDeviceDescr():
C:\Repository\RISKYKVM\firmware\Bootloader\obj/../User/USB_Host/ch32v20x_usbfs_host.c:446
 *          pbuf: Data buffer
 *
 * @return  The result of getting the device descriptor.
 */
uint8_t USBFSH_GetDeviceDescr( uint8_t *pep0_size, uint8_t *pbuf )
{
     6b2:	1101                	addi	sp,sp,-32
     6b4:	cc22                	sw	s0,24(sp)
C:\Repository\RISKYKVM\firmware\Bootloader\obj/../User/USB_Host/ch32v20x_usbfs_host.c:451
    uint8_t  s;
    uint16_t len;

    *pep0_size = DEFAULT_ENDP0_SIZE;
    memcpy( pUSBFS_SetupRequest, SetupGetDevDesc, sizeof( USB_SETUP_REQ ) );
     6b6:	81c18413          	addi	s0,gp,-2020 # 2000007c <SetupGetDevDesc>
     6ba:	4018                	lw	a4,0(s0)
C:\Repository\RISKYKVM\firmware\Bootloader\obj/../User/USB_Host/ch32v20x_usbfs_host.c:446
{
     6bc:	ca26                	sw	s1,20(sp)
     6be:	c84a                	sw	s2,16(sp)
     6c0:	ce06                	sw	ra,28(sp)
C:\Repository\RISKYKVM\firmware\Bootloader\obj/../User/USB_Host/ch32v20x_usbfs_host.c:450
    *pep0_size = DEFAULT_ENDP0_SIZE;
     6c2:	47a1                	li	a5,8
     6c4:	00f50023          	sb	a5,0(a0) # 1000 <IAP_Main_Deal+0x276>
C:\Repository\RISKYKVM\firmware\Bootloader\obj/../User/USB_Host/ch32v20x_usbfs_host.c:451
    memcpy( pUSBFS_SetupRequest, SetupGetDevDesc, sizeof( USB_SETUP_REQ ) );
     6c8:	88e1a423          	sw	a4,-1912(gp) # 200000e8 <TxBuffer>
     6cc:	4058                	lw	a4,4(s0)
     6ce:	88818793          	addi	a5,gp,-1912 # 200000e8 <TxBuffer>
C:\Repository\RISKYKVM\firmware\Bootloader\obj/../User/USB_Host/ch32v20x_usbfs_host.c:446
{
     6d2:	84aa                	mv	s1,a0
C:\Repository\RISKYKVM\firmware\Bootloader\obj/../User/USB_Host/ch32v20x_usbfs_host.c:451
    memcpy( pUSBFS_SetupRequest, SetupGetDevDesc, sizeof( USB_SETUP_REQ ) );
     6d4:	c3d8                	sw	a4,4(a5)
C:\Repository\RISKYKVM\firmware\Bootloader\obj/../User/USB_Host/ch32v20x_usbfs_host.c:452
    s = USBFSH_CtrlTransfer( *pep0_size, pbuf, &len );
     6d6:	00054503          	lbu	a0,0(a0)
     6da:	00e10613          	addi	a2,sp,14
C:\Repository\RISKYKVM\firmware\Bootloader\obj/../User/USB_Host/ch32v20x_usbfs_host.c:446
{
     6de:	892e                	mv	s2,a1
C:\Repository\RISKYKVM\firmware\Bootloader\obj/../User/USB_Host/ch32v20x_usbfs_host.c:452
    s = USBFSH_CtrlTransfer( *pep0_size, pbuf, &len );
     6e0:	3d39                	jal	4fe <USBFSH_CtrlTransfer>
C:\Repository\RISKYKVM\firmware\Bootloader\obj/../User/USB_Host/ch32v20x_usbfs_host.c:453
    if( s != ERR_SUCCESS )
     6e2:	ed01                	bnez	a0,6fa <USBFSH_GetDeviceDescr+0x48>
C:\Repository\RISKYKVM\firmware\Bootloader\obj/../User/USB_Host/ch32v20x_usbfs_host.c:458
    {
        return s;
    }

    *pep0_size = ( (PUSB_DEV_DESCR)pbuf )->bMaxPacketSize0;
     6e4:	00794783          	lbu	a5,7(s2)
C:\Repository\RISKYKVM\firmware\Bootloader\obj/../User/USB_Host/ch32v20x_usbfs_host.c:459
    if( len < ( (PUSB_SETUP_REQ)SetupGetDevDesc )->wLength )
     6e8:	00645703          	lhu	a4,6(s0)
C:\Repository\RISKYKVM\firmware\Bootloader\obj/../User/USB_Host/ch32v20x_usbfs_host.c:458
    *pep0_size = ( (PUSB_DEV_DESCR)pbuf )->bMaxPacketSize0;
     6ec:	00f48023          	sb	a5,0(s1)
C:\Repository\RISKYKVM\firmware\Bootloader\obj/../User/USB_Host/ch32v20x_usbfs_host.c:459
    if( len < ( (PUSB_SETUP_REQ)SetupGetDevDesc )->wLength )
     6f0:	00e15783          	lhu	a5,14(sp)
     6f4:	00e7f363          	bgeu	a5,a4,6fa <USBFSH_GetDeviceDescr+0x48>
C:\Repository\RISKYKVM\firmware\Bootloader\obj/../User/USB_Host/ch32v20x_usbfs_host.c:461
    {
        return ERR_USB_BUF_OVER;
     6f8:	455d                	li	a0,23
C:\Repository\RISKYKVM\firmware\Bootloader\obj/../User/USB_Host/ch32v20x_usbfs_host.c:464
    }
    return ERR_SUCCESS;
}
     6fa:	40f2                	lw	ra,28(sp)
     6fc:	4462                	lw	s0,24(sp)
     6fe:	44d2                	lw	s1,20(sp)
     700:	4942                	lw	s2,16(sp)
     702:	6105                	addi	sp,sp,32
     704:	8082                	ret

00000706 <USBFSH_GetConfigDescr>:
USBFSH_GetConfigDescr():
C:\Repository\RISKYKVM\firmware\Bootloader\obj/../User/USB_Host/ch32v20x_usbfs_host.c:479
 *          pcfg_len: The length of the device configuration descriptor
 *
 * @return  The result of getting the configuration descriptor.
 */
uint8_t USBFSH_GetConfigDescr( uint8_t ep0_size, uint8_t *pbuf, uint16_t buf_len, uint16_t *pcfg_len )
{
     706:	7179                	addi	sp,sp,-48
     708:	d422                	sw	s0,40(sp)
C:\Repository\RISKYKVM\firmware\Bootloader\obj/../User/USB_Host/ch32v20x_usbfs_host.c:482
    uint8_t  s;
    
    memcpy( pUSBFS_SetupRequest, SetupGetCfgDesc, sizeof( USB_SETUP_REQ ) );
     70a:	81418793          	addi	a5,gp,-2028 # 20000074 <SetupGetCfgDesc>
     70e:	4398                	lw	a4,0(a5)
     710:	43dc                	lw	a5,4(a5)
C:\Repository\RISKYKVM\firmware\Bootloader\obj/../User/USB_Host/ch32v20x_usbfs_host.c:479
{
     712:	d226                	sw	s1,36(sp)
     714:	d04a                	sw	s2,32(sp)
     716:	ce4e                	sw	s3,28(sp)
     718:	cc52                	sw	s4,24(sp)
     71a:	d606                	sw	ra,44(sp)
C:\Repository\RISKYKVM\firmware\Bootloader\obj/../User/USB_Host/ch32v20x_usbfs_host.c:482
    memcpy( pUSBFS_SetupRequest, SetupGetCfgDesc, sizeof( USB_SETUP_REQ ) );
     71c:	88e1a423          	sw	a4,-1912(gp) # 200000e8 <TxBuffer>
     720:	88818713          	addi	a4,gp,-1912 # 200000e8 <TxBuffer>
C:\Repository\RISKYKVM\firmware\Bootloader\obj/../User/USB_Host/ch32v20x_usbfs_host.c:479
{
     724:	89b2                	mv	s3,a2
C:\Repository\RISKYKVM\firmware\Bootloader\obj/../User/USB_Host/ch32v20x_usbfs_host.c:482
    memcpy( pUSBFS_SetupRequest, SetupGetCfgDesc, sizeof( USB_SETUP_REQ ) );
     726:	c35c                	sw	a5,4(a4)
C:\Repository\RISKYKVM\firmware\Bootloader\obj/../User/USB_Host/ch32v20x_usbfs_host.c:483
    s = USBFSH_CtrlTransfer( ep0_size, pbuf, pcfg_len );
     728:	8636                	mv	a2,a3
C:\Repository\RISKYKVM\firmware\Bootloader\obj/../User/USB_Host/ch32v20x_usbfs_host.c:479
{
     72a:	8a2a                	mv	s4,a0
     72c:	892e                	mv	s2,a1
C:\Repository\RISKYKVM\firmware\Bootloader\obj/../User/USB_Host/ch32v20x_usbfs_host.c:483
    s = USBFSH_CtrlTransfer( ep0_size, pbuf, pcfg_len );
     72e:	c636                	sw	a3,12(sp)
     730:	33f9                	jal	4fe <USBFSH_CtrlTransfer>
C:\Repository\RISKYKVM\firmware\Bootloader\obj/../User/USB_Host/ch32v20x_usbfs_host.c:484
    if( s != ERR_SUCCESS )
     732:	ed29                	bnez	a0,78c <USBFSH_GetConfigDescr+0x86>
C:\Repository\RISKYKVM\firmware\Bootloader\obj/../User/USB_Host/ch32v20x_usbfs_host.c:488
    {
        return s;
    }
    if( *pcfg_len < ( (PUSB_SETUP_REQ)SetupGetCfgDesc )->wLength )
     734:	46b2                	lw	a3,12(sp)
     736:	81418793          	addi	a5,gp,-2028 # 20000074 <SetupGetCfgDesc>
     73a:	0067d703          	lhu	a4,6(a5)
     73e:	0006d583          	lhu	a1,0(a3)
     742:	04e5e463          	bltu	a1,a4,78a <USBFSH_GetConfigDescr+0x84>
C:\Repository\RISKYKVM\firmware\Bootloader\obj/../User/USB_Host/ch32v20x_usbfs_host.c:493
    {
        return ERR_USB_BUF_OVER;
    }

    *pcfg_len = ( (PUSB_CFG_DESCR)pbuf )->wTotalLength;
     746:	00394703          	lbu	a4,3(s2)
     74a:	00294583          	lbu	a1,2(s2)
     74e:	88818613          	addi	a2,gp,-1912 # 200000e8 <TxBuffer>
     752:	0722                	slli	a4,a4,0x8
     754:	8f4d                	or	a4,a4,a1
     756:	85ba                	mv	a1,a4
     758:	00e9f363          	bgeu	s3,a4,75e <USBFSH_GetConfigDescr+0x58>
     75c:	85ce                	mv	a1,s3
C:\Repository\RISKYKVM\firmware\Bootloader\obj/../User/USB_Host/ch32v20x_usbfs_host.c:498
    if( *pcfg_len > buf_len  )
    {
        *pcfg_len = buf_len;
    }
    memcpy( pUSBFS_SetupRequest, SetupGetCfgDesc, sizeof( USB_SETUP_REQ ) );
     75e:	4398                	lw	a4,0(a5)
     760:	43dc                	lw	a5,4(a5)
     762:	00b69023          	sh	a1,0(a3)
     766:	88e1a423          	sw	a4,-1912(gp) # 200000e8 <TxBuffer>
     76a:	c25c                	sw	a5,4(a2)
C:\Repository\RISKYKVM\firmware\Bootloader\obj/../User/USB_Host/ch32v20x_usbfs_host.c:499
    pUSBFS_SetupRequest->wLength = *pcfg_len;
     76c:	0006d783          	lhu	a5,0(a3)
C:\Repository\RISKYKVM\firmware\Bootloader\obj/../User/USB_Host/ch32v20x_usbfs_host.c:502
    s = USBFSH_CtrlTransfer( ep0_size, pbuf, pcfg_len );
    return s;
}
     770:	5422                	lw	s0,40(sp)
     772:	50b2                	lw	ra,44(sp)
     774:	5492                	lw	s1,36(sp)
     776:	49f2                	lw	s3,28(sp)
C:\Repository\RISKYKVM\firmware\Bootloader\obj/../User/USB_Host/ch32v20x_usbfs_host.c:500
    s = USBFSH_CtrlTransfer( ep0_size, pbuf, pcfg_len );
     778:	85ca                	mv	a1,s2
     77a:	8552                	mv	a0,s4
C:\Repository\RISKYKVM\firmware\Bootloader\obj/../User/USB_Host/ch32v20x_usbfs_host.c:502
}
     77c:	5902                	lw	s2,32(sp)
     77e:	4a62                	lw	s4,24(sp)
C:\Repository\RISKYKVM\firmware\Bootloader\obj/../User/USB_Host/ch32v20x_usbfs_host.c:499
    pUSBFS_SetupRequest->wLength = *pcfg_len;
     780:	00f61323          	sh	a5,6(a2)
C:\Repository\RISKYKVM\firmware\Bootloader\obj/../User/USB_Host/ch32v20x_usbfs_host.c:500
    s = USBFSH_CtrlTransfer( ep0_size, pbuf, pcfg_len );
     784:	8636                	mv	a2,a3
C:\Repository\RISKYKVM\firmware\Bootloader\obj/../User/USB_Host/ch32v20x_usbfs_host.c:502
}
     786:	6145                	addi	sp,sp,48
C:\Repository\RISKYKVM\firmware\Bootloader\obj/../User/USB_Host/ch32v20x_usbfs_host.c:500
    s = USBFSH_CtrlTransfer( ep0_size, pbuf, pcfg_len );
     788:	bb9d                	j	4fe <USBFSH_CtrlTransfer>
C:\Repository\RISKYKVM\firmware\Bootloader\obj/../User/USB_Host/ch32v20x_usbfs_host.c:490
        return ERR_USB_BUF_OVER;
     78a:	455d                	li	a0,23
C:\Repository\RISKYKVM\firmware\Bootloader\obj/../User/USB_Host/ch32v20x_usbfs_host.c:502
}
     78c:	50b2                	lw	ra,44(sp)
     78e:	5422                	lw	s0,40(sp)
     790:	5492                	lw	s1,36(sp)
     792:	5902                	lw	s2,32(sp)
     794:	49f2                	lw	s3,28(sp)
     796:	4a62                	lw	s4,24(sp)
     798:	6145                	addi	sp,sp,48
     79a:	8082                	ret

0000079c <USBFSH_SetUsbAddress>:
USBFSH_SetUsbAddress():
C:\Repository\RISKYKVM\firmware\Bootloader\obj/../User/USB_Host/ch32v20x_usbfs_host.c:556
 */
uint8_t USBFSH_SetUsbAddress( uint8_t ep0_size, uint8_t addr )
{
    uint8_t  s;

    memcpy( pUSBFS_SetupRequest, SetupSetAddr, sizeof( USB_SETUP_REQ ) );
     79c:	82418713          	addi	a4,gp,-2012 # 20000084 <SetupSetAddr>
     7a0:	4314                	lw	a3,0(a4)
     7a2:	4358                	lw	a4,4(a4)
C:\Repository\RISKYKVM\firmware\Bootloader\obj/../User/USB_Host/ch32v20x_usbfs_host.c:553
{
     7a4:	1141                	addi	sp,sp,-16
     7a6:	c422                	sw	s0,8(sp)
     7a8:	c226                	sw	s1,4(sp)
C:\Repository\RISKYKVM\firmware\Bootloader\obj/../User/USB_Host/ch32v20x_usbfs_host.c:556
    memcpy( pUSBFS_SetupRequest, SetupSetAddr, sizeof( USB_SETUP_REQ ) );
     7aa:	88d1a423          	sw	a3,-1912(gp) # 200000e8 <TxBuffer>
C:\Repository\RISKYKVM\firmware\Bootloader\obj/../User/USB_Host/ch32v20x_usbfs_host.c:553
{
     7ae:	c606                	sw	ra,12(sp)
C:\Repository\RISKYKVM\firmware\Bootloader\obj/../User/USB_Host/ch32v20x_usbfs_host.c:556
    memcpy( pUSBFS_SetupRequest, SetupSetAddr, sizeof( USB_SETUP_REQ ) );
     7b0:	88818793          	addi	a5,gp,-1912 # 200000e8 <TxBuffer>
C:\Repository\RISKYKVM\firmware\Bootloader\obj/../User/USB_Host/ch32v20x_usbfs_host.c:557
    pUSBFS_SetupRequest->wValue = (uint16_t)addr;
     7b4:	00b79123          	sh	a1,2(a5)
C:\Repository\RISKYKVM\firmware\Bootloader\obj/../User/USB_Host/ch32v20x_usbfs_host.c:553
{
     7b8:	84ae                	mv	s1,a1
C:\Repository\RISKYKVM\firmware\Bootloader\obj/../User/USB_Host/ch32v20x_usbfs_host.c:556
    memcpy( pUSBFS_SetupRequest, SetupSetAddr, sizeof( USB_SETUP_REQ ) );
     7ba:	c3d8                	sw	a4,4(a5)
C:\Repository\RISKYKVM\firmware\Bootloader\obj/../User/USB_Host/ch32v20x_usbfs_host.c:558
    s = USBFSH_CtrlTransfer( ep0_size, NULL, NULL );
     7bc:	4601                	li	a2,0
     7be:	4581                	li	a1,0
     7c0:	3b3d                	jal	4fe <USBFSH_CtrlTransfer>
     7c2:	842a                	mv	s0,a0
C:\Repository\RISKYKVM\firmware\Bootloader\obj/../User/USB_Host/ch32v20x_usbfs_host.c:559
    if( s != ERR_SUCCESS )
     7c4:	e511                	bnez	a0,7d0 <USBFSH_SetUsbAddress+0x34>
C:\Repository\RISKYKVM\firmware\Bootloader\obj/../User/USB_Host/ch32v20x_usbfs_host.c:563
    {
        return s;
    }
    USBFSH_SetSelfAddr( addr );
     7c6:	8526                	mv	a0,s1
     7c8:	3e25                	jal	300 <USBFSH_SetSelfAddr>
C:\Repository\RISKYKVM\firmware\Bootloader\obj/../User/USB_Host/ch32v20x_usbfs_host.c:564
    Delay_Ms( DEF_BUS_RESET_TIME >> 1 ); // Wait for the USB device to complete its operation.
     7ca:	4515                	li	a0,5
     7cc:	22c010ef          	jal	ra,19f8 <Delay_Ms>
C:\Repository\RISKYKVM\firmware\Bootloader\obj/../User/USB_Host/ch32v20x_usbfs_host.c:566
    return ERR_SUCCESS;
}
     7d0:	8522                	mv	a0,s0
     7d2:	40b2                	lw	ra,12(sp)
     7d4:	4422                	lw	s0,8(sp)
     7d6:	4492                	lw	s1,4(sp)
     7d8:	0141                	addi	sp,sp,16
     7da:	8082                	ret

000007dc <USBFSH_SetUsbConfig>:
USBFSH_SetUsbConfig():
C:\Repository\RISKYKVM\firmware\Bootloader\obj/../User/USB_Host/ch32v20x_usbfs_host.c:580
 *
 * @return  The result of setting device configuration.
 */
uint8_t USBFSH_SetUsbConfig( uint8_t ep0_size, uint8_t cfg_val )
{
    memcpy( pUSBFS_SetupRequest, SetupSetConfig, sizeof( USB_SETUP_REQ ) );
     7dc:	82c18713          	addi	a4,gp,-2004 # 2000008c <SetupSetConfig>
     7e0:	4314                	lw	a3,0(a4)
     7e2:	4358                	lw	a4,4(a4)
     7e4:	88d1a423          	sw	a3,-1912(gp) # 200000e8 <TxBuffer>
     7e8:	88818793          	addi	a5,gp,-1912 # 200000e8 <TxBuffer>
C:\Repository\RISKYKVM\firmware\Bootloader\obj/../User/USB_Host/ch32v20x_usbfs_host.c:581
    pUSBFS_SetupRequest->wValue = (uint16_t)cfg_val;
     7ec:	00b79123          	sh	a1,2(a5)
C:\Repository\RISKYKVM\firmware\Bootloader\obj/../User/USB_Host/ch32v20x_usbfs_host.c:580
    memcpy( pUSBFS_SetupRequest, SetupSetConfig, sizeof( USB_SETUP_REQ ) );
     7f0:	c3d8                	sw	a4,4(a5)
C:\Repository\RISKYKVM\firmware\Bootloader\obj/../User/USB_Host/ch32v20x_usbfs_host.c:582
    return USBFSH_CtrlTransfer( ep0_size, NULL, NULL );
     7f2:	4601                	li	a2,0
     7f4:	4581                	li	a1,0
     7f6:	b321                	j	4fe <USBFSH_CtrlTransfer>

000007f8 <USBFSH_ClearEndpStall>:
USBFSH_ClearEndpStall():
C:\Repository\RISKYKVM\firmware\Bootloader\obj/../User/USB_Host/ch32v20x_usbfs_host.c:597
 *
 * @return  The result of clearing endpoint stall.
 */
uint8_t USBFSH_ClearEndpStall( uint8_t ep0_size, uint8_t endp_num )
{
    memcpy( pUSBFS_SetupRequest, SetupClearEndpStall, sizeof( USB_SETUP_REQ ) );
     7f8:	80c18713          	addi	a4,gp,-2036 # 2000006c <SetupClearEndpStall>
     7fc:	4314                	lw	a3,0(a4)
     7fe:	4358                	lw	a4,4(a4)
     800:	88d1a423          	sw	a3,-1912(gp) # 200000e8 <TxBuffer>
     804:	88818793          	addi	a5,gp,-1912 # 200000e8 <TxBuffer>
     808:	c3d8                	sw	a4,4(a5)
C:\Repository\RISKYKVM\firmware\Bootloader\obj/../User/USB_Host/ch32v20x_usbfs_host.c:598
    pUSBFS_SetupRequest->wIndex = (uint16_t)endp_num;
     80a:	00b79223          	sh	a1,4(a5)
C:\Repository\RISKYKVM\firmware\Bootloader\obj/../User/USB_Host/ch32v20x_usbfs_host.c:599
    return USBFSH_CtrlTransfer( ep0_size, NULL, NULL );
     80e:	4601                	li	a2,0
     810:	4581                	li	a1,0
     812:	b1f5                	j	4fe <USBFSH_CtrlTransfer>

00000814 <IAP_Flash_Read>:
IAP_Flash_Read():
C:\Repository\RISKYKVM\firmware\Bootloader\obj/../User/Host_IAP/usb_host_iap.c:106
    uint32_t read_len;
    read_addr = address;
    read_len = length;

    /* Verify Keys, No flash operation if keys are not correct */
    if((Flash_Operation_Key0 != DEF_FLASH_OPERATION_KEY_CODE_0) || (Flash_Operation_Key1 != DEF_FLASH_OPERATION_KEY_CODE_1))
     814:	e141a703          	lw	a4,-492(gp) # 20000674 <Flash_Operation_Key0>
     818:	1a8707b7          	lui	a5,0x1a870
     81c:	f0078793          	addi	a5,a5,-256 # 1a86ff00 <_bootloader_limit+0x1a867f00>
     820:	04f71463          	bne	a4,a5,868 <IAP_Flash_Read+0x54>
C:\Repository\RISKYKVM\firmware\Bootloader\obj/../User/Host_IAP/usb_host_iap.c:106 (discriminator 1)
     824:	8c81a683          	lw	a3,-1848(gp) # 20000128 <Flash_Operation_Key1>
     828:	55aa5737          	lui	a4,0x55aa5
     82c:	5aa70713          	addi	a4,a4,1450 # 55aa55aa <_eusrstack+0x35aa05aa>
C:\Repository\RISKYKVM\firmware\Bootloader\obj/../User/Host_IAP/usb_host_iap.c:109 (discriminator 1)
    {
        /* ERR: Risk of code running away */
        return 0xFF;
     830:	0ff00793          	li	a5,255
C:\Repository\RISKYKVM\firmware\Bootloader\obj/../User/Host_IAP/usb_host_iap.c:106 (discriminator 1)
    if((Flash_Operation_Key0 != DEF_FLASH_OPERATION_KEY_CODE_0) || (Flash_Operation_Key1 != DEF_FLASH_OPERATION_KEY_CODE_1))
     834:	00e69b63          	bne	a3,a4,84a <IAP_Flash_Read+0x36>
C:\Repository\RISKYKVM\firmware\Bootloader\obj/../User/Host_IAP/usb_host_iap.c:113
    }

    /* Verify Address, No flash operation if the address is out of range */
    if(((read_addr >= DEF_APP_CODE_START_ADDR) && (read_addr <= DEF_APP_CODE_END_ADDR)))
     838:	f7ff8737          	lui	a4,0xf7ff8
     83c:	972a                	add	a4,a4,a0
     83e:	66a1                	lui	a3,0x8
C:\Repository\RISKYKVM\firmware\Bootloader\obj/../User/Host_IAP/usb_host_iap.c:116
    {
        /* Available Data */
        for(i = 0; i < read_len; i++)
     840:	4781                	li	a5,0
C:\Repository\RISKYKVM\firmware\Bootloader\obj/../User/Host_IAP/usb_host_iap.c:113
    if(((read_addr >= DEF_APP_CODE_START_ADDR) && (read_addr <= DEF_APP_CODE_END_ADDR)))
     842:	00e6ff63          	bgeu	a3,a4,860 <IAP_Flash_Read+0x4c>
C:\Repository\RISKYKVM\firmware\Bootloader\obj/../User/Host_IAP/usb_host_iap.c:134
        }
    }
    else
    {
        /* address Out Of Range */
        return 0xFE;
     846:	0fe00793          	li	a5,254
C:\Repository\RISKYKVM\firmware\Bootloader\obj/../User/Host_IAP/usb_host_iap.c:138
    }

    return 0;
}
     84a:	853e                	mv	a0,a5
     84c:	8082                	ret
C:\Repository\RISKYKVM\firmware\Bootloader\obj/../User/Host_IAP/usb_host_iap.c:118
            buff[i] = *(__IO uint8_t*)read_addr;//Read one word of data at the specified address
     84e:	00f50733          	add	a4,a0,a5
     852:	00074683          	lbu	a3,0(a4) # f7ff8000 <_eusrstack+0xd7ff3000>
     856:	00f58733          	add	a4,a1,a5
C:\Repository\RISKYKVM\firmware\Bootloader\obj/../User/Host_IAP/usb_host_iap.c:116
        for(i = 0; i < read_len; i++)
     85a:	0785                	addi	a5,a5,1
C:\Repository\RISKYKVM\firmware\Bootloader\obj/../User/Host_IAP/usb_host_iap.c:118
            buff[i] = *(__IO uint8_t*)read_addr;//Read one word of data at the specified address
     85c:	00d70023          	sb	a3,0(a4)
C:\Repository\RISKYKVM\firmware\Bootloader\obj/../User/Host_IAP/usb_host_iap.c:116
        for(i = 0; i < read_len; i++)
     860:	fef617e3          	bne	a2,a5,84e <IAP_Flash_Read+0x3a>
C:\Repository\RISKYKVM\firmware\Bootloader\obj/../User/Host_IAP/usb_host_iap.c:137
    return 0;
     864:	4781                	li	a5,0
     866:	b7d5                	j	84a <IAP_Flash_Read+0x36>
C:\Repository\RISKYKVM\firmware\Bootloader\obj/../User/Host_IAP/usb_host_iap.c:109
        return 0xFF;
     868:	0ff00793          	li	a5,255
     86c:	bff9                	j	84a <IAP_Flash_Read+0x36>

0000086e <IAP_Flash_Write>:
IAP_Flash_Write():
C:\Repository\RISKYKVM\firmware\Bootloader\obj/../User/Host_IAP/usb_host_iap.c:169
 *
 * @return  0: Operation Success
 *          See notes for other errors
 */
uint8_t IAP_Flash_Write(uint32_t address, uint8_t* buff, uint32_t length)
{
     86e:	7169                	addi	sp,sp,-304
     870:	12812423          	sw	s0,296(sp)
     874:	12112623          	sw	ra,300(sp)
     878:	12912223          	sw	s1,292(sp)
     87c:	13212023          	sw	s2,288(sp)
     880:	11312e23          	sw	s3,284(sp)
     884:	11412c23          	sw	s4,280(sp)
     888:	11512a23          	sw	s5,276(sp)
     88c:	11612823          	sw	s6,272(sp)
C:\Repository\RISKYKVM\firmware\Bootloader\obj/../User/Host_IAP/usb_host_iap.c:181
    volatile uint32_t page_addr;
    uint8_t temp_buf[DEF_FLASH_PAGE_SIZE];

    /* Set initial value */
    write_addr = address;
    page_addr = address;
     890:	c62a                	sw	a0,12(sp)
C:\Repository\RISKYKVM\firmware\Bootloader\obj/../User/Host_IAP/usb_host_iap.c:183
    write_len = length;
    if((write_len % DEF_FLASH_PAGE_SIZE) == 0)
     892:	0ff67713          	andi	a4,a2,255
C:\Repository\RISKYKVM\firmware\Bootloader\obj/../User/Host_IAP/usb_host_iap.c:169
{
     896:	8432                	mv	s0,a2
     898:	00865793          	srli	a5,a2,0x8
C:\Repository\RISKYKVM\firmware\Bootloader\obj/../User/Host_IAP/usb_host_iap.c:183
    if((write_len % DEF_FLASH_PAGE_SIZE) == 0)
     89c:	ef15                	bnez	a4,8d8 <IAP_Flash_Write+0x6a>
C:\Repository\RISKYKVM\firmware\Bootloader\obj/../User/Host_IAP/usb_host_iap.c:189
    {
        page_cnts = write_len / DEF_FLASH_PAGE_SIZE;
    }
    else
    {
        page_cnts = (write_len / DEF_FLASH_PAGE_SIZE) + 1;
     89e:	c43e                	sw	a5,8(sp)
C:\Repository\RISKYKVM\firmware\Bootloader\obj/../User/Host_IAP/usb_host_iap.c:194
    }
    write_cnts = 0;

    /* Verify Keys, No flash operation if keys are not correct */
    if((Flash_Operation_Key0 != DEF_FLASH_OPERATION_KEY_CODE_0) || (Flash_Operation_Key1 != DEF_FLASH_OPERATION_KEY_CODE_1))
     8a0:	e141a703          	lw	a4,-492(gp) # 20000674 <Flash_Operation_Key0>
     8a4:	1a8707b7          	lui	a5,0x1a870
     8a8:	f0078793          	addi	a5,a5,-256 # 1a86ff00 <_bootloader_limit+0x1a867f00>
     8ac:	02f70863          	beq	a4,a5,8dc <IAP_Flash_Write+0x6e>
C:\Repository\RISKYKVM\firmware\Bootloader\obj/../User/Host_IAP/usb_host_iap.c:197
    {
        /* ERR: Risk of code running away */
        return 0xFF;
     8b0:	0ff00513          	li	a0,255
C:\Repository\RISKYKVM\firmware\Bootloader\obj/../User/Host_IAP/usb_host_iap.c:250
        /* address Out Of Range */
        return 0xFE;
    }

    return 0;
}
     8b4:	12c12083          	lw	ra,300(sp)
     8b8:	12812403          	lw	s0,296(sp)
     8bc:	12412483          	lw	s1,292(sp)
     8c0:	12012903          	lw	s2,288(sp)
     8c4:	11c12983          	lw	s3,284(sp)
     8c8:	11812a03          	lw	s4,280(sp)
     8cc:	11412a83          	lw	s5,276(sp)
     8d0:	11012b03          	lw	s6,272(sp)
     8d4:	6155                	addi	sp,sp,304
     8d6:	8082                	ret
C:\Repository\RISKYKVM\firmware\Bootloader\obj/../User/Host_IAP/usb_host_iap.c:189
        page_cnts = (write_len / DEF_FLASH_PAGE_SIZE) + 1;
     8d8:	0785                	addi	a5,a5,1
     8da:	b7d1                	j	89e <IAP_Flash_Write+0x30>
C:\Repository\RISKYKVM\firmware\Bootloader\obj/../User/Host_IAP/usb_host_iap.c:194 (discriminator 1)
    if((Flash_Operation_Key0 != DEF_FLASH_OPERATION_KEY_CODE_0) || (Flash_Operation_Key1 != DEF_FLASH_OPERATION_KEY_CODE_1))
     8dc:	8c81a683          	lw	a3,-1848(gp) # 20000128 <Flash_Operation_Key1>
     8e0:	55aa57b7          	lui	a5,0x55aa5
     8e4:	5aa78793          	addi	a5,a5,1450 # 55aa55aa <_eusrstack+0x35aa05aa>
     8e8:	fcf694e3          	bne	a3,a5,8b0 <IAP_Flash_Write+0x42>
C:\Repository\RISKYKVM\firmware\Bootloader\obj/../User/Host_IAP/usb_host_iap.c:201
    if(((write_addr >= DEF_APP_CODE_START_ADDR) && (write_addr <= DEF_APP_CODE_END_ADDR)))
     8ec:	f7ff87b7          	lui	a5,0xf7ff8
     8f0:	97aa                	add	a5,a5,a0
     8f2:	66a1                	lui	a3,0x8
C:\Repository\RISKYKVM\firmware\Bootloader\obj/../User/Host_IAP/usb_host_iap.c:246
        return 0xFE;
     8f4:	0fe00513          	li	a0,254
C:\Repository\RISKYKVM\firmware\Bootloader\obj/../User/Host_IAP/usb_host_iap.c:201
    if(((write_addr >= DEF_APP_CODE_START_ADDR) && (write_addr <= DEF_APP_CODE_END_ADDR)))
     8f8:	faf6eee3          	bltu	a3,a5,8b4 <IAP_Flash_Write+0x46>
     8fc:	84ae                	mv	s1,a1
C:\Repository\RISKYKVM\firmware\Bootloader\obj/../User/Host_IAP/usb_host_iap.c:203
        for(i = 0; i < page_cnts; i++)
     8fe:	4a81                	li	s5,0
C:\Repository\RISKYKVM\firmware\Bootloader\obj/../User/Host_IAP/usb_host_iap.c:206
            if(Flash_Operation_Key0 != DEF_FLASH_OPERATION_KEY_CODE_0)
     900:	8a3a                	mv	s4,a4
C:\Repository\RISKYKVM\firmware\Bootloader\obj/../User/Host_IAP/usb_host_iap.c:216
            if(write_len < DEF_FLASH_PAGE_SIZE)
     902:	0ff00b13          	li	s6,255
C:\Repository\RISKYKVM\firmware\Bootloader\obj/../User/Host_IAP/usb_host_iap.c:203 (discriminator 1)
        for(i = 0; i < page_cnts; i++)
     906:	47a2                	lw	a5,8(sp)
     908:	00fae663          	bltu	s5,a5,914 <IAP_Flash_Write+0xa6>
C:\Repository\RISKYKVM\firmware\Bootloader\obj/../User/Host_IAP/usb_host_iap.c:241
        FLASH_Lock_Fast();
     90c:	66b000ef          	jal	ra,1776 <FLASH_Lock_Fast>
C:\Repository\RISKYKVM\firmware\Bootloader\obj/../User/Host_IAP/usb_host_iap.c:249
    return 0;
     910:	4501                	li	a0,0
     912:	b74d                	j	8b4 <IAP_Flash_Write+0x46>
C:\Repository\RISKYKVM\firmware\Bootloader\obj/../User/Host_IAP/usb_host_iap.c:206
            if(Flash_Operation_Key0 != DEF_FLASH_OPERATION_KEY_CODE_0)
     914:	e141a783          	lw	a5,-492(gp) # 20000674 <Flash_Operation_Key0>
     918:	f9479ce3          	bne	a5,s4,8b0 <IAP_Flash_Write+0x42>
C:\Repository\RISKYKVM\firmware\Bootloader\obj/../User/Host_IAP/usb_host_iap.c:214
            FLASH_Unlock_Fast();
     91c:	63d000ef          	jal	ra,1758 <FLASH_Unlock_Fast>
C:\Repository\RISKYKVM\firmware\Bootloader\obj/../User/Host_IAP/usb_host_iap.c:215
            FLASH_ErasePage_Fast(page_addr);
     920:	4532                	lw	a0,12(sp)
     922:	663000ef          	jal	ra,1784 <FLASH_ErasePage_Fast>
C:\Repository\RISKYKVM\firmware\Bootloader\obj/../User/Host_IAP/usb_host_iap.c:216
            if(write_len < DEF_FLASH_PAGE_SIZE)
     926:	048b6863          	bltu	s6,s0,976 <IAP_Flash_Write+0x108>
C:\Repository\RISKYKVM\firmware\Bootloader\obj/../User/Host_IAP/usb_host_iap.c:218
                FLASH_Unlock_Fast();
     92a:	62f000ef          	jal	ra,1758 <FLASH_Unlock_Fast>
C:\Repository\RISKYKVM\firmware\Bootloader\obj/../User/Host_IAP/usb_host_iap.c:219
                IAP_Flash_Read(page_addr, temp_buf, DEF_FLASH_PAGE_SIZE);
     92e:	4532                	lw	a0,12(sp)
     930:	10000613          	li	a2,256
     934:	080c                	addi	a1,sp,16
     936:	3df9                	jal	814 <IAP_Flash_Read>
C:\Repository\RISKYKVM\firmware\Bootloader\obj/../User/Host_IAP/usb_host_iap.c:221
                for(j = 0; j < write_len; j++)
     938:	4781                	li	a5,0
C:\Repository\RISKYKVM\firmware\Bootloader\obj/../User/Host_IAP/usb_host_iap.c:221 (discriminator 1)
     93a:	02879463          	bne	a5,s0,962 <IAP_Flash_Write+0xf4>
C:\Repository\RISKYKVM\firmware\Bootloader\obj/../User/Host_IAP/usb_host_iap.c:226
                mFLASH_ProgramPage_Fast(page_addr, (u32*)&temp_buf[0]);
     93e:	4532                	lw	a0,12(sp)
C:\Repository\RISKYKVM\firmware\Bootloader\obj/../User/Host_IAP/usb_host_iap.c:225
                write_len_once = write_len;
     940:	01041993          	slli	s3,s0,0x10
mFLASH_ProgramPage_Fast():
C:\Repository\RISKYKVM\firmware\Bootloader\obj/../User/Host_IAP/usb_host_iap.c:154
    FLASH_ProgramPage_Fast( addr, buffer );
     944:	080c                	addi	a1,sp,16
IAP_Flash_Write():
C:\Repository\RISKYKVM\firmware\Bootloader\obj/../User/Host_IAP/usb_host_iap.c:225
                write_len_once = write_len;
     946:	0109d993          	srli	s3,s3,0x10
mFLASH_ProgramPage_Fast():
C:\Repository\RISKYKVM\firmware\Bootloader\obj/../User/Host_IAP/usb_host_iap.c:154
    FLASH_ProgramPage_Fast( addr, buffer );
     94a:	669000ef          	jal	ra,17b2 <FLASH_ProgramPage_Fast>
IAP_Flash_Write():
C:\Repository\RISKYKVM\firmware\Bootloader\obj/../User/Host_IAP/usb_host_iap.c:232 (discriminator 2)
            page_addr += DEF_FLASH_PAGE_SIZE;
     94e:	47b2                	lw	a5,12(sp)
C:\Repository\RISKYKVM\firmware\Bootloader\obj/../User/Host_IAP/usb_host_iap.c:233 (discriminator 2)
            write_len -= write_len_once;
     950:	41340433          	sub	s0,s0,s3
C:\Repository\RISKYKVM\firmware\Bootloader\obj/../User/Host_IAP/usb_host_iap.c:234 (discriminator 2)
            write_cnts++;
     954:	0a85                	addi	s5,s5,1
C:\Repository\RISKYKVM\firmware\Bootloader\obj/../User/Host_IAP/usb_host_iap.c:232 (discriminator 2)
            page_addr += DEF_FLASH_PAGE_SIZE;
     956:	10078793          	addi	a5,a5,256 # f7ff8100 <_eusrstack+0xd7ff3100>
     95a:	c63e                	sw	a5,12(sp)
C:\Repository\RISKYKVM\firmware\Bootloader\obj/../User/Host_IAP/usb_host_iap.c:234 (discriminator 2)
            write_cnts++;
     95c:	10048493          	addi	s1,s1,256
     960:	b75d                	j	906 <IAP_Flash_Write+0x98>
C:\Repository\RISKYKVM\firmware\Bootloader\obj/../User/Host_IAP/usb_host_iap.c:223 (discriminator 3)
                    temp_buf[j] = buff[DEF_FLASH_PAGE_SIZE * i + j];
     962:	00f486b3          	add	a3,s1,a5
     966:	0006c683          	lbu	a3,0(a3) # 8000 <_bootloader_limit>
     96a:	0818                	addi	a4,sp,16
     96c:	973e                	add	a4,a4,a5
     96e:	00d70023          	sb	a3,0(a4)
C:\Repository\RISKYKVM\firmware\Bootloader\obj/../User/Host_IAP/usb_host_iap.c:221 (discriminator 3)
                for(j = 0; j < write_len; j++)
     972:	0785                	addi	a5,a5,1
     974:	b7d9                	j	93a <IAP_Flash_Write+0xcc>
C:\Repository\RISKYKVM\firmware\Bootloader\obj/../User/Host_IAP/usb_host_iap.c:230
                mFLASH_ProgramPage_Fast(page_addr, (u32*)&buff[DEF_FLASH_PAGE_SIZE * i]);
     976:	4532                	lw	a0,12(sp)
mFLASH_ProgramPage_Fast():
C:\Repository\RISKYKVM\firmware\Bootloader\obj/../User/Host_IAP/usb_host_iap.c:154
    FLASH_ProgramPage_Fast( addr, buffer );
     978:	85a6                	mv	a1,s1
IAP_Flash_Write():
C:\Repository\RISKYKVM\firmware\Bootloader\obj/../User/Host_IAP/usb_host_iap.c:213
            write_len_once = DEF_FLASH_PAGE_SIZE;
     97a:	10000993          	li	s3,256
mFLASH_ProgramPage_Fast():
C:\Repository\RISKYKVM\firmware\Bootloader\obj/../User/Host_IAP/usb_host_iap.c:154
    FLASH_ProgramPage_Fast( addr, buffer );
     97e:	635000ef          	jal	ra,17b2 <FLASH_ProgramPage_Fast>
C:\Repository\RISKYKVM\firmware\Bootloader\obj/../User/Host_IAP/usb_host_iap.c:155
    return 0;
     982:	b7f1                	j	94e <IAP_Flash_Write+0xe0>

00000984 <IAP_Flash_Verify>:
IAP_Flash_Verify():
C:\Repository\RISKYKVM\firmware\Bootloader\obj/../User/Host_IAP/usb_host_iap.c:329
    /* Set initial value */
    read_addr = address;
    read_len = length;

    /* Verify Keys, No flash operation if keys are not correct */
    if((Flash_Operation_Key0 != DEF_FLASH_OPERATION_KEY_CODE_0) || (Flash_Operation_Key1 != DEF_FLASH_OPERATION_KEY_CODE_1))
     984:	e141a703          	lw	a4,-492(gp) # 20000674 <Flash_Operation_Key0>
     988:	1a8707b7          	lui	a5,0x1a870
     98c:	f0078793          	addi	a5,a5,-256 # 1a86ff00 <_bootloader_limit+0x1a867f00>
     990:	04f71363          	bne	a4,a5,9d6 <IAP_Flash_Verify+0x52>
C:\Repository\RISKYKVM\firmware\Bootloader\obj/../User/Host_IAP/usb_host_iap.c:329 (discriminator 1)
     994:	8c81a683          	lw	a3,-1848(gp) # 20000128 <Flash_Operation_Key1>
     998:	55aa5737          	lui	a4,0x55aa5
     99c:	5aa70713          	addi	a4,a4,1450 # 55aa55aa <_eusrstack+0x35aa05aa>
C:\Repository\RISKYKVM\firmware\Bootloader\obj/../User/Host_IAP/usb_host_iap.c:332 (discriminator 1)
    {
        /* ERR: Risk of code running away */
        return 0xFFFFFFFF;
     9a0:	57fd                	li	a5,-1
C:\Repository\RISKYKVM\firmware\Bootloader\obj/../User/Host_IAP/usb_host_iap.c:329 (discriminator 1)
    if((Flash_Operation_Key0 != DEF_FLASH_OPERATION_KEY_CODE_0) || (Flash_Operation_Key1 != DEF_FLASH_OPERATION_KEY_CODE_1))
     9a2:	02e69863          	bne	a3,a4,9d2 <IAP_Flash_Verify+0x4e>
C:\Repository\RISKYKVM\firmware\Bootloader\obj/../User/Host_IAP/usb_host_iap.c:336
    }

    /* Verify Address, No flash operation if the address is out of range */
    if(((read_addr >= DEF_APP_CODE_START_ADDR) && (read_addr <= DEF_APP_CODE_END_ADDR)))
     9a6:	f7ff87b7          	lui	a5,0xf7ff8
     9aa:	97aa                	add	a5,a5,a0
     9ac:	6721                	lui	a4,0x8
     9ae:	00f77463          	bgeu	a4,a5,9b6 <IAP_Flash_Verify+0x32>
C:\Repository\RISKYKVM\firmware\Bootloader\obj/../User/Host_IAP/usb_host_iap.c:349
            }
            read_addr ++;
        }
    }

    return 0;
     9b2:	4781                	li	a5,0
     9b4:	a839                	j	9d2 <IAP_Flash_Verify+0x4e>
C:\Repository\RISKYKVM\firmware\Bootloader\obj/../User/Host_IAP/usb_host_iap.c:338
        for(i = 0; i < read_len; i++)
     9b6:	4781                	li	a5,0
     9b8:	fef60de3          	beq	a2,a5,9b2 <IAP_Flash_Verify+0x2e>
FLASH_ReadByte():
C:\Repository\RISKYKVM\firmware\Bootloader\obj/../User/Host_IAP/usb_host_iap.c:43
    return *(__IO uint8_t*)address;
     9bc:	00f50733          	add	a4,a0,a5
IAP_Flash_Verify():
C:\Repository\RISKYKVM\firmware\Bootloader\obj/../User/Host_IAP/usb_host_iap.c:340
            if(FLASH_ReadByte(read_addr) != buff[i])
     9c0:	00f586b3          	add	a3,a1,a5
FLASH_ReadByte():
C:\Repository\RISKYKVM\firmware\Bootloader\obj/../User/Host_IAP/usb_host_iap.c:43
    return *(__IO uint8_t*)address;
     9c4:	00074703          	lbu	a4,0(a4) # 8000 <_bootloader_limit>
IAP_Flash_Verify():
C:\Repository\RISKYKVM\firmware\Bootloader\obj/../User/Host_IAP/usb_host_iap.c:340
            if(FLASH_ReadByte(read_addr) != buff[i])
     9c8:	0006c683          	lbu	a3,0(a3)
     9cc:	0785                	addi	a5,a5,1
     9ce:	fee685e3          	beq	a3,a4,9b8 <IAP_Flash_Verify+0x34>
C:\Repository\RISKYKVM\firmware\Bootloader\obj/../User/Host_IAP/usb_host_iap.c:350
}
     9d2:	853e                	mv	a0,a5
     9d4:	8082                	ret
C:\Repository\RISKYKVM\firmware\Bootloader\obj/../User/Host_IAP/usb_host_iap.c:332
        return 0xFFFFFFFF;
     9d6:	57fd                	li	a5,-1
     9d8:	bfed                	j	9d2 <IAP_Flash_Verify+0x4e>

000009da <IAP_Flash_Program>:
IAP_Flash_Program():
C:\Repository\RISKYKVM\firmware\Bootloader\obj/../User/Host_IAP/usb_host_iap.c:363
 *
 * @return  ret : The meaning of 'ret' can be found in the notes of the
 *          corresponding function.
 */
uint32_t IAP_Flash_Program(uint32_t address, uint8_t* buff, uint32_t length)
{
     9da:	1101                	addi	sp,sp,-32
     9dc:	ca26                	sw	s1,20(sp)
C:\Repository\RISKYKVM\firmware\Bootloader\obj/../User/Host_IAP/usb_host_iap.c:366
    uint32_t ret;
    /* IAP Write */
    Flash_Operation_Key1 = DEF_FLASH_OPERATION_KEY_CODE_1;
     9de:	55aa54b7          	lui	s1,0x55aa5
C:\Repository\RISKYKVM\firmware\Bootloader\obj/../User/Host_IAP/usb_host_iap.c:363
{
     9e2:	cc22                	sw	s0,24(sp)
C:\Repository\RISKYKVM\firmware\Bootloader\obj/../User/Host_IAP/usb_host_iap.c:366
    Flash_Operation_Key1 = DEF_FLASH_OPERATION_KEY_CODE_1;
     9e4:	5aa48493          	addi	s1,s1,1450 # 55aa55aa <_eusrstack+0x35aa05aa>
C:\Repository\RISKYKVM\firmware\Bootloader\obj/../User/Host_IAP/usb_host_iap.c:363
{
     9e8:	c84a                	sw	s2,16(sp)
     9ea:	c64e                	sw	s3,12(sp)
     9ec:	c452                	sw	s4,8(sp)
     9ee:	ce06                	sw	ra,28(sp)
     9f0:	892a                	mv	s2,a0
     9f2:	89ae                	mv	s3,a1
     9f4:	8a32                	mv	s4,a2
C:\Repository\RISKYKVM\firmware\Bootloader\obj/../User/Host_IAP/usb_host_iap.c:366
    Flash_Operation_Key1 = DEF_FLASH_OPERATION_KEY_CODE_1;
     9f6:	8c91a423          	sw	s1,-1848(gp) # 20000128 <Flash_Operation_Key1>
C:\Repository\RISKYKVM\firmware\Bootloader\obj/../User/Host_IAP/usb_host_iap.c:367
    ret = IAP_Flash_Write(address, buff, length);
     9fa:	3d95                	jal	86e <IAP_Flash_Write>
C:\Repository\RISKYKVM\firmware\Bootloader\obj/../User/Host_IAP/usb_host_iap.c:368
    Flash_Operation_Key1 = 0;
     9fc:	8c01a423          	sw	zero,-1848(gp) # 20000128 <Flash_Operation_Key1>
C:\Repository\RISKYKVM\firmware\Bootloader\obj/../User/Host_IAP/usb_host_iap.c:369
    if(ret != 0)
     a00:	e909                	bnez	a0,a12 <IAP_Flash_Program+0x38>
C:\Repository\RISKYKVM\firmware\Bootloader\obj/../User/Host_IAP/usb_host_iap.c:375
    {
        return ret;
    }
    /* IAP Verify */
    Flash_Operation_Key1 = DEF_FLASH_OPERATION_KEY_CODE_1;
    ret = IAP_Flash_Verify(address, buff, length);
     a02:	8652                	mv	a2,s4
     a04:	85ce                	mv	a1,s3
     a06:	854a                	mv	a0,s2
C:\Repository\RISKYKVM\firmware\Bootloader\obj/../User/Host_IAP/usb_host_iap.c:374
    Flash_Operation_Key1 = DEF_FLASH_OPERATION_KEY_CODE_1;
     a08:	8c91a423          	sw	s1,-1848(gp) # 20000128 <Flash_Operation_Key1>
C:\Repository\RISKYKVM\firmware\Bootloader\obj/../User/Host_IAP/usb_host_iap.c:375
    ret = IAP_Flash_Verify(address, buff, length);
     a0c:	3fa5                	jal	984 <IAP_Flash_Verify>
C:\Repository\RISKYKVM\firmware\Bootloader\obj/../User/Host_IAP/usb_host_iap.c:376
    Flash_Operation_Key1 = 0;
     a0e:	8c01a423          	sw	zero,-1848(gp) # 20000128 <Flash_Operation_Key1>
C:\Repository\RISKYKVM\firmware\Bootloader\obj/../User/Host_IAP/usb_host_iap.c:383
    {
        return ret;
    }

    return ret;
}
     a12:	40f2                	lw	ra,28(sp)
     a14:	4462                	lw	s0,24(sp)
     a16:	44d2                	lw	s1,20(sp)
     a18:	4942                	lw	s2,16(sp)
     a1a:	49b2                	lw	s3,12(sp)
     a1c:	4a22                	lw	s4,8(sp)
     a1e:	6105                	addi	sp,sp,32
     a20:	8082                	ret

00000a22 <IAP_Jump_APP>:
IAP_Jump_APP():
C:\Repository\RISKYKVM\firmware\Bootloader\obj/../User/Host_IAP/usb_host_iap.c:409
 * @brief   Start the Operation of jumping to user application
 *
 * @return  none
 */
void IAP_Jump_APP(void)
{
     a22:	1141                	addi	sp,sp,-16
     a24:	c606                	sw	ra,12(sp)
C:\Repository\RISKYKVM\firmware\Bootloader\obj/../User/Host_IAP/usb_host_iap.c:410
    DeInitStuff();
     a26:	049000ef          	jal	ra,126e <DeInitStuff>
C:\Repository\RISKYKVM\firmware\Bootloader\obj/../User/Host_IAP/usb_host_iap.c:411
    __asm("j _bootloader_limit");
     a2a:	5d60706f          	j	8000 <_bootloader_limit>
C:\Repository\RISKYKVM\firmware\Bootloader\obj/../User/Host_IAP/usb_host_iap.c:412
}
     a2e:	40b2                	lw	ra,12(sp)
     a30:	0141                	addi	sp,sp,16
     a32:	8082                	ret

00000a34 <mStopIfError>:
mStopIfError():
C:\Repository\RISKYKVM\firmware\Bootloader\obj/../User/Host_IAP/usb_host_iap.c:425
 *
 * @return  none
 */
void mStopIfError( uint8_t iError )
{
    if ( iError == ERR_SUCCESS )
     a34:	c919                	beqz	a0,a4a <mStopIfError+0x16>
     a36:	85aa                	mv	a1,a0
C:\Repository\RISKYKVM\firmware\Bootloader\obj/../User/Host_IAP/usb_host_iap.c:431
    {
        /* operation success, return */
        return;
    }
    /* Display the errors */
    DUG_PRINTF( "Error:%02x\r\n", iError );
     a38:	00005537          	lui	a0,0x5
C:\Repository\RISKYKVM\firmware\Bootloader\obj/../User/Host_IAP/usb_host_iap.c:424
{
     a3c:	1141                	addi	sp,sp,-16
C:\Repository\RISKYKVM\firmware\Bootloader\obj/../User/Host_IAP/usb_host_iap.c:431
    DUG_PRINTF( "Error:%02x\r\n", iError );
     a3e:	b0450513          	addi	a0,a0,-1276 # 4b04 <_read+0x2b0>
C:\Repository\RISKYKVM\firmware\Bootloader\obj/../User/Host_IAP/usb_host_iap.c:424
{
     a42:	c606                	sw	ra,12(sp)
C:\Repository\RISKYKVM\firmware\Bootloader\obj/../User/Host_IAP/usb_host_iap.c:431
    DUG_PRINTF( "Error:%02x\r\n", iError );
     a44:	309020ef          	jal	ra,354c <iprintf>
C:\Repository\RISKYKVM\firmware\Bootloader\obj/../User/Host_IAP/usb_host_iap.c:440 (discriminator 1)
     * Suggested steps to follow after an error:
     *     1, call CHRV3DiskReady once, if successful, then continue the operation, such as Open, Read/Write, etc.
     *     2?If CHRV3DiskReady is not successful, then the operation will be forced to start from the beginning.
     */
    while(1)
    {  }
     a48:	a001                	j	a48 <mStopIfError+0x14>
     a4a:	8082                	ret

00000a4c <IAP_Initialization>:
IAP_Initialization():
C:\Repository\RISKYKVM\firmware\Bootloader\obj/../User/Host_IAP/usb_host_iap.c:459
void IAP_Initialization( void )
{


    /* USB Host Initialization */
    DUG_PRINTF( "USB Host & UDisk Lib Initialization. \r\n" );
     a4c:	00005537          	lui	a0,0x5
C:\Repository\RISKYKVM\firmware\Bootloader\obj/../User/Host_IAP/usb_host_iap.c:455
{
     a50:	1141                	addi	sp,sp,-16
C:\Repository\RISKYKVM\firmware\Bootloader\obj/../User/Host_IAP/usb_host_iap.c:459
    DUG_PRINTF( "USB Host & UDisk Lib Initialization. \r\n" );
     a52:	86050513          	addi	a0,a0,-1952 # 4860 <_read+0xc>
C:\Repository\RISKYKVM\firmware\Bootloader\obj/../User/Host_IAP/usb_host_iap.c:455
{
     a56:	c606                	sw	ra,12(sp)
C:\Repository\RISKYKVM\firmware\Bootloader\obj/../User/Host_IAP/usb_host_iap.c:459
    DUG_PRINTF( "USB Host & UDisk Lib Initialization. \r\n" );
     a58:	439020ef          	jal	ra,3690 <puts>
C:\Repository\RISKYKVM\firmware\Bootloader\obj/../User/Host_IAP/usb_host_iap.c:461
    /* Initialize USBFS host */
    DUG_PRINTF( "USBFS Host Init\r\n" );
     a5c:	00005537          	lui	a0,0x5
     a60:	88850513          	addi	a0,a0,-1912 # 4888 <_read+0x34>
     a64:	42d020ef          	jal	ra,3690 <puts>
C:\Repository\RISKYKVM\firmware\Bootloader\obj/../User/Host_IAP/usb_host_iap.c:462
    USBFS_RCC_Init( );
     a68:	fa6ff0ef          	jal	ra,20e <USBFS_RCC_Init>
C:\Repository\RISKYKVM\firmware\Bootloader\obj/../User/Host_IAP/usb_host_iap.c:463
    USBFS_Host_Init( ENABLE );
     a6c:	4505                	li	a0,1
     a6e:	fe6ff0ef          	jal	ra,254 <USBFS_Host_Init>
C:\Repository\RISKYKVM\firmware\Bootloader\obj/../User/Host_IAP/usb_host_iap.c:464
    memset( &RootHubDev[ DEF_USB_PORT_FS ].bStatus, 0, sizeof( struct _ROOT_HUB_DEVICE ) );
     a72:	467d                	li	a2,31
     a74:	4581                	li	a1,0
     a76:	df018513          	addi	a0,gp,-528 # 20000650 <RootHubDev>
     a7a:	ec6ff0ef          	jal	ra,140 <memset>
C:\Repository\RISKYKVM\firmware\Bootloader\obj/../User/Host_IAP/usb_host_iap.c:465
    memset( &HostCtl[ DEF_USB_PORT_FS ].InterfaceNum, 0, sizeof( struct __HOST_CTL ) );
     a7e:	20000537          	lui	a0,0x20000
     a82:	10a00613          	li	a2,266
     a86:	4581                	li	a1,0
     a88:	12c50513          	addi	a0,a0,300 # 2000012c <HostCtl>
     a8c:	eb4ff0ef          	jal	ra,140 <memset>
C:\Repository\RISKYKVM\firmware\Bootloader\obj/../User/Host_IAP/usb_host_iap.c:468

    /* USB Libs Initialization */
    DUG_PRINTF( "UDisk library Initialization. \r\n" );
     a90:	00005537          	lui	a0,0x5
     a94:	89c50513          	addi	a0,a0,-1892 # 489c <_read+0x48>
     a98:	3f9020ef          	jal	ra,3690 <puts>
C:\Repository\RISKYKVM\firmware\Bootloader\obj/../User/Host_IAP/usb_host_iap.c:469
    CHRV3LibInit( );
     a9c:	363000ef          	jal	ra,15fe <CHRV3LibInit>
C:\Repository\RISKYKVM\firmware\Bootloader\obj/../User/Host_IAP/usb_host_iap.c:472

    /* IAP-related variable initialization  */
    IAP_Load_Addr_Offset = 0;
     aa0:	f001ac23          	sw	zero,-232(gp) # 20000778 <IAP_Load_Addr_Offset>
C:\Repository\RISKYKVM\firmware\Bootloader\obj/../User/Host_IAP/usb_host_iap.c:475
    IAP_WriteIn_Length = 0;
    IAP_WriteIn_Count = 0;
}
     aa4:	40b2                	lw	ra,12(sp)
C:\Repository\RISKYKVM\firmware\Bootloader\obj/../User/Host_IAP/usb_host_iap.c:473
    IAP_WriteIn_Length = 0;
     aa6:	e001a823          	sw	zero,-496(gp) # 20000670 <IAP_WriteIn_Length>
C:\Repository\RISKYKVM\firmware\Bootloader\obj/../User/Host_IAP/usb_host_iap.c:474
    IAP_WriteIn_Count = 0;
     aaa:	de01a623          	sw	zero,-532(gp) # 2000064c <IAP_WriteIn_Count>
C:\Repository\RISKYKVM\firmware\Bootloader\obj/../User/Host_IAP/usb_host_iap.c:475
}
     aae:	0141                	addi	sp,sp,16
     ab0:	8082                	ret

00000ab2 <USBH_EnumRootDevice>:
USBH_EnumRootDevice():
C:\Repository\RISKYKVM\firmware\Bootloader\obj/../User/Host_IAP/usb_host_iap.c:487
 * @para    index: USB host port
 *
 * @return  Enumeration result
 */
uint8_t USBH_EnumRootDevice( uint8_t usb_port )
{
     ab2:	715d                	addi	sp,sp,-80
     ab4:	c4a2                	sw	s0,72(sp)
     ab6:	842a                	mv	s0,a0
C:\Repository\RISKYKVM\firmware\Bootloader\obj/../User/Host_IAP/usb_host_iap.c:494
    uint8_t  enum_cnt;
    uint8_t  cfg_val;
    uint16_t i;
    uint16_t len;

    DUG_PRINTF( "Enum:\r\n" );
     ab8:	00005537          	lui	a0,0x5
     abc:	aa850513          	addi	a0,a0,-1368 # 4aa8 <_read+0x254>
C:\Repository\RISKYKVM\firmware\Bootloader\obj/../User/Host_IAP/usb_host_iap.c:487
{
     ac0:	c2a6                	sw	s1,68(sp)
     ac2:	de4e                	sw	s3,60(sp)
     ac4:	dc52                	sw	s4,56(sp)
     ac6:	da56                	sw	s5,52(sp)
     ac8:	d85a                	sw	s6,48(sp)
     aca:	d65e                	sw	s7,44(sp)
     acc:	c686                	sw	ra,76(sp)
     ace:	c0ca                	sw	s2,64(sp)
     ad0:	d462                	sw	s8,40(sp)
     ad2:	d266                	sw	s9,36(sp)
     ad4:	d06a                	sw	s10,32(sp)
C:\Repository\RISKYKVM\firmware\Bootloader\obj/../User/Host_IAP/usb_host_iap.c:494
    DUG_PRINTF( "Enum:\r\n" );
     ad6:	3bb020ef          	jal	ra,3690 <puts>
C:\Repository\RISKYKVM\firmware\Bootloader\obj/../User/Host_IAP/usb_host_iap.c:496

    enum_cnt = 0;
     ada:	457d                	li	a0,31
     adc:	02a40533          	mul	a0,s0,a0
C:\Repository\RISKYKVM\firmware\Bootloader\obj/../User/Host_IAP/usb_host_iap.c:507

    /* Reset the USB device and wait for the USB device to reconnect */
    USBFSH_ResetRootHubPort( 0 );
    for( i = 0, s = 0; i < DEF_RE_ATTACH_TIMEOUT; i++ )
    {
        if( USBFSH_EnableRootHubPort( &RootHubDev[ usb_port ].bSpeed ) == ERR_SUCCESS )
     ae0:	df018413          	addi	s0,gp,-528 # 20000650 <RootHubDev>
C:\Repository\RISKYKVM\firmware\Bootloader\obj/../User/Host_IAP/usb_host_iap.c:496
    enum_cnt = 0;
     ae4:	4481                	li	s1,0
C:\Repository\RISKYKVM\firmware\Bootloader\obj/../User/Host_IAP/usb_host_iap.c:540
    {
        /* Print USB device device descriptor */
#if DEF_DEBUG_PRINTF
        for( i = 0; i < 18; i++ )
        {
            DUG_PRINTF( "%02x ", DevDesc_Buf[ i ] );
     ae6:	dd818b93          	addi	s7,gp,-552 # 20000638 <DevDesc_Buf>
     aea:	00005b37          	lui	s6,0x5
C:\Repository\RISKYKVM\firmware\Bootloader\obj/../User/Host_IAP/usb_host_iap.c:507
        if( USBFSH_EnableRootHubPort( &RootHubDev[ usb_port ].bSpeed ) == ERR_SUCCESS )
     aee:	00350993          	addi	s3,a0,3
C:\Repository\RISKYKVM\firmware\Bootloader\obj/../User/Host_IAP/usb_host_iap.c:533
    s = USBFSH_GetDeviceDescr( &RootHubDev[ usb_port ].bEp0MaxPks, DevDesc_Buf );
     af2:	00450a13          	addi	s4,a0,4
C:\Repository\RISKYKVM\firmware\Bootloader\obj/../User/Host_IAP/usb_host_iap.c:507
        if( USBFSH_EnableRootHubPort( &RootHubDev[ usb_port ].bSpeed ) == ERR_SUCCESS )
     af6:	99a2                	add	s3,s3,s0
C:\Repository\RISKYKVM\firmware\Bootloader\obj/../User/Host_IAP/usb_host_iap.c:533
    s = USBFSH_GetDeviceDescr( &RootHubDev[ usb_port ].bEp0MaxPks, DevDesc_Buf );
     af8:	9a22                	add	s4,s4,s0
C:\Repository\RISKYKVM\firmware\Bootloader\obj/../User/Host_IAP/usb_host_iap.c:529
    USBFSH_SetSelfSpeed( RootHubDev[ usb_port].bSpeed );
     afa:	942a                	add	s0,s0,a0
C:\Repository\RISKYKVM\firmware\Bootloader\obj/../User/Host_IAP/usb_host_iap.c:499
    Delay_Ms( 100 );
     afc:	06400513          	li	a0,100
     b00:	6f9000ef          	jal	ra,19f8 <Delay_Ms>
C:\Repository\RISKYKVM\firmware\Bootloader\obj/../User/Host_IAP/usb_host_iap.c:500
    enum_cnt++;
     b04:	0485                	addi	s1,s1,1
     b06:	0ff4f493          	andi	s1,s1,255
C:\Repository\RISKYKVM\firmware\Bootloader\obj/../User/Host_IAP/usb_host_iap.c:501
    Delay_Ms( 8 << enum_cnt );
     b0a:	4521                	li	a0,8
     b0c:	00951533          	sll	a0,a0,s1
     b10:	6e9000ef          	jal	ra,19f8 <Delay_Ms>
C:\Repository\RISKYKVM\firmware\Bootloader\obj/../User/Host_IAP/usb_host_iap.c:504
    USBFSH_ResetRootHubPort( 0 );
     b14:	4501                	li	a0,0
     b16:	819ff0ef          	jal	ra,32e <USBFSH_ResetRootHubPort>
C:\Repository\RISKYKVM\firmware\Bootloader\obj/../User/Host_IAP/usb_host_iap.c:505
    for( i = 0, s = 0; i < DEF_RE_ATTACH_TIMEOUT; i++ )
     b1a:	4901                	li	s2,0
     b1c:	4c01                	li	s8,0
C:\Repository\RISKYKVM\firmware\Bootloader\obj/../User/Host_IAP/usb_host_iap.c:511
            if( s > 6 )
     b1e:	4d19                	li	s10,6
C:\Repository\RISKYKVM\firmware\Bootloader\obj/../User/Host_IAP/usb_host_iap.c:505
    for( i = 0, s = 0; i < DEF_RE_ATTACH_TIMEOUT; i++ )
     b20:	06400c93          	li	s9,100
C:\Repository\RISKYKVM\firmware\Bootloader\obj/../User/Host_IAP/usb_host_iap.c:507
        if( USBFSH_EnableRootHubPort( &RootHubDev[ usb_port ].bSpeed ) == ERR_SUCCESS )
     b24:	854e                	mv	a0,s3
     b26:	861ff0ef          	jal	ra,386 <USBFSH_EnableRootHubPort>
     b2a:	e519                	bnez	a0,b38 <USBH_EnumRootDevice+0x86>
C:\Repository\RISKYKVM\firmware\Bootloader\obj/../User/Host_IAP/usb_host_iap.c:510
            s++;
     b2c:	0c05                	addi	s8,s8,1
     b2e:	0ffc7c13          	andi	s8,s8,255
C:\Repository\RISKYKVM\firmware\Bootloader\obj/../User/Host_IAP/usb_host_iap.c:511
            if( s > 6 )
     b32:	118d6b63          	bltu	s10,s8,c48 <USBH_EnumRootDevice+0x196>
C:\Repository\RISKYKVM\firmware\Bootloader\obj/../User/Host_IAP/usb_host_iap.c:509
            i = 0;
     b36:	4901                	li	s2,0
C:\Repository\RISKYKVM\firmware\Bootloader\obj/../User/Host_IAP/usb_host_iap.c:505 (discriminator 2)
    for( i = 0, s = 0; i < DEF_RE_ATTACH_TIMEOUT; i++ )
     b38:	0905                	addi	s2,s2,1
     b3a:	0942                	slli	s2,s2,0x10
C:\Repository\RISKYKVM\firmware\Bootloader\obj/../User/Host_IAP/usb_host_iap.c:516 (discriminator 2)
        Delay_Ms( 1 );
     b3c:	4505                	li	a0,1
C:\Repository\RISKYKVM\firmware\Bootloader\obj/../User/Host_IAP/usb_host_iap.c:505 (discriminator 2)
    for( i = 0, s = 0; i < DEF_RE_ATTACH_TIMEOUT; i++ )
     b3e:	01095913          	srli	s2,s2,0x10
C:\Repository\RISKYKVM\firmware\Bootloader\obj/../User/Host_IAP/usb_host_iap.c:516 (discriminator 2)
        Delay_Ms( 1 );
     b42:	6b7000ef          	jal	ra,19f8 <Delay_Ms>
C:\Repository\RISKYKVM\firmware\Bootloader\obj/../User/Host_IAP/usb_host_iap.c:505 (discriminator 2)
    for( i = 0, s = 0; i < DEF_RE_ATTACH_TIMEOUT; i++ )
     b46:	fd991fe3          	bne	s2,s9,b24 <USBH_EnumRootDevice+0x72>
C:\Repository\RISKYKVM\firmware\Bootloader\obj/../User/Host_IAP/usb_host_iap.c:521
        if( enum_cnt <= 5 )
     b4a:	4795                	li	a5,5
     b4c:	fa97f8e3          	bgeu	a5,s1,afc <USBH_EnumRootDevice+0x4a>
C:\Repository\RISKYKVM\firmware\Bootloader\obj/../User/Host_IAP/usb_host_iap.c:525
        return ERR_USB_DISCON;
     b50:	45d9                	li	a1,22
     b52:	a821                	j	b6a <USBH_EnumRootDevice+0xb8>
C:\Repository\RISKYKVM\firmware\Bootloader\obj/../User/Host_IAP/usb_host_iap.c:548
#endif
    }
    else
    {
        /* Determine whether the maximum number of retries has been reached, and retry if not reached */
        DUG_PRINTF( "Err(%02x)\n", s );
     b54:	00005537          	lui	a0,0x5
     b58:	ac850513          	addi	a0,a0,-1336 # 4ac8 <_read+0x274>
     b5c:	1f1020ef          	jal	ra,354c <iprintf>
C:\Repository\RISKYKVM\firmware\Bootloader\obj/../User/Host_IAP/usb_host_iap.c:549
        if( enum_cnt <= 5 )
     b60:	4795                	li	a5,5
     b62:	f897fde3          	bgeu	a5,s1,afc <USBH_EnumRootDevice+0x4a>
C:\Repository\RISKYKVM\firmware\Bootloader\obj/../User/Host_IAP/usb_host_iap.c:553
        {
            goto ENUM_START;
        }
        return DEF_DEV_DESCR_GETFAIL;
     b66:	04500593          	li	a1,69
C:\Repository\RISKYKVM\firmware\Bootloader\obj/../User/Host_IAP/usb_host_iap.c:622
        }
        return ERR_USB_UNSUPPORT;
    }

    return ERR_SUCCESS;
}
     b6a:	40b6                	lw	ra,76(sp)
     b6c:	4426                	lw	s0,72(sp)
     b6e:	4496                	lw	s1,68(sp)
     b70:	4906                	lw	s2,64(sp)
     b72:	59f2                	lw	s3,60(sp)
     b74:	5a62                	lw	s4,56(sp)
     b76:	5ad2                	lw	s5,52(sp)
     b78:	5b42                	lw	s6,48(sp)
     b7a:	5bb2                	lw	s7,44(sp)
     b7c:	5c22                	lw	s8,40(sp)
     b7e:	5c92                	lw	s9,36(sp)
     b80:	5d02                	lw	s10,32(sp)
     b82:	852e                	mv	a0,a1
     b84:	6161                	addi	sp,sp,80
     b86:	8082                	ret
C:\Repository\RISKYKVM\firmware\Bootloader\obj/../User/Host_IAP/usb_host_iap.c:562
        DUG_PRINTF( "OK\n" );
     b88:	00005cb7          	lui	s9,0x5
     b8c:	ad4c8513          	addi	a0,s9,-1324 # 4ad4 <_read+0x280>
     b90:	301020ef          	jal	ra,3690 <puts>
C:\Repository\RISKYKVM\firmware\Bootloader\obj/../User/Host_IAP/usb_host_iap.c:574
    Delay_Ms( 5 );
     b94:	4515                	li	a0,5
     b96:	663000ef          	jal	ra,19f8 <Delay_Ms>
C:\Repository\RISKYKVM\firmware\Bootloader\obj/../User/Host_IAP/usb_host_iap.c:577
    DUG_PRINTF("Get CfgDesc: ");
     b9a:	00005537          	lui	a0,0x5
     b9e:	ad850513          	addi	a0,a0,-1320 # 4ad8 <_read+0x284>
     ba2:	1ab020ef          	jal	ra,354c <iprintf>
C:\Repository\RISKYKVM\firmware\Bootloader\obj/../User/Host_IAP/usb_host_iap.c:578
    s = USBFSH_GetConfigDescr( RootHubDev[ usb_port ].bEp0MaxPks, Com_Buffer, DEF_COM_BUF_LEN, &len );
     ba6:	00444503          	lbu	a0,4(s0)
     baa:	e1818593          	addi	a1,gp,-488 # 20000678 <Com_Buffer>
     bae:	01e10693          	addi	a3,sp,30
     bb2:	0ff00613          	li	a2,255
     bb6:	3e81                	jal	706 <USBFSH_GetConfigDescr>
     bb8:	85aa                	mv	a1,a0
C:\Repository\RISKYKVM\firmware\Bootloader\obj/../User/Host_IAP/usb_host_iap.c:579
    if( s == ERR_SUCCESS )
     bba:	ed39                	bnez	a0,c18 <USBH_EnumRootDevice+0x166>
C:\Repository\RISKYKVM\firmware\Bootloader\obj/../User/Host_IAP/usb_host_iap.c:581
        cfg_val = ( (PUSB_CFG_DESCR)Com_Buffer )->bConfigurationValue;
     bbc:	e1818793          	addi	a5,gp,-488 # 20000678 <Com_Buffer>
     bc0:	0057cd03          	lbu	s10,5(a5) # f7ff8005 <_eusrstack+0xd7ff3005>
C:\Repository\RISKYKVM\firmware\Bootloader\obj/../User/Host_IAP/usb_host_iap.c:585
        for( i = 0; i < len; i++ )
     bc4:	4901                	li	s2,0
     bc6:	e1818c13          	addi	s8,gp,-488 # 20000678 <Com_Buffer>
C:\Repository\RISKYKVM\firmware\Bootloader\obj/../User/Host_IAP/usb_host_iap.c:585 (discriminator 1)
     bca:	01e15783          	lhu	a5,30(sp)
     bce:	02f96863          	bltu	s2,a5,bfe <USBH_EnumRootDevice+0x14c>
C:\Repository\RISKYKVM\firmware\Bootloader\obj/../User/Host_IAP/usb_host_iap.c:589
        DUG_PRINTF("\n");
     bd2:	4529                	li	a0,10
     bd4:	1b9020ef          	jal	ra,358c <putchar>
C:\Repository\RISKYKVM\firmware\Bootloader\obj/../User/Host_IAP/usb_host_iap.c:604
    DUG_PRINTF("Set Cfg: ");
     bd8:	00005537          	lui	a0,0x5
     bdc:	ae850513          	addi	a0,a0,-1304 # 4ae8 <_read+0x294>
     be0:	16d020ef          	jal	ra,354c <iprintf>
C:\Repository\RISKYKVM\firmware\Bootloader\obj/../User/Host_IAP/usb_host_iap.c:605
    s = USBFSH_SetUsbConfig( RootHubDev[ usb_port ].bEp0MaxPks, cfg_val );
     be4:	00444503          	lbu	a0,4(s0)
     be8:	85ea                	mv	a1,s10
     bea:	3ecd                	jal	7dc <USBFSH_SetUsbConfig>
     bec:	85aa                	mv	a1,a0
C:\Repository\RISKYKVM\firmware\Bootloader\obj/../User/Host_IAP/usb_host_iap.c:606
    if( s == ERR_SUCCESS )
     bee:	e129                	bnez	a0,c30 <USBH_EnumRootDevice+0x17e>
     bf0:	c62a                	sw	a0,12(sp)
C:\Repository\RISKYKVM\firmware\Bootloader\obj/../User/Host_IAP/usb_host_iap.c:608
        DUG_PRINTF( "OK\n" );
     bf2:	ad4c8513          	addi	a0,s9,-1324
     bf6:	29b020ef          	jal	ra,3690 <puts>
C:\Repository\RISKYKVM\firmware\Bootloader\obj/../User/Host_IAP/usb_host_iap.c:621
    return ERR_SUCCESS;
     bfa:	45b2                	lw	a1,12(sp)
     bfc:	b7bd                	j	b6a <USBH_EnumRootDevice+0xb8>
C:\Repository\RISKYKVM\firmware\Bootloader\obj/../User/Host_IAP/usb_host_iap.c:587 (discriminator 3)
            DUG_PRINTF( "%02x ", Com_Buffer[ i ] );
     bfe:	012c07b3          	add	a5,s8,s2
     c02:	0007c583          	lbu	a1,0(a5)
C:\Repository\RISKYKVM\firmware\Bootloader\obj/../User/Host_IAP/usb_host_iap.c:585 (discriminator 3)
        for( i = 0; i < len; i++ )
     c06:	0905                	addi	s2,s2,1
C:\Repository\RISKYKVM\firmware\Bootloader\obj/../User/Host_IAP/usb_host_iap.c:587 (discriminator 3)
            DUG_PRINTF( "%02x ", Com_Buffer[ i ] );
     c08:	ab0b0513          	addi	a0,s6,-1360 # 4ab0 <_read+0x25c>
C:\Repository\RISKYKVM\firmware\Bootloader\obj/../User/Host_IAP/usb_host_iap.c:585 (discriminator 3)
        for( i = 0; i < len; i++ )
     c0c:	0942                	slli	s2,s2,0x10
C:\Repository\RISKYKVM\firmware\Bootloader\obj/../User/Host_IAP/usb_host_iap.c:587 (discriminator 3)
            DUG_PRINTF( "%02x ", Com_Buffer[ i ] );
     c0e:	13f020ef          	jal	ra,354c <iprintf>
C:\Repository\RISKYKVM\firmware\Bootloader\obj/../User/Host_IAP/usb_host_iap.c:585 (discriminator 3)
        for( i = 0; i < len; i++ )
     c12:	01095913          	srli	s2,s2,0x10
     c16:	bf55                	j	bca <USBH_EnumRootDevice+0x118>
C:\Repository\RISKYKVM\firmware\Bootloader\obj/../User/Host_IAP/usb_host_iap.c:595
        DUG_PRINTF( "Err(%02x)\n", s );
     c18:	00005537          	lui	a0,0x5
     c1c:	ac850513          	addi	a0,a0,-1336 # 4ac8 <_read+0x274>
     c20:	12d020ef          	jal	ra,354c <iprintf>
C:\Repository\RISKYKVM\firmware\Bootloader\obj/../User/Host_IAP/usb_host_iap.c:596
        if( enum_cnt <= 5 )
     c24:	4795                	li	a5,5
     c26:	ec97fbe3          	bgeu	a5,s1,afc <USBH_EnumRootDevice+0x4a>
C:\Repository\RISKYKVM\firmware\Bootloader\obj/../User/Host_IAP/usb_host_iap.c:600
        return DEF_CFG_DESCR_GETFAIL;
     c2a:	04700593          	li	a1,71
     c2e:	bf35                	j	b6a <USBH_EnumRootDevice+0xb8>
C:\Repository\RISKYKVM\firmware\Bootloader\obj/../User/Host_IAP/usb_host_iap.c:613
        DUG_PRINTF( "Err(%02x)\n", s );
     c30:	00005537          	lui	a0,0x5
     c34:	ac850513          	addi	a0,a0,-1336 # 4ac8 <_read+0x274>
     c38:	115020ef          	jal	ra,354c <iprintf>
C:\Repository\RISKYKVM\firmware\Bootloader\obj/../User/Host_IAP/usb_host_iap.c:614
        if( enum_cnt <= 5 )
     c3c:	4795                	li	a5,5
     c3e:	ea97ffe3          	bgeu	a5,s1,afc <USBH_EnumRootDevice+0x4a>
C:\Repository\RISKYKVM\firmware\Bootloader\obj/../User/Host_IAP/usb_host_iap.c:618
        return ERR_USB_UNSUPPORT;
     c42:	0fb00593          	li	a1,251
     c46:	b715                	j	b6a <USBH_EnumRootDevice+0xb8>
C:\Repository\RISKYKVM\firmware\Bootloader\obj/../User/Host_IAP/usb_host_iap.c:529
    USBFSH_SetSelfSpeed( RootHubDev[ usb_port].bSpeed );
     c48:	00344503          	lbu	a0,3(s0)
     c4c:	eccff0ef          	jal	ra,318 <USBFSH_SetSelfSpeed>
C:\Repository\RISKYKVM\firmware\Bootloader\obj/../User/Host_IAP/usb_host_iap.c:532
    DUG_PRINTF("Get DevDesc: ");
     c50:	00005537          	lui	a0,0x5
     c54:	af450513          	addi	a0,a0,-1292 # 4af4 <_read+0x2a0>
     c58:	0f5020ef          	jal	ra,354c <iprintf>
C:\Repository\RISKYKVM\firmware\Bootloader\obj/../User/Host_IAP/usb_host_iap.c:533
    s = USBFSH_GetDeviceDescr( &RootHubDev[ usb_port ].bEp0MaxPks, DevDesc_Buf );
     c5c:	dd818593          	addi	a1,gp,-552 # 20000638 <DevDesc_Buf>
     c60:	8552                	mv	a0,s4
     c62:	3c81                	jal	6b2 <USBFSH_GetDeviceDescr>
     c64:	85aa                	mv	a1,a0
C:\Repository\RISKYKVM\firmware\Bootloader\obj/../User/Host_IAP/usb_host_iap.c:534
    if( s == ERR_SUCCESS )
     c66:	ee0517e3          	bnez	a0,b54 <USBH_EnumRootDevice+0xa2>
     c6a:	4901                	li	s2,0
C:\Repository\RISKYKVM\firmware\Bootloader\obj/../User/Host_IAP/usb_host_iap.c:538
        for( i = 0; i < 18; i++ )
     c6c:	4c49                	li	s8,18
C:\Repository\RISKYKVM\firmware\Bootloader\obj/../User/Host_IAP/usb_host_iap.c:540 (discriminator 3)
            DUG_PRINTF( "%02x ", DevDesc_Buf[ i ] );
     c6e:	017907b3          	add	a5,s2,s7
     c72:	0007c583          	lbu	a1,0(a5)
     c76:	ab0b0513          	addi	a0,s6,-1360
     c7a:	0905                	addi	s2,s2,1
     c7c:	0d1020ef          	jal	ra,354c <iprintf>
C:\Repository\RISKYKVM\firmware\Bootloader\obj/../User/Host_IAP/usb_host_iap.c:538 (discriminator 3)
        for( i = 0; i < 18; i++ )
     c80:	ff8917e3          	bne	s2,s8,c6e <USBH_EnumRootDevice+0x1bc>
C:\Repository\RISKYKVM\firmware\Bootloader\obj/../User/Host_IAP/usb_host_iap.c:542
        DUG_PRINTF("\n");
     c84:	4529                	li	a0,10
     c86:	107020ef          	jal	ra,358c <putchar>
C:\Repository\RISKYKVM\firmware\Bootloader\obj/../User/Host_IAP/usb_host_iap.c:557
    DUG_PRINTF("Set DevAddr: ");
     c8a:	00005537          	lui	a0,0x5
     c8e:	ab850513          	addi	a0,a0,-1352 # 4ab8 <_read+0x264>
     c92:	0bb020ef          	jal	ra,354c <iprintf>
C:\Repository\RISKYKVM\firmware\Bootloader\obj/../User/Host_IAP/usb_host_iap.c:559
    s = USBFSH_SetUsbAddress( RootHubDev[ usb_port ].bEp0MaxPks, RootHubDev[ usb_port ].bAddress );
     c96:	00444503          	lbu	a0,4(s0)
C:\Repository\RISKYKVM\firmware\Bootloader\obj/../User/Host_IAP/usb_host_iap.c:558
    RootHubDev[ usb_port ].bAddress = (uint8_t)( DEF_USB_PORT_FS + USB_DEVICE_ADDR );
     c9a:	4789                	li	a5,2
C:\Repository\RISKYKVM\firmware\Bootloader\obj/../User/Host_IAP/usb_host_iap.c:559
    s = USBFSH_SetUsbAddress( RootHubDev[ usb_port ].bEp0MaxPks, RootHubDev[ usb_port ].bAddress );
     c9c:	4589                	li	a1,2
C:\Repository\RISKYKVM\firmware\Bootloader\obj/../User/Host_IAP/usb_host_iap.c:558
    RootHubDev[ usb_port ].bAddress = (uint8_t)( DEF_USB_PORT_FS + USB_DEVICE_ADDR );
     c9e:	00f40123          	sb	a5,2(s0)
C:\Repository\RISKYKVM\firmware\Bootloader\obj/../User/Host_IAP/usb_host_iap.c:559
    s = USBFSH_SetUsbAddress( RootHubDev[ usb_port ].bEp0MaxPks, RootHubDev[ usb_port ].bAddress );
     ca2:	3ced                	jal	79c <USBFSH_SetUsbAddress>
     ca4:	85aa                	mv	a1,a0
C:\Repository\RISKYKVM\firmware\Bootloader\obj/../User/Host_IAP/usb_host_iap.c:560
    if( s == ERR_SUCCESS )
     ca6:	ee0501e3          	beqz	a0,b88 <USBH_EnumRootDevice+0xd6>
C:\Repository\RISKYKVM\firmware\Bootloader\obj/../User/Host_IAP/usb_host_iap.c:567
        DUG_PRINTF( "Err(%02x)\n", s );
     caa:	00005537          	lui	a0,0x5
     cae:	ac850513          	addi	a0,a0,-1336 # 4ac8 <_read+0x274>
     cb2:	09b020ef          	jal	ra,354c <iprintf>
C:\Repository\RISKYKVM\firmware\Bootloader\obj/../User/Host_IAP/usb_host_iap.c:568
        if( enum_cnt <= 5 )
     cb6:	4795                	li	a5,5
     cb8:	e497f2e3          	bgeu	a5,s1,afc <USBH_EnumRootDevice+0x4a>
C:\Repository\RISKYKVM\firmware\Bootloader\obj/../User/Host_IAP/usb_host_iap.c:572
        return DEF_DEV_ADDR_SETFAIL;
     cbc:	04600593          	li	a1,70
     cc0:	b56d                	j	b6a <USBH_EnumRootDevice+0xb8>

00000cc2 <IAP_USBH_PreDeal>:
IAP_USBH_PreDeal():
C:\Repository\RISKYKVM\firmware\Bootloader\obj/../User/Host_IAP/usb_host_iap.c:633
  *         including detecting device insertion and enumerating device information 
 *
 * @return  none
 */
uint8_t IAP_USBH_PreDeal( void )
{
     cc2:	1101                	addi	sp,sp,-32
     cc4:	cc22                	sw	s0,24(sp)
C:\Repository\RISKYKVM\firmware\Bootloader\obj/../User/Host_IAP/usb_host_iap.c:638
    uint8_t usb_port;
    uint8_t index;
    uint8_t ret;
    usb_port = DEF_USB_PORT_FS;
    ret = USBFSH_CheckRootHubPortStatus( RootHubDev[ usb_port ].bStatus );
     cc6:	df01c503          	lbu	a0,-528(gp) # 20000650 <RootHubDev>
C:\Repository\RISKYKVM\firmware\Bootloader\obj/../User/Host_IAP/usb_host_iap.c:633
{
     cca:	ca26                	sw	s1,20(sp)
     ccc:	ce06                	sw	ra,28(sp)
C:\Repository\RISKYKVM\firmware\Bootloader\obj/../User/Host_IAP/usb_host_iap.c:638
    ret = USBFSH_CheckRootHubPortStatus( RootHubDev[ usb_port ].bStatus );
     cce:	ddeff0ef          	jal	ra,2ac <USBFSH_CheckRootHubPortStatus>
C:\Repository\RISKYKVM\firmware\Bootloader\obj/../User/Host_IAP/usb_host_iap.c:639
    if( ret == ROOT_DEV_CONNECTED )
     cd2:	4785                	li	a5,1
C:\Repository\RISKYKVM\firmware\Bootloader\obj/../User/Host_IAP/usb_host_iap.c:638
    ret = USBFSH_CheckRootHubPortStatus( RootHubDev[ usb_port ].bStatus );
     cd4:	84aa                	mv	s1,a0
C:\Repository\RISKYKVM\firmware\Bootloader\obj/../User/Host_IAP/usb_host_iap.c:639
    if( ret == ROOT_DEV_CONNECTED )
     cd6:	06f51563          	bne	a0,a5,d40 <IAP_USBH_PreDeal+0x7e>
C:\Repository\RISKYKVM\firmware\Bootloader\obj/../User/Host_IAP/usb_host_iap.c:641
    {
        DUG_PRINTF("USB Dev In.\n");
     cda:	00005537          	lui	a0,0x5
     cde:	a2450513          	addi	a0,a0,-1500 # 4a24 <_read+0x1d0>
     ce2:	1af020ef          	jal	ra,3690 <puts>
C:\Repository\RISKYKVM\firmware\Bootloader\obj/../User/Host_IAP/usb_host_iap.c:642
        USBFSH_CheckRootHubPortStatus( RootHubDev[ usb_port ].bStatus );
     ce6:	df01c503          	lbu	a0,-528(gp) # 20000650 <RootHubDev>
     cea:	dc2ff0ef          	jal	ra,2ac <USBFSH_CheckRootHubPortStatus>
C:\Repository\RISKYKVM\firmware\Bootloader\obj/../User/Host_IAP/usb_host_iap.c:644
        RootHubDev[ usb_port ].bStatus = ROOT_DEV_CONNECTED; // Set connection status_
        RootHubDev[ usb_port ].DeviceIndex = usb_port * DEF_ONE_USB_SUP_DEV_TOTAL;
     cee:	df018793          	addi	a5,gp,-528 # 20000650 <RootHubDev>
     cf2:	000782a3          	sb	zero,5(a5)
C:\Repository\RISKYKVM\firmware\Bootloader\obj/../User/Host_IAP/usb_host_iap.c:647

        /* Enumerate root device */
        ret = USBH_EnumRootDevice( usb_port );
     cf6:	4501                	li	a0,0
C:\Repository\RISKYKVM\firmware\Bootloader\obj/../User/Host_IAP/usb_host_iap.c:643
        RootHubDev[ usb_port ].bStatus = ROOT_DEV_CONNECTED; // Set connection status_
     cf8:	de918823          	sb	s1,-528(gp) # 20000650 <RootHubDev>
C:\Repository\RISKYKVM\firmware\Bootloader\obj/../User/Host_IAP/usb_host_iap.c:647
        ret = USBH_EnumRootDevice( usb_port );
     cfc:	3b5d                	jal	ab2 <USBH_EnumRootDevice>
     cfe:	862a                	mv	a2,a0
C:\Repository\RISKYKVM\firmware\Bootloader\obj/../User/Host_IAP/usb_host_iap.c:648
        if( ret == ERR_SUCCESS )
     d00:	e11d                	bnez	a0,d26 <IAP_USBH_PreDeal+0x64>
     d02:	c62a                	sw	a0,12(sp)
C:\Repository\RISKYKVM\firmware\Bootloader\obj/../User/Host_IAP/usb_host_iap.c:650
        {
            DUG_PRINTF( "USB Port %02x Device Enumeration Succeed\r\n", usb_port );
     d04:	00005537          	lui	a0,0x5
     d08:	4581                	li	a1,0
     d0a:	a3050513          	addi	a0,a0,-1488 # 4a30 <_read+0x1dc>
     d0e:	03f020ef          	jal	ra,354c <iprintf>
C:\Repository\RISKYKVM\firmware\Bootloader\obj/../User/Host_IAP/usb_host_iap.c:652
            RootHubDev[ usb_port ].bStatus = ROOT_DEV_SUCCESS;
            return DEF_IAP_SUCCESS;
     d12:	4632                	lw	a2,12(sp)
C:\Repository\RISKYKVM\firmware\Bootloader\obj/../User/Host_IAP/usb_host_iap.c:651
            RootHubDev[ usb_port ].bStatus = ROOT_DEV_SUCCESS;
     d14:	478d                	li	a5,3
     d16:	def18823          	sb	a5,-528(gp) # 20000650 <RootHubDev>
C:\Repository\RISKYKVM\firmware\Bootloader\obj/../User/Host_IAP/usb_host_iap.c:671
        memset( &RootHubDev[ usb_port ].bStatus, 0, sizeof( struct _ROOT_HUB_DEVICE ) );
        memset( &HostCtl[ index ].InterfaceNum, 0, sizeof( struct __HOST_CTL ) );
        return DEF_IAP_ERR_DETECT;
    }
    return DEF_IAP_DEFAULT;
}
     d1a:	40f2                	lw	ra,28(sp)
     d1c:	4462                	lw	s0,24(sp)
     d1e:	44d2                	lw	s1,20(sp)
     d20:	8532                	mv	a0,a2
     d22:	6105                	addi	sp,sp,32
     d24:	8082                	ret
C:\Repository\RISKYKVM\firmware\Bootloader\obj/../User/Host_IAP/usb_host_iap.c:656
            DUG_PRINTF( "USB Port %02x Device Enumeration ERR %02x.\r\n", usb_port, ret );
     d26:	00005537          	lui	a0,0x5
     d2a:	4581                	li	a1,0
     d2c:	a5c50513          	addi	a0,a0,-1444 # 4a5c <_read+0x208>
     d30:	01d020ef          	jal	ra,354c <iprintf>
C:\Repository\RISKYKVM\firmware\Bootloader\obj/../User/Host_IAP/usb_host_iap.c:657
            RootHubDev[ usb_port ].bStatus = ROOT_DEV_FAILED;
     d34:	4789                	li	a5,2
     d36:	def18823          	sb	a5,-528(gp) # 20000650 <RootHubDev>
C:\Repository\RISKYKVM\firmware\Bootloader\obj/../User/Host_IAP/usb_host_iap.c:658
            return DEF_IAP_ERR_ENUM;
     d3a:	0f200613          	li	a2,242
     d3e:	bff1                	j	d1a <IAP_USBH_PreDeal+0x58>
C:\Repository\RISKYKVM\firmware\Bootloader\obj/../User/Host_IAP/usb_host_iap.c:670
    return DEF_IAP_DEFAULT;
     d40:	0ff00613          	li	a2,255
C:\Repository\RISKYKVM\firmware\Bootloader\obj/../User/Host_IAP/usb_host_iap.c:661
    else if( ret == ROOT_DEV_DISCONNECT )
     d44:	f979                	bnez	a0,d1a <IAP_USBH_PreDeal+0x58>
C:\Repository\RISKYKVM\firmware\Bootloader\obj/../User/Host_IAP/usb_host_iap.c:663
        DUG_PRINTF("USB Port %02x Device Out.\r\n", usb_port );
     d46:	00005537          	lui	a0,0x5
     d4a:	4581                	li	a1,0
     d4c:	a8c50513          	addi	a0,a0,-1396 # 4a8c <_read+0x238>
     d50:	7fc020ef          	jal	ra,354c <iprintf>
C:\Repository\RISKYKVM\firmware\Bootloader\obj/../User/Host_IAP/usb_host_iap.c:665
        index = RootHubDev[ usb_port ].DeviceIndex;
     d54:	df018793          	addi	a5,gp,-528 # 20000650 <RootHubDev>
     d58:	0057c483          	lbu	s1,5(a5)
C:\Repository\RISKYKVM\firmware\Bootloader\obj/../User/Host_IAP/usb_host_iap.c:666
        memset( &RootHubDev[ usb_port ].bStatus, 0, sizeof( struct _ROOT_HUB_DEVICE ) );
     d5c:	467d                	li	a2,31
     d5e:	4581                	li	a1,0
     d60:	df018513          	addi	a0,gp,-528 # 20000650 <RootHubDev>
     d64:	bdcff0ef          	jal	ra,140 <memset>
C:\Repository\RISKYKVM\firmware\Bootloader\obj/../User/Host_IAP/usb_host_iap.c:667
        memset( &HostCtl[ index ].InterfaceNum, 0, sizeof( struct __HOST_CTL ) );
     d68:	10a00513          	li	a0,266
     d6c:	02a484b3          	mul	s1,s1,a0
     d70:	20000537          	lui	a0,0x20000
     d74:	12c50513          	addi	a0,a0,300 # 2000012c <HostCtl>
     d78:	10a00613          	li	a2,266
     d7c:	4581                	li	a1,0
     d7e:	9526                	add	a0,a0,s1
     d80:	bc0ff0ef          	jal	ra,140 <memset>
     d84:	0f100613          	li	a2,241
     d88:	bf49                	j	d1a <IAP_USBH_PreDeal+0x58>

00000d8a <IAP_Main_Deal>:
IAP_Main_Deal():
C:\Repository\RISKYKVM\firmware\Bootloader\obj/../User/Host_IAP/usb_host_iap.c:681
 * @brief   IAP Transaction Processing
 *
 * @return  none
 */
void IAP_Main_Deal( void )
{
     d8a:	7139                	addi	sp,sp,-64
     d8c:	da26                	sw	s1,52(sp)
     d8e:	de06                	sw	ra,60(sp)
     d90:	dc22                	sw	s0,56(sp)
     d92:	d84a                	sw	s2,48(sp)
     d94:	d64e                	sw	s3,44(sp)
     d96:	d452                	sw	s4,40(sp)
     d98:	d256                	sw	s5,36(sp)
     d9a:	d05a                	sw	s6,32(sp)
     d9c:	ce5e                	sw	s7,28(sp)
     d9e:	cc62                	sw	s8,24(sp)
     da0:	ca66                	sw	s9,20(sp)
     da2:	c86a                	sw	s10,16(sp)
     da4:	c66e                	sw	s11,12(sp)
C:\Repository\RISKYKVM\firmware\Bootloader\obj/../User/Host_IAP/usb_host_iap.c:688
    uint16_t i, ret;
    uint8_t  *pCodeStr;
    static   uint8_t   op_flag = 0;

    /* Detect USB Device & Enumeration processing */
    ret = IAP_USBH_PreDeal( );
     da6:	3f31                	jal	cc2 <IAP_USBH_PreDeal>
C:\Repository\RISKYKVM\firmware\Bootloader\obj/../User/Host_IAP/usb_host_iap.c:689
    if( ret == DEF_IAP_SUCCESS )
     da8:	e529                	bnez	a0,df2 <IAP_Main_Deal+0x68>
C:\Repository\RISKYKVM\firmware\Bootloader\obj/../User/Host_IAP/usb_host_iap.c:692
    {
        /* Wait for uDisk Ready */
        CHRV3DiskStatus = DISK_USB_ADDR;
     daa:	4791                	li	a5,4
     dac:	18f18c23          	sb	a5,408(gp) # 200009f8 <CHRV3DiskStatus>
     db0:	4429                	li	s0,10
C:\Repository\RISKYKVM\firmware\Bootloader\obj/../User/Host_IAP/usb_host_iap.c:695
        for ( i = 0; i != 10; i ++ )
        {
              DUG_PRINTF( "Wait Disk Ready...\r\n" );
     db2:	00005a37          	lui	s4,0x5
C:\Repository\RISKYKVM\firmware\Bootloader\obj/../User/Host_IAP/usb_host_iap.c:707
                  op_flag = 1;
                  break;
              }
              else
              {
                  DUG_PRINTF("Not Ready Code :%02x.\r\n", ret);
     db6:	000059b7          	lui	s3,0x5
C:\Repository\RISKYKVM\firmware\Bootloader\obj/../User/Host_IAP/usb_host_iap.c:708
                  DUG_PRINTF("CHRV3DiskStatus:%02x.\n", CHRV3DiskStatus);
     dba:	00005937          	lui	s2,0x5
C:\Repository\RISKYKVM\firmware\Bootloader\obj/../User/Host_IAP/usb_host_iap.c:695
              DUG_PRINTF( "Wait Disk Ready...\r\n" );
     dbe:	8bca0513          	addi	a0,s4,-1860 # 48bc <_read+0x68>
     dc2:	0cf020ef          	jal	ra,3690 <puts>
C:\Repository\RISKYKVM\firmware\Bootloader\obj/../User/Host_IAP/usb_host_iap.c:696
              ret = CHRV3DiskReady( );
     dc6:	756010ef          	jal	ra,251c <CHRV3DiskReady>
     dca:	85aa                	mv	a1,a0
C:\Repository\RISKYKVM\firmware\Bootloader\obj/../User/Host_IAP/usb_host_iap.c:697
              if ( ret == ERR_SUCCESS )
     dcc:	10051763          	bnez	a0,eda <IAP_Main_Deal+0x150>
C:\Repository\RISKYKVM\firmware\Bootloader\obj/../User/Host_IAP/usb_host_iap.c:700
                  DUG_PRINTF( "Disk Ready Code:%02x.\r\n", ret );
     dd0:	00005537          	lui	a0,0x5
     dd4:	8d050513          	addi	a0,a0,-1840 # 48d0 <_read+0x7c>
     dd8:	774020ef          	jal	ra,354c <iprintf>
C:\Repository\RISKYKVM\firmware\Bootloader\obj/../User/Host_IAP/usb_host_iap.c:701
                  DUG_PRINTF( "CHRV3DiskStatus:%02x\n", CHRV3DiskStatus);
     ddc:	1981c583          	lbu	a1,408(gp) # 200009f8 <CHRV3DiskStatus>
     de0:	00005537          	lui	a0,0x5
     de4:	8e850513          	addi	a0,a0,-1816 # 48e8 <_read+0x94>
     de8:	764020ef          	jal	ra,354c <iprintf>
C:\Repository\RISKYKVM\firmware\Bootloader\obj/../User/Host_IAP/usb_host_iap.c:702
                  op_flag = 1;
     dec:	4705                	li	a4,1
     dee:	82e18c23          	sb	a4,-1992(gp) # 20000098 <_edata>
C:\Repository\RISKYKVM\firmware\Bootloader\obj/../User/Host_IAP/usb_host_iap.c:714
              }
              Delay_Ms( 50 );
          }
    }

    if( (CHRV3DiskStatus >= DISK_MOUNTED) && op_flag )
     df2:	1981c783          	lbu	a5,408(gp) # 200009f8 <CHRV3DiskStatus>
     df6:	4711                	li	a4,4
     df8:	0cf77263          	bgeu	a4,a5,ebc <IAP_Main_Deal+0x132>
C:\Repository\RISKYKVM\firmware\Bootloader\obj/../User/Host_IAP/usb_host_iap.c:714 (discriminator 1)
     dfc:	83818793          	addi	a5,gp,-1992 # 20000098 <_edata>
     e00:	0007c703          	lbu	a4,0(a5)
     e04:	cf45                	beqz	a4,ebc <IAP_Main_Deal+0x132>
C:\Repository\RISKYKVM\firmware\Bootloader\obj/../User/Host_IAP/usb_host_iap.c:718
    {
        op_flag = 0;
        /* Make sure the flash operation is correct */
        Flash_Operation_Key0 = DEF_FLASH_OPERATION_KEY_CODE_0;
     e06:	1a870437          	lui	s0,0x1a870
C:\Repository\RISKYKVM\firmware\Bootloader\obj/../User/Host_IAP/usb_host_iap.c:720
        /* Set the name of the file to be manipulated to "/APP.BIN"  */
        strcpy( (char *)mCmdParam.Open.mPathName, DEF_IAP_FILE_NAME );
     e0a:	000055b7          	lui	a1,0x5
     e0e:	93058593          	addi	a1,a1,-1744 # 4930 <_read+0xdc>
C:\Repository\RISKYKVM\firmware\Bootloader\obj/../User/Host_IAP/usb_host_iap.c:718
        Flash_Operation_Key0 = DEF_FLASH_OPERATION_KEY_CODE_0;
     e12:	f0040413          	addi	s0,s0,-256 # 1a86ff00 <_bootloader_limit+0x1a867f00>
C:\Repository\RISKYKVM\firmware\Bootloader\obj/../User/Host_IAP/usb_host_iap.c:720
        strcpy( (char *)mCmdParam.Open.mPathName, DEF_IAP_FILE_NAME );
     e16:	11c18513          	addi	a0,gp,284 # 2000097c <mCmdParam>
C:\Repository\RISKYKVM\firmware\Bootloader\obj/../User/Host_IAP/usb_host_iap.c:716
        op_flag = 0;
     e1a:	00078023          	sb	zero,0(a5)
C:\Repository\RISKYKVM\firmware\Bootloader\obj/../User/Host_IAP/usb_host_iap.c:718
        Flash_Operation_Key0 = DEF_FLASH_OPERATION_KEY_CODE_0;
     e1e:	e081aa23          	sw	s0,-492(gp) # 20000674 <Flash_Operation_Key0>
C:\Repository\RISKYKVM\firmware\Bootloader\obj/../User/Host_IAP/usb_host_iap.c:720
        strcpy( (char *)mCmdParam.Open.mPathName, DEF_IAP_FILE_NAME );
     e22:	07b020ef          	jal	ra,369c <strcpy>
C:\Repository\RISKYKVM\firmware\Bootloader\obj/../User/Host_IAP/usb_host_iap.c:722
        /* open file */
        ret = CHRV3FileOpen( );
     e26:	70b010ef          	jal	ra,2d30 <CHRV3FileOpen>
     e2a:	0542                	slli	a0,a0,0x10
     e2c:	8141                	srli	a0,a0,0x10
C:\Repository\RISKYKVM\firmware\Bootloader\obj/../User/Host_IAP/usb_host_iap.c:724
        /* file or directory not found */
        if ( ret == ERR_MISS_DIR || ret == ERR_MISS_FILE )
     e2e:	0b300793          	li	a5,179
     e32:	00f50663          	beq	a0,a5,e3e <IAP_Main_Deal+0xb4>
C:\Repository\RISKYKVM\firmware\Bootloader\obj/../User/Host_IAP/usb_host_iap.c:724 (discriminator 1)
     e36:	04200793          	li	a5,66
     e3a:	0ef51363          	bne	a0,a5,f20 <IAP_Main_Deal+0x196>
C:\Repository\RISKYKVM\firmware\Bootloader\obj/../User/Host_IAP/usb_host_iap.c:727
        {
            /* list all file and stay in IAP code */
            DUG_PRINTF( "APP file not Found, Stay In IAP.\r\n" );
     e3e:	00005537          	lui	a0,0x5
     e42:	94050513          	addi	a0,a0,-1728 # 4940 <_read+0xec>
     e46:	04b020ef          	jal	ra,3690 <puts>
C:\Repository\RISKYKVM\firmware\Bootloader\obj/../User/Host_IAP/usb_host_iap.c:729
            pCodeStr = "/*";
            DUG_PRINTF( "List all files %s\r\n", pCodeStr );
     e4a:	00005937          	lui	s2,0x5
     e4e:	00005537          	lui	a0,0x5
     e52:	96490593          	addi	a1,s2,-1692 # 4964 <_read+0x110>
     e56:	96850513          	addi	a0,a0,-1688 # 4968 <_read+0x114>
C:\Repository\RISKYKVM\firmware\Bootloader\obj/../User/Host_IAP/usb_host_iap.c:730
            for ( i = 0; i < 10000; i ++ )                          //Search up to the first 10,000 files, practically no limit
     e5a:	6989                	lui	s3,0x2
C:\Repository\RISKYKVM\firmware\Bootloader\obj/../User/Host_IAP/usb_host_iap.c:729
            DUG_PRINTF( "List all files %s\r\n", pCodeStr );
     e5c:	6f0020ef          	jal	ra,354c <iprintf>
     e60:	4401                	li	s0,0
C:\Repository\RISKYKVM\firmware\Bootloader\obj/../User/Host_IAP/usb_host_iap.c:734
            {
                strcpy( (char *)mCmdParam.Open.mPathName, (char *)pCodeStr );       //Search for filenames, * is a wildcard, for all files or subdirectories
                ret = strlen( (char *)mCmdParam.Open.mPathName );
                mCmdParam.Open.mPathName[ ret ] = 0xFF;             //Replace the terminator with the search number according to the length of the string, from 0 to 254,if it is 0xFF that is 255, then the search number is in the CHRV3vFileSize variable
     e62:	5afd                	li	s5,-1
C:\Repository\RISKYKVM\firmware\Bootloader\obj/../User/Host_IAP/usb_host_iap.c:737
                CHRV3vFileSize = i;                                 //Specify the serial number of the search/enumeration
                ret = CHRV3FileOpen( );                             //Open a file, if the file name contains a wildcard *, the file is searched for and not opened
                if ( ret == ERR_MISS_FILE )                         //The only difference between CHRV3FileEnum and CHRV3FileOpen is that when the latter returns ERR_FOUND_NAME, then the former returns ERR_SUCCESS.
     e64:	04200b93          	li	s7,66
C:\Repository\RISKYKVM\firmware\Bootloader\obj/../User/Host_IAP/usb_host_iap.c:741
                {
                    break;                                          //No more matching files, no more matching file names
                }
                if ( ret == ERR_FOUND_NAME )                        //Search for a file name matching the wildcard, the file name and its full path are in the command buffer
     e68:	04300c13          	li	s8,67
C:\Repository\RISKYKVM\firmware\Bootloader\obj/../User/Host_IAP/usb_host_iap.c:743
                {
                    DUG_PRINTF( "  match file %04d#: %s\r\n", (unsigned int)i, mCmdParam.Open.mPathName );//Display the serial number and the name of the matching file or subdirectory searched
     e6c:	00005a37          	lui	s4,0x5
C:\Repository\RISKYKVM\firmware\Bootloader\obj/../User/Host_IAP/usb_host_iap.c:730
            for ( i = 0; i < 10000; i ++ )                          //Search up to the first 10,000 files, practically no limit
     e70:	71098993          	addi	s3,s3,1808 # 2710 <CHRV3s11+0x108>
C:\Repository\RISKYKVM\firmware\Bootloader\obj/../User/Host_IAP/usb_host_iap.c:732
                strcpy( (char *)mCmdParam.Open.mPathName, (char *)pCodeStr );       //Search for filenames, * is a wildcard, for all files or subdirectories
     e74:	96490593          	addi	a1,s2,-1692
     e78:	11c18513          	addi	a0,gp,284 # 2000097c <mCmdParam>
     e7c:	021020ef          	jal	ra,369c <strcpy>
C:\Repository\RISKYKVM\firmware\Bootloader\obj/../User/Host_IAP/usb_host_iap.c:733
                ret = strlen( (char *)mCmdParam.Open.mPathName );
     e80:	11c18513          	addi	a0,gp,284 # 2000097c <mCmdParam>
     e84:	02b020ef          	jal	ra,36ae <strlen>
C:\Repository\RISKYKVM\firmware\Bootloader\obj/../User/Host_IAP/usb_host_iap.c:734
                mCmdParam.Open.mPathName[ ret ] = 0xFF;             //Replace the terminator with the search number according to the length of the string, from 0 to 254,if it is 0xFF that is 255, then the search number is in the CHRV3vFileSize variable
     e88:	11c18793          	addi	a5,gp,284 # 2000097c <mCmdParam>
     e8c:	953e                	add	a0,a0,a5
     e8e:	01550023          	sb	s5,0(a0)
C:\Repository\RISKYKVM\firmware\Bootloader\obj/../User/Host_IAP/usb_host_iap.c:735
                CHRV3vFileSize = i;                                 //Specify the serial number of the search/enumeration
     e92:	1a81a423          	sw	s0,424(gp) # 20000a08 <CHRV3vFileSize>
C:\Repository\RISKYKVM\firmware\Bootloader\obj/../User/Host_IAP/usb_host_iap.c:736
                ret = CHRV3FileOpen( );                             //Open a file, if the file name contains a wildcard *, the file is searched for and not opened
     e96:	69b010ef          	jal	ra,2d30 <CHRV3FileOpen>
     e9a:	01051793          	slli	a5,a0,0x10
     e9e:	83c1                	srli	a5,a5,0x10
C:\Repository\RISKYKVM\firmware\Bootloader\obj/../User/Host_IAP/usb_host_iap.c:737
                if ( ret == ERR_MISS_FILE )                         //The only difference between CHRV3FileEnum and CHRV3FileOpen is that when the latter returns ERR_FOUND_NAME, then the former returns ERR_SUCCESS.
     ea0:	01778e63          	beq	a5,s7,ebc <IAP_Main_Deal+0x132>
C:\Repository\RISKYKVM\firmware\Bootloader\obj/../User/Host_IAP/usb_host_iap.c:741
                if ( ret == ERR_FOUND_NAME )                        //Search for a file name matching the wildcard, the file name and its full path are in the command buffer
     ea4:	05879f63          	bne	a5,s8,f02 <IAP_Main_Deal+0x178>
C:\Repository\RISKYKVM\firmware\Bootloader\obj/../User/Host_IAP/usb_host_iap.c:743
                    DUG_PRINTF( "  match file %04d#: %s\r\n", (unsigned int)i, mCmdParam.Open.mPathName );//Display the serial number and the name of the matching file or subdirectory searched
     ea8:	85a2                	mv	a1,s0
     eaa:	11c18613          	addi	a2,gp,284 # 2000097c <mCmdParam>
     eae:	97ca0513          	addi	a0,s4,-1668 # 497c <_read+0x128>
     eb2:	0405                	addi	s0,s0,1
     eb4:	698020ef          	jal	ra,354c <iprintf>
C:\Repository\RISKYKVM\firmware\Bootloader\obj/../User/Host_IAP/usb_host_iap.c:730
            for ( i = 0; i < 10000; i ++ )                          //Search up to the first 10,000 files, practically no limit
     eb8:	fb341ee3          	bne	s0,s3,e74 <IAP_Main_Deal+0xea>
C:\Repository\RISKYKVM\firmware\Bootloader\obj/../User/Host_IAP/usb_host_iap.c:828
                DUG_PRINTF( "IAP length checksum ERR. \r\n" );
                blinkLed(100, 100);
            }
        }
    }
}
     ebc:	50f2                	lw	ra,60(sp)
     ebe:	5462                	lw	s0,56(sp)
     ec0:	54d2                	lw	s1,52(sp)
     ec2:	5942                	lw	s2,48(sp)
     ec4:	59b2                	lw	s3,44(sp)
     ec6:	5a22                	lw	s4,40(sp)
     ec8:	5a92                	lw	s5,36(sp)
     eca:	5b02                	lw	s6,32(sp)
     ecc:	4bf2                	lw	s7,28(sp)
     ece:	4c62                	lw	s8,24(sp)
     ed0:	4cd2                	lw	s9,20(sp)
     ed2:	4d42                	lw	s10,16(sp)
     ed4:	4db2                	lw	s11,12(sp)
     ed6:	6121                	addi	sp,sp,64
     ed8:	8082                	ret
C:\Repository\RISKYKVM\firmware\Bootloader\obj/../User/Host_IAP/usb_host_iap.c:707 (discriminator 2)
                  DUG_PRINTF("Not Ready Code :%02x.\r\n", ret);
     eda:	90098513          	addi	a0,s3,-1792
     ede:	66e020ef          	jal	ra,354c <iprintf>
C:\Repository\RISKYKVM\firmware\Bootloader\obj/../User/Host_IAP/usb_host_iap.c:708 (discriminator 2)
                  DUG_PRINTF("CHRV3DiskStatus:%02x.\n", CHRV3DiskStatus);
     ee2:	1981c583          	lbu	a1,408(gp) # 200009f8 <CHRV3DiskStatus>
     ee6:	91890513          	addi	a0,s2,-1768
     eea:	147d                	addi	s0,s0,-1
     eec:	660020ef          	jal	ra,354c <iprintf>
C:\Repository\RISKYKVM\firmware\Bootloader\obj/../User/Host_IAP/usb_host_iap.c:710 (discriminator 2)
              Delay_Ms( 50 );
     ef0:	0442                	slli	s0,s0,0x10
     ef2:	03200513          	li	a0,50
     ef6:	8041                	srli	s0,s0,0x10
     ef8:	301000ef          	jal	ra,19f8 <Delay_Ms>
C:\Repository\RISKYKVM\firmware\Bootloader\obj/../User/Host_IAP/usb_host_iap.c:693 (discriminator 2)
        for ( i = 0; i != 10; i ++ )
     efc:	ec0411e3          	bnez	s0,dbe <IAP_Main_Deal+0x34>
     f00:	bdcd                	j	df2 <IAP_Main_Deal+0x68>
C:\Repository\RISKYKVM\firmware\Bootloader\obj/../User/Host_IAP/usb_host_iap.c:828
}
     f02:	5462                	lw	s0,56(sp)
     f04:	50f2                	lw	ra,60(sp)
     f06:	54d2                	lw	s1,52(sp)
     f08:	5942                	lw	s2,48(sp)
     f0a:	59b2                	lw	s3,44(sp)
     f0c:	5a22                	lw	s4,40(sp)
     f0e:	5a92                	lw	s5,36(sp)
     f10:	5b02                	lw	s6,32(sp)
     f12:	4bf2                	lw	s7,28(sp)
     f14:	4c62                	lw	s8,24(sp)
     f16:	4cd2                	lw	s9,20(sp)
     f18:	4d42                	lw	s10,16(sp)
     f1a:	4db2                	lw	s11,12(sp)
     f1c:	6121                	addi	sp,sp,64
C:\Repository\RISKYKVM\firmware\Bootloader\obj/../User/Host_IAP/usb_host_iap.c:748
                    mStopIfError( ret );
     f1e:	be19                	j	a34 <mStopIfError>
C:\Repository\RISKYKVM\firmware\Bootloader\obj/../User/Host_IAP/usb_host_iap.c:756
            DUG_PRINTF( "File Found, Start IAP Process\r\n" );
     f20:	00005537          	lui	a0,0x5
     f24:	99850513          	addi	a0,a0,-1640 # 4998 <_read+0x144>
     f28:	768020ef          	jal	ra,3690 <puts>
C:\Repository\RISKYKVM\firmware\Bootloader\obj/../User/Host_IAP/usb_host_iap.c:758
            totalcount = CHRV3vFileSize;
     f2c:	1a81aa03          	lw	s4,424(gp) # 20000a08 <CHRV3vFileSize>
C:\Repository\RISKYKVM\firmware\Bootloader\obj/../User/Host_IAP/usb_host_iap.c:759
            DUG_PRINTF( "File size in bytes: %d.\r\n", totalcount );
     f30:	00005537          	lui	a0,0x5
     f34:	9b850513          	addi	a0,a0,-1608 # 49b8 <_read+0x164>
     f38:	85d2                	mv	a1,s4
     f3a:	612020ef          	jal	ra,354c <iprintf>
C:\Repository\RISKYKVM\firmware\Bootloader\obj/../User/Host_IAP/usb_host_iap.c:761
            Flash_Operation_Key0 = DEF_FLASH_OPERATION_KEY_CODE_0;
     f3e:	e081aa23          	sw	s0,-492(gp) # 20000674 <Flash_Operation_Key0>
C:\Repository\RISKYKVM\firmware\Bootloader\obj/../User/Host_IAP/usb_host_iap.c:762
            IAP_Load_Addr_Offset = 0;
     f42:	f001ac23          	sw	zero,-232(gp) # 20000778 <IAP_Load_Addr_Offset>
C:\Repository\RISKYKVM\firmware\Bootloader\obj/../User/Host_IAP/usb_host_iap.c:763
            IAP_WriteIn_Length = 0;
     f46:	e001a823          	sw	zero,-496(gp) # 20000670 <IAP_WriteIn_Length>
C:\Repository\RISKYKVM\firmware\Bootloader\obj/../User/Host_IAP/usb_host_iap.c:785
                  IAPLoadBuffer[IAP_WriteIn_Length]=mCmdParam.ByteRead.mByteBuffer[i];
     f4a:	20000bb7          	lui	s7,0x20000
C:\Repository\RISKYKVM\firmware\Bootloader\obj/../User/Host_IAP/usb_host_iap.c:764
            IAP_WriteIn_Count = 0;
     f4e:	de01a623          	sw	zero,-532(gp) # 2000064c <IAP_WriteIn_Count>
C:\Repository\RISKYKVM\firmware\Bootloader\obj/../User/Host_IAP/usb_host_iap.c:766
            while ( totalcount )
     f52:	03f00d13          	li	s10,63
C:\Repository\RISKYKVM\firmware\Bootloader\obj/../User/Host_IAP/usb_host_iap.c:779
                mCmdParam.ByteRead.mByteBuffer= &Com_Buffer[0];
     f56:	e1818c13          	addi	s8,gp,-488 # 20000678 <Com_Buffer>
     f5a:	11c18d93          	addi	s11,gp,284 # 2000097c <mCmdParam>
C:\Repository\RISKYKVM\firmware\Bootloader\obj/../User/Host_IAP/usb_host_iap.c:785
                  IAPLoadBuffer[IAP_WriteIn_Length]=mCmdParam.ByteRead.mByteBuffer[i];
     f5e:	238b8b93          	addi	s7,s7,568 # 20000238 <IAPLoadBuffer>
C:\Repository\RISKYKVM\firmware\Bootloader\obj/../User/Host_IAP/usb_host_iap.c:766
            while ( totalcount )
     f62:	040a0563          	beqz	s4,fac <IAP_Main_Deal+0x222>
C:\Repository\RISKYKVM\firmware\Bootloader\obj/../User/Host_IAP/usb_host_iap.c:770
                if ( totalcount > (MAX_PATH_LEN-1) )
     f66:	8cd2                	mv	s9,s4
     f68:	014d7463          	bgeu	s10,s4,f70 <IAP_Main_Deal+0x1e6>
     f6c:	03f00c93          	li	s9,63
C:\Repository\RISKYKVM\firmware\Bootloader\obj/../User/Host_IAP/usb_host_iap.c:779
                mCmdParam.ByteRead.mByteBuffer= &Com_Buffer[0];
     f70:	11c18793          	addi	a5,gp,284 # 2000097c <mCmdParam>
     f74:	0187a223          	sw	s8,4(a5)
C:\Repository\RISKYKVM\firmware\Bootloader\obj/../User/Host_IAP/usb_host_iap.c:778
                mCmdParam.ByteRead.mByteCount = t;                 //Request to read out tens of bytes of data
     f78:	11919e23          	sh	s9,284(gp) # 2000097c <mCmdParam>
C:\Repository\RISKYKVM\firmware\Bootloader\obj/../User/Host_IAP/usb_host_iap.c:780
                ret = CHRV3ByteRead( );                            //Read the data block in bytes, the length of a single read/write cannot exceed MAX_BYTE_IO, and the second call is followed by a backward read.
     f7c:	39e020ef          	jal	ra,331a <CHRV3ByteRead>
C:\Repository\RISKYKVM\firmware\Bootloader\obj/../User/Host_IAP/usb_host_iap.c:781
                mStopIfError( ret );
     f80:	3c55                	jal	a34 <mStopIfError>
C:\Repository\RISKYKVM\firmware\Bootloader\obj/../User/Host_IAP/usb_host_iap.c:782
                totalcount -= mCmdParam.ByteRead.mByteCount;       //Counting, subtracting the number of characters that have actually been read out
     f82:	11c1d783          	lhu	a5,284(gp) # 2000097c <mCmdParam>
C:\Repository\RISKYKVM\firmware\Bootloader\obj/../User/Host_IAP/usb_host_iap.c:783
                for(i=0;i<mCmdParam.ByteRead.mByteCount;i++)
     f86:	4a81                	li	s5,0
C:\Repository\RISKYKVM\firmware\Bootloader\obj/../User/Host_IAP/usb_host_iap.c:788
                  if( IAP_WriteIn_Length == DEF_MAX_IAP_BUFFER_LEN )
     f88:	40000693          	li	a3,1024
C:\Repository\RISKYKVM\firmware\Bootloader\obj/../User/Host_IAP/usb_host_iap.c:782
                totalcount -= mCmdParam.ByteRead.mByteCount;       //Counting, subtracting the number of characters that have actually been read out
     f8c:	40fa0a33          	sub	s4,s4,a5
C:\Repository\RISKYKVM\firmware\Bootloader\obj/../User/Host_IAP/usb_host_iap.c:791
                      ret = IAP_Flash_Program( DEF_APP_CODE_START_ADDR+IAP_Load_Addr_Offset, IAPLoadBuffer, IAP_WriteIn_Length );
     f90:	08008837          	lui	a6,0x8008
C:\Repository\RISKYKVM\firmware\Bootloader\obj/../User/Host_IAP/usb_host_iap.c:783 (discriminator 1)
                for(i=0;i<mCmdParam.ByteRead.mByteCount;i++)
     f94:	11c1d783          	lhu	a5,284(gp) # 2000097c <mCmdParam>
     f98:	08faeb63          	bltu	s5,a5,102e <IAP_Main_Deal+0x2a4>
C:\Repository\RISKYKVM\firmware\Bootloader\obj/../User/Host_IAP/usb_host_iap.c:799
                if ( mCmdParam.ByteRead.mByteCount < t )            //The actual number of characters read is less than the number of characters requested, which means that the end of the file has been reached.
     f9c:	fd97f3e3          	bgeu	a5,s9,f62 <IAP_Main_Deal+0x1d8>
C:\Repository\RISKYKVM\firmware\Bootloader\obj/../User/Host_IAP/usb_host_iap.c:801
                    DUG_PRINTF( "\r\nFile End.\r\n" );
     fa0:	00005537          	lui	a0,0x5
     fa4:	9d450513          	addi	a0,a0,-1580 # 49d4 <_read+0x180>
     fa8:	6e8020ef          	jal	ra,3690 <puts>
C:\Repository\RISKYKVM\firmware\Bootloader\obj/../User/Host_IAP/usb_host_iap.c:806
            CHRV3FileClose( );
     fac:	2a6020ef          	jal	ra,3252 <CHRV3FileClose>
C:\Repository\RISKYKVM\firmware\Bootloader\obj/../User/Host_IAP/usb_host_iap.c:808
            ret = IAP_Flash_Program( DEF_APP_CODE_START_ADDR+IAP_Load_Addr_Offset, IAPLoadBuffer, IAP_WriteIn_Length );
     fb0:	f181a503          	lw	a0,-232(gp) # 20000778 <IAP_Load_Addr_Offset>
     fb4:	e101a603          	lw	a2,-496(gp) # 20000670 <IAP_WriteIn_Length>
     fb8:	080087b7          	lui	a5,0x8008
     fbc:	200005b7          	lui	a1,0x20000
     fc0:	23858593          	addi	a1,a1,568 # 20000238 <IAPLoadBuffer>
     fc4:	953e                	add	a0,a0,a5
     fc6:	3c11                	jal	9da <IAP_Flash_Program>
C:\Repository\RISKYKVM\firmware\Bootloader\obj/../User/Host_IAP/usb_host_iap.c:809
            mStopIfError( ret );
     fc8:	0ff57513          	andi	a0,a0,255
     fcc:	34a5                	jal	a34 <mStopIfError>
C:\Repository\RISKYKVM\firmware\Bootloader\obj/../User/Host_IAP/usb_host_iap.c:810
            IAP_WriteIn_Count += IAP_WriteIn_Length;
     fce:	e101a703          	lw	a4,-496(gp) # 20000670 <IAP_WriteIn_Length>
     fd2:	dec1a783          	lw	a5,-532(gp) # 2000064c <IAP_WriteIn_Count>
C:\Repository\RISKYKVM\firmware\Bootloader\obj/../User/Host_IAP/usb_host_iap.c:812
            DUG_PRINTF( "\r\nFileSze : %d,%d.\r\n", (int)CHRV3vFileSize, IAP_WriteIn_Count );
     fd6:	1a81a583          	lw	a1,424(gp) # 20000a08 <CHRV3vFileSize>
     fda:	00005537          	lui	a0,0x5
C:\Repository\RISKYKVM\firmware\Bootloader\obj/../User/Host_IAP/usb_host_iap.c:810
            IAP_WriteIn_Count += IAP_WriteIn_Length;
     fde:	97ba                	add	a5,a5,a4
     fe0:	def1a623          	sw	a5,-532(gp) # 2000064c <IAP_WriteIn_Count>
C:\Repository\RISKYKVM\firmware\Bootloader\obj/../User/Host_IAP/usb_host_iap.c:812
            DUG_PRINTF( "\r\nFileSze : %d,%d.\r\n", (int)CHRV3vFileSize, IAP_WriteIn_Count );
     fe4:	dec1a603          	lw	a2,-532(gp) # 2000064c <IAP_WriteIn_Count>
     fe8:	9e450513          	addi	a0,a0,-1564 # 49e4 <_read+0x190>
     fec:	560020ef          	jal	ra,354c <iprintf>
C:\Repository\RISKYKVM\firmware\Bootloader\obj/../User/Host_IAP/usb_host_iap.c:813
            if( CHRV3vFileSize == IAP_WriteIn_Count )
     ff0:	dec1a783          	lw	a5,-532(gp) # 2000064c <IAP_WriteIn_Count>
     ff4:	1a81a703          	lw	a4,424(gp) # 20000a08 <CHRV3vFileSize>
     ff8:	0af71263          	bne	a4,a5,109c <IAP_Main_Deal+0x312>
C:\Repository\RISKYKVM\firmware\Bootloader\obj/../User/Host_IAP/usb_host_iap.c:815
                DUG_PRINTF( "\r\nIAP End.\r\n" );
     ffc:	00005537          	lui	a0,0x5
    1000:	9fc50513          	addi	a0,a0,-1540 # 49fc <_read+0x1a8>
    1004:	68c020ef          	jal	ra,3690 <puts>
C:\Repository\RISKYKVM\firmware\Bootloader\obj/../User/Host_IAP/usb_host_iap.c:816
                blinkLed(10,500);
    1008:	1f400593          	li	a1,500
    100c:	4529                	li	a0,10
    100e:	2275                	jal	11ba <blinkLed>
C:\Repository\RISKYKVM\firmware\Bootloader\obj/../User/Host_IAP/usb_host_iap.c:828
}
    1010:	5462                	lw	s0,56(sp)
    1012:	50f2                	lw	ra,60(sp)
    1014:	54d2                	lw	s1,52(sp)
    1016:	5942                	lw	s2,48(sp)
    1018:	59b2                	lw	s3,44(sp)
    101a:	5a22                	lw	s4,40(sp)
    101c:	5a92                	lw	s5,36(sp)
    101e:	5b02                	lw	s6,32(sp)
    1020:	4bf2                	lw	s7,28(sp)
    1022:	4c62                	lw	s8,24(sp)
    1024:	4cd2                	lw	s9,20(sp)
    1026:	4d42                	lw	s10,16(sp)
    1028:	4db2                	lw	s11,12(sp)
    102a:	6121                	addi	sp,sp,64
C:\Repository\RISKYKVM\firmware\Bootloader\obj/../User/Host_IAP/usb_host_iap.c:818
                 IAP_Jump_APP( );
    102c:	badd                	j	a22 <IAP_Jump_APP>
C:\Repository\RISKYKVM\firmware\Bootloader\obj/../User/Host_IAP/usb_host_iap.c:785
                  IAPLoadBuffer[IAP_WriteIn_Length]=mCmdParam.ByteRead.mByteBuffer[i];
    102e:	004da703          	lw	a4,4(s11)
    1032:	e101a783          	lw	a5,-496(gp) # 20000670 <IAP_WriteIn_Length>
    1036:	9756                	add	a4,a4,s5
    1038:	00074703          	lbu	a4,0(a4)
    103c:	97de                	add	a5,a5,s7
    103e:	00e78023          	sb	a4,0(a5) # 8008000 <_bootloader_limit+0x8000000>
C:\Repository\RISKYKVM\firmware\Bootloader\obj/../User/Host_IAP/usb_host_iap.c:786
                  IAP_WriteIn_Length++;
    1042:	e101a783          	lw	a5,-496(gp) # 20000670 <IAP_WriteIn_Length>
    1046:	0785                	addi	a5,a5,1
    1048:	e0f1a823          	sw	a5,-496(gp) # 20000670 <IAP_WriteIn_Length>
C:\Repository\RISKYKVM\firmware\Bootloader\obj/../User/Host_IAP/usb_host_iap.c:788
                  if( IAP_WriteIn_Length == DEF_MAX_IAP_BUFFER_LEN )
    104c:	e101a783          	lw	a5,-496(gp) # 20000670 <IAP_WriteIn_Length>
    1050:	04d79163          	bne	a5,a3,1092 <IAP_Main_Deal+0x308>
C:\Repository\RISKYKVM\firmware\Bootloader\obj/../User/Host_IAP/usb_host_iap.c:791
                      ret = IAP_Flash_Program( DEF_APP_CODE_START_ADDR+IAP_Load_Addr_Offset, IAPLoadBuffer, IAP_WriteIn_Length );
    1054:	f181a503          	lw	a0,-232(gp) # 20000778 <IAP_Load_Addr_Offset>
    1058:	e101a603          	lw	a2,-496(gp) # 20000670 <IAP_WriteIn_Length>
    105c:	85de                	mv	a1,s7
    105e:	9542                	add	a0,a0,a6
    1060:	97bff0ef          	jal	ra,9da <IAP_Flash_Program>
C:\Repository\RISKYKVM\firmware\Bootloader\obj/../User/Host_IAP/usb_host_iap.c:792
                      mStopIfError( ret );
    1064:	0ff57513          	andi	a0,a0,255
    1068:	9cdff0ef          	jal	ra,a34 <mStopIfError>
C:\Repository\RISKYKVM\firmware\Bootloader\obj/../User/Host_IAP/usb_host_iap.c:793
                      IAP_Load_Addr_Offset += DEF_MAX_IAP_BUFFER_LEN;
    106c:	f181a783          	lw	a5,-232(gp) # 20000778 <IAP_Load_Addr_Offset>
C:\Repository\RISKYKVM\firmware\Bootloader\obj/../User/Host_IAP/usb_host_iap.c:795
                      IAP_WriteIn_Length = 0;
    1070:	40000693          	li	a3,1024
    1074:	08008837          	lui	a6,0x8008
C:\Repository\RISKYKVM\firmware\Bootloader\obj/../User/Host_IAP/usb_host_iap.c:793
                      IAP_Load_Addr_Offset += DEF_MAX_IAP_BUFFER_LEN;
    1078:	40078793          	addi	a5,a5,1024
    107c:	f0f1ac23          	sw	a5,-232(gp) # 20000778 <IAP_Load_Addr_Offset>
C:\Repository\RISKYKVM\firmware\Bootloader\obj/../User/Host_IAP/usb_host_iap.c:794
                      IAP_WriteIn_Count += IAP_WriteIn_Length;
    1080:	e101a703          	lw	a4,-496(gp) # 20000670 <IAP_WriteIn_Length>
    1084:	dec1a783          	lw	a5,-532(gp) # 2000064c <IAP_WriteIn_Count>
    1088:	97ba                	add	a5,a5,a4
    108a:	def1a623          	sw	a5,-532(gp) # 2000064c <IAP_WriteIn_Count>
C:\Repository\RISKYKVM\firmware\Bootloader\obj/../User/Host_IAP/usb_host_iap.c:795
                      IAP_WriteIn_Length = 0;
    108e:	e001a823          	sw	zero,-496(gp) # 20000670 <IAP_WriteIn_Length>
C:\Repository\RISKYKVM\firmware\Bootloader\obj/../User/Host_IAP/usb_host_iap.c:783 (discriminator 2)
                for(i=0;i<mCmdParam.ByteRead.mByteCount;i++)
    1092:	0a85                	addi	s5,s5,1
    1094:	0ac2                	slli	s5,s5,0x10
    1096:	010ada93          	srli	s5,s5,0x10
    109a:	bded                	j	f94 <IAP_Main_Deal+0x20a>
C:\Repository\RISKYKVM\firmware\Bootloader\obj/../User/Host_IAP/usb_host_iap.c:823
                DUG_PRINTF( "IAP length checksum ERR. \r\n" );
    109c:	00005537          	lui	a0,0x5
    10a0:	a0850513          	addi	a0,a0,-1528 # 4a08 <_read+0x1b4>
    10a4:	5ec020ef          	jal	ra,3690 <puts>
C:\Repository\RISKYKVM\firmware\Bootloader\obj/../User/Host_IAP/usb_host_iap.c:828
}
    10a8:	5462                	lw	s0,56(sp)
    10aa:	50f2                	lw	ra,60(sp)
    10ac:	54d2                	lw	s1,52(sp)
    10ae:	5942                	lw	s2,48(sp)
    10b0:	59b2                	lw	s3,44(sp)
    10b2:	5a22                	lw	s4,40(sp)
    10b4:	5a92                	lw	s5,36(sp)
    10b6:	5b02                	lw	s6,32(sp)
    10b8:	4bf2                	lw	s7,28(sp)
    10ba:	4c62                	lw	s8,24(sp)
    10bc:	4cd2                	lw	s9,20(sp)
    10be:	4d42                	lw	s10,16(sp)
    10c0:	4db2                	lw	s11,12(sp)
C:\Repository\RISKYKVM\firmware\Bootloader\obj/../User/Host_IAP/usb_host_iap.c:824
                blinkLed(100, 100);
    10c2:	06400593          	li	a1,100
    10c6:	06400513          	li	a0,100
C:\Repository\RISKYKVM\firmware\Bootloader\obj/../User/Host_IAP/usb_host_iap.c:828
}
    10ca:	6121                	addi	sp,sp,64
C:\Repository\RISKYKVM\firmware\Bootloader\obj/../User/Host_IAP/usb_host_iap.c:824
                blinkLed(100, 100);
    10cc:	a0fd                	j	11ba <blinkLed>

000010ce <NMI_Handler>:
NMI_Handler():
C:\Repository\RISKYKVM\firmware\Bootloader\obj/../User/ch32v20x_it.c:27
 *
 * @return  none
 */
void NMI_Handler(void)
{
}
    10ce:	30200073          	mret

000010d2 <HardFault_Handler>:
HardFault_Handler():
C:\Repository\RISKYKVM\firmware\Bootloader\obj/../User/ch32v20x_it.c:40 (discriminator 1)
 */
void HardFault_Handler(void)
{
  while (1)
  {
  }
    10d2:	a001                	j	10d2 <HardFault_Handler>

000010d4 <SW_Handler>:
SW_Handler():
C:\Repository\RISKYKVM\firmware\Bootloader\obj/../User/ch32v20x_it.c:53
 * @return  none
 */
void SW_Handler(void)
{

    __asm("j _bootloader_limit");
    10d4:	72d0606f          	j	8000 <_bootloader_limit>
C:\Repository\RISKYKVM\firmware\Bootloader\obj/../User/ch32v20x_it.c:56 (discriminator 1)


    while(1);
    10d8:	a001                	j	10d8 <SW_Handler+0x4>

000010da <main>:
main():
C:\Repository\RISKYKVM\firmware\Bootloader\obj/../User/main.c:35
 * @return  none
 */

int main(void)
{
    USART_Printf_Init( 115200 );
    10da:	6571                	lui	a0,0x1c
C:\Repository\RISKYKVM\firmware\Bootloader\obj/../User/main.c:34
{
    10dc:	1141                	addi	sp,sp,-16
C:\Repository\RISKYKVM\firmware\Bootloader\obj/../User/main.c:35
    USART_Printf_Init( 115200 );
    10de:	20050513          	addi	a0,a0,512 # 1c200 <_bootloader_limit+0x14200>
C:\Repository\RISKYKVM\firmware\Bootloader\obj/../User/main.c:34
{
    10e2:	c606                	sw	ra,12(sp)
C:\Repository\RISKYKVM\firmware\Bootloader\obj/../User/main.c:35
    USART_Printf_Init( 115200 );
    10e4:	14b000ef          	jal	ra,1a2e <USART_Printf_Init>
C:\Repository\RISKYKVM\firmware\Bootloader\obj/../User/main.c:36
    Delay_Init( );
    10e8:	0b1000ef          	jal	ra,1998 <Delay_Init>
C:\Repository\RISKYKVM\firmware\Bootloader\obj/../User/main.c:37
    InitStuff();
    10ec:	2a19                	jal	1202 <InitStuff>
C:\Repository\RISKYKVM\firmware\Bootloader\obj/../User/main.c:38
    if (!GPIO_ReadInputDataBit(GPIOA, GPIO_Pin_14)) IAP_Jump_APP();
    10ee:	40011537          	lui	a0,0x40011
    10f2:	6591                	lui	a1,0x4
    10f4:	80050513          	addi	a0,a0,-2048 # 40010800 <_eusrstack+0x2000b800>
    10f8:	017000ef          	jal	ra,190e <GPIO_ReadInputDataBit>
    10fc:	e119                	bnez	a0,1102 <main+0x28>
C:\Repository\RISKYKVM\firmware\Bootloader\obj/../User/main.c:38 (discriminator 1)
    10fe:	925ff0ef          	jal	ra,a22 <IAP_Jump_APP>
C:\Repository\RISKYKVM\firmware\Bootloader\obj/../User/main.c:39
    blinkLed(3,500);
    1102:	1f400593          	li	a1,500
    1106:	450d                	li	a0,3
    1108:	284d                	jal	11ba <blinkLed>
C:\Repository\RISKYKVM\firmware\Bootloader\obj/../User/main.c:41

    IAP_Initialization( );
    110a:	943ff0ef          	jal	ra,a4c <IAP_Initialization>
C:\Repository\RISKYKVM\firmware\Bootloader\obj/../User/main.c:45 (discriminator 1)

    while( 1 )
    {
        IAP_Main_Deal( );
    110e:	39b5                	jal	d8a <IAP_Main_Deal>
    1110:	bffd                	j	110e <main+0x34>

00001112 <SystemInit>:
SystemInit():
C:\Repository\RISKYKVM\firmware\Bootloader\obj/../User/system_ch32v20x.c:113
 *
 * @return  none
 */
void SystemInit (void)
{
  RCC->CTLR |= (uint32_t)0x00000001;
    1112:	400217b7          	lui	a5,0x40021
    1116:	4398                	lw	a4,0(a5)
C:\Repository\RISKYKVM\firmware\Bootloader\obj/../User/system_ch32v20x.c:114
  RCC->CFGR0 &= (uint32_t)0xF8FF0000;
    1118:	f8ff06b7          	lui	a3,0xf8ff0
C:\Repository\RISKYKVM\firmware\Bootloader\obj/../User/system_ch32v20x.c:113
  RCC->CTLR |= (uint32_t)0x00000001;
    111c:	00176713          	ori	a4,a4,1
    1120:	c398                	sw	a4,0(a5)
C:\Repository\RISKYKVM\firmware\Bootloader\obj/../User/system_ch32v20x.c:114
  RCC->CFGR0 &= (uint32_t)0xF8FF0000;
    1122:	43d8                	lw	a4,4(a5)
    1124:	8f75                	and	a4,a4,a3
    1126:	c3d8                	sw	a4,4(a5)
C:\Repository\RISKYKVM\firmware\Bootloader\obj/../User/system_ch32v20x.c:115
  RCC->CTLR &= (uint32_t)0xFEF6FFFF;
    1128:	4398                	lw	a4,0(a5)
    112a:	fef706b7          	lui	a3,0xfef70
    112e:	16fd                	addi	a3,a3,-1
    1130:	8f75                	and	a4,a4,a3
    1132:	c398                	sw	a4,0(a5)
C:\Repository\RISKYKVM\firmware\Bootloader\obj/../User/system_ch32v20x.c:116
  RCC->CTLR &= (uint32_t)0xFFFBFFFF;
    1134:	4398                	lw	a4,0(a5)
    1136:	fffc06b7          	lui	a3,0xfffc0
    113a:	16fd                	addi	a3,a3,-1
    113c:	8f75                	and	a4,a4,a3
    113e:	c398                	sw	a4,0(a5)
C:\Repository\RISKYKVM\firmware\Bootloader\obj/../User/system_ch32v20x.c:117
  RCC->CFGR0 &= (uint32_t)0xFF80FFFF;
    1140:	43d8                	lw	a4,4(a5)
    1142:	ff8106b7          	lui	a3,0xff810
    1146:	16fd                	addi	a3,a3,-1
    1148:	8f75                	and	a4,a4,a3
    114a:	c3d8                	sw	a4,4(a5)
C:\Repository\RISKYKVM\firmware\Bootloader\obj/../User/system_ch32v20x.c:118
  RCC->INTR = 0x009F0000;    
    114c:	009f0737          	lui	a4,0x9f0
    1150:	c798                	sw	a4,8(a5)
SetSysClock():
C:\Repository\RISKYKVM\firmware\Bootloader\obj/../User/system_ch32v20x.c:956
 *
 * @return  none
 */
static void SetSysClockTo144_HSI(void)
{
    EXTEN->EXTEN_CTR |= EXTEN_PLL_HSI_PRE;
    1152:	400246b7          	lui	a3,0x40024
    1156:	8006a703          	lw	a4,-2048(a3) # 40023800 <_eusrstack+0x2001e800>
    115a:	01076713          	ori	a4,a4,16
    115e:	80e6a023          	sw	a4,-2048(a3)
C:\Repository\RISKYKVM\firmware\Bootloader\obj/../User/system_ch32v20x.c:959

    /* HCLK = SYSCLK */
    RCC->CFGR0 |= (uint32_t)RCC_HPRE_DIV1;
    1162:	43d8                	lw	a4,4(a5)
C:\Repository\RISKYKVM\firmware\Bootloader\obj/../User/system_ch32v20x.c:966
    RCC->CFGR0 |= (uint32_t)RCC_PPRE2_DIV1;
    /* PCLK1 = HCLK */
    RCC->CFGR0 |= (uint32_t)RCC_PPRE1_DIV2;

    /*  PLL configuration: PLLCLK = HSI * 18 = 144 MHz */
    RCC->CFGR0 &= (uint32_t)((uint32_t)~(RCC_PLLSRC | RCC_PLLXTPRE | RCC_PLLMULL));
    1164:	ffc106b7          	lui	a3,0xffc10
    1168:	16fd                	addi	a3,a3,-1
C:\Repository\RISKYKVM\firmware\Bootloader\obj/../User/system_ch32v20x.c:959
    RCC->CFGR0 |= (uint32_t)RCC_HPRE_DIV1;
    116a:	c3d8                	sw	a4,4(a5)
C:\Repository\RISKYKVM\firmware\Bootloader\obj/../User/system_ch32v20x.c:961
    RCC->CFGR0 |= (uint32_t)RCC_PPRE2_DIV1;
    116c:	43d8                	lw	a4,4(a5)
    116e:	c3d8                	sw	a4,4(a5)
C:\Repository\RISKYKVM\firmware\Bootloader\obj/../User/system_ch32v20x.c:963
    RCC->CFGR0 |= (uint32_t)RCC_PPRE1_DIV2;
    1170:	43d8                	lw	a4,4(a5)
    1172:	40076713          	ori	a4,a4,1024
    1176:	c3d8                	sw	a4,4(a5)
C:\Repository\RISKYKVM\firmware\Bootloader\obj/../User/system_ch32v20x.c:966
    RCC->CFGR0 &= (uint32_t)((uint32_t)~(RCC_PLLSRC | RCC_PLLXTPRE | RCC_PLLMULL));
    1178:	43d8                	lw	a4,4(a5)
    117a:	8f75                	and	a4,a4,a3
    117c:	c3d8                	sw	a4,4(a5)
C:\Repository\RISKYKVM\firmware\Bootloader\obj/../User/system_ch32v20x.c:968

     RCC->CFGR0 |= (uint32_t)(RCC_PLLSRC_HSI_Div2 | RCC_PLLMULL18);
    117e:	43d8                	lw	a4,4(a5)
    1180:	003c06b7          	lui	a3,0x3c0
    1184:	8f55                	or	a4,a4,a3
    1186:	c3d8                	sw	a4,4(a5)
C:\Repository\RISKYKVM\firmware\Bootloader\obj/../User/system_ch32v20x.c:971

    /* Enable PLL */
    RCC->CTLR |= RCC_PLLON;
    1188:	4398                	lw	a4,0(a5)
    118a:	010006b7          	lui	a3,0x1000
    118e:	8f55                	or	a4,a4,a3
    1190:	c398                	sw	a4,0(a5)
C:\Repository\RISKYKVM\firmware\Bootloader\obj/../User/system_ch32v20x.c:973
    /* Wait till PLL is ready */
    while((RCC->CTLR & RCC_PLLRDY) == 0)
    1192:	4398                	lw	a4,0(a5)
    1194:	00671693          	slli	a3,a4,0x6
    1198:	fe06dde3          	bgez	a3,1192 <SystemInit+0x80>
C:\Repository\RISKYKVM\firmware\Bootloader\obj/../User/system_ch32v20x.c:977
    {
    }
    /* Select PLL as system clock source */
    RCC->CFGR0 &= (uint32_t)((uint32_t)~(RCC_SW));
    119c:	43d8                	lw	a4,4(a5)
C:\Repository\RISKYKVM\firmware\Bootloader\obj/../User/system_ch32v20x.c:980
    RCC->CFGR0 |= (uint32_t)RCC_SW_PLL;
    /* Wait till PLL is used as system clock source */
    while ((RCC->CFGR0 & (uint32_t)RCC_SWS) != (uint32_t)0x08)
    119e:	400216b7          	lui	a3,0x40021
C:\Repository\RISKYKVM\firmware\Bootloader\obj/../User/system_ch32v20x.c:977
    RCC->CFGR0 &= (uint32_t)((uint32_t)~(RCC_SW));
    11a2:	9b71                	andi	a4,a4,-4
    11a4:	c3d8                	sw	a4,4(a5)
C:\Repository\RISKYKVM\firmware\Bootloader\obj/../User/system_ch32v20x.c:978
    RCC->CFGR0 |= (uint32_t)RCC_SW_PLL;
    11a6:	43d8                	lw	a4,4(a5)
    11a8:	00276713          	ori	a4,a4,2
    11ac:	c3d8                	sw	a4,4(a5)
C:\Repository\RISKYKVM\firmware\Bootloader\obj/../User/system_ch32v20x.c:980
    while ((RCC->CFGR0 & (uint32_t)RCC_SWS) != (uint32_t)0x08)
    11ae:	4721                	li	a4,8
    11b0:	42dc                	lw	a5,4(a3)
    11b2:	8bb1                	andi	a5,a5,12
    11b4:	fee79ee3          	bne	a5,a4,11b0 <SystemInit+0x9e>
SystemInit():
C:\Repository\RISKYKVM\firmware\Bootloader\obj/../User/system_ch32v20x.c:120
}
    11b8:	8082                	ret

000011ba <blinkLed>:
blinkLed():
C:\Repository\RISKYKVM\firmware\Bootloader\obj/../User/utils.c:4
#include "utils.h"

void blinkLed(int number,int delayms)
{
    11ba:	1141                	addi	sp,sp,-16
    11bc:	c422                	sw	s0,8(sp)
    11be:	c226                	sw	s1,4(sp)
    11c0:	c04a                	sw	s2,0(sp)
    11c2:	c606                	sw	ra,12(sp)
    11c4:	892a                	mv	s2,a0
    11c6:	84ae                	mv	s1,a1
C:\Repository\RISKYKVM\firmware\Bootloader\obj/../User/utils.c:7
    int i;

    for (i = 0; i < number; i++) {
    11c8:	4401                	li	s0,0
C:\Repository\RISKYKVM\firmware\Bootloader\obj/../User/utils.c:7 (discriminator 1)
    11ca:	01244863          	blt	s0,s2,11da <blinkLed+0x20>
C:\Repository\RISKYKVM\firmware\Bootloader\obj/../User/utils.c:13
        GPIO_WriteBit(GPIOC, GPIO_Pin_14, Bit_RESET);
        Delay_Ms(delayms);
        GPIO_WriteBit(GPIOC, GPIO_Pin_14, Bit_SET);
        Delay_Ms(delayms);
    }
}
    11ce:	40b2                	lw	ra,12(sp)
    11d0:	4422                	lw	s0,8(sp)
    11d2:	4492                	lw	s1,4(sp)
    11d4:	4902                	lw	s2,0(sp)
    11d6:	0141                	addi	sp,sp,16
    11d8:	8082                	ret
C:\Repository\RISKYKVM\firmware\Bootloader\obj/../User/utils.c:8 (discriminator 3)
        GPIO_WriteBit(GPIOC, GPIO_Pin_14, Bit_RESET);
    11da:	4601                	li	a2,0
    11dc:	6591                	lui	a1,0x4
    11de:	40011537          	lui	a0,0x40011
    11e2:	746000ef          	jal	ra,1928 <GPIO_WriteBit>
C:\Repository\RISKYKVM\firmware\Bootloader\obj/../User/utils.c:9 (discriminator 3)
        Delay_Ms(delayms);
    11e6:	8526                	mv	a0,s1
    11e8:	011000ef          	jal	ra,19f8 <Delay_Ms>
C:\Repository\RISKYKVM\firmware\Bootloader\obj/../User/utils.c:10 (discriminator 3)
        GPIO_WriteBit(GPIOC, GPIO_Pin_14, Bit_SET);
    11ec:	4605                	li	a2,1
    11ee:	6591                	lui	a1,0x4
    11f0:	40011537          	lui	a0,0x40011
    11f4:	734000ef          	jal	ra,1928 <GPIO_WriteBit>
C:\Repository\RISKYKVM\firmware\Bootloader\obj/../User/utils.c:11 (discriminator 3)
        Delay_Ms(delayms);
    11f8:	8526                	mv	a0,s1
    11fa:	7fe000ef          	jal	ra,19f8 <Delay_Ms>
C:\Repository\RISKYKVM\firmware\Bootloader\obj/../User/utils.c:7 (discriminator 3)
    for (i = 0; i < number; i++) {
    11fe:	0405                	addi	s0,s0,1
    1200:	b7e9                	j	11ca <blinkLed+0x10>

00001202 <InitStuff>:
InitStuff():
C:\Repository\RISKYKVM\firmware\Bootloader\obj/../User/utils.c:16

void InitStuff(void)
{
    1202:	1101                	addi	sp,sp,-32
C:\Repository\RISKYKVM\firmware\Bootloader\obj/../User/utils.c:21
        GPIO_InitTypeDef GPIO_InitStructure;



        RCC_APB2PeriphClockCmd(RCC_APB2Periph_GPIOA, ENABLE);
    1204:	4585                	li	a1,1
    1206:	4511                	li	a0,4
C:\Repository\RISKYKVM\firmware\Bootloader\obj/../User/utils.c:16
{
    1208:	ce06                	sw	ra,28(sp)
    120a:	cc22                	sw	s0,24(sp)
    120c:	ca26                	sw	s1,20(sp)
    120e:	c84a                	sw	s2,16(sp)
C:\Repository\RISKYKVM\firmware\Bootloader\obj/../User/utils.c:21
        RCC_APB2PeriphClockCmd(RCC_APB2Periph_GPIOA, ENABLE);
    1210:	76a000ef          	jal	ra,197a <RCC_APB2PeriphClockCmd>
C:\Repository\RISKYKVM\firmware\Bootloader\obj/../User/utils.c:22
        RCC_APB2PeriphClockCmd(RCC_APB2Periph_GPIOC, ENABLE);
    1214:	4585                	li	a1,1
    1216:	4541                	li	a0,16
    1218:	762000ef          	jal	ra,197a <RCC_APB2PeriphClockCmd>
C:\Repository\RISKYKVM\firmware\Bootloader\obj/../User/utils.c:28



        GPIO_InitStructure.GPIO_Pin = GPIO_Pin_14;
        GPIO_InitStructure.GPIO_Mode = GPIO_Mode_IPD;
        GPIO_Init(GPIOA, &GPIO_InitStructure);
    121c:	40011937          	lui	s2,0x40011
C:\Repository\RISKYKVM\firmware\Bootloader\obj/../User/utils.c:26
        GPIO_InitStructure.GPIO_Pin = GPIO_Pin_14;
    1220:	6491                	lui	s1,0x4
C:\Repository\RISKYKVM\firmware\Bootloader\obj/../User/utils.c:27
        GPIO_InitStructure.GPIO_Mode = GPIO_Mode_IPD;
    1222:	02800793          	li	a5,40
C:\Repository\RISKYKVM\firmware\Bootloader\obj/../User/utils.c:28
        GPIO_Init(GPIOA, &GPIO_InitStructure);
    1226:	004c                	addi	a1,sp,4
    1228:	80090513          	addi	a0,s2,-2048 # 40010800 <_eusrstack+0x2000b800>
C:\Repository\RISKYKVM\firmware\Bootloader\obj/../User/utils.c:26
        GPIO_InitStructure.GPIO_Pin = GPIO_Pin_14;
    122c:	00911223          	sh	s1,4(sp)
C:\Repository\RISKYKVM\firmware\Bootloader\obj/../User/utils.c:27
        GPIO_InitStructure.GPIO_Mode = GPIO_Mode_IPD;
    1230:	c63e                	sw	a5,12(sp)
C:\Repository\RISKYKVM\firmware\Bootloader\obj/../User/utils.c:28
        GPIO_Init(GPIOA, &GPIO_InitStructure);
    1232:	23d5                	jal	1816 <GPIO_Init>
C:\Repository\RISKYKVM\firmware\Bootloader\obj/../User/utils.c:30

        GPIO_InitStructure.GPIO_Pin = GPIO_Pin_13;
    1234:	6789                	lui	a5,0x2
C:\Repository\RISKYKVM\firmware\Bootloader\obj/../User/utils.c:31
        GPIO_InitStructure.GPIO_Mode = GPIO_Mode_Out_PP;
    1236:	4441                	li	s0,16
C:\Repository\RISKYKVM\firmware\Bootloader\obj/../User/utils.c:32
        GPIO_Init(GPIOA, &GPIO_InitStructure);
    1238:	004c                	addi	a1,sp,4
    123a:	80090513          	addi	a0,s2,-2048
C:\Repository\RISKYKVM\firmware\Bootloader\obj/../User/utils.c:30
        GPIO_InitStructure.GPIO_Pin = GPIO_Pin_13;
    123e:	00f11223          	sh	a5,4(sp)
C:\Repository\RISKYKVM\firmware\Bootloader\obj/../User/utils.c:31
        GPIO_InitStructure.GPIO_Mode = GPIO_Mode_Out_PP;
    1242:	c622                	sw	s0,12(sp)
C:\Repository\RISKYKVM\firmware\Bootloader\obj/../User/utils.c:32
        GPIO_Init(GPIOA, &GPIO_InitStructure);
    1244:	2bc9                	jal	1816 <GPIO_Init>
C:\Repository\RISKYKVM\firmware\Bootloader\obj/../User/utils.c:37


        GPIO_InitStructure.GPIO_Pin = GPIO_Pin_14;
        GPIO_InitStructure.GPIO_Mode = GPIO_Mode_Out_PP;
        GPIO_InitStructure.GPIO_Speed = GPIO_Speed_50MHz;
    1246:	478d                	li	a5,3
C:\Repository\RISKYKVM\firmware\Bootloader\obj/../User/utils.c:38
        GPIO_Init(GPIOC, &GPIO_InitStructure);
    1248:	004c                	addi	a1,sp,4
    124a:	40011537          	lui	a0,0x40011
C:\Repository\RISKYKVM\firmware\Bootloader\obj/../User/utils.c:35
        GPIO_InitStructure.GPIO_Pin = GPIO_Pin_14;
    124e:	00911223          	sh	s1,4(sp)
C:\Repository\RISKYKVM\firmware\Bootloader\obj/../User/utils.c:36
        GPIO_InitStructure.GPIO_Mode = GPIO_Mode_Out_PP;
    1252:	c622                	sw	s0,12(sp)
C:\Repository\RISKYKVM\firmware\Bootloader\obj/../User/utils.c:37
        GPIO_InitStructure.GPIO_Speed = GPIO_Speed_50MHz;
    1254:	c43e                	sw	a5,8(sp)
C:\Repository\RISKYKVM\firmware\Bootloader\obj/../User/utils.c:38
        GPIO_Init(GPIOC, &GPIO_InitStructure);
    1256:	23c1                	jal	1816 <GPIO_Init>
C:\Repository\RISKYKVM\firmware\Bootloader\obj/../User/utils.c:39
        GPIO_WriteBit(GPIOC, GPIO_Pin_14, Bit_SET);
    1258:	4605                	li	a2,1
    125a:	6591                	lui	a1,0x4
    125c:	40011537          	lui	a0,0x40011
    1260:	25e1                	jal	1928 <GPIO_WriteBit>
C:\Repository\RISKYKVM\firmware\Bootloader\obj/../User/utils.c:42


}
    1262:	40f2                	lw	ra,28(sp)
    1264:	4462                	lw	s0,24(sp)
    1266:	44d2                	lw	s1,20(sp)
    1268:	4942                	lw	s2,16(sp)
    126a:	6105                	addi	sp,sp,32
    126c:	8082                	ret

0000126e <DeInitStuff>:
DeInitStuff():
C:\Repository\RISKYKVM\firmware\Bootloader\obj/../User/utils.c:46


void DeInitStuff(void)
{
    126e:	1141                	addi	sp,sp,-16
C:\Repository\RISKYKVM\firmware\Bootloader\obj/../User/utils.c:51
    //GPIO_DeInit(GPIOA);
    //GPIO_DeInit(GPIOC);
   // USBFS_Host_Init( DISABLE );

    RCC_APB2PeriphClockCmd(RCC_APB2Periph_GPIOA, DISABLE);
    1270:	4581                	li	a1,0
    1272:	4511                	li	a0,4
C:\Repository\RISKYKVM\firmware\Bootloader\obj/../User/utils.c:46
{
    1274:	c606                	sw	ra,12(sp)
C:\Repository\RISKYKVM\firmware\Bootloader\obj/../User/utils.c:51
    RCC_APB2PeriphClockCmd(RCC_APB2Periph_GPIOA, DISABLE);
    1276:	2711                	jal	197a <RCC_APB2PeriphClockCmd>
C:\Repository\RISKYKVM\firmware\Bootloader\obj/../User/utils.c:54
    RCC_APB2PeriphClockCmd(RCC_APB2Periph_GPIOC, DISABLE);

}
    1278:	40b2                	lw	ra,12(sp)
C:\Repository\RISKYKVM\firmware\Bootloader\obj/../User/utils.c:52
    RCC_APB2PeriphClockCmd(RCC_APB2Periph_GPIOC, DISABLE);
    127a:	4581                	li	a1,0
    127c:	4541                	li	a0,16
C:\Repository\RISKYKVM\firmware\Bootloader\obj/../User/utils.c:54
}
    127e:	0141                	addi	sp,sp,16
C:\Repository\RISKYKVM\firmware\Bootloader\obj/../User/utils.c:52
    RCC_APB2PeriphClockCmd(RCC_APB2Periph_GPIOC, DISABLE);
    1280:	aded                	j	197a <RCC_APB2PeriphClockCmd>

00001282 <USBHostTransact>:
USBHostTransact():
C:/Repository/RISKYKVM/firmware/src/Udisk_Lib/CH32V103UFI.c:26
#include "ch32v20x.h"
#include "usb_host_config.h"
#include "CHRV3UFI.h"

uint8_t USBHostTransact( uint8_t endp_pid, uint8_t tog, uint32_t timeout )
{
    1282:	7179                	addi	sp,sp,-48
    1284:	ce4e                	sw	s3,28(sp)
    1286:	c462                	sw	s8,8(sp)
    1288:	d606                	sw	ra,44(sp)
    128a:	d422                	sw	s0,40(sp)
    128c:	d226                	sw	s1,36(sp)
    128e:	d04a                	sw	s2,32(sp)
    1290:	cc52                	sw	s4,24(sp)
    1292:	ca56                	sw	s5,20(sp)
    1294:	c85a                	sw	s6,16(sp)
    1296:	c65e                	sw	s7,12(sp)
    1298:	c266                	sw	s9,4(sp)
    129a:	c06a                	sw	s10,0(sp)
C:/Repository/RISKYKVM/firmware/src/Udisk_Lib/CH32V103UFI.c:29
    uint8_t  r, trans_rerty;
    uint16_t i;
    USBOTG_H_FS->HOST_TX_CTRL = USBOTG_H_FS->HOST_RX_CTRL = 0;
    129c:	500007b7          	lui	a5,0x50000
    12a0:	02078da3          	sb	zero,59(a5) # 5000003b <_eusrstack+0x2fffb03b>
C:/Repository/RISKYKVM/firmware/src/Udisk_Lib/CH32V103UFI.c:30
    if( tog & 0x80 )
    12a4:	01859713          	slli	a4,a1,0x18
C:/Repository/RISKYKVM/firmware/src/Udisk_Lib/CH32V103UFI.c:29
    USBOTG_H_FS->HOST_TX_CTRL = USBOTG_H_FS->HOST_RX_CTRL = 0;
    12a8:	02078f23          	sb	zero,62(a5)
C:/Repository/RISKYKVM/firmware/src/Udisk_Lib/CH32V103UFI.c:30
    if( tog & 0x80 )
    12ac:	8761                	srai	a4,a4,0x18
C:/Repository/RISKYKVM/firmware/src/Udisk_Lib/CH32V103UFI.c:26
{
    12ae:	89aa                	mv	s3,a0
    12b0:	8c32                	mv	s8,a2
C:/Repository/RISKYKVM/firmware/src/Udisk_Lib/CH32V103UFI.c:30
    if( tog & 0x80 )
    12b2:	00075563          	bgez	a4,12bc <USBHostTransact+0x3a>
C:/Repository/RISKYKVM/firmware/src/Udisk_Lib/CH32V103UFI.c:32
    {
        USBOTG_H_FS->HOST_RX_CTRL = 1<<2;
    12b6:	4711                	li	a4,4
    12b8:	02e78da3          	sb	a4,59(a5)
C:/Repository/RISKYKVM/firmware/src/Udisk_Lib/CH32V103UFI.c:34
    }
    if( tog & 0x40 )
    12bc:	0405f593          	andi	a1,a1,64
    12c0:	c591                	beqz	a1,12cc <USBHostTransact+0x4a>
C:/Repository/RISKYKVM/firmware/src/Udisk_Lib/CH32V103UFI.c:36
    {
        USBOTG_H_FS->HOST_TX_CTRL = 1<<2;
    12c2:	500007b7          	lui	a5,0x50000
    12c6:	4711                	li	a4,4
    12c8:	02e78f23          	sb	a4,62(a5) # 5000003e <_eusrstack+0x2fffb03e>
C:/Repository/RISKYKVM/firmware/src/Udisk_Lib/CH32V103UFI.c:70
            {
                if( timeout == 0 )
                {
                    return ( r | ERR_USB_TRANSFER );
                }
                if( timeout < 0xFFFF )
    12cc:	6941                	lui	s2,0x10
C:/Repository/RISKYKVM/firmware/src/Udisk_Lib/CH32V103UFI.c:76
                {
                    timeout--;
                }
                --trans_rerty;
            }
            else switch ( endp_pid >> 4 )
    12ce:	0049d493          	srli	s1,s3,0x4
    12d2:	4401                	li	s0,0
C:/Repository/RISKYKVM/firmware/src/Udisk_Lib/CH32V103UFI.c:41
        USBOTG_H_FS->HOST_EP_PID = endp_pid;       // Specify token PID and endpoint number
    12d4:	50000cb7          	lui	s9,0x50000
C:/Repository/RISKYKVM/firmware/src/Udisk_Lib/CH32V103UFI.c:42
        USBOTG_H_FS->INT_FG = USBFS_UIF_TRANSFER;  // Allow transmission
    12d8:	4a89                	li	s5,2
C:/Repository/RISKYKVM/firmware/src/Udisk_Lib/CH32V103UFI.c:60
            if( r == USB_PID_STALL )
    12da:	4b39                	li	s6,14
C:/Repository/RISKYKVM/firmware/src/Udisk_Lib/CH32V103UFI.c:64
            if( r == USB_PID_NAK )
    12dc:	4a29                	li	s4,10
    12de:	4ba5                	li	s7,9
C:/Repository/RISKYKVM/firmware/src/Udisk_Lib/CH32V103UFI.c:70
                if( timeout < 0xFFFF )
    12e0:	1979                	addi	s2,s2,-2
C:/Repository/RISKYKVM/firmware/src/Udisk_Lib/CH32V103UFI.c:41
        USBOTG_H_FS->HOST_EP_PID = endp_pid;       // Specify token PID and endpoint number
    12e2:	033c8c23          	sb	s3,56(s9) # 50000038 <_eusrstack+0x2fffb038>
C:/Repository/RISKYKVM/firmware/src/Udisk_Lib/CH32V103UFI.c:42
        USBOTG_H_FS->INT_FG = USBFS_UIF_TRANSFER;  // Allow transmission
    12e6:	015c8323          	sb	s5,6(s9)
    12ea:	3e800d13          	li	s10,1000
C:/Repository/RISKYKVM/firmware/src/Udisk_Lib/CH32V103UFI.c:43 (discriminator 3)
        for( i = DEF_WAIT_USB_TOUT_200US; ( i != 0 ) && ( ( USBOTG_H_FS->INT_FG & USBFS_UIF_TRANSFER ) == 0 ); i-- )
    12ee:	006cc783          	lbu	a5,6(s9)
    12f2:	8b89                	andi	a5,a5,2
    12f4:	eb89                	bnez	a5,1306 <USBHostTransact+0x84>
C:/Repository/RISKYKVM/firmware/src/Udisk_Lib/CH32V103UFI.c:45 (discriminator 4)
            Delay_Us( 1 );
    12f6:	1d7d                	addi	s10,s10,-1
    12f8:	0d42                	slli	s10,s10,0x10
    12fa:	4505                	li	a0,1
    12fc:	010d5d13          	srli	s10,s10,0x10
    1300:	25c9                	jal	19c2 <Delay_Us>
C:/Repository/RISKYKVM/firmware/src/Udisk_Lib/CH32V103UFI.c:43 (discriminator 4)
        for( i = DEF_WAIT_USB_TOUT_200US; ( i != 0 ) && ( ( USBOTG_H_FS->INT_FG & USBFS_UIF_TRANSFER ) == 0 ); i-- )
    1302:	fe0d16e3          	bnez	s10,12ee <USBHostTransact+0x6c>
C:/Repository/RISKYKVM/firmware/src/Udisk_Lib/CH32V103UFI.c:47
        USBOTG_H_FS->HOST_EP_PID = 0x00;  // Stop USB transfer
    1306:	020c8c23          	sb	zero,56(s9)
C:/Repository/RISKYKVM/firmware/src/Udisk_Lib/CH32V103UFI.c:48
        if( ( USBOTG_H_FS->INT_FG & USBFS_UIF_TRANSFER ) == 0 )
    130a:	006cc783          	lbu	a5,6(s9)
    130e:	8b89                	andi	a5,a5,2
    1310:	e781                	bnez	a5,1318 <USBHostTransact+0x96>
C:/Repository/RISKYKVM/firmware/src/Udisk_Lib/CH32V103UFI.c:96
                    {
                        return ( r | ERR_USB_TRANSFER );
                    }
                    break;
                default:
                    return ERR_USB_UNKNOWN;
    1312:	0fe00513          	li	a0,254
    1316:	a8b1                	j	1372 <USBHostTransact+0xf0>
C:/Repository/RISKYKVM/firmware/src/Udisk_Lib/CH32V103UFI.c:55
            if( USBOTG_H_FS->INT_ST & USBFS_UIS_TOG_OK )
    1318:	007cc783          	lbu	a5,7(s9)
    131c:	0407f793          	andi	a5,a5,64
    1320:	efbd                	bnez	a5,139e <USBHostTransact+0x11c>
C:/Repository/RISKYKVM/firmware/src/Udisk_Lib/CH32V103UFI.c:59
            r = USBOTG_H_FS->INT_ST & USBFS_UIS_H_RES_MASK;  // USB device answer status
    1322:	007cc503          	lbu	a0,7(s9)
    1326:	893d                	andi	a0,a0,15
C:/Repository/RISKYKVM/firmware/src/Udisk_Lib/CH32V103UFI.c:60
            if( r == USB_PID_STALL )
    1328:	07650d63          	beq	a0,s6,13a2 <USBHostTransact+0x120>
C:/Repository/RISKYKVM/firmware/src/Udisk_Lib/CH32V103UFI.c:64
            if( r == USB_PID_NAK )
    132c:	03451863          	bne	a0,s4,135c <USBHostTransact+0xda>
C:/Repository/RISKYKVM/firmware/src/Udisk_Lib/CH32V103UFI.c:66
                if( timeout == 0 )
    1330:	060c0c63          	beqz	s8,13a8 <USBHostTransact+0x126>
C:/Repository/RISKYKVM/firmware/src/Udisk_Lib/CH32V103UFI.c:70
                if( timeout < 0xFFFF )
    1334:	01896363          	bltu	s2,s8,133a <USBHostTransact+0xb8>
C:/Repository/RISKYKVM/firmware/src/Udisk_Lib/CH32V103UFI.c:72
                    timeout--;
    1338:	1c7d                	addi	s8,s8,-1
C:/Repository/RISKYKVM/firmware/src/Udisk_Lib/CH32V103UFI.c:74
                --trans_rerty;
    133a:	147d                	addi	s0,s0,-1
    133c:	0ff47413          	andi	s0,s0,255
C:/Repository/RISKYKVM/firmware/src/Udisk_Lib/CH32V103UFI.c:99
            }
        }
        Delay_Us( 15 );
    1340:	453d                	li	a0,15
    1342:	2541                	jal	19c2 <Delay_Us>
C:/Repository/RISKYKVM/firmware/src/Udisk_Lib/CH32V103UFI.c:100
        if( USBOTG_H_FS->INT_FG & USBFS_UIF_DETECT )
    1344:	006cc783          	lbu	a5,6(s9)
    1348:	8b85                	andi	a5,a5,1
    134a:	e3b1                	bnez	a5,138e <USBHostTransact+0x10c>
C:/Repository/RISKYKVM/firmware/src/Udisk_Lib/CH32V103UFI.c:108
            if( USBFSH_CheckRootHubPortEnable( ) == 0 )
            {
                return ERR_USB_DISCON;  // USB device disconnect event
            }
        }
    }while( ++trans_rerty < 10 );
    134c:	0405                	addi	s0,s0,1
    134e:	0ff47413          	andi	s0,s0,255
    1352:	f94418e3          	bne	s0,s4,12e2 <USBHostTransact+0x60>
C:/Repository/RISKYKVM/firmware/src/Udisk_Lib/CH32V103UFI.c:110

    return ERR_USB_TRANSFER; // Reply timeout
    1356:	02000513          	li	a0,32
    135a:	a821                	j	1372 <USBHostTransact+0xf0>
C:/Repository/RISKYKVM/firmware/src/Udisk_Lib/CH32V103UFI.c:76
            else switch ( endp_pid >> 4 )
    135c:	01748863          	beq	s1,s7,136c <USBHostTransact+0xea>
    1360:	47b5                	li	a5,13
    1362:	00f48563          	beq	s1,a5,136c <USBHostTransact+0xea>
    1366:	4785                	li	a5,1
    1368:	faf495e3          	bne	s1,a5,1312 <USBHostTransact+0x90>
C:/Repository/RISKYKVM/firmware/src/Udisk_Lib/CH32V103UFI.c:90
                    else if( r )
    136c:	d971                	beqz	a0,1340 <USBHostTransact+0xbe>
C:/Repository/RISKYKVM/firmware/src/Udisk_Lib/CH32V103UFI.c:92
                        return ( r | ERR_USB_TRANSFER );
    136e:	02056513          	ori	a0,a0,32
C:/Repository/RISKYKVM/firmware/src/Udisk_Lib/CH32V103UFI.c:111
}
    1372:	50b2                	lw	ra,44(sp)
    1374:	5422                	lw	s0,40(sp)
    1376:	5492                	lw	s1,36(sp)
    1378:	5902                	lw	s2,32(sp)
    137a:	49f2                	lw	s3,28(sp)
    137c:	4a62                	lw	s4,24(sp)
    137e:	4ad2                	lw	s5,20(sp)
    1380:	4b42                	lw	s6,16(sp)
    1382:	4bb2                	lw	s7,12(sp)
    1384:	4c22                	lw	s8,8(sp)
    1386:	4c92                	lw	s9,4(sp)
    1388:	4d02                	lw	s10,0(sp)
    138a:	6145                	addi	sp,sp,48
    138c:	8082                	ret
C:/Repository/RISKYKVM/firmware/src/Udisk_Lib/CH32V103UFI.c:102
            Delay_Us( 200 );
    138e:	0c800513          	li	a0,200
    1392:	2d05                	jal	19c2 <Delay_Us>
C:/Repository/RISKYKVM/firmware/src/Udisk_Lib/CH32V103UFI.c:103
            if( USBFSH_CheckRootHubPortEnable( ) == 0 )
    1394:	f4ffe0ef          	jal	ra,2e2 <USBFSH_CheckRootHubPortEnable>
    1398:	f955                	bnez	a0,134c <USBHostTransact+0xca>
C:/Repository/RISKYKVM/firmware/src/Udisk_Lib/CH32V103UFI.c:105
                return ERR_USB_DISCON;  // USB device disconnect event
    139a:	4559                	li	a0,22
    139c:	bfd9                	j	1372 <USBHostTransact+0xf0>
C:/Repository/RISKYKVM/firmware/src/Udisk_Lib/CH32V103UFI.c:57
                return ERR_SUCCESS;
    139e:	4501                	li	a0,0
    13a0:	bfc9                	j	1372 <USBHostTransact+0xf0>
C:/Repository/RISKYKVM/firmware/src/Udisk_Lib/CH32V103UFI.c:62
                return ( r | ERR_USB_TRANSFER );
    13a2:	02e00513          	li	a0,46
    13a6:	b7f1                	j	1372 <USBHostTransact+0xf0>
C:/Repository/RISKYKVM/firmware/src/Udisk_Lib/CH32V103UFI.c:68
                    return ( r | ERR_USB_TRANSFER );
    13a8:	02a00513          	li	a0,42
    13ac:	b7d9                	j	1372 <USBHostTransact+0xf0>

000013ae <HostCtrlTransfer>:
HostCtrlTransfer():
C:/Repository/RISKYKVM/firmware/src/Udisk_Lib/CH32V103UFI.c:114

uint8_t HostCtrlTransfer( uint8_t *DataBuf, uint8_t *RetLen )
{
    13ae:	1101                	addi	sp,sp,-32
    13b0:	ce06                	sw	ra,28(sp)
C:/Repository/RISKYKVM/firmware/src/Udisk_Lib/CH32V103UFI.c:117
    uint8_t  ret;
    uint16_t retlen;
    retlen = (uint16_t)(*RetLen);
    13b2:	0005c783          	lbu	a5,0(a1) # 4000 <_vfiprintf_r+0xb8>
C:/Repository/RISKYKVM/firmware/src/Udisk_Lib/CH32V103UFI.c:118
    ret = USBFSH_CtrlTransfer( RootHubDev[ DEF_USB_PORT_FS ].bEp0MaxPks, DataBuf, &retlen );
    13b6:	85aa                	mv	a1,a0
    13b8:	00e10613          	addi	a2,sp,14
C:/Repository/RISKYKVM/firmware/src/Udisk_Lib/CH32V103UFI.c:117
    retlen = (uint16_t)(*RetLen);
    13bc:	00f11723          	sh	a5,14(sp)
C:/Repository/RISKYKVM/firmware/src/Udisk_Lib/CH32V103UFI.c:118
    ret = USBFSH_CtrlTransfer( RootHubDev[ DEF_USB_PORT_FS ].bEp0MaxPks, DataBuf, &retlen );
    13c0:	df41c503          	lbu	a0,-524(gp) # 20000654 <RootHubDev+0x4>
    13c4:	93aff0ef          	jal	ra,4fe <USBFSH_CtrlTransfer>
C:/Repository/RISKYKVM/firmware/src/Udisk_Lib/CH32V103UFI.c:120
    return ret;
}
    13c8:	40f2                	lw	ra,28(sp)
    13ca:	6105                	addi	sp,sp,32
    13cc:	8082                	ret

000013ce <CtrlGetConfigDescrTB>:
CtrlGetConfigDescrTB():
C:/Repository/RISKYKVM/firmware/src/Udisk_Lib/CH32V103UFI.c:147

uint8_t CtrlGetConfigDescrTB( void )
{
    uint16_t len;
    uint8_t  ret;
    ret = USBFSH_GetConfigDescr( RootHubDev[ DEF_USB_PORT_FS ].bEp0MaxPks, TxBuffer, 256, &len );
    13ce:	df41c503          	lbu	a0,-524(gp) # 20000654 <RootHubDev+0x4>
C:/Repository/RISKYKVM/firmware/src/Udisk_Lib/CH32V103UFI.c:144
{
    13d2:	1101                	addi	sp,sp,-32
C:/Repository/RISKYKVM/firmware/src/Udisk_Lib/CH32V103UFI.c:147
    ret = USBFSH_GetConfigDescr( RootHubDev[ DEF_USB_PORT_FS ].bEp0MaxPks, TxBuffer, 256, &len );
    13d4:	00e10693          	addi	a3,sp,14
    13d8:	10000613          	li	a2,256
    13dc:	88818593          	addi	a1,gp,-1912 # 200000e8 <TxBuffer>
C:/Repository/RISKYKVM/firmware/src/Udisk_Lib/CH32V103UFI.c:144
{
    13e0:	ce06                	sw	ra,28(sp)
C:/Repository/RISKYKVM/firmware/src/Udisk_Lib/CH32V103UFI.c:147
    ret = USBFSH_GetConfigDescr( RootHubDev[ DEF_USB_PORT_FS ].bEp0MaxPks, TxBuffer, 256, &len );
    13e2:	b24ff0ef          	jal	ra,706 <USBFSH_GetConfigDescr>
C:/Repository/RISKYKVM/firmware/src/Udisk_Lib/CH32V103UFI.c:149
    return ret;
}
    13e6:	40f2                	lw	ra,28(sp)
    13e8:	6105                	addi	sp,sp,32
    13ea:	8082                	ret

000013ec <CtrlSetUsbConfig>:
CtrlSetUsbConfig():
C:/Repository/RISKYKVM/firmware/src/Udisk_Lib/CH32V103UFI.c:154

uint8_t CtrlSetUsbConfig( uint8_t cfg )
{
    uint8_t ret;
    ret = USBFSH_SetUsbConfig( RootHubDev[ DEF_USB_PORT_FS ].bEp0MaxPks, cfg );
    13ec:	85aa                	mv	a1,a0
    13ee:	df41c503          	lbu	a0,-524(gp) # 20000654 <RootHubDev+0x4>
    13f2:	beaff06f          	j	7dc <USBFSH_SetUsbConfig>

000013f6 <CtrlClearEndpStall>:
CtrlClearEndpStall():
C:/Repository/RISKYKVM/firmware/src/Udisk_Lib/CH32V103UFI.c:168
}

uint8_t CtrlClearEndpStall( uint8_t endp )
{
    uint8_t ret;
    ret = USBFSH_ClearEndpStall( RootHubDev[ DEF_USB_PORT_FS ].bEp0MaxPks, endp );
    13f6:	85aa                	mv	a1,a0
    13f8:	df41c503          	lbu	a0,-524(gp) # 20000654 <RootHubDev+0x4>
    13fc:	bfcff06f          	j	7f8 <USBFSH_ClearEndpStall>

00001400 <CHRV3ReadSector>:
CHRV3ReadSector():
C:/Repository/RISKYKVM/firmware/src/Udisk_Lib/CH32V103UFI.c:211
//    CHRV3vSectorSizeB=9;   // ,5129,102410,204811
//    CHRV3DiskStatus=DISK_MOUNTED;  // ()
//}

uint8_t	CHRV3ReadSector( uint8_t SectCount, uint8_t *DataBuf )  /*  */
{
    1400:	7179                	addi	sp,sp,-48
    1402:	d422                	sw	s0,40(sp)
    1404:	ce4e                	sw	s3,28(sp)
C:/Repository/RISKYKVM/firmware/src/Udisk_Lib/CH32V103UFI.c:218
//	if ( use_external_interface ) return( extReadSector( CHRV3vLbaCurrent, SectCount, DataBuf ) );  /*  */
	for( retry = 0; retry < 3; retry ++ ) {  /*  */
		pCBW -> mCBW_DataLen = (uint32_t)SectCount << CHRV3vSectorSizeB;  /*  */
		pCBW -> mCBW_Flag = 0x80;
		pCBW -> mCBW_LUN = CHRV3vCurrentLun;
		pCBW -> mCBW_CB_Len = 10;
    1406:	698d                	lui	s3,0x3
C:/Repository/RISKYKVM/firmware/src/Udisk_Lib/CH32V103UFI.c:211
{
    1408:	d226                	sw	s1,36(sp)
    140a:	d04a                	sw	s2,32(sp)
    140c:	cc52                	sw	s4,24(sp)
    140e:	ca56                	sw	s5,20(sp)
    1410:	c85a                	sw	s6,16(sp)
    1412:	c65e                	sw	s7,12(sp)
    1414:	c462                	sw	s8,8(sp)
    1416:	c266                	sw	s9,4(sp)
    1418:	c06a                	sw	s10,0(sp)
    141a:	d606                	sw	ra,44(sp)
    141c:	8a2a                	mv	s4,a0
    141e:	8b2e                	mv	s6,a1
C:/Repository/RISKYKVM/firmware/src/Udisk_Lib/CH32V103UFI.c:214
	for( retry = 0; retry < 3; retry ++ ) {  /*  */
    1420:	4481                	li	s1,0
C:/Repository/RISKYKVM/firmware/src/Udisk_Lib/CH32V103UFI.c:215
		pCBW -> mCBW_DataLen = (uint32_t)SectCount << CHRV3vSectorSizeB;  /*  */
    1422:	88818413          	addi	s0,gp,-1912 # 200000e8 <TxBuffer>
C:/Repository/RISKYKVM/firmware/src/Udisk_Lib/CH32V103UFI.c:216
		pCBW -> mCBW_Flag = 0x80;
    1426:	f8000c13          	li	s8,-128
C:/Repository/RISKYKVM/firmware/src/Udisk_Lib/CH32V103UFI.c:218
		pCBW -> mCBW_CB_Len = 10;
    142a:	80a98993          	addi	s3,s3,-2038 # 280a <CHRV3s11+0x202>
C:/Repository/RISKYKVM/firmware/src/Udisk_Lib/CH32V103UFI.c:214
	for( retry = 0; retry < 3; retry ++ ) {  /*  */
    142e:	4a8d                	li	s5,3
C:/Repository/RISKYKVM/firmware/src/Udisk_Lib/CH32V103UFI.c:215
		pCBW -> mCBW_DataLen = (uint32_t)SectCount << CHRV3vSectorSizeB;  /*  */
    1430:	1dd1c783          	lbu	a5,477(gp) # 20000a3d <CHRV3vSectorSizeB>
C:/Repository/RISKYKVM/firmware/src/Udisk_Lib/CH32V103UFI.c:229
		pCBW -> mCBW_CB_Buf[ 5 ] = (uint8_t)( CHRV3vLbaCurrent );
		pCBW -> mCBW_CB_Buf[ 6 ] = 0x00;
		pCBW -> mCBW_CB_Buf[ 7 ] = 0x00;
		pCBW -> mCBW_CB_Buf[ 8 ] = SectCount;
		pCBW -> mCBW_CB_Buf[ 9 ] = 0x00;
		CHRV3BulkOnlyCmd( DataBuf );  /* BulkOnly */
    1434:	855a                	mv	a0,s6
C:/Repository/RISKYKVM/firmware/src/Udisk_Lib/CH32V103UFI.c:216
		pCBW -> mCBW_Flag = 0x80;
    1436:	01840623          	sb	s8,12(s0)
C:/Repository/RISKYKVM/firmware/src/Udisk_Lib/CH32V103UFI.c:215
		pCBW -> mCBW_DataLen = (uint32_t)SectCount << CHRV3vSectorSizeB;  /*  */
    143a:	00fa17b3          	sll	a5,s4,a5
    143e:	c41c                	sw	a5,8(s0)
C:/Repository/RISKYKVM/firmware/src/Udisk_Lib/CH32V103UFI.c:217
		pCBW -> mCBW_LUN = CHRV3vCurrentLun;
    1440:	1c81c783          	lbu	a5,456(gp) # 20000a28 <CHRV3vCurrentLun>
C:/Repository/RISKYKVM/firmware/src/Udisk_Lib/CH32V103UFI.c:218
		pCBW -> mCBW_CB_Len = 10;
    1444:	01341723          	sh	s3,14(s0)
C:/Repository/RISKYKVM/firmware/src/Udisk_Lib/CH32V103UFI.c:220
		pCBW -> mCBW_CB_Buf[ 1 ] = 0x00;
    1448:	00040823          	sb	zero,16(s0)
C:/Repository/RISKYKVM/firmware/src/Udisk_Lib/CH32V103UFI.c:217
		pCBW -> mCBW_LUN = CHRV3vCurrentLun;
    144c:	00f406a3          	sb	a5,13(s0)
C:/Repository/RISKYKVM/firmware/src/Udisk_Lib/CH32V103UFI.c:221
		pCBW -> mCBW_CB_Buf[ 2 ] = (uint8_t)( CHRV3vLbaCurrent >> 24 );
    1450:	1941a783          	lw	a5,404(gp) # 200009f4 <CHRV3vLbaCurrent>
C:/Repository/RISKYKVM/firmware/src/Udisk_Lib/CH32V103UFI.c:225
		pCBW -> mCBW_CB_Buf[ 6 ] = 0x00;
    1454:	00040aa3          	sb	zero,21(s0)
C:/Repository/RISKYKVM/firmware/src/Udisk_Lib/CH32V103UFI.c:226
		pCBW -> mCBW_CB_Buf[ 7 ] = 0x00;
    1458:	00040b23          	sb	zero,22(s0)
C:/Repository/RISKYKVM/firmware/src/Udisk_Lib/CH32V103UFI.c:221
		pCBW -> mCBW_CB_Buf[ 2 ] = (uint8_t)( CHRV3vLbaCurrent >> 24 );
    145c:	0187d713          	srli	a4,a5,0x18
    1460:	00e408a3          	sb	a4,17(s0)
C:/Repository/RISKYKVM/firmware/src/Udisk_Lib/CH32V103UFI.c:222
		pCBW -> mCBW_CB_Buf[ 3 ] = (uint8_t)( CHRV3vLbaCurrent >> 16 );
    1464:	0107d713          	srli	a4,a5,0x10
    1468:	00e40923          	sb	a4,18(s0)
C:/Repository/RISKYKVM/firmware/src/Udisk_Lib/CH32V103UFI.c:223
		pCBW -> mCBW_CB_Buf[ 4 ] = (uint8_t)( CHRV3vLbaCurrent >> 8 );
    146c:	0087d713          	srli	a4,a5,0x8
C:/Repository/RISKYKVM/firmware/src/Udisk_Lib/CH32V103UFI.c:224
		pCBW -> mCBW_CB_Buf[ 5 ] = (uint8_t)( CHRV3vLbaCurrent );
    1470:	00f40a23          	sb	a5,20(s0)
C:/Repository/RISKYKVM/firmware/src/Udisk_Lib/CH32V103UFI.c:223
		pCBW -> mCBW_CB_Buf[ 4 ] = (uint8_t)( CHRV3vLbaCurrent >> 8 );
    1474:	00e409a3          	sb	a4,19(s0)
C:/Repository/RISKYKVM/firmware/src/Udisk_Lib/CH32V103UFI.c:227
		pCBW -> mCBW_CB_Buf[ 8 ] = SectCount;
    1478:	01440ba3          	sb	s4,23(s0)
C:/Repository/RISKYKVM/firmware/src/Udisk_Lib/CH32V103UFI.c:228
		pCBW -> mCBW_CB_Buf[ 9 ] = 0x00;
    147c:	00040c23          	sb	zero,24(s0)
C:/Repository/RISKYKVM/firmware/src/Udisk_Lib/CH32V103UFI.c:229
		CHRV3BulkOnlyCmd( DataBuf );  /* BulkOnly */
    1480:	01d000ef          	jal	ra,1c9c <CHRV3BulkOnlyCmd>
C:/Repository/RISKYKVM/firmware/src/Udisk_Lib/CH32V103UFI.c:230
		if ( CHRV3IntStatus == ERR_SUCCESS ) {
    1484:	1a01c783          	lbu	a5,416(gp) # 20000a00 <CHRV3IntStatus>
    1488:	0ff7f793          	andi	a5,a5,255
    148c:	c7b9                	beqz	a5,14da <CHRV3ReadSector+0xda>
C:/Repository/RISKYKVM/firmware/src/Udisk_Lib/CH32V103UFI.c:233
			return( ERR_SUCCESS );
		}
		CHRV3IntStatus = CHRV3AnalyzeError( retry );
    148e:	8526                	mv	a0,s1
    1490:	4c7000ef          	jal	ra,2156 <CHRV3AnalyzeError>
    1494:	1aa18023          	sb	a0,416(gp) # 20000a00 <CHRV3IntStatus>
C:/Repository/RISKYKVM/firmware/src/Udisk_Lib/CH32V103UFI.c:234
		if ( CHRV3IntStatus != ERR_SUCCESS ) {
    1498:	1a01c783          	lbu	a5,416(gp) # 20000a00 <CHRV3IntStatus>
    149c:	0ff7f793          	andi	a5,a5,255
    14a0:	c39d                	beqz	a5,14c6 <CHRV3ReadSector+0xc6>
C:/Repository/RISKYKVM/firmware/src/Udisk_Lib/CH32V103UFI.c:235
			return( CHRV3IntStatus );
    14a2:	1a01c503          	lbu	a0,416(gp) # 20000a00 <CHRV3IntStatus>
    14a6:	0ff57513          	andi	a0,a0,255
C:/Repository/RISKYKVM/firmware/src/Udisk_Lib/CH32V103UFI.c:239
		}
	}
	return( CHRV3IntStatus = ERR_USB_DISK_ERR );  /*  */
}
    14aa:	50b2                	lw	ra,44(sp)
    14ac:	5422                	lw	s0,40(sp)
    14ae:	5492                	lw	s1,36(sp)
    14b0:	5902                	lw	s2,32(sp)
    14b2:	49f2                	lw	s3,28(sp)
    14b4:	4a62                	lw	s4,24(sp)
    14b6:	4ad2                	lw	s5,20(sp)
    14b8:	4b42                	lw	s6,16(sp)
    14ba:	4bb2                	lw	s7,12(sp)
    14bc:	4c22                	lw	s8,8(sp)
    14be:	4c92                	lw	s9,4(sp)
    14c0:	4d02                	lw	s10,0(sp)
    14c2:	6145                	addi	sp,sp,48
    14c4:	8082                	ret
C:/Repository/RISKYKVM/firmware/src/Udisk_Lib/CH32V103UFI.c:214 (discriminator 2)
	for( retry = 0; retry < 3; retry ++ ) {  /*  */
    14c6:	0485                	addi	s1,s1,1
    14c8:	0ff4f493          	andi	s1,s1,255
    14cc:	f75492e3          	bne	s1,s5,1430 <CHRV3ReadSector+0x30>
C:/Repository/RISKYKVM/firmware/src/Udisk_Lib/CH32V103UFI.c:238
	return( CHRV3IntStatus = ERR_USB_DISK_ERR );  /*  */
    14d0:	47fd                	li	a5,31
    14d2:	1af18023          	sb	a5,416(gp) # 20000a00 <CHRV3IntStatus>
    14d6:	457d                	li	a0,31
    14d8:	bfc9                	j	14aa <CHRV3ReadSector+0xaa>
C:/Repository/RISKYKVM/firmware/src/Udisk_Lib/CH32V103UFI.c:231
			return( ERR_SUCCESS );
    14da:	4501                	li	a0,0
    14dc:	b7f9                	j	14aa <CHRV3ReadSector+0xaa>

000014de <CHRV3WriteSector>:
CHRV3WriteSector():
C:/Repository/RISKYKVM/firmware/src/Udisk_Lib/CH32V103UFI.c:243

#ifdef	EN_DISK_WRITE
uint8_t	CHRV3WriteSector( uint8_t SectCount, uint8_t *DataBuf )  /*  */
{
    14de:	7179                	addi	sp,sp,-48
    14e0:	d422                	sw	s0,40(sp)
    14e2:	ce4e                	sw	s3,28(sp)
C:/Repository/RISKYKVM/firmware/src/Udisk_Lib/CH32V103UFI.c:250
//	if ( use_external_interface ) return( extWriteSector( CHRV3vLbaCurrent, SectCount, DataBuf ) );  /*  */
	for( retry = 0; retry < 3; retry ++ ) {  /*  */
		pCBW -> mCBW_DataLen = (uint32_t)SectCount << CHRV3vSectorSizeB;  /*  */
		pCBW -> mCBW_Flag = 0x00;
		pCBW -> mCBW_LUN = CHRV3vCurrentLun;
		pCBW -> mCBW_CB_Len = 10;
    14e4:	698d                	lui	s3,0x3
C:/Repository/RISKYKVM/firmware/src/Udisk_Lib/CH32V103UFI.c:243
{
    14e6:	d226                	sw	s1,36(sp)
    14e8:	d04a                	sw	s2,32(sp)
    14ea:	cc52                	sw	s4,24(sp)
    14ec:	ca56                	sw	s5,20(sp)
    14ee:	c85a                	sw	s6,16(sp)
    14f0:	c65e                	sw	s7,12(sp)
    14f2:	c462                	sw	s8,8(sp)
    14f4:	c266                	sw	s9,4(sp)
    14f6:	d606                	sw	ra,44(sp)
    14f8:	8a2a                	mv	s4,a0
    14fa:	8b2e                	mv	s6,a1
C:/Repository/RISKYKVM/firmware/src/Udisk_Lib/CH32V103UFI.c:246
	for( retry = 0; retry < 3; retry ++ ) {  /*  */
    14fc:	4481                	li	s1,0
C:/Repository/RISKYKVM/firmware/src/Udisk_Lib/CH32V103UFI.c:247
		pCBW -> mCBW_DataLen = (uint32_t)SectCount << CHRV3vSectorSizeB;  /*  */
    14fe:	88818413          	addi	s0,gp,-1912 # 200000e8 <TxBuffer>
C:/Repository/RISKYKVM/firmware/src/Udisk_Lib/CH32V103UFI.c:250
		pCBW -> mCBW_CB_Len = 10;
    1502:	a0a98993          	addi	s3,s3,-1526 # 2a0a <CHRV3s11+0x402>
C:/Repository/RISKYKVM/firmware/src/Udisk_Lib/CH32V103UFI.c:246
	for( retry = 0; retry < 3; retry ++ ) {  /*  */
    1506:	4a8d                	li	s5,3
C:/Repository/RISKYKVM/firmware/src/Udisk_Lib/CH32V103UFI.c:247
		pCBW -> mCBW_DataLen = (uint32_t)SectCount << CHRV3vSectorSizeB;  /*  */
    1508:	1dd1c783          	lbu	a5,477(gp) # 20000a3d <CHRV3vSectorSizeB>
C:/Repository/RISKYKVM/firmware/src/Udisk_Lib/CH32V103UFI.c:261
		pCBW -> mCBW_CB_Buf[ 5 ] = (uint8_t)( CHRV3vLbaCurrent );
		pCBW -> mCBW_CB_Buf[ 6 ] = 0x00;
		pCBW -> mCBW_CB_Buf[ 7 ] = 0x00;
		pCBW -> mCBW_CB_Buf[ 8 ] = SectCount;
		pCBW -> mCBW_CB_Buf[ 9 ] = 0x00;
		CHRV3BulkOnlyCmd( DataBuf );  /* BulkOnly */
    150c:	855a                	mv	a0,s6
C:/Repository/RISKYKVM/firmware/src/Udisk_Lib/CH32V103UFI.c:248
		pCBW -> mCBW_Flag = 0x00;
    150e:	00040623          	sb	zero,12(s0)
C:/Repository/RISKYKVM/firmware/src/Udisk_Lib/CH32V103UFI.c:247
		pCBW -> mCBW_DataLen = (uint32_t)SectCount << CHRV3vSectorSizeB;  /*  */
    1512:	00fa17b3          	sll	a5,s4,a5
    1516:	c41c                	sw	a5,8(s0)
C:/Repository/RISKYKVM/firmware/src/Udisk_Lib/CH32V103UFI.c:249
		pCBW -> mCBW_LUN = CHRV3vCurrentLun;
    1518:	1c81c783          	lbu	a5,456(gp) # 20000a28 <CHRV3vCurrentLun>
C:/Repository/RISKYKVM/firmware/src/Udisk_Lib/CH32V103UFI.c:250
		pCBW -> mCBW_CB_Len = 10;
    151c:	01341723          	sh	s3,14(s0)
C:/Repository/RISKYKVM/firmware/src/Udisk_Lib/CH32V103UFI.c:252
		pCBW -> mCBW_CB_Buf[ 1 ] = 0x00;
    1520:	00040823          	sb	zero,16(s0)
C:/Repository/RISKYKVM/firmware/src/Udisk_Lib/CH32V103UFI.c:249
		pCBW -> mCBW_LUN = CHRV3vCurrentLun;
    1524:	00f406a3          	sb	a5,13(s0)
C:/Repository/RISKYKVM/firmware/src/Udisk_Lib/CH32V103UFI.c:253
		pCBW -> mCBW_CB_Buf[ 2 ] = (uint8_t)( CHRV3vLbaCurrent >> 24 );
    1528:	1941a783          	lw	a5,404(gp) # 200009f4 <CHRV3vLbaCurrent>
C:/Repository/RISKYKVM/firmware/src/Udisk_Lib/CH32V103UFI.c:257
		pCBW -> mCBW_CB_Buf[ 6 ] = 0x00;
    152c:	00040aa3          	sb	zero,21(s0)
C:/Repository/RISKYKVM/firmware/src/Udisk_Lib/CH32V103UFI.c:258
		pCBW -> mCBW_CB_Buf[ 7 ] = 0x00;
    1530:	00040b23          	sb	zero,22(s0)
C:/Repository/RISKYKVM/firmware/src/Udisk_Lib/CH32V103UFI.c:253
		pCBW -> mCBW_CB_Buf[ 2 ] = (uint8_t)( CHRV3vLbaCurrent >> 24 );
    1534:	0187d713          	srli	a4,a5,0x18
    1538:	00e408a3          	sb	a4,17(s0)
C:/Repository/RISKYKVM/firmware/src/Udisk_Lib/CH32V103UFI.c:254
		pCBW -> mCBW_CB_Buf[ 3 ] = (uint8_t)( CHRV3vLbaCurrent >> 16 );
    153c:	0107d713          	srli	a4,a5,0x10
    1540:	00e40923          	sb	a4,18(s0)
C:/Repository/RISKYKVM/firmware/src/Udisk_Lib/CH32V103UFI.c:255
		pCBW -> mCBW_CB_Buf[ 4 ] = (uint8_t)( CHRV3vLbaCurrent >> 8 );
    1544:	0087d713          	srli	a4,a5,0x8
C:/Repository/RISKYKVM/firmware/src/Udisk_Lib/CH32V103UFI.c:256
		pCBW -> mCBW_CB_Buf[ 5 ] = (uint8_t)( CHRV3vLbaCurrent );
    1548:	00f40a23          	sb	a5,20(s0)
C:/Repository/RISKYKVM/firmware/src/Udisk_Lib/CH32V103UFI.c:255
		pCBW -> mCBW_CB_Buf[ 4 ] = (uint8_t)( CHRV3vLbaCurrent >> 8 );
    154c:	00e409a3          	sb	a4,19(s0)
C:/Repository/RISKYKVM/firmware/src/Udisk_Lib/CH32V103UFI.c:259
		pCBW -> mCBW_CB_Buf[ 8 ] = SectCount;
    1550:	01440ba3          	sb	s4,23(s0)
C:/Repository/RISKYKVM/firmware/src/Udisk_Lib/CH32V103UFI.c:260
		pCBW -> mCBW_CB_Buf[ 9 ] = 0x00;
    1554:	00040c23          	sb	zero,24(s0)
C:/Repository/RISKYKVM/firmware/src/Udisk_Lib/CH32V103UFI.c:261
		CHRV3BulkOnlyCmd( DataBuf );  /* BulkOnly */
    1558:	744000ef          	jal	ra,1c9c <CHRV3BulkOnlyCmd>
C:/Repository/RISKYKVM/firmware/src/Udisk_Lib/CH32V103UFI.c:262
		if ( CHRV3IntStatus == ERR_SUCCESS ) {
    155c:	1a01c783          	lbu	a5,416(gp) # 20000a00 <CHRV3IntStatus>
    1560:	0ff7f793          	andi	a5,a5,255
    1564:	e395                	bnez	a5,1588 <CHRV3WriteSector+0xaa>
C:/Repository/RISKYKVM/firmware/src/Udisk_Lib/CH32V103UFI.c:263
			Delay_Us( 200 );  /*  */
    1566:	0c800513          	li	a0,200
    156a:	29a1                	jal	19c2 <Delay_Us>
C:/Repository/RISKYKVM/firmware/src/Udisk_Lib/CH32V103UFI.c:264
			return( ERR_SUCCESS );
    156c:	4501                	li	a0,0
C:/Repository/RISKYKVM/firmware/src/Udisk_Lib/CH32V103UFI.c:272
		if ( CHRV3IntStatus != ERR_SUCCESS ) {
			return( CHRV3IntStatus );
		}
	}
	return( CHRV3IntStatus = ERR_USB_DISK_ERR );  /*  */
}
    156e:	50b2                	lw	ra,44(sp)
    1570:	5422                	lw	s0,40(sp)
    1572:	5492                	lw	s1,36(sp)
    1574:	5902                	lw	s2,32(sp)
    1576:	49f2                	lw	s3,28(sp)
    1578:	4a62                	lw	s4,24(sp)
    157a:	4ad2                	lw	s5,20(sp)
    157c:	4b42                	lw	s6,16(sp)
    157e:	4bb2                	lw	s7,12(sp)
    1580:	4c22                	lw	s8,8(sp)
    1582:	4c92                	lw	s9,4(sp)
    1584:	6145                	addi	sp,sp,48
    1586:	8082                	ret
C:/Repository/RISKYKVM/firmware/src/Udisk_Lib/CH32V103UFI.c:266
		CHRV3IntStatus = CHRV3AnalyzeError( retry );
    1588:	8526                	mv	a0,s1
    158a:	3cd000ef          	jal	ra,2156 <CHRV3AnalyzeError>
    158e:	1aa18023          	sb	a0,416(gp) # 20000a00 <CHRV3IntStatus>
C:/Repository/RISKYKVM/firmware/src/Udisk_Lib/CH32V103UFI.c:267
		if ( CHRV3IntStatus != ERR_SUCCESS ) {
    1592:	1a01c783          	lbu	a5,416(gp) # 20000a00 <CHRV3IntStatus>
    1596:	0ff7f793          	andi	a5,a5,255
    159a:	c791                	beqz	a5,15a6 <CHRV3WriteSector+0xc8>
C:/Repository/RISKYKVM/firmware/src/Udisk_Lib/CH32V103UFI.c:268
			return( CHRV3IntStatus );
    159c:	1a01c503          	lbu	a0,416(gp) # 20000a00 <CHRV3IntStatus>
    15a0:	0ff57513          	andi	a0,a0,255
    15a4:	b7e9                	j	156e <CHRV3WriteSector+0x90>
C:/Repository/RISKYKVM/firmware/src/Udisk_Lib/CH32V103UFI.c:246 (discriminator 2)
	for( retry = 0; retry < 3; retry ++ ) {  /*  */
    15a6:	0485                	addi	s1,s1,1
    15a8:	0ff4f493          	andi	s1,s1,255
    15ac:	f5549ee3          	bne	s1,s5,1508 <CHRV3WriteSector+0x2a>
C:/Repository/RISKYKVM/firmware/src/Udisk_Lib/CH32V103UFI.c:271
	return( CHRV3IntStatus = ERR_USB_DISK_ERR );  /*  */
    15b0:	47fd                	li	a5,31
    15b2:	1af18023          	sb	a5,416(gp) # 20000a00 <CHRV3IntStatus>
    15b6:	457d                	li	a0,31
    15b8:	bf5d                	j	156e <CHRV3WriteSector+0x90>

000015ba <CHRV3DiskConnect>:
CHRV3DiskConnect():
C:/Repository/RISKYKVM/firmware/src/Udisk_Lib/CH32V103UFI.c:308

/*  */
uint8_t	CHRV3DiskConnect( void )
{
    uint8_t	ums, devaddr;
	UHUB_DEV_ADDR = UHUB_DEV_ADDR & 0x7F;
    15ba:	50000737          	lui	a4,0x50000
    15be:	00374783          	lbu	a5,3(a4) # 50000003 <_eusrstack+0x2fffb003>
C:/Repository/RISKYKVM/firmware/src/Udisk_Lib/CH32V103UFI.c:311
	ums = UHUB_MIS_STAT;
	devaddr = UHUB_DEV_ADDR;
	if ( devaddr == (USB_DEVICE_ADDR + DEF_ADR_OFFSET) )
    15c2:	4689                	li	a3,2
C:/Repository/RISKYKVM/firmware/src/Udisk_Lib/CH32V103UFI.c:308
	UHUB_DEV_ADDR = UHUB_DEV_ADDR & 0x7F;
    15c4:	07f7f793          	andi	a5,a5,127
    15c8:	00f701a3          	sb	a5,3(a4)
C:/Repository/RISKYKVM/firmware/src/Udisk_Lib/CH32V103UFI.c:309
	ums = UHUB_MIS_STAT;
    15cc:	00574783          	lbu	a5,5(a4)
C:/Repository/RISKYKVM/firmware/src/Udisk_Lib/CH32V103UFI.c:310
	devaddr = UHUB_DEV_ADDR;
    15d0:	00374703          	lbu	a4,3(a4)
C:/Repository/RISKYKVM/firmware/src/Udisk_Lib/CH32V103UFI.c:309
	ums = UHUB_MIS_STAT;
    15d4:	0ff7f793          	andi	a5,a5,255
C:/Repository/RISKYKVM/firmware/src/Udisk_Lib/CH32V103UFI.c:310
	devaddr = UHUB_DEV_ADDR;
    15d8:	0ff77713          	andi	a4,a4,255
C:/Repository/RISKYKVM/firmware/src/Udisk_Lib/CH32V103UFI.c:311
	if ( devaddr == (USB_DEVICE_ADDR + DEF_ADR_OFFSET) )
    15dc:	00d71b63          	bne	a4,a3,15f2 <CHRV3DiskConnect+0x38>
C:/Repository/RISKYKVM/firmware/src/Udisk_Lib/CH32V103UFI.c:314
	{
	    /* Root-HUBUSB */
		if ( ums & bUMS_ATTACH )
    15e0:	0017f693          	andi	a3,a5,1
    15e4:	c699                	beqz	a3,15f2 <CHRV3DiskConnect+0x38>
C:/Repository/RISKYKVM/firmware/src/Udisk_Lib/CH32V103UFI.c:317
		{
		    /* Root-HUBUSB */
			if ( ( ums & bUMS_SUSPEND ) == 0 )
    15e6:	8b91                	andi	a5,a5,4
C:/Repository/RISKYKVM/firmware/src/Udisk_Lib/CH32V103UFI.c:320
			{
			    /* Root-HUBUSB */
				return( ERR_SUCCESS );  /* USB */
    15e8:	4501                	li	a0,0
C:/Repository/RISKYKVM/firmware/src/Udisk_Lib/CH32V103UFI.c:317
			if ( ( ums & bUMS_SUSPEND ) == 0 )
    15ea:	cb81                	beqz	a5,15fa <CHRV3DiskConnect+0x40>
C:/Repository/RISKYKVM/firmware/src/Udisk_Lib/CH32V103UFI.c:325
			}
			else
			{
			    /* Root-HUBUSB */
				CHRV3DiskStatus = DISK_CONNECT;  /*  */
    15ec:	18e18c23          	sb	a4,408(gp) # 200009f8 <CHRV3DiskStatus>
C:/Repository/RISKYKVM/firmware/src/Udisk_Lib/CH32V103UFI.c:326
				return( ERR_SUCCESS );  /* HUBUSB */
    15f0:	8082                	ret
C:/Repository/RISKYKVM/firmware/src/Udisk_Lib/CH32V103UFI.c:333
		}
		else
		{
		    /* USB */
mDiskDisconn:
			CHRV3DiskStatus = DISK_DISCONNECT;
    15f2:	4705                	li	a4,1
    15f4:	18e18c23          	sb	a4,408(gp) # 200009f8 <CHRV3DiskStatus>
C:/Repository/RISKYKVM/firmware/src/Udisk_Lib/CH32V103UFI.c:334
			return( ERR_USB_DISCON );
    15f8:	4559                	li	a0,22
C:/Repository/RISKYKVM/firmware/src/Udisk_Lib/CH32V103UFI.c:341
	}
	else
	{
		goto mDiskDisconn;
	}
}
    15fa:	8082                	ret

000015fc <xFileNameEnumer>:
xFileNameEnumer():
C:/Repository/RISKYKVM/firmware/src/Udisk_Lib/CH32V103UFI.c:367
		for ( i = 0; i < 11; i ++ ) NameBuf[ i ] = pFileDir -> DIR_Name[ i ];  /* ,11, */
//		if ( pFileDir -> DIR_Attr & ATTR_DIRECTORY ) NameBuf[ i ] = 1;  /*  */
		NameBuf[ i ] = 0;  /*  */
	}
#endif
}
    15fc:	8082                	ret

000015fe <CHRV3LibInit>:
CHRV3LibInit():
C:/Repository/RISKYKVM/firmware/src/Udisk_Lib/CH32V103UFI.c:371
#endif  // NO_DEFAULT_FILE_ENUMER

uint8_t	CHRV3LibInit( void )  /* CHRV3,0 */
{
    15fe:	1141                	addi	sp,sp,-16
    1600:	c606                	sw	ra,12(sp)
C:/Repository/RISKYKVM/firmware/src/Udisk_Lib/CH32V103UFI.c:373
    uint8_t s;
    s = CHRV3GetVer( );
    1602:	2db5                	jal	1c7e <CHRV3GetVer>
    1604:	85aa                	mv	a1,a0
C:/Repository/RISKYKVM/firmware/src/Udisk_Lib/CH32V103UFI.c:374
	if( s < CHRV3_LIB_VER )
    1606:	473d                	li	a4,15
    1608:	0ff00513          	li	a0,255
    160c:	04b77f63          	bgeu	a4,a1,166a <CHRV3LibInit+0x6c>
C:/Repository/RISKYKVM/firmware/src/Udisk_Lib/CH32V103UFI.c:378
	{
        return( 0xFF );  /* , */
	}
	printf( "lib vision:%02x\r\n",s );
    1610:	00005537          	lui	a0,0x5
    1614:	b1450513          	addi	a0,a0,-1260 # 4b14 <_read+0x2c0>
    1618:	735010ef          	jal	ra,354c <iprintf>
C:/Repository/RISKYKVM/firmware/src/Udisk_Lib/CH32V103UFI.c:380
#if		DISK_BASE_BUF_LEN > 0
	pDISK_BASE_BUF = & DISK_BASE_BUF[0]; /* RAM */
    161c:	f1c18793          	addi	a5,gp,-228 # 2000077c <DISK_BASE_BUF>
    1620:	18f1a023          	sw	a5,384(gp) # 200009e0 <pDISK_BASE_BUF>
C:/Repository/RISKYKVM/firmware/src/Udisk_Lib/CH32V103UFI.c:381
	pDISK_FAT_BUF = & DISK_BASE_BUF[0];  /* RAMFAT,pDISK_BASE_BUFRAM */
    1624:	16f1a423          	sw	a5,360(gp) # 200009c8 <pDISK_FAT_BUF>
C:/Repository/RISKYKVM/firmware/src/Udisk_Lib/CH32V103UFI.c:386
//	pDISK_FAT_BUF = & DISK_FAT_BUF[0];   /* RAMFAT,pDISK_BASE_BUF */
/* ,CHRV3LibInit,pDISK_FAT_BUFpDISK_BASE_BUF */
#endif
	CHRV3DiskStatus = DISK_UNKNOWN;  /*  */
	CHRV3vSectorSizeB = 9;  /* 512B */
    1628:	4725                	li	a4,9
C:/Repository/RISKYKVM/firmware/src/Udisk_Lib/CH32V103UFI.c:385
	CHRV3DiskStatus = DISK_UNKNOWN;  /*  */
    162a:	18018c23          	sb	zero,408(gp) # 200009f8 <CHRV3DiskStatus>
C:/Repository/RISKYKVM/firmware/src/Udisk_Lib/CH32V103UFI.c:386
	CHRV3vSectorSizeB = 9;  /* 512B */
    162e:	1ce18ea3          	sb	a4,477(gp) # 20000a3d <CHRV3vSectorSizeB>
C:/Repository/RISKYKVM/firmware/src/Udisk_Lib/CH32V103UFI.c:387
	CHRV3vSectorSize = 512; /* 512B, */
    1632:	20000713          	li	a4,512
    1636:	1ae19623          	sh	a4,428(gp) # 20000a0c <CHRV3vSectorSize>
C:/Repository/RISKYKVM/firmware/src/Udisk_Lib/CH32V103UFI.c:390
	CHRV3vStartLba = 0;     /* FDDHDD */
#if DEF_USB_PORT_FS_EN
	CHRV3vPacketSize = 64;  /* USB:64@FS,512@HS/SS,,U512 */
    163a:	04000713          	li	a4,64
C:/Repository/RISKYKVM/firmware/src/Udisk_Lib/CH32V103UFI.c:388
	CHRV3vStartLba = 0;     /* FDDHDD */
    163e:	1a01ae23          	sw	zero,444(gp) # 20000a1c <CHRV3vStartLba>
C:/Repository/RISKYKVM/firmware/src/Udisk_Lib/CH32V103UFI.c:390
	CHRV3vPacketSize = 64;  /* USB:64@FS,512@HS/SS,,U512 */
    1642:	1ce19123          	sh	a4,450(gp) # 20000a22 <CHRV3vPacketSize>
C:/Repository/RISKYKVM/firmware/src/Udisk_Lib/CH32V103UFI.c:391
    pTX_DMA_A_REG = (uint32_t *)&(USBOTG_H_FS->HOST_TX_DMA);  /* DMA, */
    1646:	500007b7          	lui	a5,0x50000
    164a:	01c78693          	addi	a3,a5,28 # 5000001c <_eusrstack+0x2fffb01c>
    164e:	16d1ae23          	sw	a3,380(gp) # 200009dc <pTX_DMA_A_REG>
C:/Repository/RISKYKVM/firmware/src/Udisk_Lib/CH32V103UFI.c:392
    pRX_DMA_A_REG = (uint32_t *)&(USBOTG_H_FS->HOST_RX_DMA);  /* DMA, */
    1652:	01878693          	addi	a3,a5,24
    1656:	1ed1a223          	sw	a3,484(gp) # 20000a44 <pRX_DMA_A_REG>
C:/Repository/RISKYKVM/firmware/src/Udisk_Lib/CH32V103UFI.c:393
    pTX_LEN_REG = (uint16_t *)&(USBOTG_H_FS->HOST_TX_LEN);    /* , */
    165a:	03c78693          	addi	a3,a5,60
    165e:	14d1ae23          	sw	a3,348(gp) # 200009bc <pTX_LEN_REG>
C:/Repository/RISKYKVM/firmware/src/Udisk_Lib/CH32V103UFI.c:394
    pRX_LEN_REG = (uint16_t *)&(USBOTG_H_FS->RX_LEN);         /* , */
    1662:	07a1                	addi	a5,a5,8
    1664:	18f1a423          	sw	a5,392(gp) # 200009e8 <pRX_LEN_REG>
C:/Repository/RISKYKVM/firmware/src/Udisk_Lib/CH32V103UFI.c:403
    pRX_DMA_A_REG = (uint32_t *)&(USBHSH->HOST_RX_DMA);  /* DMA, */
    pTX_LEN_REG = (uint16_t *)&(USBHSH->HOST_TX_LEN);    /* , */
    pRX_LEN_REG = (uint16_t *)&(USBHSH->RX_LEN);         /* , */
#endif

	return( ERR_SUCCESS );
    1668:	4501                	li	a0,0
C:/Repository/RISKYKVM/firmware/src/Udisk_Lib/CH32V103UFI.c:404
}
    166a:	40b2                	lw	ra,12(sp)
    166c:	0141                	addi	sp,sp,16
    166e:	8082                	ret

00001670 <mDelaymS>:
mDelaymS():
C:/Repository/RISKYKVM/firmware/src/Udisk_Lib/CH32V103UFI.c:408

void mDelaymS( uint16_t n )
{
	Delay_Ms(n);
    1670:	a661                	j	19f8 <Delay_Ms>
C:\Repository\RISKYKVM\firmware\Bootloader\obj/../Startup/startup_ch32v20x_D6.S:159
    .weak   USBHD_IRQHandler           /* USBHD */
    .weak   USBHDWakeUp_IRQHandler     /* USBHD Wake Up */
    .weak   UART4_IRQHandler           /* UART4 */
    .weak   DMA1_Channel8_IRQHandler   /* DMA1 Channel8 */

NMI_Handler:  1:  j 1b
    1672:	a001                	j	1672 <mDelaymS+0x2>
C:\Repository\RISKYKVM\firmware\Bootloader\obj/../Startup/startup_ch32v20x_D6.S:160
HardFault_Handler:  1:  j 1b
    1674:	a001                	j	1674 <mDelaymS+0x4>

00001676 <Ecall_M_Mode_Handler>:
Ecall_M_Mode_Handler():
C:\Repository\RISKYKVM\firmware\Bootloader\obj/../Startup/startup_ch32v20x_D6.S:161
Ecall_M_Mode_Handler:  1:  j 1b
    1676:	a001                	j	1676 <Ecall_M_Mode_Handler>

00001678 <Ecall_U_Mode_Handler>:
Ecall_U_Mode_Handler():
C:\Repository\RISKYKVM\firmware\Bootloader\obj/../Startup/startup_ch32v20x_D6.S:162
Ecall_U_Mode_Handler:  1:  j 1b
    1678:	a001                	j	1678 <Ecall_U_Mode_Handler>

0000167a <Break_Point_Handler>:
Break_Point_Handler():
C:\Repository\RISKYKVM\firmware\Bootloader\obj/../Startup/startup_ch32v20x_D6.S:163
Break_Point_Handler:  1:  j 1b
    167a:	a001                	j	167a <Break_Point_Handler>

0000167c <SysTick_Handler>:
SysTick_Handler():
C:\Repository\RISKYKVM\firmware\Bootloader\obj/../Startup/startup_ch32v20x_D6.S:164
SysTick_Handler:  1:  j 1b
    167c:	a001                	j	167c <SysTick_Handler>
C:\Repository\RISKYKVM\firmware\Bootloader\obj/../Startup/startup_ch32v20x_D6.S:165
SW_Handler:  1:  j 1b
    167e:	a001                	j	167e <SysTick_Handler+0x2>

00001680 <WWDG_IRQHandler>:
WWDG_IRQHandler():
C:\Repository\RISKYKVM\firmware\Bootloader\obj/../Startup/startup_ch32v20x_D6.S:166
WWDG_IRQHandler:  1:  j 1b
    1680:	a001                	j	1680 <WWDG_IRQHandler>

00001682 <PVD_IRQHandler>:
PVD_IRQHandler():
C:\Repository\RISKYKVM\firmware\Bootloader\obj/../Startup/startup_ch32v20x_D6.S:167
PVD_IRQHandler:  1:  j 1b
    1682:	a001                	j	1682 <PVD_IRQHandler>

00001684 <TAMPER_IRQHandler>:
TAMPER_IRQHandler():
C:\Repository\RISKYKVM\firmware\Bootloader\obj/../Startup/startup_ch32v20x_D6.S:168
TAMPER_IRQHandler:  1:  j 1b
    1684:	a001                	j	1684 <TAMPER_IRQHandler>

00001686 <RTC_IRQHandler>:
RTC_IRQHandler():
C:\Repository\RISKYKVM\firmware\Bootloader\obj/../Startup/startup_ch32v20x_D6.S:169
RTC_IRQHandler:  1:  j 1b
    1686:	a001                	j	1686 <RTC_IRQHandler>

00001688 <FLASH_IRQHandler>:
FLASH_IRQHandler():
C:\Repository\RISKYKVM\firmware\Bootloader\obj/../Startup/startup_ch32v20x_D6.S:170
FLASH_IRQHandler:  1:  j 1b
    1688:	a001                	j	1688 <FLASH_IRQHandler>

0000168a <RCC_IRQHandler>:
RCC_IRQHandler():
C:\Repository\RISKYKVM\firmware\Bootloader\obj/../Startup/startup_ch32v20x_D6.S:171
RCC_IRQHandler:  1:  j 1b
    168a:	a001                	j	168a <RCC_IRQHandler>

0000168c <EXTI0_IRQHandler>:
EXTI0_IRQHandler():
C:\Repository\RISKYKVM\firmware\Bootloader\obj/../Startup/startup_ch32v20x_D6.S:172
EXTI0_IRQHandler:  1:  j 1b
    168c:	a001                	j	168c <EXTI0_IRQHandler>

0000168e <EXTI1_IRQHandler>:
EXTI1_IRQHandler():
C:\Repository\RISKYKVM\firmware\Bootloader\obj/../Startup/startup_ch32v20x_D6.S:173
EXTI1_IRQHandler:  1:  j 1b
    168e:	a001                	j	168e <EXTI1_IRQHandler>

00001690 <EXTI2_IRQHandler>:
EXTI2_IRQHandler():
C:\Repository\RISKYKVM\firmware\Bootloader\obj/../Startup/startup_ch32v20x_D6.S:174
EXTI2_IRQHandler:  1:  j 1b
    1690:	a001                	j	1690 <EXTI2_IRQHandler>

00001692 <EXTI3_IRQHandler>:
EXTI3_IRQHandler():
C:\Repository\RISKYKVM\firmware\Bootloader\obj/../Startup/startup_ch32v20x_D6.S:175
EXTI3_IRQHandler:  1:  j 1b
    1692:	a001                	j	1692 <EXTI3_IRQHandler>

00001694 <EXTI4_IRQHandler>:
EXTI4_IRQHandler():
C:\Repository\RISKYKVM\firmware\Bootloader\obj/../Startup/startup_ch32v20x_D6.S:176
EXTI4_IRQHandler:  1:  j 1b
    1694:	a001                	j	1694 <EXTI4_IRQHandler>

00001696 <DMA1_Channel1_IRQHandler>:
DMA1_Channel1_IRQHandler():
C:\Repository\RISKYKVM\firmware\Bootloader\obj/../Startup/startup_ch32v20x_D6.S:177
DMA1_Channel1_IRQHandler:  1:  j 1b
    1696:	a001                	j	1696 <DMA1_Channel1_IRQHandler>

00001698 <DMA1_Channel2_IRQHandler>:
DMA1_Channel2_IRQHandler():
C:\Repository\RISKYKVM\firmware\Bootloader\obj/../Startup/startup_ch32v20x_D6.S:178
DMA1_Channel2_IRQHandler:  1:  j 1b
    1698:	a001                	j	1698 <DMA1_Channel2_IRQHandler>

0000169a <DMA1_Channel3_IRQHandler>:
DMA1_Channel3_IRQHandler():
C:\Repository\RISKYKVM\firmware\Bootloader\obj/../Startup/startup_ch32v20x_D6.S:179
DMA1_Channel3_IRQHandler:  1:  j 1b
    169a:	a001                	j	169a <DMA1_Channel3_IRQHandler>

0000169c <DMA1_Channel4_IRQHandler>:
DMA1_Channel4_IRQHandler():
C:\Repository\RISKYKVM\firmware\Bootloader\obj/../Startup/startup_ch32v20x_D6.S:180
DMA1_Channel4_IRQHandler:  1:  j 1b
    169c:	a001                	j	169c <DMA1_Channel4_IRQHandler>

0000169e <DMA1_Channel5_IRQHandler>:
DMA1_Channel5_IRQHandler():
C:\Repository\RISKYKVM\firmware\Bootloader\obj/../Startup/startup_ch32v20x_D6.S:181
DMA1_Channel5_IRQHandler:  1:  j 1b
    169e:	a001                	j	169e <DMA1_Channel5_IRQHandler>

000016a0 <DMA1_Channel6_IRQHandler>:
DMA1_Channel6_IRQHandler():
C:\Repository\RISKYKVM\firmware\Bootloader\obj/../Startup/startup_ch32v20x_D6.S:182
DMA1_Channel6_IRQHandler:  1:  j 1b
    16a0:	a001                	j	16a0 <DMA1_Channel6_IRQHandler>

000016a2 <DMA1_Channel7_IRQHandler>:
DMA1_Channel7_IRQHandler():
C:\Repository\RISKYKVM\firmware\Bootloader\obj/../Startup/startup_ch32v20x_D6.S:183
DMA1_Channel7_IRQHandler:  1:  j 1b
    16a2:	a001                	j	16a2 <DMA1_Channel7_IRQHandler>

000016a4 <ADC1_2_IRQHandler>:
ADC1_2_IRQHandler():
C:\Repository\RISKYKVM\firmware\Bootloader\obj/../Startup/startup_ch32v20x_D6.S:184
ADC1_2_IRQHandler:  1:  j 1b
    16a4:	a001                	j	16a4 <ADC1_2_IRQHandler>

000016a6 <USB_HP_CAN1_TX_IRQHandler>:
USB_HP_CAN1_TX_IRQHandler():
C:\Repository\RISKYKVM\firmware\Bootloader\obj/../Startup/startup_ch32v20x_D6.S:185
USB_HP_CAN1_TX_IRQHandler:  1:  j 1b
    16a6:	a001                	j	16a6 <USB_HP_CAN1_TX_IRQHandler>

000016a8 <USB_LP_CAN1_RX0_IRQHandler>:
USB_LP_CAN1_RX0_IRQHandler():
C:\Repository\RISKYKVM\firmware\Bootloader\obj/../Startup/startup_ch32v20x_D6.S:186
USB_LP_CAN1_RX0_IRQHandler:  1:  j 1b
    16a8:	a001                	j	16a8 <USB_LP_CAN1_RX0_IRQHandler>

000016aa <CAN1_RX1_IRQHandler>:
CAN1_RX1_IRQHandler():
C:\Repository\RISKYKVM\firmware\Bootloader\obj/../Startup/startup_ch32v20x_D6.S:187
CAN1_RX1_IRQHandler:  1:  j 1b
    16aa:	a001                	j	16aa <CAN1_RX1_IRQHandler>

000016ac <CAN1_SCE_IRQHandler>:
CAN1_SCE_IRQHandler():
C:\Repository\RISKYKVM\firmware\Bootloader\obj/../Startup/startup_ch32v20x_D6.S:188
CAN1_SCE_IRQHandler:  1:  j 1b
    16ac:	a001                	j	16ac <CAN1_SCE_IRQHandler>

000016ae <EXTI9_5_IRQHandler>:
EXTI9_5_IRQHandler():
C:\Repository\RISKYKVM\firmware\Bootloader\obj/../Startup/startup_ch32v20x_D6.S:189
EXTI9_5_IRQHandler:  1:  j 1b
    16ae:	a001                	j	16ae <EXTI9_5_IRQHandler>

000016b0 <TIM1_BRK_IRQHandler>:
TIM1_BRK_IRQHandler():
C:\Repository\RISKYKVM\firmware\Bootloader\obj/../Startup/startup_ch32v20x_D6.S:190
TIM1_BRK_IRQHandler:  1:  j 1b
    16b0:	a001                	j	16b0 <TIM1_BRK_IRQHandler>

000016b2 <TIM1_UP_IRQHandler>:
TIM1_UP_IRQHandler():
C:\Repository\RISKYKVM\firmware\Bootloader\obj/../Startup/startup_ch32v20x_D6.S:191
TIM1_UP_IRQHandler:  1:  j 1b
    16b2:	a001                	j	16b2 <TIM1_UP_IRQHandler>

000016b4 <TIM1_TRG_COM_IRQHandler>:
TIM1_TRG_COM_IRQHandler():
C:\Repository\RISKYKVM\firmware\Bootloader\obj/../Startup/startup_ch32v20x_D6.S:192
TIM1_TRG_COM_IRQHandler:  1:  j 1b
    16b4:	a001                	j	16b4 <TIM1_TRG_COM_IRQHandler>

000016b6 <TIM1_CC_IRQHandler>:
TIM1_CC_IRQHandler():
C:\Repository\RISKYKVM\firmware\Bootloader\obj/../Startup/startup_ch32v20x_D6.S:193
TIM1_CC_IRQHandler:  1:  j 1b
    16b6:	a001                	j	16b6 <TIM1_CC_IRQHandler>

000016b8 <TIM2_IRQHandler>:
TIM2_IRQHandler():
C:\Repository\RISKYKVM\firmware\Bootloader\obj/../Startup/startup_ch32v20x_D6.S:194
TIM2_IRQHandler:  1:  j 1b
    16b8:	a001                	j	16b8 <TIM2_IRQHandler>

000016ba <TIM3_IRQHandler>:
TIM3_IRQHandler():
C:\Repository\RISKYKVM\firmware\Bootloader\obj/../Startup/startup_ch32v20x_D6.S:195
TIM3_IRQHandler:  1:  j 1b
    16ba:	a001                	j	16ba <TIM3_IRQHandler>

000016bc <TIM4_IRQHandler>:
TIM4_IRQHandler():
C:\Repository\RISKYKVM\firmware\Bootloader\obj/../Startup/startup_ch32v20x_D6.S:196
TIM4_IRQHandler:  1:  j 1b
    16bc:	a001                	j	16bc <TIM4_IRQHandler>

000016be <I2C1_EV_IRQHandler>:
I2C1_EV_IRQHandler():
C:\Repository\RISKYKVM\firmware\Bootloader\obj/../Startup/startup_ch32v20x_D6.S:197
I2C1_EV_IRQHandler:  1:  j 1b
    16be:	a001                	j	16be <I2C1_EV_IRQHandler>

000016c0 <I2C1_ER_IRQHandler>:
I2C1_ER_IRQHandler():
C:\Repository\RISKYKVM\firmware\Bootloader\obj/../Startup/startup_ch32v20x_D6.S:198
I2C1_ER_IRQHandler:  1:  j 1b
    16c0:	a001                	j	16c0 <I2C1_ER_IRQHandler>

000016c2 <I2C2_EV_IRQHandler>:
I2C2_EV_IRQHandler():
C:\Repository\RISKYKVM\firmware\Bootloader\obj/../Startup/startup_ch32v20x_D6.S:199
I2C2_EV_IRQHandler:  1:  j 1b
    16c2:	a001                	j	16c2 <I2C2_EV_IRQHandler>

000016c4 <I2C2_ER_IRQHandler>:
I2C2_ER_IRQHandler():
C:\Repository\RISKYKVM\firmware\Bootloader\obj/../Startup/startup_ch32v20x_D6.S:200
I2C2_ER_IRQHandler:  1:  j 1b
    16c4:	a001                	j	16c4 <I2C2_ER_IRQHandler>

000016c6 <SPI1_IRQHandler>:
SPI1_IRQHandler():
C:\Repository\RISKYKVM\firmware\Bootloader\obj/../Startup/startup_ch32v20x_D6.S:201
SPI1_IRQHandler:  1:  j 1b
    16c6:	a001                	j	16c6 <SPI1_IRQHandler>

000016c8 <SPI2_IRQHandler>:
SPI2_IRQHandler():
C:\Repository\RISKYKVM\firmware\Bootloader\obj/../Startup/startup_ch32v20x_D6.S:202
SPI2_IRQHandler:  1:  j 1b
    16c8:	a001                	j	16c8 <SPI2_IRQHandler>

000016ca <USART1_IRQHandler>:
USART1_IRQHandler():
C:\Repository\RISKYKVM\firmware\Bootloader\obj/../Startup/startup_ch32v20x_D6.S:203
USART1_IRQHandler:  1:  j 1b
    16ca:	a001                	j	16ca <USART1_IRQHandler>

000016cc <USART2_IRQHandler>:
USART2_IRQHandler():
C:\Repository\RISKYKVM\firmware\Bootloader\obj/../Startup/startup_ch32v20x_D6.S:204
USART2_IRQHandler:  1:  j 1b
    16cc:	a001                	j	16cc <USART2_IRQHandler>

000016ce <USART3_IRQHandler>:
USART3_IRQHandler():
C:\Repository\RISKYKVM\firmware\Bootloader\obj/../Startup/startup_ch32v20x_D6.S:205
USART3_IRQHandler:  1:  j 1b
    16ce:	a001                	j	16ce <USART3_IRQHandler>

000016d0 <EXTI15_10_IRQHandler>:
EXTI15_10_IRQHandler():
C:\Repository\RISKYKVM\firmware\Bootloader\obj/../Startup/startup_ch32v20x_D6.S:206
EXTI15_10_IRQHandler:  1:  j 1b
    16d0:	a001                	j	16d0 <EXTI15_10_IRQHandler>

000016d2 <RTCAlarm_IRQHandler>:
RTCAlarm_IRQHandler():
C:\Repository\RISKYKVM\firmware\Bootloader\obj/../Startup/startup_ch32v20x_D6.S:207
RTCAlarm_IRQHandler:  1:  j 1b
    16d2:	a001                	j	16d2 <RTCAlarm_IRQHandler>

000016d4 <USBWakeUp_IRQHandler>:
USBWakeUp_IRQHandler():
C:\Repository\RISKYKVM\firmware\Bootloader\obj/../Startup/startup_ch32v20x_D6.S:208
USBWakeUp_IRQHandler:  1:  j 1b
    16d4:	a001                	j	16d4 <USBWakeUp_IRQHandler>

000016d6 <USBHD_IRQHandler>:
USBHD_IRQHandler():
C:\Repository\RISKYKVM\firmware\Bootloader\obj/../Startup/startup_ch32v20x_D6.S:209
USBHD_IRQHandler:  1:  j 1b
    16d6:	a001                	j	16d6 <USBHD_IRQHandler>

000016d8 <USBHDWakeUp_IRQHandler>:
USBHDWakeUp_IRQHandler():
C:\Repository\RISKYKVM\firmware\Bootloader\obj/../Startup/startup_ch32v20x_D6.S:210
USBHDWakeUp_IRQHandler:  1:  j 1b
    16d8:	a001                	j	16d8 <USBHDWakeUp_IRQHandler>

000016da <UART4_IRQHandler>:
UART4_IRQHandler():
C:\Repository\RISKYKVM\firmware\Bootloader\obj/../Startup/startup_ch32v20x_D6.S:211
UART4_IRQHandler:  1:  j 1b
    16da:	a001                	j	16da <UART4_IRQHandler>

000016dc <DMA1_Channel8_IRQHandler>:
DMA1_Channel8_IRQHandler():
C:\Repository\RISKYKVM\firmware\Bootloader\obj/../Startup/startup_ch32v20x_D6.S:212
DMA1_Channel8_IRQHandler:  1:  j 1b
    16dc:	a001                	j	16dc <DMA1_Channel8_IRQHandler>

000016de <handle_reset>:
handle_reset():
C:\Repository\RISKYKVM\firmware\Bootloader\obj/../Startup/startup_ch32v20x_D6.S:220
	.weak	handle_reset
	.align	1
handle_reset:
.option push 
.option	norelax 
	la gp, __global_pointer$
    16de:	1ffff197          	auipc	gp,0x1ffff
    16e2:	18218193          	addi	gp,gp,386 # 20000860 <__global_pointer$>
C:\Repository\RISKYKVM\firmware\Bootloader\obj/../Startup/startup_ch32v20x_D6.S:223
.option	pop 
1:
	la sp, _eusrstack 
    16e6:	20004117          	auipc	sp,0x20004
    16ea:	91a10113          	addi	sp,sp,-1766 # 20005000 <_eusrstack>
C:\Repository\RISKYKVM\firmware\Bootloader\obj/../Startup/startup_ch32v20x_D6.S:226
2:
	/* Load data section from flash to RAM */
	la a0, _data_lma
    16ee:	00003517          	auipc	a0,0x3
    16f2:	4d650513          	addi	a0,a0,1238 # 4bc4 <_data_lma>
C:\Repository\RISKYKVM\firmware\Bootloader\obj/../Startup/startup_ch32v20x_D6.S:227
	la a1, _data_vma
    16f6:	1ffff597          	auipc	a1,0x1ffff
    16fa:	90a58593          	addi	a1,a1,-1782 # 20000000 <_data_vma>
C:\Repository\RISKYKVM\firmware\Bootloader\obj/../Startup/startup_ch32v20x_D6.S:228
	la a2, _edata
    16fe:	83818613          	addi	a2,gp,-1992 # 20000098 <_edata>
C:\Repository\RISKYKVM\firmware\Bootloader\obj/../Startup/startup_ch32v20x_D6.S:229
	bgeu a1, a2, 2f
    1702:	00c5fa63          	bgeu	a1,a2,1716 <handle_reset+0x38>
C:\Repository\RISKYKVM\firmware\Bootloader\obj/../Startup/startup_ch32v20x_D6.S:231
1:
	lw t0, (a0)
    1706:	00052283          	lw	t0,0(a0)
C:\Repository\RISKYKVM\firmware\Bootloader\obj/../Startup/startup_ch32v20x_D6.S:232
	sw t0, (a1)
    170a:	0055a023          	sw	t0,0(a1)
C:\Repository\RISKYKVM\firmware\Bootloader\obj/../Startup/startup_ch32v20x_D6.S:233
	addi a0, a0, 4
    170e:	0511                	addi	a0,a0,4
C:\Repository\RISKYKVM\firmware\Bootloader\obj/../Startup/startup_ch32v20x_D6.S:234
	addi a1, a1, 4
    1710:	0591                	addi	a1,a1,4
C:\Repository\RISKYKVM\firmware\Bootloader\obj/../Startup/startup_ch32v20x_D6.S:235
	bltu a1, a2, 1b
    1712:	fec5eae3          	bltu	a1,a2,1706 <handle_reset+0x28>
C:\Repository\RISKYKVM\firmware\Bootloader\obj/../Startup/startup_ch32v20x_D6.S:238
2:
	/* Clear bss section */
	la a0, _sbss
    1716:	83818513          	addi	a0,gp,-1992 # 20000098 <_edata>
C:\Repository\RISKYKVM\firmware\Bootloader\obj/../Startup/startup_ch32v20x_D6.S:239
	la a1, _ebss
    171a:	1f018593          	addi	a1,gp,496 # 20000a50 <_ebss>
C:\Repository\RISKYKVM\firmware\Bootloader\obj/../Startup/startup_ch32v20x_D6.S:240
	bgeu a0, a1, 2f
    171e:	00b57763          	bgeu	a0,a1,172c <handle_reset+0x4e>
C:\Repository\RISKYKVM\firmware\Bootloader\obj/../Startup/startup_ch32v20x_D6.S:242
1:
	sw zero, (a0)
    1722:	00052023          	sw	zero,0(a0)
C:\Repository\RISKYKVM\firmware\Bootloader\obj/../Startup/startup_ch32v20x_D6.S:243
	addi a0, a0, 4
    1726:	0511                	addi	a0,a0,4
C:\Repository\RISKYKVM\firmware\Bootloader\obj/../Startup/startup_ch32v20x_D6.S:244
	bltu a0, a1, 1b
    1728:	feb56de3          	bltu	a0,a1,1722 <handle_reset+0x44>
C:\Repository\RISKYKVM\firmware\Bootloader\obj/../Startup/startup_ch32v20x_D6.S:246
2:
    li t0, 0x1f
    172c:	42fd                	li	t0,31
C:\Repository\RISKYKVM\firmware\Bootloader\obj/../Startup/startup_ch32v20x_D6.S:247
    csrw 0xbc0, t0
    172e:	bc029073          	csrw	0xbc0,t0
C:\Repository\RISKYKVM\firmware\Bootloader\obj/../Startup/startup_ch32v20x_D6.S:250

    /* Enable nested and hardware stack */
	li t0, 0x3
    1732:	428d                	li	t0,3
C:\Repository\RISKYKVM\firmware\Bootloader\obj/../Startup/startup_ch32v20x_D6.S:251
	csrw 0x804, t0
    1734:	80429073          	csrw	0x804,t0
C:\Repository\RISKYKVM\firmware\Bootloader\obj/../Startup/startup_ch32v20x_D6.S:254

    /* Enable interrupt */
   	li t0, 0x88           
    1738:	08800293          	li	t0,136
C:\Repository\RISKYKVM\firmware\Bootloader\obj/../Startup/startup_ch32v20x_D6.S:255
   	csrs mstatus, t0
    173c:	3002a073          	csrs	mstatus,t0
C:\Repository\RISKYKVM\firmware\Bootloader\obj/../Startup/startup_ch32v20x_D6.S:257

 	la t0, _vector_base
    1740:	fffff297          	auipc	t0,0xfffff
    1744:	8f828293          	addi	t0,t0,-1800 # 38 <_einit>
C:\Repository\RISKYKVM\firmware\Bootloader\obj/../Startup/startup_ch32v20x_D6.S:258
    ori t0, t0, 3           
    1748:	0032e293          	ori	t0,t0,3
C:\Repository\RISKYKVM\firmware\Bootloader\obj/../Startup/startup_ch32v20x_D6.S:259
	csrw mtvec, t0
    174c:	30529073          	csrw	mtvec,t0
C:\Repository\RISKYKVM\firmware\Bootloader\obj/../Startup/startup_ch32v20x_D6.S:261

    jal  SystemInit
    1750:	9c3ff0ef          	jal	ra,1112 <SystemInit>
C:\Repository\RISKYKVM\firmware\Bootloader\obj/../Startup/startup_ch32v20x_D6.S:263

	j main
    1754:	987ff06f          	j	10da <main>

00001758 <FLASH_Unlock_Fast>:
FLASH_Unlock_Fast():
C:/Repository/RISKYKVM/firmware/src/Peripheral/src/ch32v20x_flash.c:793
 * @return  none
 */
void FLASH_Unlock_Fast(void)
{
    /* Authorize the FPEC of Bank1 Access */
    FLASH->KEYR = FLASH_KEY1;
    1758:	456706b7          	lui	a3,0x45670
    175c:	400227b7          	lui	a5,0x40022
    1760:	12368693          	addi	a3,a3,291 # 45670123 <_eusrstack+0x2566b123>
C:/Repository/RISKYKVM/firmware/src/Peripheral/src/ch32v20x_flash.c:794
    FLASH->KEYR = FLASH_KEY2;
    1764:	cdef9737          	lui	a4,0xcdef9
C:/Repository/RISKYKVM/firmware/src/Peripheral/src/ch32v20x_flash.c:793
    FLASH->KEYR = FLASH_KEY1;
    1768:	c3d4                	sw	a3,4(a5)
C:/Repository/RISKYKVM/firmware/src/Peripheral/src/ch32v20x_flash.c:794
    FLASH->KEYR = FLASH_KEY2;
    176a:	9ab70713          	addi	a4,a4,-1621 # cdef89ab <_eusrstack+0xadef39ab>
    176e:	c3d8                	sw	a4,4(a5)
C:/Repository/RISKYKVM/firmware/src/Peripheral/src/ch32v20x_flash.c:797

    /* Fast program mode unlock */
    FLASH->MODEKEYR = FLASH_KEY1;
    1770:	d3d4                	sw	a3,36(a5)
C:/Repository/RISKYKVM/firmware/src/Peripheral/src/ch32v20x_flash.c:798
    FLASH->MODEKEYR = FLASH_KEY2;
    1772:	d3d8                	sw	a4,36(a5)
C:/Repository/RISKYKVM/firmware/src/Peripheral/src/ch32v20x_flash.c:799
}
    1774:	8082                	ret

00001776 <FLASH_Lock_Fast>:
FLASH_Lock_Fast():
C:/Repository/RISKYKVM/firmware/src/Peripheral/src/ch32v20x_flash.c:810
 *
 * @return  none
 */
void FLASH_Lock_Fast(void)
{
    FLASH->CTLR |= CR_FAST_LOCK_Set;
    1776:	40022737          	lui	a4,0x40022
    177a:	4b1c                	lw	a5,16(a4)
    177c:	66a1                	lui	a3,0x8
    177e:	8fd5                	or	a5,a5,a3
    1780:	cb1c                	sw	a5,16(a4)
C:/Repository/RISKYKVM/firmware/src/Peripheral/src/ch32v20x_flash.c:811
}
    1782:	8082                	ret

00001784 <FLASH_ErasePage_Fast>:
FLASH_ErasePage_Fast():
C:/Repository/RISKYKVM/firmware/src/Peripheral/src/ch32v20x_flash.c:826
 */
void FLASH_ErasePage_Fast(uint32_t Page_Address)
{
    Page_Address &= 0xFFFFFF00;

    FLASH->CTLR |= CR_PAGE_ER;
    1784:	400227b7          	lui	a5,0x40022
    1788:	4b98                	lw	a4,16(a5)
    178a:	000206b7          	lui	a3,0x20
C:/Repository/RISKYKVM/firmware/src/Peripheral/src/ch32v20x_flash.c:824
    Page_Address &= 0xFFFFFF00;
    178e:	f0057513          	andi	a0,a0,-256
C:/Repository/RISKYKVM/firmware/src/Peripheral/src/ch32v20x_flash.c:826
    FLASH->CTLR |= CR_PAGE_ER;
    1792:	8f55                	or	a4,a4,a3
    1794:	cb98                	sw	a4,16(a5)
C:/Repository/RISKYKVM/firmware/src/Peripheral/src/ch32v20x_flash.c:827
    FLASH->ADDR = Page_Address;
    1796:	cbc8                	sw	a0,20(a5)
C:/Repository/RISKYKVM/firmware/src/Peripheral/src/ch32v20x_flash.c:828
    FLASH->CTLR |= CR_STRT_Set;
    1798:	4b98                	lw	a4,16(a5)
    179a:	04076713          	ori	a4,a4,64
    179e:	cb98                	sw	a4,16(a5)
C:/Repository/RISKYKVM/firmware/src/Peripheral/src/ch32v20x_flash.c:829 (discriminator 1)
    while(FLASH->STATR & SR_BSY);
    17a0:	47d8                	lw	a4,12(a5)
    17a2:	8b05                	andi	a4,a4,1
    17a4:	ff75                	bnez	a4,17a0 <FLASH_ErasePage_Fast+0x1c>
C:/Repository/RISKYKVM/firmware/src/Peripheral/src/ch32v20x_flash.c:830
    FLASH->CTLR &= ~CR_PAGE_ER;
    17a6:	4b98                	lw	a4,16(a5)
    17a8:	7681                	lui	a3,0xfffe0
    17aa:	16fd                	addi	a3,a3,-1
    17ac:	8f75                	and	a4,a4,a3
    17ae:	cb98                	sw	a4,16(a5)
C:/Repository/RISKYKVM/firmware/src/Peripheral/src/ch32v20x_flash.c:831
}
    17b0:	8082                	ret

000017b2 <FLASH_ProgramPage_Fast>:
FLASH_ProgramPage_Fast():
C:/Repository/RISKYKVM/firmware/src/Peripheral/src/ch32v20x_flash.c:888
{
    uint8_t size = 64;

    Page_Address &= 0xFFFFFF00;

    FLASH->CTLR |= CR_PAGE_PG;
    17b2:	40022737          	lui	a4,0x40022
    17b6:	4b1c                	lw	a5,16(a4)
    17b8:	66c1                	lui	a3,0x10
C:/Repository/RISKYKVM/firmware/src/Peripheral/src/ch32v20x_flash.c:886
    Page_Address &= 0xFFFFFF00;
    17ba:	f0057513          	andi	a0,a0,-256
C:/Repository/RISKYKVM/firmware/src/Peripheral/src/ch32v20x_flash.c:888
    FLASH->CTLR |= CR_PAGE_PG;
    17be:	8fd5                	or	a5,a5,a3
    17c0:	cb1c                	sw	a5,16(a4)
C:/Repository/RISKYKVM/firmware/src/Peripheral/src/ch32v20x_flash.c:889 (discriminator 1)
    while(FLASH->STATR & SR_BSY);
    17c2:	475c                	lw	a5,12(a4)
    17c4:	8b85                	andi	a5,a5,1
    17c6:	fff5                	bnez	a5,17c2 <FLASH_ProgramPage_Fast+0x10>
C:/Repository/RISKYKVM/firmware/src/Peripheral/src/ch32v20x_flash.c:890
    while(FLASH->STATR & SR_WR_BSY);
    17c8:	40022737          	lui	a4,0x40022
C:/Repository/RISKYKVM/firmware/src/Peripheral/src/ch32v20x_flash.c:890 (discriminator 1)
    17cc:	475c                	lw	a5,12(a4)
    17ce:	8b89                	andi	a5,a5,2
    17d0:	fff5                	bnez	a5,17cc <FLASH_ProgramPage_Fast+0x1a>
C:/Repository/RISKYKVM/firmware/src/Peripheral/src/ch32v20x_flash.c:898
    {
        *(uint32_t *)Page_Address = *(uint32_t *)pbuf;
        Page_Address += 4;
        pbuf += 1;
        size -= 1;
        while(FLASH->STATR & SR_WR_BSY);
    17d2:	40022737          	lui	a4,0x40022
C:/Repository/RISKYKVM/firmware/src/Peripheral/src/ch32v20x_flash.c:892
    while(size)
    17d6:	10000613          	li	a2,256
C:/Repository/RISKYKVM/firmware/src/Peripheral/src/ch32v20x_flash.c:894
        *(uint32_t *)Page_Address = *(uint32_t *)pbuf;
    17da:	00f586b3          	add	a3,a1,a5
    17de:	0006a803          	lw	a6,0(a3) # 10000 <_bootloader_limit+0x8000>
    17e2:	00f506b3          	add	a3,a0,a5
    17e6:	0106a023          	sw	a6,0(a3)
C:/Repository/RISKYKVM/firmware/src/Peripheral/src/ch32v20x_flash.c:898 (discriminator 1)
        while(FLASH->STATR & SR_WR_BSY);
    17ea:	4754                	lw	a3,12(a4)
    17ec:	8a89                	andi	a3,a3,2
    17ee:	fef5                	bnez	a3,17ea <FLASH_ProgramPage_Fast+0x38>
    17f0:	0791                	addi	a5,a5,4
C:/Repository/RISKYKVM/firmware/src/Peripheral/src/ch32v20x_flash.c:892
    while(size)
    17f2:	fec794e3          	bne	a5,a2,17da <FLASH_ProgramPage_Fast+0x28>
C:/Repository/RISKYKVM/firmware/src/Peripheral/src/ch32v20x_flash.c:901
    }

    FLASH->CTLR |= CR_PG_STRT;
    17f6:	4b1c                	lw	a5,16(a4)
    17f8:	002006b7          	lui	a3,0x200
    17fc:	8fd5                	or	a5,a5,a3
    17fe:	cb1c                	sw	a5,16(a4)
C:/Repository/RISKYKVM/firmware/src/Peripheral/src/ch32v20x_flash.c:902
    while(FLASH->STATR & SR_BSY);
    1800:	400227b7          	lui	a5,0x40022
C:/Repository/RISKYKVM/firmware/src/Peripheral/src/ch32v20x_flash.c:902 (discriminator 1)
    1804:	47d8                	lw	a4,12(a5)
    1806:	8b05                	andi	a4,a4,1
    1808:	ff75                	bnez	a4,1804 <FLASH_ProgramPage_Fast+0x52>
C:/Repository/RISKYKVM/firmware/src/Peripheral/src/ch32v20x_flash.c:903
    FLASH->CTLR &= ~CR_PAGE_PG;
    180a:	4b98                	lw	a4,16(a5)
    180c:	76c1                	lui	a3,0xffff0
    180e:	16fd                	addi	a3,a3,-1
    1810:	8f75                	and	a4,a4,a3
    1812:	cb98                	sw	a4,16(a5)
C:/Repository/RISKYKVM/firmware/src/Peripheral/src/ch32v20x_flash.c:904
}
    1814:	8082                	ret

00001816 <GPIO_Init>:
GPIO_Init():
C:/Repository/RISKYKVM/firmware/src/Peripheral/src/ch32v20x_gpio.c:95
void GPIO_Init(GPIO_TypeDef *GPIOx, GPIO_InitTypeDef *GPIO_InitStruct)
{
    uint32_t currentmode = 0x00, currentpin = 0x00, pinpos = 0x00, pos = 0x00;
    uint32_t tmpreg = 0x00, pinmask = 0x00;

    currentmode = ((uint32_t)GPIO_InitStruct->GPIO_Mode) & ((uint32_t)0x0F);
    1816:	459c                	lw	a5,8(a1)
C:/Repository/RISKYKVM/firmware/src/Peripheral/src/ch32v20x_gpio.c:97

    if((((uint32_t)GPIO_InitStruct->GPIO_Mode) & ((uint32_t)0x10)) != 0x00)
    1818:	0107f713          	andi	a4,a5,16
C:/Repository/RISKYKVM/firmware/src/Peripheral/src/ch32v20x_gpio.c:95
    currentmode = ((uint32_t)GPIO_InitStruct->GPIO_Mode) & ((uint32_t)0x0F);
    181c:	00f7f813          	andi	a6,a5,15
C:/Repository/RISKYKVM/firmware/src/Peripheral/src/ch32v20x_gpio.c:97
    if((((uint32_t)GPIO_InitStruct->GPIO_Mode) & ((uint32_t)0x10)) != 0x00)
    1820:	c701                	beqz	a4,1828 <GPIO_Init+0x12>
C:/Repository/RISKYKVM/firmware/src/Peripheral/src/ch32v20x_gpio.c:99
    {
        currentmode |= (uint32_t)GPIO_InitStruct->GPIO_Speed;
    1822:	41d8                	lw	a4,4(a1)
    1824:	00e86833          	or	a6,a6,a4
C:/Repository/RISKYKVM/firmware/src/Peripheral/src/ch32v20x_gpio.c:102
    }
#if defined (CH32V20x_D6)
    if(((*(uint32_t *) 0x40022030) & 0x0F000000) == 0)
    1828:	40022737          	lui	a4,0x40022
    182c:	5b14                	lw	a3,48(a4)
    182e:	0f000737          	lui	a4,0xf000
    1832:	8f75                	and	a4,a4,a3
    1834:	ef45                	bnez	a4,18ec <GPIO_Init+0xd6>
C:/Repository/RISKYKVM/firmware/src/Peripheral/src/ch32v20x_gpio.c:104
    {
        MCU_Version = 1;
    1836:	4685                	li	a3,1
    1838:	82d18ca3          	sb	a3,-1991(gp) # 20000099 <MCU_Version>
C:/Repository/RISKYKVM/firmware/src/Peripheral/src/ch32v20x_gpio.c:107
    }

    if((GPIOx == GPIOC) && MCU_Version){
    183c:	40011737          	lui	a4,0x40011
    1840:	00e51763          	bne	a0,a4,184e <GPIO_Init+0x38>
C:/Repository/RISKYKVM/firmware/src/Peripheral/src/ch32v20x_gpio.c:108
        GPIO_InitStruct->GPIO_Pin = GPIO_InitStruct->GPIO_Pin >> 13;
    1844:	0005d703          	lhu	a4,0(a1)
    1848:	8335                	srli	a4,a4,0xd
    184a:	00e59023          	sh	a4,0(a1)
C:/Repository/RISKYKVM/firmware/src/Peripheral/src/ch32v20x_gpio.c:112
    }

#endif
    if(((uint32_t)GPIO_InitStruct->GPIO_Pin & ((uint32_t)0x00FF)) != 0x00)
    184e:	0005d583          	lhu	a1,0(a1)
    1852:	0ff5f713          	andi	a4,a1,255
    1856:	c339                	beqz	a4,189c <GPIO_Init+0x86>
C:/Repository/RISKYKVM/firmware/src/Peripheral/src/ch32v20x_gpio.c:114
    {
        tmpreg = GPIOx->CFGLR;
    1858:	4118                	lw	a4,0(a0)
C:/Repository/RISKYKVM/firmware/src/Peripheral/src/ch32v20x_gpio.c:116

        for(pinpos = 0x00; pinpos < 0x08; pinpos++)
    185a:	4681                	li	a3,0
C:/Repository/RISKYKVM/firmware/src/Peripheral/src/ch32v20x_gpio.c:118
        {
            pos = ((uint32_t)0x01) << pinpos;
    185c:	4e85                	li	t4,1
C:/Repository/RISKYKVM/firmware/src/Peripheral/src/ch32v20x_gpio.c:124
            currentpin = (GPIO_InitStruct->GPIO_Pin) & pos;

            if(currentpin == pos)
            {
                pos = pinpos << 2;
                pinmask = ((uint32_t)0x0F) << pos;
    185e:	4f3d                	li	t5,15
C:/Repository/RISKYKVM/firmware/src/Peripheral/src/ch32v20x_gpio.c:128
                tmpreg &= ~pinmask;
                tmpreg |= (currentmode << pos);

                if(GPIO_InitStruct->GPIO_Mode == GPIO_Mode_IPD)
    1860:	02800f93          	li	t6,40
C:/Repository/RISKYKVM/firmware/src/Peripheral/src/ch32v20x_gpio.c:134
                {
                    GPIOx->BCR = (((uint32_t)0x01) << pinpos);
                }
                else
                {
                    if(GPIO_InitStruct->GPIO_Mode == GPIO_Mode_IPU)
    1864:	04800293          	li	t0,72
C:/Repository/RISKYKVM/firmware/src/Peripheral/src/ch32v20x_gpio.c:116
        for(pinpos = 0x00; pinpos < 0x08; pinpos++)
    1868:	4e21                	li	t3,8
C:/Repository/RISKYKVM/firmware/src/Peripheral/src/ch32v20x_gpio.c:118
            pos = ((uint32_t)0x01) << pinpos;
    186a:	00de9633          	sll	a2,t4,a3
C:/Repository/RISKYKVM/firmware/src/Peripheral/src/ch32v20x_gpio.c:119
            currentpin = (GPIO_InitStruct->GPIO_Pin) & pos;
    186e:	00c5f8b3          	and	a7,a1,a2
C:/Repository/RISKYKVM/firmware/src/Peripheral/src/ch32v20x_gpio.c:121
            if(currentpin == pos)
    1872:	03161163          	bne	a2,a7,1894 <GPIO_Init+0x7e>
C:/Repository/RISKYKVM/firmware/src/Peripheral/src/ch32v20x_gpio.c:123
                pos = pinpos << 2;
    1876:	00269893          	slli	a7,a3,0x2
C:/Repository/RISKYKVM/firmware/src/Peripheral/src/ch32v20x_gpio.c:124
                pinmask = ((uint32_t)0x0F) << pos;
    187a:	011f1333          	sll	t1,t5,a7
C:/Repository/RISKYKVM/firmware/src/Peripheral/src/ch32v20x_gpio.c:125
                tmpreg &= ~pinmask;
    187e:	fff34313          	not	t1,t1
    1882:	00e37733          	and	a4,t1,a4
C:/Repository/RISKYKVM/firmware/src/Peripheral/src/ch32v20x_gpio.c:126
                tmpreg |= (currentmode << pos);
    1886:	011818b3          	sll	a7,a6,a7
    188a:	00e8e733          	or	a4,a7,a4
C:/Repository/RISKYKVM/firmware/src/Peripheral/src/ch32v20x_gpio.c:128
                if(GPIO_InitStruct->GPIO_Mode == GPIO_Mode_IPD)
    188e:	07f79763          	bne	a5,t6,18fc <GPIO_Init+0xe6>
C:/Repository/RISKYKVM/firmware/src/Peripheral/src/ch32v20x_gpio.c:130
                    GPIOx->BCR = (((uint32_t)0x01) << pinpos);
    1892:	c950                	sw	a2,20(a0)
C:/Repository/RISKYKVM/firmware/src/Peripheral/src/ch32v20x_gpio.c:116 (discriminator 2)
        for(pinpos = 0x00; pinpos < 0x08; pinpos++)
    1894:	0685                	addi	a3,a3,1
    1896:	fdc69ae3          	bne	a3,t3,186a <GPIO_Init+0x54>
C:/Repository/RISKYKVM/firmware/src/Peripheral/src/ch32v20x_gpio.c:141
                        GPIOx->BSHR = (((uint32_t)0x01) << pinpos);
                    }
                }
            }
        }
        GPIOx->CFGLR = tmpreg;
    189a:	c118                	sw	a4,0(a0)
C:/Repository/RISKYKVM/firmware/src/Peripheral/src/ch32v20x_gpio.c:144
    }

    if(GPIO_InitStruct->GPIO_Pin > 0x00FF)
    189c:	0ff00713          	li	a4,255
    18a0:	04b77563          	bgeu	a4,a1,18ea <GPIO_Init+0xd4>
C:/Repository/RISKYKVM/firmware/src/Peripheral/src/ch32v20x_gpio.c:146
    {
        tmpreg = GPIOx->CFGHR;
    18a4:	4154                	lw	a3,4(a0)
    18a6:	4621                	li	a2,8
C:/Repository/RISKYKVM/firmware/src/Peripheral/src/ch32v20x_gpio.c:150

        for(pinpos = 0x00; pinpos < 0x08; pinpos++)
        {
            pos = (((uint32_t)0x01) << (pinpos + 0x08));
    18a8:	4e85                	li	t4,1
C:/Repository/RISKYKVM/firmware/src/Peripheral/src/ch32v20x_gpio.c:156
            currentpin = ((GPIO_InitStruct->GPIO_Pin) & pos);

            if(currentpin == pos)
            {
                pos = pinpos << 2;
                pinmask = ((uint32_t)0x0F) << pos;
    18aa:	4f3d                	li	t5,15
C:/Repository/RISKYKVM/firmware/src/Peripheral/src/ch32v20x_gpio.c:160
                tmpreg &= ~pinmask;
                tmpreg |= (currentmode << pos);

                if(GPIO_InitStruct->GPIO_Mode == GPIO_Mode_IPD)
    18ac:	02800f93          	li	t6,40
C:/Repository/RISKYKVM/firmware/src/Peripheral/src/ch32v20x_gpio.c:165
                {
                    GPIOx->BCR = (((uint32_t)0x01) << (pinpos + 0x08));
                }

                if(GPIO_InitStruct->GPIO_Mode == GPIO_Mode_IPU)
    18b0:	04800293          	li	t0,72
C:/Repository/RISKYKVM/firmware/src/Peripheral/src/ch32v20x_gpio.c:148
        for(pinpos = 0x00; pinpos < 0x08; pinpos++)
    18b4:	4e41                	li	t3,16
C:/Repository/RISKYKVM/firmware/src/Peripheral/src/ch32v20x_gpio.c:150
            pos = (((uint32_t)0x01) << (pinpos + 0x08));
    18b6:	00ce98b3          	sll	a7,t4,a2
C:/Repository/RISKYKVM/firmware/src/Peripheral/src/ch32v20x_gpio.c:151
            currentpin = ((GPIO_InitStruct->GPIO_Pin) & pos);
    18ba:	0115f733          	and	a4,a1,a7
C:/Repository/RISKYKVM/firmware/src/Peripheral/src/ch32v20x_gpio.c:153
            if(currentpin == pos)
    18be:	02e89263          	bne	a7,a4,18e2 <GPIO_Init+0xcc>
C:/Repository/RISKYKVM/firmware/src/Peripheral/src/ch32v20x_gpio.c:155
                pos = pinpos << 2;
    18c2:	00261713          	slli	a4,a2,0x2
    18c6:	1701                	addi	a4,a4,-32
C:/Repository/RISKYKVM/firmware/src/Peripheral/src/ch32v20x_gpio.c:156
                pinmask = ((uint32_t)0x0F) << pos;
    18c8:	00ef1333          	sll	t1,t5,a4
C:/Repository/RISKYKVM/firmware/src/Peripheral/src/ch32v20x_gpio.c:157
                tmpreg &= ~pinmask;
    18cc:	fff34313          	not	t1,t1
    18d0:	00d376b3          	and	a3,t1,a3
C:/Repository/RISKYKVM/firmware/src/Peripheral/src/ch32v20x_gpio.c:158
                tmpreg |= (currentmode << pos);
    18d4:	00e81733          	sll	a4,a6,a4
    18d8:	8ed9                	or	a3,a3,a4
C:/Repository/RISKYKVM/firmware/src/Peripheral/src/ch32v20x_gpio.c:160
                if(GPIO_InitStruct->GPIO_Mode == GPIO_Mode_IPD)
    18da:	03f79563          	bne	a5,t6,1904 <GPIO_Init+0xee>
C:/Repository/RISKYKVM/firmware/src/Peripheral/src/ch32v20x_gpio.c:162
                    GPIOx->BCR = (((uint32_t)0x01) << (pinpos + 0x08));
    18de:	01152a23          	sw	a7,20(a0)
C:/Repository/RISKYKVM/firmware/src/Peripheral/src/ch32v20x_gpio.c:165
                if(GPIO_InitStruct->GPIO_Mode == GPIO_Mode_IPU)
    18e2:	0605                	addi	a2,a2,1
C:/Repository/RISKYKVM/firmware/src/Peripheral/src/ch32v20x_gpio.c:148 (discriminator 2)
        for(pinpos = 0x00; pinpos < 0x08; pinpos++)
    18e4:	fdc619e3          	bne	a2,t3,18b6 <GPIO_Init+0xa0>
C:/Repository/RISKYKVM/firmware/src/Peripheral/src/ch32v20x_gpio.c:171
                {
                    GPIOx->BSHR = (((uint32_t)0x01) << (pinpos + 0x08));
                }
            }
        }
        GPIOx->CFGHR = tmpreg;
    18e8:	c154                	sw	a3,4(a0)
C:/Repository/RISKYKVM/firmware/src/Peripheral/src/ch32v20x_gpio.c:173
    }
}
    18ea:	8082                	ret
C:/Repository/RISKYKVM/firmware/src/Peripheral/src/ch32v20x_gpio.c:107
    if((GPIOx == GPIOC) && MCU_Version){
    18ec:	40011737          	lui	a4,0x40011
    18f0:	f4e51fe3          	bne	a0,a4,184e <GPIO_Init+0x38>
C:/Repository/RISKYKVM/firmware/src/Peripheral/src/ch32v20x_gpio.c:107 (discriminator 1)
    18f4:	8391c703          	lbu	a4,-1991(gp) # 20000099 <MCU_Version>
    18f8:	db39                	beqz	a4,184e <GPIO_Init+0x38>
    18fa:	b7a9                	j	1844 <GPIO_Init+0x2e>
C:/Repository/RISKYKVM/firmware/src/Peripheral/src/ch32v20x_gpio.c:134
                    if(GPIO_InitStruct->GPIO_Mode == GPIO_Mode_IPU)
    18fc:	f8579ce3          	bne	a5,t0,1894 <GPIO_Init+0x7e>
C:/Repository/RISKYKVM/firmware/src/Peripheral/src/ch32v20x_gpio.c:136
                        GPIOx->BSHR = (((uint32_t)0x01) << pinpos);
    1900:	c910                	sw	a2,16(a0)
    1902:	bf49                	j	1894 <GPIO_Init+0x7e>
C:/Repository/RISKYKVM/firmware/src/Peripheral/src/ch32v20x_gpio.c:165
                if(GPIO_InitStruct->GPIO_Mode == GPIO_Mode_IPU)
    1904:	fc579fe3          	bne	a5,t0,18e2 <GPIO_Init+0xcc>
C:/Repository/RISKYKVM/firmware/src/Peripheral/src/ch32v20x_gpio.c:167
                    GPIOx->BSHR = (((uint32_t)0x01) << (pinpos + 0x08));
    1908:	01152823          	sw	a7,16(a0)
    190c:	bfd9                	j	18e2 <GPIO_Init+0xcc>

0000190e <GPIO_ReadInputDataBit>:
GPIO_ReadInputDataBit():
C:/Repository/RISKYKVM/firmware/src/Peripheral/src/ch32v20x_gpio.c:207
uint8_t GPIO_ReadInputDataBit(GPIO_TypeDef *GPIOx, uint16_t GPIO_Pin)
{
    uint8_t bitstatus = 0x00;

#if defined (CH32V20x_D6)
    if((GPIOx == GPIOC) && MCU_Version){
    190e:	400117b7          	lui	a5,0x40011
    1912:	00f51663          	bne	a0,a5,191e <GPIO_ReadInputDataBit+0x10>
C:/Repository/RISKYKVM/firmware/src/Peripheral/src/ch32v20x_gpio.c:207 (discriminator 1)
    1916:	8391c783          	lbu	a5,-1991(gp) # 20000099 <MCU_Version>
    191a:	c391                	beqz	a5,191e <GPIO_ReadInputDataBit+0x10>
C:/Repository/RISKYKVM/firmware/src/Peripheral/src/ch32v20x_gpio.c:208
        GPIO_Pin = GPIO_Pin >> 13;
    191c:	81b5                	srli	a1,a1,0xd
C:/Repository/RISKYKVM/firmware/src/Peripheral/src/ch32v20x_gpio.c:213
    }

#endif

    if((GPIOx->INDR & GPIO_Pin) != (uint32_t)Bit_RESET)
    191e:	4508                	lw	a0,8(a0)
    1920:	8d6d                	and	a0,a0,a1
C:/Repository/RISKYKVM/firmware/src/Peripheral/src/ch32v20x_gpio.c:223
    {
        bitstatus = (uint8_t)Bit_RESET;
    }

    return bitstatus;
}
    1922:	00a03533          	snez	a0,a0
    1926:	8082                	ret

00001928 <GPIO_WriteBit>:
GPIO_WriteBit():
C:/Repository/RISKYKVM/firmware/src/Peripheral/src/ch32v20x_gpio.c:377
 * @return  none
 */
void GPIO_WriteBit(GPIO_TypeDef *GPIOx, uint16_t GPIO_Pin, BitAction BitVal)
{
#if defined (CH32V20x_D6)
    if((GPIOx == GPIOC) && MCU_Version){
    1928:	400117b7          	lui	a5,0x40011
    192c:	00f51663          	bne	a0,a5,1938 <GPIO_WriteBit+0x10>
C:/Repository/RISKYKVM/firmware/src/Peripheral/src/ch32v20x_gpio.c:377 (discriminator 1)
    1930:	8391c783          	lbu	a5,-1991(gp) # 20000099 <MCU_Version>
    1934:	c391                	beqz	a5,1938 <GPIO_WriteBit+0x10>
C:/Repository/RISKYKVM/firmware/src/Peripheral/src/ch32v20x_gpio.c:378
        GPIO_Pin = GPIO_Pin >> 13;
    1936:	81b5                	srli	a1,a1,0xd
C:/Repository/RISKYKVM/firmware/src/Peripheral/src/ch32v20x_gpio.c:383
    }

#endif

    if(BitVal != Bit_RESET)
    1938:	c219                	beqz	a2,193e <GPIO_WriteBit+0x16>
C:/Repository/RISKYKVM/firmware/src/Peripheral/src/ch32v20x_gpio.c:385
    {
        GPIOx->BSHR = GPIO_Pin;
    193a:	c90c                	sw	a1,16(a0)
    193c:	8082                	ret
C:/Repository/RISKYKVM/firmware/src/Peripheral/src/ch32v20x_gpio.c:389
    }
    else
    {
        GPIOx->BCR = GPIO_Pin;
    193e:	c94c                	sw	a1,20(a0)
C:/Repository/RISKYKVM/firmware/src/Peripheral/src/ch32v20x_gpio.c:391
    }
}
    1940:	8082                	ret

00001942 <RCC_USBCLKConfig>:
RCC_USBCLKConfig():
C:/Repository/RISKYKVM/firmware/src/Peripheral/src/ch32v20x_rcc.c:419
 *
 * @return  none
 */
void RCC_USBCLKConfig(uint32_t RCC_USBCLKSource)
{
    RCC->CFGR0 &= ~((uint32_t)3<<22);
    1942:	400217b7          	lui	a5,0x40021
    1946:	43d8                	lw	a4,4(a5)
    1948:	ff4006b7          	lui	a3,0xff400
    194c:	16fd                	addi	a3,a3,-1
    194e:	8f75                	and	a4,a4,a3
    1950:	c3d8                	sw	a4,4(a5)
C:/Repository/RISKYKVM/firmware/src/Peripheral/src/ch32v20x_rcc.c:420
    RCC->CFGR0 |= RCC_USBCLKSource<<22;
    1952:	43d8                	lw	a4,4(a5)
    1954:	055a                	slli	a0,a0,0x16
    1956:	8d59                	or	a0,a0,a4
    1958:	c3c8                	sw	a0,4(a5)
C:/Repository/RISKYKVM/firmware/src/Peripheral/src/ch32v20x_rcc.c:421
}
    195a:	8082                	ret

0000195c <RCC_AHBPeriphClockCmd>:
RCC_AHBPeriphClockCmd():
C:/Repository/RISKYKVM/firmware/src/Peripheral/src/ch32v20x_rcc.c:657
 *
 * @return  none
 */
void RCC_AHBPeriphClockCmd(uint32_t RCC_AHBPeriph, FunctionalState NewState)
{
  if (NewState != DISABLE)
    195c:	c599                	beqz	a1,196a <RCC_AHBPeriphClockCmd+0xe>
C:/Repository/RISKYKVM/firmware/src/Peripheral/src/ch32v20x_rcc.c:659
  {
    RCC->AHBPCENR |= RCC_AHBPeriph;
    195e:	40021737          	lui	a4,0x40021
    1962:	4b5c                	lw	a5,20(a4)
    1964:	8d5d                	or	a0,a0,a5
    1966:	cb48                	sw	a0,20(a4)
    1968:	8082                	ret
C:/Repository/RISKYKVM/firmware/src/Peripheral/src/ch32v20x_rcc.c:663
  }
  else
  {
    RCC->AHBPCENR &= ~RCC_AHBPeriph;
    196a:	400217b7          	lui	a5,0x40021
    196e:	4bd8                	lw	a4,20(a5)
    1970:	fff54513          	not	a0,a0
    1974:	8d79                	and	a0,a0,a4
    1976:	cbc8                	sw	a0,20(a5)
C:/Repository/RISKYKVM/firmware/src/Peripheral/src/ch32v20x_rcc.c:665
  }
}
    1978:	8082                	ret

0000197a <RCC_APB2PeriphClockCmd>:
RCC_APB2PeriphClockCmd():
C:/Repository/RISKYKVM/firmware/src/Peripheral/src/ch32v20x_rcc.c:691
 *
 * @return  none
 */
void RCC_APB2PeriphClockCmd(uint32_t RCC_APB2Periph, FunctionalState NewState)
{
  if (NewState != DISABLE)
    197a:	c599                	beqz	a1,1988 <RCC_APB2PeriphClockCmd+0xe>
C:/Repository/RISKYKVM/firmware/src/Peripheral/src/ch32v20x_rcc.c:693
  {
    RCC->APB2PCENR |= RCC_APB2Periph;
    197c:	40021737          	lui	a4,0x40021
    1980:	4f1c                	lw	a5,24(a4)
    1982:	8d5d                	or	a0,a0,a5
    1984:	cf08                	sw	a0,24(a4)
    1986:	8082                	ret
C:/Repository/RISKYKVM/firmware/src/Peripheral/src/ch32v20x_rcc.c:697
  }
  else
  {
    RCC->APB2PCENR &= ~RCC_APB2Periph;
    1988:	400217b7          	lui	a5,0x40021
    198c:	4f98                	lw	a4,24(a5)
    198e:	fff54513          	not	a0,a0
    1992:	8d79                	and	a0,a0,a4
    1994:	cf88                	sw	a0,24(a5)
C:/Repository/RISKYKVM/firmware/src/Peripheral/src/ch32v20x_rcc.c:699
  }
}
    1996:	8082                	ret

00001998 <Delay_Init>:
Delay_Init():
C:/Repository/RISKYKVM/firmware/src/Debug/debug.c:26
 *
 * @return  none
 */
void Delay_Init(void)
{
    p_us = SystemCoreClock / 8000000;
    1998:	200007b7          	lui	a5,0x20000
    199c:	0607a783          	lw	a5,96(a5) # 20000060 <SystemCoreClock>
    19a0:	007a1737          	lui	a4,0x7a1
    19a4:	20070713          	addi	a4,a4,512 # 7a1200 <_bootloader_limit+0x799200>
    19a8:	02e7d7b3          	divu	a5,a5,a4
    19ac:	0ff7f793          	andi	a5,a5,255
    19b0:	82f18e23          	sb	a5,-1988(gp) # 2000009c <p_us>
C:/Repository/RISKYKVM/firmware/src/Debug/debug.c:27
    p_ms = (uint16_t)p_us * 1000;
    19b4:	3e800713          	li	a4,1000
    19b8:	02e787b3          	mul	a5,a5,a4
    19bc:	82f19d23          	sh	a5,-1990(gp) # 2000009a <p_ms>
C:/Repository/RISKYKVM/firmware/src/Debug/debug.c:28
}
    19c0:	8082                	ret

000019c2 <Delay_Us>:
Delay_Us():
C:/Repository/RISKYKVM/firmware/src/Debug/debug.c:43
 */
void Delay_Us(uint32_t n)
{
    uint32_t i;

    SysTick->SR &= ~(1 << 0);
    19c2:	e000f7b7          	lui	a5,0xe000f
    19c6:	43d8                	lw	a4,4(a5)
C:/Repository/RISKYKVM/firmware/src/Debug/debug.c:46
    i = (uint32_t)n * p_us;

    SysTick->CMP = i;
    19c8:	4681                	li	a3,0
C:/Repository/RISKYKVM/firmware/src/Debug/debug.c:43
    SysTick->SR &= ~(1 << 0);
    19ca:	9b79                	andi	a4,a4,-2
    19cc:	c3d8                	sw	a4,4(a5)
C:/Repository/RISKYKVM/firmware/src/Debug/debug.c:44
    i = (uint32_t)n * p_us;
    19ce:	83c1c703          	lbu	a4,-1988(gp) # 2000009c <p_us>
C:/Repository/RISKYKVM/firmware/src/Debug/debug.c:46
    SysTick->CMP = i;
    19d2:	02a70633          	mul	a2,a4,a0
    19d6:	cb90                	sw	a2,16(a5)
    19d8:	cbd4                	sw	a3,20(a5)
C:/Repository/RISKYKVM/firmware/src/Debug/debug.c:47
    SysTick->CTLR |= (1 << 4);
    19da:	4398                	lw	a4,0(a5)
    19dc:	01076713          	ori	a4,a4,16
    19e0:	c398                	sw	a4,0(a5)
C:/Repository/RISKYKVM/firmware/src/Debug/debug.c:48
    SysTick->CTLR |= (1 << 5) | (1 << 0);
    19e2:	4398                	lw	a4,0(a5)
    19e4:	02176713          	ori	a4,a4,33
    19e8:	c398                	sw	a4,0(a5)
C:/Repository/RISKYKVM/firmware/src/Debug/debug.c:50 (discriminator 1)

    while((SysTick->SR & (1 << 0)) != (1 << 0));
    19ea:	43d8                	lw	a4,4(a5)
    19ec:	8b05                	andi	a4,a4,1
    19ee:	df75                	beqz	a4,19ea <Delay_Us+0x28>
C:/Repository/RISKYKVM/firmware/src/Debug/debug.c:51
    SysTick->CTLR &= ~(1 << 0);
    19f0:	4398                	lw	a4,0(a5)
    19f2:	9b79                	andi	a4,a4,-2
    19f4:	c398                	sw	a4,0(a5)
C:/Repository/RISKYKVM/firmware/src/Debug/debug.c:52
}
    19f6:	8082                	ret

000019f8 <Delay_Ms>:
Delay_Ms():
C:/Repository/RISKYKVM/firmware/src/Debug/debug.c:67
 */
void Delay_Ms(uint32_t n)
{
    uint32_t i;

    SysTick->SR &= ~(1 << 0);
    19f8:	e000f7b7          	lui	a5,0xe000f
    19fc:	43d8                	lw	a4,4(a5)
C:/Repository/RISKYKVM/firmware/src/Debug/debug.c:70
    i = (uint32_t)n * p_ms;

    SysTick->CMP = i;
    19fe:	4681                	li	a3,0
C:/Repository/RISKYKVM/firmware/src/Debug/debug.c:67
    SysTick->SR &= ~(1 << 0);
    1a00:	9b79                	andi	a4,a4,-2
    1a02:	c3d8                	sw	a4,4(a5)
C:/Repository/RISKYKVM/firmware/src/Debug/debug.c:68
    i = (uint32_t)n * p_ms;
    1a04:	83a1d703          	lhu	a4,-1990(gp) # 2000009a <p_ms>
C:/Repository/RISKYKVM/firmware/src/Debug/debug.c:70
    SysTick->CMP = i;
    1a08:	02a70633          	mul	a2,a4,a0
    1a0c:	cb90                	sw	a2,16(a5)
    1a0e:	cbd4                	sw	a3,20(a5)
C:/Repository/RISKYKVM/firmware/src/Debug/debug.c:71
    SysTick->CTLR |= (1 << 4);
    1a10:	4398                	lw	a4,0(a5)
    1a12:	01076713          	ori	a4,a4,16
    1a16:	c398                	sw	a4,0(a5)
C:/Repository/RISKYKVM/firmware/src/Debug/debug.c:72
    SysTick->CTLR |= (1 << 5) | (1 << 0);
    1a18:	4398                	lw	a4,0(a5)
    1a1a:	02176713          	ori	a4,a4,33
    1a1e:	c398                	sw	a4,0(a5)
C:/Repository/RISKYKVM/firmware/src/Debug/debug.c:74 (discriminator 1)

    while((SysTick->SR & (1 << 0)) != (1 << 0));
    1a20:	43d8                	lw	a4,4(a5)
    1a22:	8b05                	andi	a4,a4,1
    1a24:	df75                	beqz	a4,1a20 <Delay_Ms+0x28>
C:/Repository/RISKYKVM/firmware/src/Debug/debug.c:75
    SysTick->CTLR &= ~(1 << 0);
    1a26:	4398                	lw	a4,0(a5)
    1a28:	9b79                	andi	a4,a4,-2
    1a2a:	c398                	sw	a4,0(a5)
C:/Repository/RISKYKVM/firmware/src/Debug/debug.c:76
}
    1a2c:	8082                	ret

00001a2e <USART_Printf_Init>:
USART_Printf_Init():
C:/Repository/RISKYKVM/firmware/src/Debug/debug.c:140
#elif(DEBUG == DEBUG_UART3)
    USART_Init(USART3, &USART_InitStructure);
    USART_Cmd(USART3, ENABLE);

#endif
}
    1a2e:	8082                	ret

00001a30 <_write>:
_write():
C:/Repository/RISKYKVM/firmware/src/Debug/debug.c:175
        USART_SendData(USART3, *buf++);
#endif
    }

    return size;
}
    1a30:	8532                	mv	a0,a2
    1a32:	8082                	ret

00001a34 <_sbrk>:
_sbrk():
C:/Repository/RISKYKVM/firmware/src/Debug/debug.c:190
{
    extern char _end[];
    extern char _heap_end[];
    static char *curbrk = _end;

    if ((curbrk + incr < _end) || (curbrk + incr > _heap_end))
    1a34:	80418713          	addi	a4,gp,-2044 # 20000064 <curbrk.4576>
    1a38:	431c                	lw	a5,0(a4)
    1a3a:	1f018693          	addi	a3,gp,496 # 20000a50 <_ebss>
    1a3e:	953e                	add	a0,a0,a5
    1a40:	00d56b63          	bltu	a0,a3,1a56 <_sbrk+0x22>
C:/Repository/RISKYKVM/firmware/src/Debug/debug.c:190 (discriminator 1)
    1a44:	200056b7          	lui	a3,0x20005
    1a48:	80068693          	addi	a3,a3,-2048 # 20004800 <_heap_end>
    1a4c:	00a6e563          	bltu	a3,a0,1a56 <_sbrk+0x22>
C:/Repository/RISKYKVM/firmware/src/Debug/debug.c:193
    return NULL - 1;

    curbrk += incr;
    1a50:	c308                	sw	a0,0(a4)
C:/Repository/RISKYKVM/firmware/src/Debug/debug.c:195
    return curbrk - incr;
}
    1a52:	853e                	mv	a0,a5
    1a54:	8082                	ret
C:/Repository/RISKYKVM/firmware/src/Debug/debug.c:191
    return NULL - 1;
    1a56:	57fd                	li	a5,-1
    1a58:	bfed                	j	1a52 <_sbrk+0x1e>

00001a5a <mBulkOnlyReset>:
mBulkOnlyReset():
    1a5a:	1141                	addi	sp,sp,-16
    1a5c:	4509                	li	a0,2
    1a5e:	c606                	sw	ra,12(sp)
    1a60:	c422                	sw	s0,8(sp)
    1a62:	c226                	sw	s1,4(sp)
    1a64:	3131                	jal	1670 <mDelaymS>
    1a66:	1a01c783          	lbu	a5,416(gp) # 20000a00 <CHRV3IntStatus>
    1a6a:	1ef185a3          	sb	a5,491(gp) # 20000a4b <mSaveDevEndpTog>
    1a6e:	b4dff0ef          	jal	ra,15ba <CHRV3DiskConnect>
    1a72:	87aa                	mv	a5,a0
    1a74:	e935                	bnez	a0,1ae8 <mBulkOnlyReset+0x8e>
    1a76:	1981c703          	lbu	a4,408(gp) # 200009f8 <CHRV3DiskStatus>
    1a7a:	468d                	li	a3,3
    1a7c:	08300793          	li	a5,131
    1a80:	06e6f463          	bgeu	a3,a4,1ae8 <mBulkOnlyReset+0x8e>
    1a84:	1e81c683          	lbu	a3,488(gp) # 20000a48 <mDiskInterfNumber>
    1a88:	02100613          	li	a2,33
    1a8c:	88c18423          	sb	a2,-1912(gp) # 200000e8 <TxBuffer>
    1a90:	567d                	li	a2,-1
    1a92:	88818793          	addi	a5,gp,-1912 # 200000e8 <TxBuffer>
    1a96:	88c184a3          	sb	a2,-1911(gp) # 200000e9 <TxBuffer+0x1>
    1a9a:	00078123          	sb	zero,2(a5) # e000f002 <_eusrstack+0xc000a002>
    1a9e:	000781a3          	sb	zero,3(a5)
    1aa2:	00d78223          	sb	a3,4(a5)
    1aa6:	000782a3          	sb	zero,5(a5)
    1aaa:	00078323          	sb	zero,6(a5)
    1aae:	000783a3          	sb	zero,7(a5)
    1ab2:	4581                	li	a1,0
    1ab4:	8fbff0ef          	jal	ra,13ae <HostCtrlTransfer>
    1ab8:	1aa18023          	sb	a0,416(gp) # 20000a00 <CHRV3IntStatus>
    1abc:	4759                	li	a4,22
    1abe:	87aa                	mv	a5,a0
    1ac0:	02e50463          	beq	a0,a4,1ae8 <mBulkOnlyReset+0x8e>
    1ac4:	18c1c503          	lbu	a0,396(gp) # 200009ec <mDiskBulkOutEndp>
    1ac8:	893d                	andi	a0,a0,15
    1aca:	92dff0ef          	jal	ra,13f6 <CtrlClearEndpStall>
    1ace:	1dc1c503          	lbu	a0,476(gp) # 20000a3c <mDiskBulkInEndp>
    1ad2:	893d                	andi	a0,a0,15
    1ad4:	08056513          	ori	a0,a0,128
    1ad8:	91fff0ef          	jal	ra,13f6 <CtrlClearEndpStall>
    1adc:	1eb1c783          	lbu	a5,491(gp) # 20000a4b <mSaveDevEndpTog>
    1ae0:	1e0185a3          	sb	zero,491(gp) # 20000a4b <mSaveDevEndpTog>
    1ae4:	1af18023          	sb	a5,416(gp) # 20000a00 <CHRV3IntStatus>
    1ae8:	40b2                	lw	ra,12(sp)
    1aea:	4422                	lw	s0,8(sp)
    1aec:	4492                	lw	s1,4(sp)
    1aee:	853e                	mv	a0,a5
    1af0:	0141                	addi	sp,sp,16
    1af2:	8082                	ret

00001af4 <mUpdateStatus.part.1>:
mUpdateStatus.part.1():
    1af4:	1141                	addi	sp,sp,-16
    1af6:	4705                	li	a4,1
    1af8:	c606                	sw	ra,12(sp)
    1afa:	18e18c23          	sb	a4,408(gp) # 200009f8 <CHRV3DiskStatus>
    1afe:	abdff0ef          	jal	ra,15ba <CHRV3DiskConnect>
    1b02:	e119                	bnez	a0,1b08 <mUpdateStatus.part.1+0x14>
    1b04:	08300513          	li	a0,131
    1b08:	40b2                	lw	ra,12(sp)
    1b0a:	0141                	addi	sp,sp,16
    1b0c:	8082                	ret

00001b0e <mReadSectorFAT>:
mReadSectorFAT():
    1b0e:	1141                	addi	sp,sp,-16
    1b10:	c422                	sw	s0,8(sp)
    1b12:	1941a783          	lw	a5,404(gp) # 200009f4 <CHRV3vLbaCurrent>
    1b16:	1d01a703          	lw	a4,464(gp) # 20000a30 <mLbaBufferFAT>
    1b1a:	c606                	sw	ra,12(sp)
    1b1c:	4501                	li	a0,0
    1b1e:	02e78463          	beq	a5,a4,1b46 <mReadSectorFAT+0x38>
    1b22:	1681a583          	lw	a1,360(gp) # 200009c8 <pDISK_FAT_BUF>
    1b26:	1801a703          	lw	a4,384(gp) # 200009e0 <pDISK_BASE_BUF>
    1b2a:	1cf1a823          	sw	a5,464(gp) # 20000a30 <mLbaBufferFAT>
    1b2e:	02b70863          	beq	a4,a1,1b5e <mReadSectorFAT+0x50>
    1b32:	4505                	li	a0,1
    1b34:	8cdff0ef          	jal	ra,1400 <CHRV3ReadSector>
    1b38:	1aa18023          	sb	a0,416(gp) # 20000a00 <CHRV3IntStatus>
    1b3c:	e909                	bnez	a0,1b4e <mReadSectorFAT+0x40>
    1b3e:	1a01c503          	lbu	a0,416(gp) # 20000a00 <CHRV3IntStatus>
    1b42:	0ff57513          	andi	a0,a0,255
    1b46:	40b2                	lw	ra,12(sp)
    1b48:	4422                	lw	s0,8(sp)
    1b4a:	0141                	addi	sp,sp,16
    1b4c:	8082                	ret
    1b4e:	577d                	li	a4,-1
    1b50:	1ee1a023          	sw	a4,480(gp) # 20000a40 <mLbaBufferFDT>
    1b54:	1ce1a823          	sw	a4,464(gp) # 20000a30 <mLbaBufferFAT>
    1b58:	16018623          	sb	zero,364(gp) # 200009cc <mFatSecChanged>
    1b5c:	b7cd                	j	1b3e <mReadSectorFAT+0x30>
    1b5e:	4505                	li	a0,1
    1b60:	1ef1a023          	sw	a5,480(gp) # 20000a40 <mLbaBufferFDT>
    1b64:	89dff0ef          	jal	ra,1400 <CHRV3ReadSector>
    1b68:	1aa18023          	sb	a0,416(gp) # 20000a00 <CHRV3IntStatus>
    1b6c:	d969                	beqz	a0,1b3e <mReadSectorFAT+0x30>
    1b6e:	b7c5                	j	1b4e <mReadSectorFAT+0x40>

00001b70 <mReadSectorFDT>:
mReadSectorFDT():
    1b70:	1141                	addi	sp,sp,-16
    1b72:	c422                	sw	s0,8(sp)
    1b74:	1941a783          	lw	a5,404(gp) # 200009f4 <CHRV3vLbaCurrent>
    1b78:	1e01a703          	lw	a4,480(gp) # 20000a40 <mLbaBufferFDT>
    1b7c:	c606                	sw	ra,12(sp)
    1b7e:	4501                	li	a0,0
    1b80:	02e78463          	beq	a5,a4,1ba8 <mReadSectorFDT+0x38>
    1b84:	1801a583          	lw	a1,384(gp) # 200009e0 <pDISK_BASE_BUF>
    1b88:	1681a703          	lw	a4,360(gp) # 200009c8 <pDISK_FAT_BUF>
    1b8c:	1ef1a023          	sw	a5,480(gp) # 20000a40 <mLbaBufferFDT>
    1b90:	02b70863          	beq	a4,a1,1bc0 <mReadSectorFDT+0x50>
    1b94:	4505                	li	a0,1
    1b96:	86bff0ef          	jal	ra,1400 <CHRV3ReadSector>
    1b9a:	1aa18023          	sb	a0,416(gp) # 20000a00 <CHRV3IntStatus>
    1b9e:	e909                	bnez	a0,1bb0 <mReadSectorFDT+0x40>
    1ba0:	1a01c503          	lbu	a0,416(gp) # 20000a00 <CHRV3IntStatus>
    1ba4:	0ff57513          	andi	a0,a0,255
    1ba8:	40b2                	lw	ra,12(sp)
    1baa:	4422                	lw	s0,8(sp)
    1bac:	0141                	addi	sp,sp,16
    1bae:	8082                	ret
    1bb0:	577d                	li	a4,-1
    1bb2:	1ee1a023          	sw	a4,480(gp) # 20000a40 <mLbaBufferFDT>
    1bb6:	1ce1a823          	sw	a4,464(gp) # 20000a30 <mLbaBufferFAT>
    1bba:	16018623          	sb	zero,364(gp) # 200009cc <mFatSecChanged>
    1bbe:	b7cd                	j	1ba0 <mReadSectorFDT+0x30>
    1bc0:	4505                	li	a0,1
    1bc2:	1cf1a823          	sw	a5,464(gp) # 20000a30 <mLbaBufferFAT>
    1bc6:	83bff0ef          	jal	ra,1400 <CHRV3ReadSector>
    1bca:	1aa18023          	sb	a0,416(gp) # 20000a00 <CHRV3IntStatus>
    1bce:	d969                	beqz	a0,1ba0 <mReadSectorFDT+0x30>
    1bd0:	b7c5                	j	1bb0 <mReadSectorFDT+0x40>

00001bd2 <mWriteSectorFAT>:
mWriteSectorFAT():
    1bd2:	1941a783          	lw	a5,404(gp) # 200009f4 <CHRV3vLbaCurrent>
    1bd6:	1681a583          	lw	a1,360(gp) # 200009c8 <pDISK_FAT_BUF>
    1bda:	1141                	addi	sp,sp,-16
    1bdc:	1801a703          	lw	a4,384(gp) # 200009e0 <pDISK_BASE_BUF>
    1be0:	c422                	sw	s0,8(sp)
    1be2:	c606                	sw	ra,12(sp)
    1be4:	1cf1a823          	sw	a5,464(gp) # 20000a30 <mLbaBufferFAT>
    1be8:	02b70563          	beq	a4,a1,1c12 <mWriteSectorFAT+0x40>
    1bec:	4505                	li	a0,1
    1bee:	8f1ff0ef          	jal	ra,14de <CHRV3WriteSector>
    1bf2:	1aa18023          	sb	a0,416(gp) # 20000a00 <CHRV3IntStatus>
    1bf6:	c901                	beqz	a0,1c06 <mWriteSectorFAT+0x34>
    1bf8:	577d                	li	a4,-1
    1bfa:	1ee1a023          	sw	a4,480(gp) # 20000a40 <mLbaBufferFDT>
    1bfe:	1ce1a823          	sw	a4,464(gp) # 20000a30 <mLbaBufferFAT>
    1c02:	16018623          	sb	zero,364(gp) # 200009cc <mFatSecChanged>
    1c06:	40b2                	lw	ra,12(sp)
    1c08:	4422                	lw	s0,8(sp)
    1c0a:	1a01c503          	lbu	a0,416(gp) # 20000a00 <CHRV3IntStatus>
    1c0e:	0141                	addi	sp,sp,16
    1c10:	8082                	ret
    1c12:	1ef1a023          	sw	a5,480(gp) # 20000a40 <mLbaBufferFDT>
    1c16:	bfd9                	j	1bec <mWriteSectorFAT+0x1a>

00001c18 <mWriteSectorFDT>:
mWriteSectorFDT():
    1c18:	1941a783          	lw	a5,404(gp) # 200009f4 <CHRV3vLbaCurrent>
    1c1c:	1801a583          	lw	a1,384(gp) # 200009e0 <pDISK_BASE_BUF>
    1c20:	1141                	addi	sp,sp,-16
    1c22:	1681a703          	lw	a4,360(gp) # 200009c8 <pDISK_FAT_BUF>
    1c26:	c422                	sw	s0,8(sp)
    1c28:	c606                	sw	ra,12(sp)
    1c2a:	1ef1a023          	sw	a5,480(gp) # 20000a40 <mLbaBufferFDT>
    1c2e:	02b70563          	beq	a4,a1,1c58 <mWriteSectorFDT+0x40>
    1c32:	4505                	li	a0,1
    1c34:	8abff0ef          	jal	ra,14de <CHRV3WriteSector>
    1c38:	1aa18023          	sb	a0,416(gp) # 20000a00 <CHRV3IntStatus>
    1c3c:	c901                	beqz	a0,1c4c <mWriteSectorFDT+0x34>
    1c3e:	577d                	li	a4,-1
    1c40:	1ee1a023          	sw	a4,480(gp) # 20000a40 <mLbaBufferFDT>
    1c44:	1ce1a823          	sw	a4,464(gp) # 20000a30 <mLbaBufferFAT>
    1c48:	16018623          	sb	zero,364(gp) # 200009cc <mFatSecChanged>
    1c4c:	40b2                	lw	ra,12(sp)
    1c4e:	4422                	lw	s0,8(sp)
    1c50:	1a01c503          	lbu	a0,416(gp) # 20000a00 <CHRV3IntStatus>
    1c54:	0141                	addi	sp,sp,16
    1c56:	8082                	ret
    1c58:	1cf1a823          	sw	a5,464(gp) # 20000a30 <mLbaBufferFAT>
    1c5c:	bfd9                	j	1c32 <mWriteSectorFDT+0x1a>

00001c5e <mClusterToLba>:
mClusterToLba():
    1c5e:	1641c603          	lbu	a2,356(gp) # 200009c4 <mDiskSecPerClusB>
    1c62:	1b41a783          	lw	a5,436(gp) # 20000a14 <mCurrentCluster>
    1c66:	1e91c703          	lbu	a4,489(gp) # 20000a49 <mCurSecOffset>
    1c6a:	1d41a683          	lw	a3,468(gp) # 20000a34 <CHRV3vDataStart>
    1c6e:	17f9                	addi	a5,a5,-2
    1c70:	00c797b3          	sll	a5,a5,a2
    1c74:	9736                	add	a4,a4,a3
    1c76:	97ba                	add	a5,a5,a4
    1c78:	18f1aa23          	sw	a5,404(gp) # 200009f4 <CHRV3vLbaCurrent>
    1c7c:	8082                	ret

00001c7e <CHRV3GetVer>:
CHRV3GetVer():
    1c7e:	4541                	li	a0,16
    1c80:	8082                	ret

00001c82 <mUpdateStatus>:
mUpdateStatus():
    1c82:	1981c783          	lbu	a5,408(gp) # 200009f8 <CHRV3DiskStatus>
    1c86:	0ff7f793          	andi	a5,a5,255
    1c8a:	00a7e663          	bltu	a5,a0,1c96 <mUpdateStatus+0x14>
    1c8e:	18b18c23          	sb	a1,408(gp) # 200009f8 <CHRV3DiskStatus>
    1c92:	4501                	li	a0,0
    1c94:	8082                	ret
    1c96:	feb78ee3          	beq	a5,a1,1c92 <mUpdateStatus+0x10>
    1c9a:	bda9                	j	1af4 <mUpdateStatus.part.1>

00001c9c <CHRV3BulkOnlyCmd>:
CHRV3BulkOnlyCmd():
    1c9c:	7179                	addi	sp,sp,-48
    1c9e:	d226                	sw	s1,36(sp)
    1ca0:	05500713          	li	a4,85
    1ca4:	ca56                	sw	s5,20(sp)
    1ca6:	88e18423          	sb	a4,-1912(gp) # 200000e8 <TxBuffer>
    1caa:	05300713          	li	a4,83
    1cae:	88e184a3          	sb	a4,-1911(gp) # 200000e9 <TxBuffer+0x1>
    1cb2:	15c1a783          	lw	a5,348(gp) # 200009bc <pTX_LEN_REG>
    1cb6:	04200713          	li	a4,66
    1cba:	88e18523          	sb	a4,-1910(gp) # 200000ea <TxBuffer+0x2>
    1cbe:	04300713          	li	a4,67
    1cc2:	d422                	sw	s0,40(sp)
    1cc4:	d04a                	sw	s2,32(sp)
    1cc6:	ce4e                	sw	s3,28(sp)
    1cc8:	cc52                	sw	s4,24(sp)
    1cca:	88e185a3          	sb	a4,-1909(gp) # 200000eb <TxBuffer+0x3>
    1cce:	d606                	sw	ra,44(sp)
    1cd0:	477d                	li	a4,31
    1cd2:	c85a                	sw	s6,16(sp)
    1cd4:	c65e                	sw	s7,12(sp)
    1cd6:	c462                	sw	s8,8(sp)
    1cd8:	00e79023          	sh	a4,0(a5)
    1cdc:	842a                	mv	s0,a0
    1cde:	1eb1c583          	lbu	a1,491(gp) # 20000a4b <mSaveDevEndpTog>
    1ce2:	18c1c503          	lbu	a0,396(gp) # 200009ec <mDiskBulkOutEndp>
    1ce6:	00020637          	lui	a2,0x20
    1cea:	d98ff0ef          	jal	ra,1282 <USBHostTransact>
    1cee:	1aa18023          	sb	a0,416(gp) # 20000a00 <CHRV3IntStatus>
    1cf2:	4759                	li	a4,22
    1cf4:	14e50f63          	beq	a0,a4,1e52 <CHRV3BulkOnlyCmd+0x1b6>
    1cf8:	88818b93          	addi	s7,gp,-1912 # 200000e8 <TxBuffer>
    1cfc:	cd15                	beqz	a0,1d38 <CHRV3BulkOnlyCmd+0x9c>
    1cfe:	88818793          	addi	a5,gp,-1912 # 200000e8 <TxBuffer>
    1d02:	8a818493          	addi	s1,gp,-1880 # 20000108 <TxBuffer+0x20>
    1d06:	4398                	lw	a4,0(a5)
    1d08:	0791                	addi	a5,a5,4
    1d0a:	cfd8                	sw	a4,28(a5)
    1d0c:	fe979de3          	bne	a5,s1,1d06 <CHRV3BulkOnlyCmd+0x6a>
    1d10:	33a9                	jal	1a5a <mBulkOnlyReset>
    1d12:	87de                	mv	a5,s7
    1d14:	5398                	lw	a4,32(a5)
    1d16:	0791                	addi	a5,a5,4
    1d18:	fee7ae23          	sw	a4,-4(a5)
    1d1c:	fe979ce3          	bne	a5,s1,1d14 <CHRV3BulkOnlyCmd+0x78>
    1d20:	1eb1c583          	lbu	a1,491(gp) # 20000a4b <mSaveDevEndpTog>
    1d24:	18c1c503          	lbu	a0,396(gp) # 200009ec <mDiskBulkOutEndp>
    1d28:	00020637          	lui	a2,0x20
    1d2c:	d56ff0ef          	jal	ra,1282 <USBHostTransact>
    1d30:	1aa18023          	sb	a0,416(gp) # 20000a00 <CHRV3IntStatus>
    1d34:	16051b63          	bnez	a0,1eaa <CHRV3BulkOnlyCmd+0x20e>
    1d38:	009bc483          	lbu	s1,9(s7)
    1d3c:	008bc603          	lbu	a2,8(s7)
    1d40:	00abc783          	lbu	a5,10(s7)
    1d44:	1eb1c703          	lbu	a4,491(gp) # 20000a4b <mSaveDevEndpTog>
    1d48:	00bbc683          	lbu	a3,11(s7)
    1d4c:	04a2                	slli	s1,s1,0x8
    1d4e:	8cd1                	or	s1,s1,a2
    1d50:	07c2                	slli	a5,a5,0x10
    1d52:	8fc5                	or	a5,a5,s1
    1d54:	04074713          	xori	a4,a4,64
    1d58:	01869493          	slli	s1,a3,0x18
    1d5c:	1ee185a3          	sb	a4,491(gp) # 20000a4b <mSaveDevEndpTog>
    1d60:	8cdd                	or	s1,s1,a5
    1d62:	10048463          	beqz	s1,1e6a <CHRV3BulkOnlyCmd+0x1ce>
    1d66:	00cb8683          	lb	a3,12(s7)
    1d6a:	1c21d783          	lhu	a5,450(gp) # 20000a22 <CHRV3vPacketSize>
    1d6e:	0806d463          	bgez	a3,1df6 <CHRV3BulkOnlyCmd+0x15a>
    1d72:	84818b13          	addi	s6,gp,-1976 # 200000a8 <RxBuffer>
    1d76:	a091                	j	1dba <CHRV3BulkOnlyCmd+0x11e>
    1d78:	c300                	sw	s0,0(a4)
    1d7a:	1eb1c583          	lbu	a1,491(gp) # 20000a4b <mSaveDevEndpTog>
    1d7e:	1dc1c503          	lbu	a0,476(gp) # 20000a3c <mDiskBulkInEndp>
    1d82:	00020637          	lui	a2,0x20
    1d86:	cfcff0ef          	jal	ra,1282 <USBHostTransact>
    1d8a:	1aa18023          	sb	a0,416(gp) # 20000a00 <CHRV3IntStatus>
    1d8e:	14051f63          	bnez	a0,1eec <CHRV3BulkOnlyCmd+0x250>
    1d92:	1eb1c703          	lbu	a4,491(gp) # 20000a4b <mSaveDevEndpTog>
    1d96:	1881a683          	lw	a3,392(gp) # 200009e8 <pRX_LEN_REG>
    1d9a:	1c21d783          	lhu	a5,450(gp) # 20000a22 <CHRV3vPacketSize>
    1d9e:	08074713          	xori	a4,a4,128
    1da2:	1ee185a3          	sb	a4,491(gp) # 20000a4b <mSaveDevEndpTog>
    1da6:	0006d683          	lhu	a3,0(a3)
    1daa:	18f4e263          	bltu	s1,a5,1f2e <CHRV3BulkOnlyCmd+0x292>
    1dae:	8c9d                	sub	s1,s1,a5
    1db0:	14d79f63          	bne	a5,a3,1f0e <CHRV3BulkOnlyCmd+0x272>
    1db4:	943e                	add	s0,s0,a5
    1db6:	14048c63          	beqz	s1,1f0e <CHRV3BulkOnlyCmd+0x272>
    1dba:	1e41a703          	lw	a4,484(gp) # 20000a44 <pRX_DMA_A_REG>
    1dbe:	faf4fde3          	bgeu	s1,a5,1d78 <CHRV3BulkOnlyCmd+0xdc>
    1dc2:	01672023          	sw	s6,0(a4)
    1dc6:	bf55                	j	1d7a <CHRV3BulkOnlyCmd+0xde>
    1dc8:	0088a023          	sw	s0,0(a7)
    1dcc:	00f69023          	sh	a5,0(a3)
    1dd0:	1c21d783          	lhu	a5,450(gp) # 20000a22 <CHRV3vPacketSize>
    1dd4:	8c9d                	sub	s1,s1,a5
    1dd6:	943e                	add	s0,s0,a5
    1dd8:	caaff0ef          	jal	ra,1282 <USBHostTransact>
    1ddc:	1aa18023          	sb	a0,416(gp) # 20000a00 <CHRV3IntStatus>
    1de0:	e12d                	bnez	a0,1e42 <CHRV3BulkOnlyCmd+0x1a6>
    1de2:	1eb1c703          	lbu	a4,491(gp) # 20000a4b <mSaveDevEndpTog>
    1de6:	04074713          	xori	a4,a4,64
    1dea:	1ee185a3          	sb	a4,491(gp) # 20000a4b <mSaveDevEndpTog>
    1dee:	0e048763          	beqz	s1,1edc <CHRV3BulkOnlyCmd+0x240>
    1df2:	1c21d783          	lhu	a5,450(gp) # 20000a22 <CHRV3vPacketSize>
    1df6:	18c1c803          	lbu	a6,396(gp) # 200009ec <mDiskBulkOutEndp>
    1dfa:	85ba                	mv	a1,a4
    1dfc:	00020637          	lui	a2,0x20
    1e00:	17c1a883          	lw	a7,380(gp) # 200009dc <pTX_DMA_A_REG>
    1e04:	15c1a683          	lw	a3,348(gp) # 200009bc <pTX_LEN_REG>
    1e08:	8542                	mv	a0,a6
    1e0a:	faf4ffe3          	bgeu	s1,a5,1dc8 <CHRV3BulkOnlyCmd+0x12c>
    1e0e:	0178a023          	sw	s7,0(a7)
    1e12:	00969023          	sh	s1,0(a3)
    1e16:	4781                	li	a5,0
    1e18:	00044603          	lbu	a2,0(s0)
    1e1c:	017786b3          	add	a3,a5,s7
    1e20:	0785                	addi	a5,a5,1
    1e22:	07c2                	slli	a5,a5,0x10
    1e24:	00c68023          	sb	a2,0(a3)
    1e28:	83c1                	srli	a5,a5,0x10
    1e2a:	0405                	addi	s0,s0,1
    1e2c:	fe9796e3          	bne	a5,s1,1e18 <CHRV3BulkOnlyCmd+0x17c>
    1e30:	00020637          	lui	a2,0x20
    1e34:	85ba                	mv	a1,a4
    1e36:	8542                	mv	a0,a6
    1e38:	c4aff0ef          	jal	ra,1282 <USBHostTransact>
    1e3c:	1aa18023          	sb	a0,416(gp) # 20000a00 <CHRV3IntStatus>
    1e40:	cd61                	beqz	a0,1f18 <CHRV3BulkOnlyCmd+0x27c>
    1e42:	17c1a703          	lw	a4,380(gp) # 200009dc <pTX_DMA_A_REG>
    1e46:	02e00793          	li	a5,46
    1e4a:	01772023          	sw	s7,0(a4)
    1e4e:	08f50063          	beq	a0,a5,1ece <CHRV3BulkOnlyCmd+0x232>
    1e52:	50b2                	lw	ra,44(sp)
    1e54:	5422                	lw	s0,40(sp)
    1e56:	5492                	lw	s1,36(sp)
    1e58:	5902                	lw	s2,32(sp)
    1e5a:	49f2                	lw	s3,28(sp)
    1e5c:	4a62                	lw	s4,24(sp)
    1e5e:	4ad2                	lw	s5,20(sp)
    1e60:	4b42                	lw	s6,16(sp)
    1e62:	4bb2                	lw	s7,12(sp)
    1e64:	4c22                	lw	s8,8(sp)
    1e66:	6145                	addi	sp,sp,48
    1e68:	8082                	ret
    1e6a:	1dc1c503          	lbu	a0,476(gp) # 20000a3c <mDiskBulkInEndp>
    1e6e:	00020637          	lui	a2,0x20
    1e72:	85ba                	mv	a1,a4
    1e74:	c0eff0ef          	jal	ra,1282 <USBHostTransact>
    1e78:	1aa18023          	sb	a0,416(gp) # 20000a00 <CHRV3IntStatus>
    1e7c:	f979                	bnez	a0,1e52 <CHRV3BulkOnlyCmd+0x1b6>
    1e7e:	1eb1c783          	lbu	a5,491(gp) # 20000a4b <mSaveDevEndpTog>
    1e82:	1881a703          	lw	a4,392(gp) # 200009e8 <pRX_LEN_REG>
    1e86:	f807c793          	xori	a5,a5,-128
    1e8a:	1ef185a3          	sb	a5,491(gp) # 20000a4b <mSaveDevEndpTog>
    1e8e:	47fd                	li	a5,31
    1e90:	1af18023          	sb	a5,416(gp) # 20000a00 <CHRV3IntStatus>
    1e94:	00075703          	lhu	a4,0(a4)
    1e98:	47b5                	li	a5,13
    1e9a:	02f71563          	bne	a4,a5,1ec4 <CHRV3BulkOnlyCmd+0x228>
    1e9e:	8541c503          	lbu	a0,-1964(gp) # 200000b4 <RxBuffer+0xc>
    1ea2:	c131                	beqz	a0,1ee6 <CHRV3BulkOnlyCmd+0x24a>
    1ea4:	4785                	li	a5,1
    1ea6:	00a7ff63          	bgeu	a5,a0,1ec4 <CHRV3BulkOnlyCmd+0x228>
    1eaa:	5422                	lw	s0,40(sp)
    1eac:	50b2                	lw	ra,44(sp)
    1eae:	5492                	lw	s1,36(sp)
    1eb0:	5902                	lw	s2,32(sp)
    1eb2:	49f2                	lw	s3,28(sp)
    1eb4:	4a62                	lw	s4,24(sp)
    1eb6:	4ad2                	lw	s5,20(sp)
    1eb8:	4b42                	lw	s6,16(sp)
    1eba:	4bb2                	lw	s7,12(sp)
    1ebc:	4c22                	lw	s8,8(sp)
    1ebe:	6145                	addi	sp,sp,48
    1ec0:	b9bff06f          	j	1a5a <mBulkOnlyReset>
    1ec4:	1a01c503          	lbu	a0,416(gp) # 20000a00 <CHRV3IntStatus>
    1ec8:	0ff57513          	andi	a0,a0,255
    1ecc:	b759                	j	1e52 <CHRV3BulkOnlyCmd+0x1b6>
    1ece:	18c1c503          	lbu	a0,396(gp) # 200009ec <mDiskBulkOutEndp>
    1ed2:	893d                	andi	a0,a0,15
    1ed4:	d22ff0ef          	jal	ra,13f6 <CtrlClearEndpStall>
    1ed8:	1eb1c703          	lbu	a4,491(gp) # 20000a4b <mSaveDevEndpTog>
    1edc:	17c1a783          	lw	a5,380(gp) # 200009dc <pTX_DMA_A_REG>
    1ee0:	0177a023          	sw	s7,0(a5)
    1ee4:	b759                	j	1e6a <CHRV3BulkOnlyCmd+0x1ce>
    1ee6:	1a018023          	sb	zero,416(gp) # 20000a00 <CHRV3IntStatus>
    1eea:	b7a5                	j	1e52 <CHRV3BulkOnlyCmd+0x1b6>
    1eec:	1e41a683          	lw	a3,484(gp) # 20000a44 <pRX_DMA_A_REG>
    1ef0:	02e00713          	li	a4,46
    1ef4:	0166a023          	sw	s6,0(a3)
    1ef8:	f4e51de3          	bne	a0,a4,1e52 <CHRV3BulkOnlyCmd+0x1b6>
    1efc:	1dc1c503          	lbu	a0,476(gp) # 20000a3c <mDiskBulkInEndp>
    1f00:	893d                	andi	a0,a0,15
    1f02:	08056513          	ori	a0,a0,128
    1f06:	cf0ff0ef          	jal	ra,13f6 <CtrlClearEndpStall>
    1f0a:	1eb1c703          	lbu	a4,491(gp) # 20000a4b <mSaveDevEndpTog>
    1f0e:	1e41a783          	lw	a5,484(gp) # 20000a44 <pRX_DMA_A_REG>
    1f12:	0167a023          	sw	s6,0(a5)
    1f16:	bf91                	j	1e6a <CHRV3BulkOnlyCmd+0x1ce>
    1f18:	1eb1c703          	lbu	a4,491(gp) # 20000a4b <mSaveDevEndpTog>
    1f1c:	17c1a783          	lw	a5,380(gp) # 200009dc <pTX_DMA_A_REG>
    1f20:	04074713          	xori	a4,a4,64
    1f24:	1ee185a3          	sb	a4,491(gp) # 20000a4b <mSaveDevEndpTog>
    1f28:	0177a023          	sw	s7,0(a5)
    1f2c:	bf3d                	j	1e6a <CHRV3BulkOnlyCmd+0x1ce>
    1f2e:	02d4e563          	bltu	s1,a3,1f58 <CHRV3BulkOnlyCmd+0x2bc>
    1f32:	def1                	beqz	a3,1f0e <CHRV3BulkOnlyCmd+0x272>
    1f34:	fff68793          	addi	a5,a3,-1
    1f38:	07c2                	slli	a5,a5,0x10
    1f3a:	83c1                	srli	a5,a5,0x10
    1f3c:	0785                	addi	a5,a5,1
    1f3e:	97a2                	add	a5,a5,s0
    1f40:	875a                	mv	a4,s6
    1f42:	00074683          	lbu	a3,0(a4)
    1f46:	0405                	addi	s0,s0,1
    1f48:	0705                	addi	a4,a4,1
    1f4a:	fed40fa3          	sb	a3,-1(s0)
    1f4e:	fe879ae3          	bne	a5,s0,1f42 <CHRV3BulkOnlyCmd+0x2a6>
    1f52:	1eb1c703          	lbu	a4,491(gp) # 20000a4b <mSaveDevEndpTog>
    1f56:	bf65                	j	1f0e <CHRV3BulkOnlyCmd+0x272>
    1f58:	01049693          	slli	a3,s1,0x10
    1f5c:	82c1                	srli	a3,a3,0x10
    1f5e:	bfd9                	j	1f34 <CHRV3BulkOnlyCmd+0x298>

00001f60 <mReqDiskSense>:
mReqDiskSense():
    1f60:	1141                	addi	sp,sp,-16
    1f62:	4529                	li	a0,10
    1f64:	c606                	sw	ra,12(sp)
    1f66:	f0aff0ef          	jal	ra,1670 <mDelaymS>
    1f6a:	1c81c703          	lbu	a4,456(gp) # 20000a28 <CHRV3vCurrentLun>
    1f6e:	88818793          	addi	a5,gp,-1912 # 200000e8 <TxBuffer>
    1f72:	00e786a3          	sb	a4,13(a5)
    1f76:	46c9                	li	a3,18
    1f78:	4719                	li	a4,6
    1f7a:	00d78423          	sb	a3,8(a5)
    1f7e:	00e78723          	sb	a4,14(a5)
    1f82:	f8000693          	li	a3,-128
    1f86:	470d                	li	a4,3
    1f88:	00e787a3          	sb	a4,15(a5)
    1f8c:	000784a3          	sb	zero,9(a5)
    1f90:	4749                	li	a4,18
    1f92:	00078523          	sb	zero,10(a5)
    1f96:	000785a3          	sb	zero,11(a5)
    1f9a:	00d78623          	sb	a3,12(a5)
    1f9e:	8a818513          	addi	a0,gp,-1880 # 20000108 <TxBuffer+0x20>
    1fa2:	00e789a3          	sb	a4,19(a5)
    1fa6:	00078823          	sb	zero,16(a5)
    1faa:	000788a3          	sb	zero,17(a5)
    1fae:	00078923          	sb	zero,18(a5)
    1fb2:	00078a23          	sb	zero,20(a5)
    1fb6:	00078aa3          	sb	zero,21(a5)
    1fba:	00078b23          	sb	zero,22(a5)
    1fbe:	00078ba3          	sb	zero,23(a5)
    1fc2:	00078c23          	sb	zero,24(a5)
    1fc6:	cd7ff0ef          	jal	ra,1c9c <CHRV3BulkOnlyCmd>
    1fca:	4515                	li	a0,5
    1fcc:	ea4ff0ef          	jal	ra,1670 <mDelaymS>
    1fd0:	1a01c783          	lbu	a5,416(gp) # 20000a00 <CHRV3IntStatus>
    1fd4:	4501                	li	a0,0
    1fd6:	0ff7f793          	andi	a5,a5,255
    1fda:	cf81                	beqz	a5,1ff2 <mReqDiskSense+0x92>
    1fdc:	1a01c503          	lbu	a0,416(gp) # 20000a00 <CHRV3IntStatus>
    1fe0:	47d9                	li	a5,22
    1fe2:	0ff57513          	andi	a0,a0,255
    1fe6:	00f50963          	beq	a0,a5,1ff8 <mReqDiskSense+0x98>
    1fea:	47d5                	li	a5,21
    1fec:	00f50c63          	beq	a0,a5,2004 <mReqDiskSense+0xa4>
    1ff0:	4501                	li	a0,0
    1ff2:	40b2                	lw	ra,12(sp)
    1ff4:	0141                	addi	sp,sp,16
    1ff6:	8082                	ret
    1ff8:	4705                	li	a4,1
    1ffa:	18e18c23          	sb	a4,408(gp) # 200009f8 <CHRV3DiskStatus>
    1ffe:	1a01ae23          	sw	zero,444(gp) # 20000a1c <CHRV3vStartLba>
    2002:	bfc5                	j	1ff2 <mReqDiskSense+0x92>
    2004:	4709                	li	a4,2
    2006:	18e18c23          	sb	a4,408(gp) # 200009f8 <CHRV3DiskStatus>
    200a:	b7e5                	j	1ff2 <mReqDiskSense+0x92>

0000200c <mGetDiskSize>:
mGetDiskSize():
    200c:	7139                	addi	sp,sp,-64
    200e:	47a5                	li	a5,9
    2010:	dc22                	sw	s0,56(sp)
    2012:	1cf18ea3          	sb	a5,477(gp) # 20000a3d <CHRV3vSectorSizeB>
    2016:	47bd                	li	a5,15
    2018:	16f18c23          	sb	a5,376(gp) # 200009d8 <mValue>
    201c:	da26                	sw	s1,52(sp)
    201e:	d84a                	sw	s2,48(sp)
    2020:	d64e                	sw	s3,44(sp)
    2022:	d452                	sw	s4,40(sp)
    2024:	d256                	sw	s5,36(sp)
    2026:	d05a                	sw	s6,32(sp)
    2028:	ce5e                	sw	s7,28(sp)
    202a:	cc62                	sw	s8,24(sp)
    202c:	ca66                	sw	s9,20(sp)
    202e:	c86a                	sw	s10,16(sp)
    2030:	c66e                	sw	s11,12(sp)
    2032:	de06                	sw	ra,60(sp)
    2034:	88818d93          	addi	s11,gp,-1912 # 200000e8 <TxBuffer>
    2038:	17818493          	addi	s1,gp,376 # 200009d8 <mValue>
    203c:	4b21                	li	s6,8
    203e:	f8000a93          	li	s5,-128
    2042:	02500a13          	li	s4,37
    2046:	49a9                	li	s3,10
    2048:	4c85                	li	s9,1
    204a:	4d4d                	li	s10,19
    204c:	a835                	j	2088 <mGetDiskSize+0x7c>
    204e:	0adcf963          	bgeu	s9,a3,2100 <mGetDiskSize+0xf4>
    2052:	0ba70763          	beq	a4,s10,2100 <mGetDiskSize+0xf4>
    2056:	00e480a3          	sb	a4,1(s1) # 4001 <_vfiprintf_r+0xb9>
    205a:	3719                	jal	1f60 <mReqDiskSense>
    205c:	1781c503          	lbu	a0,376(gp) # 200009d8 <mValue>
    2060:	0014c703          	lbu	a4,1(s1)
    2064:	0572                	slli	a0,a0,0x1c
    2066:	857d                	srai	a0,a0,0x1f
    2068:	f7857513          	andi	a0,a0,-136
    206c:	0c850513          	addi	a0,a0,200
    2070:	1ae18023          	sb	a4,416(gp) # 20000a00 <CHRV3IntStatus>
    2074:	dfcff0ef          	jal	ra,1670 <mDelaymS>
    2078:	1781c703          	lbu	a4,376(gp) # 200009d8 <mValue>
    207c:	177d                	addi	a4,a4,-1
    207e:	0ff77713          	andi	a4,a4,255
    2082:	16e18c23          	sb	a4,376(gp) # 200009d8 <mValue>
    2086:	cf2d                	beqz	a4,2100 <mGetDiskSize+0xf4>
    2088:	1c81c703          	lbu	a4,456(gp) # 20000a28 <CHRV3vCurrentLun>
    208c:	8a818513          	addi	a0,gp,-1880 # 20000108 <TxBuffer+0x20>
    2090:	016d8423          	sb	s6,8(s11)
    2094:	00ed86a3          	sb	a4,13(s11)
    2098:	000d84a3          	sb	zero,9(s11)
    209c:	000d8523          	sb	zero,10(s11)
    20a0:	000d85a3          	sb	zero,11(s11)
    20a4:	015d8623          	sb	s5,12(s11)
    20a8:	014d87a3          	sb	s4,15(s11)
    20ac:	000d8823          	sb	zero,16(s11)
    20b0:	000d88a3          	sb	zero,17(s11)
    20b4:	000d8923          	sb	zero,18(s11)
    20b8:	000d8a23          	sb	zero,20(s11)
    20bc:	000d8aa3          	sb	zero,21(s11)
    20c0:	000d8b23          	sb	zero,22(s11)
    20c4:	000d8ba3          	sb	zero,23(s11)
    20c8:	000d8c23          	sb	zero,24(s11)
    20cc:	013d8723          	sb	s3,14(s11)
    20d0:	000d89a3          	sb	zero,19(s11)
    20d4:	bc9ff0ef          	jal	ra,1c9c <CHRV3BulkOnlyCmd>
    20d8:	1a01c703          	lbu	a4,416(gp) # 20000a00 <CHRV3IntStatus>
    20dc:	0ff77713          	andi	a4,a4,255
    20e0:	feb70693          	addi	a3,a4,-21
    20e4:	0ff6f693          	andi	a3,a3,255
    20e8:	f33d                	bnez	a4,204e <mGetDiskSize+0x42>
    20ea:	026dc783          	lbu	a5,38(s11)
    20ee:	4711                	li	a4,4
    20f0:	04e78263          	beq	a5,a4,2134 <mGetDiskSize+0x128>
    20f4:	4721                	li	a4,8
    20f6:	04e78463          	beq	a5,a4,213e <mGetDiskSize+0x132>
    20fa:	4741                	li	a4,16
    20fc:	04e78863          	beq	a5,a4,214c <mGetDiskSize+0x140>
    2100:	1dd1c703          	lbu	a4,477(gp) # 20000a3d <CHRV3vSectorSizeB>
    2104:	4785                	li	a5,1
    2106:	00e797b3          	sll	a5,a5,a4
    210a:	07c2                	slli	a5,a5,0x10
    210c:	83c1                	srli	a5,a5,0x10
    210e:	50f2                	lw	ra,60(sp)
    2110:	5462                	lw	s0,56(sp)
    2112:	1af19623          	sh	a5,428(gp) # 20000a0c <CHRV3vSectorSize>
    2116:	0014c503          	lbu	a0,1(s1)
    211a:	5942                	lw	s2,48(sp)
    211c:	54d2                	lw	s1,52(sp)
    211e:	59b2                	lw	s3,44(sp)
    2120:	5a22                	lw	s4,40(sp)
    2122:	5a92                	lw	s5,36(sp)
    2124:	5b02                	lw	s6,32(sp)
    2126:	4bf2                	lw	s7,28(sp)
    2128:	4c62                	lw	s8,24(sp)
    212a:	4cd2                	lw	s9,20(sp)
    212c:	4d42                	lw	s10,16(sp)
    212e:	4db2                	lw	s11,12(sp)
    2130:	6121                	addi	sp,sp,64
    2132:	8082                	ret
    2134:	1d318ea3          	sb	s3,477(gp) # 20000a3d <CHRV3vSectorSizeB>
    2138:	40000793          	li	a5,1024
    213c:	bfc9                	j	210e <mGetDiskSize+0x102>
    213e:	47ad                	li	a5,11
    2140:	1cf18ea3          	sb	a5,477(gp) # 20000a3d <CHRV3vSectorSizeB>
    2144:	6785                	lui	a5,0x1
    2146:	80078793          	addi	a5,a5,-2048 # 800 <__stack_size>
    214a:	b7d1                	j	210e <mGetDiskSize+0x102>
    214c:	47b1                	li	a5,12
    214e:	1cf18ea3          	sb	a5,477(gp) # 20000a3d <CHRV3vSectorSizeB>
    2152:	6785                	lui	a5,0x1
    2154:	bf6d                	j	210e <mGetDiskSize+0x102>

00002156 <CHRV3AnalyzeError>:
CHRV3AnalyzeError():
    2156:	1141                	addi	sp,sp,-16
    2158:	c226                	sw	s1,4(sp)
    215a:	84aa                	mv	s1,a0
    215c:	4505                	li	a0,1
    215e:	c606                	sw	ra,12(sp)
    2160:	c422                	sw	s0,8(sp)
    2162:	d0eff0ef          	jal	ra,1670 <mDelaymS>
    2166:	4785                	li	a5,1
    2168:	0697f163          	bgeu	a5,s1,21ca <CHRV3AnalyzeError+0x74>
    216c:	1981c783          	lbu	a5,408(gp) # 200009f8 <CHRV3DiskStatus>
    2170:	46c9                	li	a3,18
    2172:	0ff7f793          	andi	a5,a5,255
    2176:	00d78863          	beq	a5,a3,2186 <CHRV3AnalyzeError+0x30>
    217a:	46c1                	li	a3,16
    217c:	00f6f863          	bgeu	a3,a5,218c <CHRV3AnalyzeError+0x36>
    2180:	18d18c23          	sb	a3,408(gp) # 200009f8 <CHRV3DiskStatus>
    2184:	a021                	j	218c <CHRV3AnalyzeError+0x36>
    2186:	4795                	li	a5,5
    2188:	18f18c23          	sb	a5,408(gp) # 200009f8 <CHRV3DiskStatus>
    218c:	1a01c783          	lbu	a5,416(gp) # 20000a00 <CHRV3IntStatus>
    2190:	0ff7f793          	andi	a5,a5,255
    2194:	17ad                	addi	a5,a5,-21
    2196:	0ff7f793          	andi	a5,a5,255
    219a:	4705                	li	a4,1
    219c:	00f77463          	bgeu	a4,a5,21a4 <CHRV3AnalyzeError+0x4e>
    21a0:	33c1                	jal	1f60 <mReqDiskSense>
    21a2:	cd11                	beqz	a0,21be <CHRV3AnalyzeError+0x68>
    21a4:	4509                	li	a0,2
    21a6:	ccaff0ef          	jal	ra,1670 <mDelaymS>
    21aa:	1a01c503          	lbu	a0,416(gp) # 20000a00 <CHRV3IntStatus>
    21ae:	47d9                	li	a5,22
    21b0:	0ff57513          	andi	a0,a0,255
    21b4:	02f50a63          	beq	a0,a5,21e8 <CHRV3AnalyzeError+0x92>
    21b8:	47d5                	li	a5,21
    21ba:	04f50163          	beq	a0,a5,21fc <CHRV3AnalyzeError+0xa6>
    21be:	40b2                	lw	ra,12(sp)
    21c0:	4422                	lw	s0,8(sp)
    21c2:	4492                	lw	s1,4(sp)
    21c4:	4501                	li	a0,0
    21c6:	0141                	addi	sp,sp,16
    21c8:	8082                	ret
    21ca:	1a01c783          	lbu	a5,416(gp) # 20000a00 <CHRV3IntStatus>
    21ce:	0ff7f793          	andi	a5,a5,255
    21d2:	f0e9                	bnez	s1,2194 <CHRV3AnalyzeError+0x3e>
    21d4:	4509                	li	a0,2
    21d6:	c9aff0ef          	jal	ra,1670 <mDelaymS>
    21da:	1a01c503          	lbu	a0,416(gp) # 20000a00 <CHRV3IntStatus>
    21de:	47d9                	li	a5,22
    21e0:	0ff57513          	andi	a0,a0,255
    21e4:	fcf51ae3          	bne	a0,a5,21b8 <CHRV3AnalyzeError+0x62>
    21e8:	40b2                	lw	ra,12(sp)
    21ea:	4422                	lw	s0,8(sp)
    21ec:	4705                	li	a4,1
    21ee:	18e18c23          	sb	a4,408(gp) # 200009f8 <CHRV3DiskStatus>
    21f2:	1a01ae23          	sw	zero,444(gp) # 20000a1c <CHRV3vStartLba>
    21f6:	4492                	lw	s1,4(sp)
    21f8:	0141                	addi	sp,sp,16
    21fa:	8082                	ret
    21fc:	40b2                	lw	ra,12(sp)
    21fe:	4422                	lw	s0,8(sp)
    2200:	4709                	li	a4,2
    2202:	18e18c23          	sb	a4,408(gp) # 200009f8 <CHRV3DiskStatus>
    2206:	4492                	lw	s1,4(sp)
    2208:	0141                	addi	sp,sp,16
    220a:	8082                	ret

0000220c <CHRV3s10>:
CHRV3s10():
    220c:	7139                	addi	sp,sp,-64
    220e:	c66e                	sw	s11,12(sp)
    2210:	de06                	sw	ra,60(sp)
    2212:	dc22                	sw	s0,56(sp)
    2214:	da26                	sw	s1,52(sp)
    2216:	d84a                	sw	s2,48(sp)
    2218:	d64e                	sw	s3,44(sp)
    221a:	d452                	sw	s4,40(sp)
    221c:	d256                	sw	s5,36(sp)
    221e:	d05a                	sw	s6,32(sp)
    2220:	ce5e                	sw	s7,28(sp)
    2222:	cc62                	sw	s8,24(sp)
    2224:	ca66                	sw	s9,20(sp)
    2226:	c86a                	sw	s10,16(sp)
    2228:	b92ff0ef          	jal	ra,15ba <CHRV3DiskConnect>
    222c:	8daa                	mv	s11,a0
    222e:	e971                	bnez	a0,2302 <CHRV3s10+0xf6>
    2230:	1981c783          	lbu	a5,408(gp) # 200009f8 <CHRV3DiskStatus>
    2234:	470d                	li	a4,3
    2236:	0ef77663          	bgeu	a4,a5,2322 <CHRV3s10+0x116>
    223a:	4791                	li	a5,4
    223c:	18f18c23          	sb	a5,408(gp) # 200009f8 <CHRV3DiskStatus>
    2240:	98eff0ef          	jal	ra,13ce <CtrlGetConfigDescrTB>
    2244:	1aa18023          	sb	a0,416(gp) # 20000a00 <CHRV3IntStatus>
    2248:	8daa                	mv	s11,a0
    224a:	ed45                	bnez	a0,2302 <CHRV3s10+0xf6>
    224c:	88818c93          	addi	s9,gp,-1912 # 200000e8 <TxBuffer>
    2250:	00ecc683          	lbu	a3,14(s9)
    2254:	4721                	li	a4,8
    2256:	0ce69d63          	bne	a3,a4,2330 <CHRV3s10+0x124>
    225a:	00fcc603          	lbu	a2,15(s9)
    225e:	1a018823          	sb	zero,432(gp) # 20000a10 <CHRV3vSubClassIs6>
    2262:	4699                	li	a3,6
    2264:	00d61563          	bne	a2,a3,226e <CHRV3s10+0x62>
    2268:	4685                	li	a3,1
    226a:	1ad18823          	sb	a3,432(gp) # 20000a10 <CHRV3vSubClassIs6>
    226e:	017cc703          	lbu	a4,23(s9)
    2272:	00bcc583          	lbu	a1,11(s9)
    2276:	016cc603          	lbu	a2,22(s9)
    227a:	01ecc683          	lbu	a3,30(s9)
    227e:	01dcc803          	lbu	a6,29(s9)
    2282:	1c21d303          	lhu	t1,450(gp) # 20000a22 <CHRV3vPacketSize>
    2286:	0722                	slli	a4,a4,0x8
    2288:	06a2                	slli	a3,a3,0x8
    228a:	1eb18423          	sb	a1,488(gp) # 20000a48 <mDiskInterfNumber>
    228e:	8f51                	or	a4,a4,a2
    2290:	16018c23          	sb	zero,376(gp) # 200009d8 <mValue>
    2294:	0106e6b3          	or	a3,a3,a6
    2298:	014cc603          	lbu	a2,20(s9)
    229c:	01bcc583          	lbu	a1,27(s9)
    22a0:	18c1c803          	lbu	a6,396(gp) # 200009ec <mDiskBulkOutEndp>
    22a4:	1dc1ce03          	lbu	t3,476(gp) # 20000a3c <mDiskBulkInEndp>
    22a8:	08671063          	bne	a4,t1,2328 <CHRV3s10+0x11c>
    22ac:	0662                	slli	a2,a2,0x18
    22ae:	8661                	srai	a2,a2,0x18
    22b0:	00f67313          	andi	t1,a2,15
    22b4:	08064663          	bltz	a2,2340 <CHRV3s10+0x134>
    22b8:	01036813          	ori	a6,t1,16
    22bc:	4601                	li	a2,0
    22be:	4305                	li	t1,1
    22c0:	1ee69e63          	bne	a3,a4,24bc <CHRV3s10+0x2b0>
    22c4:	01859713          	slli	a4,a1,0x18
    22c8:	8761                	srai	a4,a4,0x18
    22ca:	00f77693          	andi	a3,a4,15
    22ce:	17818b13          	addi	s6,gp,376 # 200009d8 <mValue>
    22d2:	08074663          	bltz	a4,235e <CHRV3s10+0x152>
    22d6:	4709                	li	a4,2
    22d8:	16e18c23          	sb	a4,376(gp) # 200009d8 <mValue>
    22dc:	00bb00a3          	sb	a1,1(s6)
    22e0:	0106e813          	ori	a6,a3,16
    22e4:	18061f63          	bnez	a2,2482 <CHRV3s10+0x276>
    22e8:	19018623          	sb	a6,396(gp) # 200009ec <mDiskBulkOutEndp>
    22ec:	a061                	j	2374 <CHRV3s10+0x168>
    22ee:	1a01c683          	lbu	a3,416(gp) # 20000a00 <CHRV3IntStatus>
    22f2:	02e00613          	li	a2,46
    22f6:	20d60f63          	beq	a2,a3,2514 <CHRV3s10+0x308>
    22fa:	1a01c703          	lbu	a4,416(gp) # 20000a00 <CHRV3IntStatus>
    22fe:	0ff77d93          	andi	s11,a4,255
    2302:	50f2                	lw	ra,60(sp)
    2304:	5462                	lw	s0,56(sp)
    2306:	856e                	mv	a0,s11
    2308:	54d2                	lw	s1,52(sp)
    230a:	5942                	lw	s2,48(sp)
    230c:	59b2                	lw	s3,44(sp)
    230e:	5a22                	lw	s4,40(sp)
    2310:	5a92                	lw	s5,36(sp)
    2312:	5b02                	lw	s6,32(sp)
    2314:	4bf2                	lw	s7,28(sp)
    2316:	4c62                	lw	s8,24(sp)
    2318:	4cd2                	lw	s9,20(sp)
    231a:	4d42                	lw	s10,16(sp)
    231c:	4db2                	lw	s11,12(sp)
    231e:	6121                	addi	sp,sp,64
    2320:	8082                	ret
    2322:	08300d93          	li	s11,131
    2326:	bff1                	j	2302 <CHRV3s10+0xf6>
    2328:	17818913          	addi	s2,gp,376 # 200009d8 <mValue>
    232c:	00c900a3          	sb	a2,1(s2) # 10001 <_bootloader_limit+0x8001>
    2330:	47fd                	li	a5,31
    2332:	1af18023          	sb	a5,416(gp) # 20000a00 <CHRV3IntStatus>
    2336:	1a01c703          	lbu	a4,416(gp) # 20000a00 <CHRV3IntStatus>
    233a:	0ff77d93          	andi	s11,a4,255
    233e:	b7d1                	j	2302 <CHRV3s10+0xf6>
    2340:	09036e13          	ori	t3,t1,144
    2344:	4605                	li	a2,1
    2346:	4301                	li	t1,0
    2348:	f6e68ee3          	beq	a3,a4,22c4 <CHRV3s10+0xb8>
    234c:	17818793          	addi	a5,gp,376 # 200009d8 <mValue>
    2350:	16c18c23          	sb	a2,376(gp) # 200009d8 <mValue>
    2354:	00b780a3          	sb	a1,1(a5) # 1001 <IAP_Main_Deal+0x277>
    2358:	1dc18e23          	sb	t3,476(gp) # 20000a3c <mDiskBulkInEndp>
    235c:	bfd1                	j	2330 <CHRV3s10+0x124>
    235e:	f906e693          	ori	a3,a3,-112
    2362:	4709                	li	a4,2
    2364:	16e18c23          	sb	a4,376(gp) # 200009d8 <mValue>
    2368:	00bb00a3          	sb	a1,1(s6)
    236c:	1cd18e23          	sb	a3,476(gp) # 20000a3c <mDiskBulkInEndp>
    2370:	f6031ce3          	bnez	t1,22e8 <CHRV3s10+0xdc>
    2374:	005cc503          	lbu	a0,5(s9)
    2378:	874ff0ef          	jal	ra,13ec <CtrlSetUsbConfig>
    237c:	1aa18023          	sb	a0,416(gp) # 20000a00 <CHRV3IntStatus>
    2380:	8daa                	mv	s11,a0
    2382:	f141                	bnez	a0,2302 <CHRV3s10+0xf6>
    2384:	1e81c683          	lbu	a3,488(gp) # 20000a48 <mDiskInterfNumber>
    2388:	fa100613          	li	a2,-95
    238c:	1801a503          	lw	a0,384(gp) # 200009e0 <pDISK_BASE_BUF>
    2390:	88c18423          	sb	a2,-1912(gp) # 200000e8 <TxBuffer>
    2394:	5679                	li	a2,-2
    2396:	88c184a3          	sb	a2,-1911(gp) # 200000e9 <TxBuffer+0x1>
    239a:	4a85                	li	s5,1
    239c:	17918593          	addi	a1,gp,377 # 200009d9 <mValue+0x1>
    23a0:	16018c23          	sb	zero,376(gp) # 200009d8 <mValue>
    23a4:	000c8123          	sb	zero,2(s9)
    23a8:	000c81a3          	sb	zero,3(s9)
    23ac:	00dc8223          	sb	a3,4(s9)
    23b0:	000c82a3          	sb	zero,5(s9)
    23b4:	015c8323          	sb	s5,6(s9)
    23b8:	000c83a3          	sb	zero,7(s9)
    23bc:	ff3fe0ef          	jal	ra,13ae <HostCtrlTransfer>
    23c0:	1aa18023          	sb	a0,416(gp) # 20000a00 <CHRV3IntStatus>
    23c4:	f50d                	bnez	a0,22ee <CHRV3s10+0xe2>
    23c6:	001b4683          	lbu	a3,1(s6)
    23ca:	01569863          	bne	a3,s5,23da <CHRV3s10+0x1ce>
    23ce:	1801a683          	lw	a3,384(gp) # 200009e0 <pDISK_BASE_BUF>
    23d2:	0006c683          	lbu	a3,0(a3)
    23d6:	16d18c23          	sb	a3,376(gp) # 200009d8 <mValue>
    23da:	4515                	li	a0,5
    23dc:	a94ff0ef          	jal	ra,1670 <mDelaymS>
    23e0:	56fd                	li	a3,-1
    23e2:	1ed1a023          	sw	a3,480(gp) # 20000a40 <mLbaBufferFDT>
    23e6:	1cd1a823          	sw	a3,464(gp) # 20000a30 <mLbaBufferFAT>
    23ea:	1801a503          	lw	a0,384(gp) # 200009e0 <pDISK_BASE_BUF>
    23ee:	16018623          	sb	zero,364(gp) # 200009cc <mFatSecChanged>
    23f2:	1e0185a3          	sb	zero,491(gp) # 20000a4b <mSaveDevEndpTog>
    23f6:	1c018423          	sb	zero,456(gp) # 20000a28 <CHRV3vCurrentLun>
    23fa:	4601                	li	a2,0
    23fc:	02400c13          	li	s8,36
    2400:	f8000b93          	li	s7,-128
    2404:	4b19                	li	s6,6
    2406:	4ac9                	li	s5,18
    2408:	02400a13          	li	s4,36
    240c:	00cc86a3          	sb	a2,13(s9)
    2410:	018c8423          	sb	s8,8(s9)
    2414:	000c84a3          	sb	zero,9(s9)
    2418:	000c8523          	sb	zero,10(s9)
    241c:	000c85a3          	sb	zero,11(s9)
    2420:	017c8623          	sb	s7,12(s9)
    2424:	016c8723          	sb	s6,14(s9)
    2428:	015c87a3          	sb	s5,15(s9)
    242c:	000c8823          	sb	zero,16(s9)
    2430:	000c88a3          	sb	zero,17(s9)
    2434:	000c8923          	sb	zero,18(s9)
    2438:	014c89a3          	sb	s4,19(s9)
    243c:	000c8a23          	sb	zero,20(s9)
    2440:	000c8aa3          	sb	zero,21(s9)
    2444:	000c8b23          	sb	zero,22(s9)
    2448:	000c8ba3          	sb	zero,23(s9)
    244c:	000c8c23          	sb	zero,24(s9)
    2450:	84dff0ef          	jal	ra,1c9c <CHRV3BulkOnlyCmd>
    2454:	1a01c683          	lbu	a3,416(gp) # 20000a00 <CHRV3IntStatus>
    2458:	4605                	li	a2,1
    245a:	0ff6f693          	andi	a3,a3,255
    245e:	e68d                	bnez	a3,2488 <CHRV3s10+0x27c>
    2460:	1781c683          	lbu	a3,376(gp) # 200009d8 <mValue>
    2464:	c2b9                	beqz	a3,24aa <CHRV3s10+0x29e>
    2466:	1c81c683          	lbu	a3,456(gp) # 20000a28 <CHRV3vCurrentLun>
    246a:	e2a1                	bnez	a3,24aa <CHRV3s10+0x29e>
    246c:	1801a503          	lw	a0,384(gp) # 200009e0 <pDISK_BASE_BUF>
    2470:	4795                	li	a5,5
    2472:	00054683          	lbu	a3,0(a0)
    2476:	02f69a63          	bne	a3,a5,24aa <CHRV3s10+0x29e>
    247a:	4785                	li	a5,1
    247c:	1cf18423          	sb	a5,456(gp) # 20000a28 <CHRV3vCurrentLun>
    2480:	b771                	j	240c <CHRV3s10+0x200>
    2482:	1dc18e23          	sb	t3,476(gp) # 20000a3c <mDiskBulkInEndp>
    2486:	b58d                	j	22e8 <CHRV3s10+0xdc>
    2488:	1781c683          	lbu	a3,376(gp) # 200009d8 <mValue>
    248c:	c2a9                	beqz	a3,24ce <CHRV3s10+0x2c2>
    248e:	1c81c683          	lbu	a3,456(gp) # 20000a28 <CHRV3vCurrentLun>
    2492:	4789                	li	a5,2
    2494:	00168613          	addi	a2,a3,1
    2498:	0ff67613          	andi	a2,a2,255
    249c:	02d7e963          	bltu	a5,a3,24ce <CHRV3s10+0x2c2>
    24a0:	1cc18423          	sb	a2,456(gp) # 20000a28 <CHRV3vCurrentLun>
    24a4:	1801a503          	lw	a0,384(gp) # 200009e0 <pDISK_BASE_BUF>
    24a8:	b795                	j	240c <CHRV3s10+0x200>
    24aa:	1981c783          	lbu	a5,408(gp) # 200009f8 <CHRV3DiskStatus>
    24ae:	468d                	li	a3,3
    24b0:	04f6f263          	bgeu	a3,a5,24f4 <CHRV3s10+0x2e8>
    24b4:	4795                	li	a5,5
    24b6:	18f18c23          	sb	a5,408(gp) # 200009f8 <CHRV3DiskStatus>
    24ba:	b5a1                	j	2302 <CHRV3s10+0xf6>
    24bc:	17818793          	addi	a5,gp,376 # 200009d8 <mValue>
    24c0:	16618c23          	sb	t1,376(gp) # 200009d8 <mValue>
    24c4:	00b780a3          	sb	a1,1(a5)
    24c8:	19018623          	sb	a6,396(gp) # 200009ec <mDiskBulkOutEndp>
    24cc:	b595                	j	2330 <CHRV3s10+0x124>
    24ce:	5462                	lw	s0,56(sp)
    24d0:	1c018423          	sb	zero,456(gp) # 20000a28 <CHRV3vCurrentLun>
    24d4:	50f2                	lw	ra,60(sp)
    24d6:	54d2                	lw	s1,52(sp)
    24d8:	5942                	lw	s2,48(sp)
    24da:	59b2                	lw	s3,44(sp)
    24dc:	5a22                	lw	s4,40(sp)
    24de:	5a92                	lw	s5,36(sp)
    24e0:	5b02                	lw	s6,32(sp)
    24e2:	4bf2                	lw	s7,28(sp)
    24e4:	4c62                	lw	s8,24(sp)
    24e6:	4cd2                	lw	s9,20(sp)
    24e8:	4d42                	lw	s10,16(sp)
    24ea:	4db2                	lw	s11,12(sp)
    24ec:	4505                	li	a0,1
    24ee:	6121                	addi	sp,sp,64
    24f0:	c67ff06f          	j	2156 <CHRV3AnalyzeError>
    24f4:	5462                	lw	s0,56(sp)
    24f6:	50f2                	lw	ra,60(sp)
    24f8:	54d2                	lw	s1,52(sp)
    24fa:	5942                	lw	s2,48(sp)
    24fc:	59b2                	lw	s3,44(sp)
    24fe:	5a22                	lw	s4,40(sp)
    2500:	5a92                	lw	s5,36(sp)
    2502:	5b02                	lw	s6,32(sp)
    2504:	4bf2                	lw	s7,28(sp)
    2506:	4c62                	lw	s8,24(sp)
    2508:	4cd2                	lw	s9,20(sp)
    250a:	4d42                	lw	s10,16(sp)
    250c:	4db2                	lw	s11,12(sp)
    250e:	6121                	addi	sp,sp,64
    2510:	de4ff06f          	j	1af4 <mUpdateStatus.part.1>
    2514:	4501                	li	a0,0
    2516:	ee1fe0ef          	jal	ra,13f6 <CtrlClearEndpStall>
    251a:	b5c1                	j	23da <CHRV3s10+0x1ce>

0000251c <CHRV3DiskReady>:
CHRV3DiskReady():
    251c:	1141                	addi	sp,sp,-16
    251e:	c226                	sw	s1,4(sp)
    2520:	c422                	sw	s0,8(sp)
    2522:	c606                	sw	ra,12(sp)
    2524:	1001ae23          	sw	zero,284(gp) # 2000097c <mCmdParam>
    2528:	892ff0ef          	jal	ra,15ba <CHRV3DiskConnect>
    252c:	842a                	mv	s0,a0
    252e:	e141                	bnez	a0,25ae <CHRV3DiskReady+0x92>
    2530:	1981c783          	lbu	a5,408(gp) # 200009f8 <CHRV3DiskStatus>
    2534:	4711                	li	a4,4
    2536:	08f77263          	bgeu	a4,a5,25ba <CHRV3DiskReady+0x9e>
    253a:	88818793          	addi	a5,gp,-1912 # 200000e8 <TxBuffer>
    253e:	1c81c703          	lbu	a4,456(gp) # 20000a28 <CHRV3vCurrentLun>
    2542:	00078423          	sb	zero,8(a5)
    2546:	00e786a3          	sb	a4,13(a5)
    254a:	4719                	li	a4,6
    254c:	000784a3          	sb	zero,9(a5)
    2550:	00078523          	sb	zero,10(a5)
    2554:	000785a3          	sb	zero,11(a5)
    2558:	00078623          	sb	zero,12(a5)
    255c:	00e78723          	sb	a4,14(a5)
    2560:	8a818513          	addi	a0,gp,-1880 # 20000108 <TxBuffer+0x20>
    2564:	000787a3          	sb	zero,15(a5)
    2568:	00078823          	sb	zero,16(a5)
    256c:	000788a3          	sb	zero,17(a5)
    2570:	00078923          	sb	zero,18(a5)
    2574:	000789a3          	sb	zero,19(a5)
    2578:	00078a23          	sb	zero,20(a5)
    257c:	00078aa3          	sb	zero,21(a5)
    2580:	00078b23          	sb	zero,22(a5)
    2584:	00078ba3          	sb	zero,23(a5)
    2588:	00078c23          	sb	zero,24(a5)
    258c:	f10ff0ef          	jal	ra,1c9c <CHRV3BulkOnlyCmd>
    2590:	1a01c783          	lbu	a5,416(gp) # 20000a00 <CHRV3IntStatus>
    2594:	0ff7f793          	andi	a5,a5,255
    2598:	cb99                	beqz	a5,25ae <CHRV3DiskReady+0x92>
    259a:	1a01c783          	lbu	a5,416(gp) # 20000a00 <CHRV3IntStatus>
    259e:	16f18c23          	sb	a5,376(gp) # 200009d8 <mValue>
    25a2:	9bfff0ef          	jal	ra,1f60 <mReqDiskSense>
    25a6:	1781c403          	lbu	s0,376(gp) # 200009d8 <mValue>
    25aa:	1a818023          	sb	s0,416(gp) # 20000a00 <CHRV3IntStatus>
    25ae:	8522                	mv	a0,s0
    25b0:	40b2                	lw	ra,12(sp)
    25b2:	4422                	lw	s0,8(sp)
    25b4:	4492                	lw	s1,4(sp)
    25b6:	0141                	addi	sp,sp,16
    25b8:	8082                	ret
    25ba:	c53ff0ef          	jal	ra,220c <CHRV3s10>
    25be:	c911                	beqz	a0,25d2 <CHRV3DiskReady+0xb6>
    25c0:	04000513          	li	a0,64
    25c4:	8acff0ef          	jal	ra,1670 <mDelaymS>
    25c8:	c45ff0ef          	jal	ra,220c <CHRV3s10>
    25cc:	c119                	beqz	a0,25d2 <CHRV3DiskReady+0xb6>
    25ce:	842a                	mv	s0,a0
    25d0:	bff9                	j	25ae <CHRV3DiskReady+0x92>
    25d2:	a3bff0ef          	jal	ra,200c <mGetDiskSize>
    25d6:	e505                	bnez	a0,25fe <CHRV3DiskReady+0xe2>
    25d8:	88818793          	addi	a5,gp,-1912 # 200000e8 <TxBuffer>
    25dc:	0217c603          	lbu	a2,33(a5)
    25e0:	0207c583          	lbu	a1,32(a5)
    25e4:	0227c683          	lbu	a3,34(a5)
    25e8:	0237c703          	lbu	a4,35(a5)
    25ec:	0622                	slli	a2,a2,0x8
    25ee:	8e4d                	or	a2,a2,a1
    25f0:	06c2                	slli	a3,a3,0x10
    25f2:	8ed1                	or	a3,a3,a2
    25f4:	0762                	slli	a4,a4,0x18
    25f6:	8f55                	or	a4,a4,a3
    25f8:	10e1ae23          	sw	a4,284(gp) # 2000097c <mCmdParam>
    25fc:	b789                	j	253e <CHRV3DiskReady+0x22>
    25fe:	1a01c403          	lbu	s0,416(gp) # 20000a00 <CHRV3IntStatus>
    2602:	0ff47413          	andi	s0,s0,255
    2606:	b765                	j	25ae <CHRV3DiskReady+0x92>

00002608 <CHRV3s11>:
CHRV3s11():
    2608:	1981c783          	lbu	a5,408(gp) # 200009f8 <CHRV3DiskStatus>
    260c:	7139                	addi	sp,sp,-64
    260e:	de06                	sw	ra,60(sp)
    2610:	dc22                	sw	s0,56(sp)
    2612:	da26                	sw	s1,52(sp)
    2614:	d84a                	sw	s2,48(sp)
    2616:	d64e                	sw	s3,44(sp)
    2618:	d452                	sw	s4,40(sp)
    261a:	d256                	sw	s5,36(sp)
    261c:	d05a                	sw	s6,32(sp)
    261e:	ce5e                	sw	s7,28(sp)
    2620:	cc62                	sw	s8,24(sp)
    2622:	ca66                	sw	s9,20(sp)
    2624:	c86a                	sw	s10,16(sp)
    2626:	c66e                	sw	s11,12(sp)
    2628:	4711                	li	a4,4
    262a:	38f77463          	bgeu	a4,a5,29b2 <CHRV3s11+0x3aa>
    262e:	1bc1a703          	lw	a4,444(gp) # 20000a1c <CHRV3vStartLba>
    2632:	57fd                	li	a5,-1
    2634:	1ef1a023          	sw	a5,480(gp) # 20000a40 <mLbaBufferFDT>
    2638:	1cf1a823          	sw	a5,464(gp) # 20000a30 <mLbaBufferFAT>
    263c:	16018623          	sb	zero,364(gp) # 200009cc <mFatSecChanged>
    2640:	123457b7          	lui	a5,0x12345
    2644:	ff077693          	andi	a3,a4,-16
    2648:	67078793          	addi	a5,a5,1648 # 12345670 <_bootloader_limit+0x1233d670>
    264c:	36f68a63          	beq	a3,a5,29c0 <CHRV3s11+0x3b8>
    2650:	19c18493          	addi	s1,gp,412 # 200009fc <mTempAddrPoint>
    2654:	000480a3          	sb	zero,1(s1)
    2658:	1c018023          	sb	zero,448(gp) # 20000a20 <CHRV3vSecPerClus>
    265c:	1e0184a3          	sb	zero,489(gp) # 20000a49 <mCurSecOffset>
    2660:	1a01a423          	sw	zero,424(gp) # 20000a08 <CHRV3vFileSize>
    2664:	6a2d                	lui	s4,0xb
    2666:	a55a0a13          	addi	s4,s4,-1451 # aa55 <_bootloader_limit+0x2a55>
    266a:	17818d13          	addi	s10,gp,376 # 200009d8 <mValue>
    266e:	1801aa23          	sw	zero,404(gp) # 200009f4 <CHRV3vLbaCurrent>
    2672:	0e900b93          	li	s7,233
    2676:	04000d93          	li	s11,64
    267a:	cf6ff0ef          	jal	ra,1b70 <mReadSectorFDT>
    267e:	12051463          	bnez	a0,27a6 <CHRV3s11+0x19e>
    2682:	0014c683          	lbu	a3,1(s1)
    2686:	1801a603          	lw	a2,384(gp) # 200009e0 <pDISK_BASE_BUF>
    268a:	e699                	bnez	a3,2698 <CHRV3s11+0x90>
    268c:	00064783          	lbu	a5,0(a2) # 20000 <_bootloader_limit+0x18000>
    2690:	0fd7f793          	andi	a5,a5,253
    2694:	17778b63          	beq	a5,s7,280a <CHRV3s11+0x202>
    2698:	1fe65783          	lhu	a5,510(a2)
    269c:	31479863          	bne	a5,s4,29ac <CHRV3s11+0x3a4>
    26a0:	1c01ce83          	lbu	t4,448(gp) # 20000a20 <CHRV3vSecPerClus>
    26a4:	19d18e23          	sb	t4,412(gp) # 200009fc <mTempAddrPoint>
    26a8:	2fbe8f63          	beq	t4,s11,29a6 <CHRV3s11+0x39e>
    26ac:	1bee8793          	addi	a5,t4,446
    26b0:	97b2                	add	a5,a5,a2
    26b2:	00a7c583          	lbu	a1,10(a5)
    26b6:	00b7c703          	lbu	a4,11(a5)
    26ba:	0087c803          	lbu	a6,8(a5)
    26be:	0097c503          	lbu	a0,9(a5)
    26c2:	00ed01a3          	sb	a4,3(s10)
    26c6:	17018c23          	sb	a6,376(gp) # 200009d8 <mValue>
    26ca:	00ad00a3          	sb	a0,1(s10)
    26ce:	00bd0123          	sb	a1,2(s10)
    26d2:	1781a583          	lw	a1,376(gp) # 200009d8 <mValue>
    26d6:	0047c783          	lbu	a5,4(a5)
    26da:	4715                	li	a4,5
    26dc:	18b1aa23          	sw	a1,404(gp) # 200009f4 <CHRV3vLbaCurrent>
    26e0:	16f18c23          	sb	a5,376(gp) # 200009d8 <mValue>
    26e4:	2ae78763          	beq	a5,a4,2992 <CHRV3s11+0x38a>
    26e8:	473d                	li	a4,15
    26ea:	2ae78463          	beq	a5,a4,2992 <CHRV3s11+0x38a>
    26ee:	8776                	mv	a4,t4
    26f0:	4f01                	li	t5,0
    26f2:	4301                	li	t1,0
    26f4:	4535                	li	a0,13
    26f6:	4e05                	li	t3,1
    26f8:	4815                	li	a6,5
    26fa:	48bd                	li	a7,15
    26fc:	a09d                	j	2762 <CHRV3s11+0x15a>
    26fe:	1781c783          	lbu	a5,376(gp) # 200009d8 <mValue>
    2702:	17fd                	addi	a5,a5,-1
    2704:	0ff7f793          	andi	a5,a5,255
    2708:	01070f93          	addi	t6,a4,16
    270c:	fff68293          	addi	t0,a3,-1
    2710:	00f56763          	bltu	a0,a5,271e <CHRV3s11+0x116>
    2714:	0ede7e63          	bgeu	t3,a3,2810 <CHRV3s11+0x208>
    2718:	0ff2f693          	andi	a3,t0,255
    271c:	4f05                	li	t5,1
    271e:	0ffff713          	andi	a4,t6,255
    2722:	1be70793          	addi	a5,a4,446
    2726:	97b2                	add	a5,a5,a2
    2728:	0bb70663          	beq	a4,s11,27d4 <CHRV3s11+0x1cc>
    272c:	00a7c303          	lbu	t1,10(a5)
    2730:	00b7c583          	lbu	a1,11(a5)
    2734:	0097cf83          	lbu	t6,9(a5)
    2738:	006d0123          	sb	t1,2(s10)
    273c:	00bd01a3          	sb	a1,3(s10)
    2740:	01fd00a3          	sb	t6,1(s10)
    2744:	0087c583          	lbu	a1,8(a5)
    2748:	0047c783          	lbu	a5,4(a5)
    274c:	4305                	li	t1,1
    274e:	16b18c23          	sb	a1,376(gp) # 200009d8 <mValue>
    2752:	1781a583          	lw	a1,376(gp) # 200009d8 <mValue>
    2756:	16f18c23          	sb	a5,376(gp) # 200009d8 <mValue>
    275a:	01078f63          	beq	a5,a6,2778 <CHRV3s11+0x170>
    275e:	01178d63          	beq	a5,a7,2778 <CHRV3s11+0x170>
    2762:	01879f93          	slli	t6,a5,0x18
    2766:	418fdf93          	srai	t6,t6,0x18
    276a:	03f7f793          	andi	a5,a5,63
    276e:	f80fd8e3          	bgez	t6,26fe <CHRV3s11+0xf6>
    2772:	16f18c23          	sb	a5,376(gp) # 200009d8 <mValue>
    2776:	b771                	j	2702 <CHRV3s11+0xfa>
    2778:	18b1aa23          	sw	a1,404(gp) # 200009f4 <CHRV3vLbaCurrent>
    277c:	000f0463          	beqz	t5,2784 <CHRV3s11+0x17c>
    2780:	00d480a3          	sb	a3,1(s1)
    2784:	18e18e23          	sb	a4,412(gp) # 200009fc <mTempAddrPoint>
    2788:	1a81a783          	lw	a5,424(gp) # 20000a08 <CHRV3vFileSize>
    278c:	1e91c683          	lbu	a3,489(gp) # 20000a49 <mCurSecOffset>
    2790:	95be                	add	a1,a1,a5
    2792:	18b1aa23          	sw	a1,404(gp) # 200009f4 <CHRV3vLbaCurrent>
    2796:	ee0692e3          	bnez	a3,267a <CHRV3s11+0x72>
    279a:	0741                	addi	a4,a4,16
    279c:	1ee184a3          	sb	a4,489(gp) # 20000a49 <mCurSecOffset>
    27a0:	1ab1a423          	sw	a1,424(gp) # 20000a08 <CHRV3vFileSize>
    27a4:	b5f9                	j	2672 <CHRV3s11+0x6a>
    27a6:	ab4ff0ef          	jal	ra,1a5a <mBulkOnlyReset>
    27aa:	863ff0ef          	jal	ra,200c <mGetDiskSize>
    27ae:	bc2ff0ef          	jal	ra,1b70 <mReadSectorFDT>
    27b2:	ec0508e3          	beqz	a0,2682 <CHRV3s11+0x7a>
    27b6:	50f2                	lw	ra,60(sp)
    27b8:	5462                	lw	s0,56(sp)
    27ba:	54d2                	lw	s1,52(sp)
    27bc:	5942                	lw	s2,48(sp)
    27be:	59b2                	lw	s3,44(sp)
    27c0:	5a22                	lw	s4,40(sp)
    27c2:	5a92                	lw	s5,36(sp)
    27c4:	5b02                	lw	s6,32(sp)
    27c6:	4bf2                	lw	s7,28(sp)
    27c8:	4c62                	lw	s8,24(sp)
    27ca:	4cd2                	lw	s9,20(sp)
    27cc:	4d42                	lw	s10,16(sp)
    27ce:	4db2                	lw	s11,12(sp)
    27d0:	6121                	addi	sp,sp,64
    27d2:	8082                	ret
    27d4:	00030463          	beqz	t1,27dc <CHRV3s11+0x1d4>
    27d8:	18b1aa23          	sw	a1,404(gp) # 200009f4 <CHRV3vLbaCurrent>
    27dc:	000f0463          	beqz	t5,27e4 <CHRV3s11+0x1dc>
    27e0:	00d480a3          	sb	a3,1(s1)
    27e4:	1e91c783          	lbu	a5,489(gp) # 20000a49 <mCurSecOffset>
    27e8:	04000713          	li	a4,64
    27ec:	18e18e23          	sb	a4,412(gp) # 200009fc <mTempAddrPoint>
    27f0:	1a078b63          	beqz	a5,29a6 <CHRV3s11+0x39e>
    27f4:	1a0e9963          	bnez	t4,29a6 <CHRV3s11+0x39e>
    27f8:	0014c703          	lbu	a4,1(s1)
    27fc:	1cf18023          	sb	a5,448(gp) # 20000a20 <CHRV3vSecPerClus>
    2800:	1a01a423          	sw	zero,424(gp) # 20000a08 <CHRV3vFileSize>
    2804:	47bd                	li	a5,15
    2806:	e6f714e3          	bne	a4,a5,266e <CHRV3s11+0x66>
    280a:	1941a583          	lw	a1,404(gp) # 200009f4 <CHRV3vLbaCurrent>
    280e:	a005                	j	282e <CHRV3s11+0x226>
    2810:	1e030263          	beqz	t1,29f4 <CHRV3s11+0x3ec>
    2814:	18b1aa23          	sw	a1,404(gp) # 200009f4 <CHRV3vLbaCurrent>
    2818:	000f0463          	beqz	t5,2820 <CHRV3s11+0x218>
    281c:	00d480a3          	sb	a3,1(s1)
    2820:	18e18e23          	sb	a4,412(gp) # 200009fc <mTempAddrPoint>
    2824:	1e01a783          	lw	a5,480(gp) # 20000a40 <mLbaBufferFDT>
    2828:	95be                	add	a1,a1,a5
    282a:	18b1aa23          	sw	a1,404(gp) # 200009f4 <CHRV3vLbaCurrent>
    282e:	1ab1ae23          	sw	a1,444(gp) # 20000a1c <CHRV3vStartLba>
    2832:	b3eff0ef          	jal	ra,1b70 <mReadSectorFDT>
    2836:	f141                	bnez	a0,27b6 <CHRV3s11+0x1ae>
    2838:	1801a583          	lw	a1,384(gp) # 200009e0 <pDISK_BASE_BUF>
    283c:	0e900713          	li	a4,233
    2840:	0005c783          	lbu	a5,0(a1)
    2844:	0fd7f793          	andi	a5,a5,253
    2848:	1ae79063          	bne	a5,a4,29e8 <CHRV3s11+0x3e0>
    284c:	00d5c783          	lbu	a5,13(a1)
    2850:	01879713          	slli	a4,a5,0x18
    2854:	1cf18023          	sb	a5,448(gp) # 20000a20 <CHRV3vSecPerClus>
    2858:	8761                	srai	a4,a4,0x18
    285a:	18074263          	bltz	a4,29de <CHRV3s11+0x3d6>
    285e:	4719                	li	a4,6
    2860:	0786                	slli	a5,a5,0x1
    2862:	16e18223          	sb	a4,356(gp) # 200009c4 <mDiskSecPerClusB>
    2866:	0ff7f793          	andi	a5,a5,255
    286a:	4501                	li	a0,0
    286c:	4719                	li	a4,6
    286e:	01879693          	slli	a3,a5,0x18
    2872:	86e1                	srai	a3,a3,0x18
    2874:	fff70613          	addi	a2,a4,-1
    2878:	0786                	slli	a5,a5,0x1
    287a:	1006c763          	bltz	a3,2988 <CHRV3s11+0x380>
    287e:	0ff67713          	andi	a4,a2,255
    2882:	0ff7f793          	andi	a5,a5,255
    2886:	4505                	li	a0,1
    2888:	f37d                	bnez	a4,286e <CHRV3s11+0x266>
    288a:	4785                	li	a5,1
    288c:	16018223          	sb	zero,356(gp) # 200009c4 <mDiskSecPerClusB>
    2890:	1cf18023          	sb	a5,448(gp) # 20000a20 <CHRV3vSecPerClus>
    2894:	0165d503          	lhu	a0,22(a1)
    2898:	1aa1a223          	sw	a0,420(gp) # 20000a04 <mDiskFatSize>
    289c:	e501                	bnez	a0,28a4 <CHRV3s11+0x29c>
    289e:	51c8                	lw	a0,36(a1)
    28a0:	1aa1a223          	sw	a0,420(gp) # 20000a04 <mDiskFatSize>
    28a4:	0145c783          	lbu	a5,20(a1)
    28a8:	0135c603          	lbu	a2,19(a1)
    28ac:	07a2                	slli	a5,a5,0x8
    28ae:	8fd1                	or	a5,a5,a2
    28b0:	18f1a223          	sw	a5,388(gp) # 200009e4 <CHRV3vCurrentOffset>
    28b4:	e781                	bnez	a5,28bc <CHRV3s11+0x2b4>
    28b6:	519c                	lw	a5,32(a1)
    28b8:	18f1a223          	sw	a5,388(gp) # 200009e4 <CHRV3vCurrentOffset>
    28bc:	0125c603          	lbu	a2,18(a1)
    28c0:	0115c883          	lbu	a7,17(a1)
    28c4:	1ac1d683          	lhu	a3,428(gp) # 20000a0c <CHRV3vSectorSize>
    28c8:	1dd1c303          	lbu	t1,477(gp) # 20000a3d <CHRV3vSectorSizeB>
    28cc:	0622                	slli	a2,a2,0x8
    28ce:	01166633          	or	a2,a2,a7
    28d2:	8295                	srli	a3,a3,0x5
    28d4:	00e5d883          	lhu	a7,14(a1)
    28d8:	96b2                	add	a3,a3,a2
    28da:	16fd                	addi	a3,a3,-1
    28dc:	ffb30613          	addi	a2,t1,-5
    28e0:	40c6d6b3          	sra	a3,a3,a2
    28e4:	01168633          	add	a2,a3,a7
    28e8:	0105cf03          	lbu	t5,16(a1)
    28ec:	962a                	add	a2,a2,a0
    28ee:	16d1a823          	sw	a3,368(gp) # 200009d0 <CHRV3vDiskRoot>
    28f2:	1911a823          	sw	a7,400(gp) # 200009f0 <mDiskRsvdSecEnd>
    28f6:	16c1ac23          	sw	a2,376(gp) # 200009d8 <mValue>
    28fa:	4689                	li	a3,2
    28fc:	08df0d63          	beq	t5,a3,2996 <CHRV3s11+0x38e>
    2900:	1a01a223          	sw	zero,420(gp) # 20000a04 <mDiskFatSize>
    2904:	1941a683          	lw	a3,404(gp) # 200009f4 <CHRV3vLbaCurrent>
    2908:	8f91                	sub	a5,a5,a2
    290a:	00e7d733          	srl	a4,a5,a4
    290e:	9636                	add	a2,a2,a3
    2910:	1cc1aa23          	sw	a2,468(gp) # 20000a34 <CHRV3vDataStart>
    2914:	1ce1a623          	sw	a4,460(gp) # 20000a2c <mDiskTotalClus>
    2918:	67c1                	lui	a5,0x10
    291a:	17d1                	addi	a5,a5,-12
    291c:	04e7eb63          	bltu	a5,a4,2972 <CHRV3s11+0x36a>
    2920:	1c019323          	sh	zero,454(gp) # 20000a26 <mDiskInfoSec>
    2924:	6785                	lui	a5,0x1
    2926:	17d1                	addi	a5,a5,-12
    2928:	06e7eb63          	bltu	a5,a4,299e <CHRV3s11+0x396>
    292c:	4705                	li	a4,1
    292e:	16e186a3          	sb	a4,365(gp) # 200009cd <CHRV3vDiskFat>
    2932:	02088363          	beqz	a7,2958 <CHRV3s11+0x350>
    2936:	1701a783          	lw	a5,368(gp) # 200009d0 <CHRV3vDiskRoot>
    293a:	cf99                	beqz	a5,2958 <CHRV3s11+0x350>
    293c:	4785                	li	a5,1
    293e:	00ff0563          	beq	t5,a5,2948 <CHRV3s11+0x340>
    2942:	1a41a783          	lw	a5,420(gp) # 20000a04 <mDiskFatSize>
    2946:	cb89                	beqz	a5,2958 <CHRV3s11+0x350>
    2948:	00b5c503          	lbu	a0,11(a1)
    294c:	e511                	bnez	a0,2958 <CHRV3s11+0x350>
    294e:	00c5c703          	lbu	a4,12(a1)
    2952:	4785                	li	a5,1
    2954:	0ae7e563          	bltu	a5,a4,29fe <CHRV3s11+0x3f6>
    2958:	0014c783          	lbu	a5,1(s1)
    295c:	ebc9                	bnez	a5,29ee <CHRV3s11+0x3e6>
    295e:	4785                	li	a5,1
    2960:	00f480a3          	sb	a5,1(s1)
    2964:	1c018023          	sb	zero,448(gp) # 20000a20 <CHRV3vSecPerClus>
    2968:	1e0184a3          	sb	zero,489(gp) # 20000a49 <mCurSecOffset>
    296c:	1a01a423          	sw	zero,424(gp) # 20000a08 <CHRV3vFileSize>
    2970:	b9d5                	j	2664 <CHRV3s11+0x5c>
    2972:	55dc                	lw	a5,44(a1)
    2974:	0305d603          	lhu	a2,48(a1)
    2978:	16f1a823          	sw	a5,368(gp) # 200009d0 <CHRV3vDiskRoot>
    297c:	1cc19323          	sh	a2,454(gp) # 20000a26 <mDiskInfoSec>
    2980:	470d                	li	a4,3
    2982:	16e186a3          	sb	a4,365(gp) # 200009cd <CHRV3vDiskFat>
    2986:	b775                	j	2932 <CHRV3s11+0x32a>
    2988:	f00506e3          	beqz	a0,2894 <CHRV3s11+0x28c>
    298c:	16e18223          	sb	a4,356(gp) # 200009c4 <mDiskSecPerClusB>
    2990:	b711                	j	2894 <CHRV3s11+0x28c>
    2992:	8776                	mv	a4,t4
    2994:	bbd5                	j	2788 <CHRV3s11+0x180>
    2996:	962a                	add	a2,a2,a0
    2998:	16c1ac23          	sw	a2,376(gp) # 200009d8 <mValue>
    299c:	b7a5                	j	2904 <CHRV3s11+0x2fc>
    299e:	4709                	li	a4,2
    29a0:	16e186a3          	sb	a4,365(gp) # 200009cd <CHRV3vDiskFat>
    29a4:	b779                	j	2932 <CHRV3s11+0x32a>
    29a6:	09200513          	li	a0,146
    29aa:	b531                	j	27b6 <CHRV3s11+0x1ae>
    29ac:	09100513          	li	a0,145
    29b0:	b519                	j	27b6 <CHRV3s11+0x1ae>
    29b2:	85bff0ef          	jal	ra,220c <CHRV3s10>
    29b6:	e00510e3          	bnez	a0,27b6 <CHRV3s11+0x1ae>
    29ba:	e52ff0ef          	jal	ra,200c <mGetDiskSize>
    29be:	b985                	j	262e <CHRV3s11+0x26>
    29c0:	8b3d                	andi	a4,a4,15
    29c2:	19c18493          	addi	s1,gp,412 # 200009fc <mTempAddrPoint>
    29c6:	00e480a3          	sb	a4,1(s1)
    29ca:	1c018023          	sb	zero,448(gp) # 20000a20 <CHRV3vSecPerClus>
    29ce:	1e0184a3          	sb	zero,489(gp) # 20000a49 <mCurSecOffset>
    29d2:	1a01a423          	sw	zero,424(gp) # 20000a08 <CHRV3vFileSize>
    29d6:	47bd                	li	a5,15
    29d8:	c8f716e3          	bne	a4,a5,2664 <CHRV3s11+0x5c>
    29dc:	b53d                	j	280a <CHRV3s11+0x202>
    29de:	471d                	li	a4,7
    29e0:	16e18223          	sb	a4,356(gp) # 200009c4 <mDiskSecPerClusB>
    29e4:	471d                	li	a4,7
    29e6:	b57d                	j	2894 <CHRV3s11+0x28c>
    29e8:	0a100513          	li	a0,161
    29ec:	b3e9                	j	27b6 <CHRV3s11+0x1ae>
    29ee:	0a300513          	li	a0,163
    29f2:	b3d1                	j	27b6 <CHRV3s11+0x1ae>
    29f4:	e20f08e3          	beqz	t5,2824 <CHRV3s11+0x21c>
    29f8:	00d480a3          	sb	a3,1(s1)
    29fc:	b525                	j	2824 <CHRV3s11+0x21c>
    29fe:	1981c783          	lbu	a5,408(gp) # 200009f8 <CHRV3DiskStatus>
    2a02:	98b6                	add	a7,a7,a3
    2a04:	1911a823          	sw	a7,400(gp) # 200009f0 <mDiskRsvdSecEnd>
    2a08:	4711                	li	a4,4
    2a0a:	00f77663          	bgeu	a4,a5,2a16 <CHRV3s11+0x40e>
    2a0e:	47c1                	li	a5,16
    2a10:	18f18c23          	sb	a5,408(gp) # 200009f8 <CHRV3DiskStatus>
    2a14:	b34d                	j	27b6 <CHRV3s11+0x1ae>
    2a16:	5462                	lw	s0,56(sp)
    2a18:	50f2                	lw	ra,60(sp)
    2a1a:	54d2                	lw	s1,52(sp)
    2a1c:	5942                	lw	s2,48(sp)
    2a1e:	59b2                	lw	s3,44(sp)
    2a20:	5a22                	lw	s4,40(sp)
    2a22:	5a92                	lw	s5,36(sp)
    2a24:	5b02                	lw	s6,32(sp)
    2a26:	4bf2                	lw	s7,28(sp)
    2a28:	4c62                	lw	s8,24(sp)
    2a2a:	4cd2                	lw	s9,20(sp)
    2a2c:	4d42                	lw	s10,16(sp)
    2a2e:	4db2                	lw	s11,12(sp)
    2a30:	6121                	addi	sp,sp,64
    2a32:	8c2ff06f          	j	1af4 <mUpdateStatus.part.1>

00002a36 <mSaveFatSector>:
mSaveFatSector():
    2a36:	1101                	addi	sp,sp,-32
    2a38:	c84a                	sw	s2,16(sp)
    2a3a:	1d01a783          	lw	a5,464(gp) # 20000a30 <mLbaBufferFAT>
    2a3e:	ca26                	sw	s1,20(sp)
    2a40:	cc22                	sw	s0,24(sp)
    2a42:	ce06                	sw	ra,28(sp)
    2a44:	c64e                	sw	s3,12(sp)
    2a46:	18f1aa23          	sw	a5,404(gp) # 200009f4 <CHRV3vLbaCurrent>
    2a4a:	988ff0ef          	jal	ra,1bd2 <mWriteSectorFAT>
    2a4e:	842a                	mv	s0,a0
    2a50:	e511                	bnez	a0,2a5c <mSaveFatSector+0x26>
    2a52:	1a41a783          	lw	a5,420(gp) # 20000a04 <mDiskFatSize>
    2a56:	eb99                	bnez	a5,2a6c <mSaveFatSector+0x36>
    2a58:	16018623          	sb	zero,364(gp) # 200009cc <mFatSecChanged>
    2a5c:	8522                	mv	a0,s0
    2a5e:	40f2                	lw	ra,28(sp)
    2a60:	4462                	lw	s0,24(sp)
    2a62:	44d2                	lw	s1,20(sp)
    2a64:	4942                	lw	s2,16(sp)
    2a66:	49b2                	lw	s3,12(sp)
    2a68:	6105                	addi	sp,sp,32
    2a6a:	8082                	ret
    2a6c:	1941a703          	lw	a4,404(gp) # 200009f4 <CHRV3vLbaCurrent>
    2a70:	1681a583          	lw	a1,360(gp) # 200009c8 <pDISK_FAT_BUF>
    2a74:	97ba                	add	a5,a5,a4
    2a76:	4505                	li	a0,1
    2a78:	18f1aa23          	sw	a5,404(gp) # 200009f4 <CHRV3vLbaCurrent>
    2a7c:	a63fe0ef          	jal	ra,14de <CHRV3WriteSector>
    2a80:	1941a703          	lw	a4,404(gp) # 200009f4 <CHRV3vLbaCurrent>
    2a84:	1aa18023          	sb	a0,416(gp) # 20000a00 <CHRV3IntStatus>
    2a88:	1a41a603          	lw	a2,420(gp) # 20000a04 <mDiskFatSize>
    2a8c:	1a01c783          	lbu	a5,416(gp) # 20000a00 <CHRV3IntStatus>
    2a90:	8f11                	sub	a4,a4,a2
    2a92:	18e1aa23          	sw	a4,404(gp) # 200009f4 <CHRV3vLbaCurrent>
    2a96:	0ff7f793          	andi	a5,a5,255
    2a9a:	dfdd                	beqz	a5,2a58 <mSaveFatSector+0x22>
    2a9c:	1a01c403          	lbu	s0,416(gp) # 20000a00 <CHRV3IntStatus>
    2aa0:	57fd                	li	a5,-1
    2aa2:	1ef1a023          	sw	a5,480(gp) # 20000a40 <mLbaBufferFDT>
    2aa6:	1cf1a823          	sw	a5,464(gp) # 20000a30 <mLbaBufferFAT>
    2aaa:	16018623          	sb	zero,364(gp) # 200009cc <mFatSecChanged>
    2aae:	0ff47413          	andi	s0,s0,255
    2ab2:	b76d                	j	2a5c <mSaveFatSector+0x26>

00002ab4 <CHRV3s20>:
CHRV3s20():
    2ab4:	7179                	addi	sp,sp,-48
    2ab6:	cc52                	sw	s4,24(sp)
    2ab8:	16d1c803          	lbu	a6,365(gp) # 200009cd <CHRV3vDiskFat>
    2abc:	d422                	sw	s0,40(sp)
    2abe:	d226                	sw	s1,36(sp)
    2ac0:	d04a                	sw	s2,32(sp)
    2ac2:	d606                	sw	ra,44(sp)
    2ac4:	ce4e                	sw	s3,28(sp)
    2ac6:	ca56                	sw	s5,20(sp)
    2ac8:	c85a                	sw	s6,16(sp)
    2aca:	c65e                	sw	s7,12(sp)
    2acc:	4789                	li	a5,2
    2ace:	892a                	mv	s2,a0
    2ad0:	4401                	li	s0,0
    2ad2:	1601a703          	lw	a4,352(gp) # 200009c0 <mLinkClusSource>
    2ad6:	12f80163          	beq	a6,a5,2bf8 <CHRV3s20+0x144>
    2ada:	478d                	li	a5,3
    2adc:	10f80c63          	beq	a6,a5,2bf4 <CHRV3s20+0x140>
    2ae0:	00175793          	srli	a5,a4,0x1
    2ae4:	00177413          	andi	s0,a4,1
    2ae8:	973e                	add	a4,a4,a5
    2aea:	1ac1d683          	lhu	a3,428(gp) # 20000a0c <CHRV3vSectorSize>
    2aee:	1dd1c783          	lbu	a5,477(gp) # 20000a3d <CHRV3vSectorSizeB>
    2af2:	1681a583          	lw	a1,360(gp) # 200009c8 <pDISK_FAT_BUF>
    2af6:	1901a603          	lw	a2,400(gp) # 200009f0 <mDiskRsvdSecEnd>
    2afa:	16fd                	addi	a3,a3,-1
    2afc:	8ef9                	and	a3,a3,a4
    2afe:	00f757b3          	srl	a5,a4,a5
    2b02:	1d01a703          	lw	a4,464(gp) # 20000a30 <mLbaBufferFAT>
    2b06:	96ae                	add	a3,a3,a1
    2b08:	97b2                	add	a5,a5,a2
    2b0a:	18d1ae23          	sw	a3,412(gp) # 200009fc <mTempAddrPoint>
    2b0e:	16f1a023          	sw	a5,352(gp) # 200009c0 <mLinkClusSource>
    2b12:	02e78363          	beq	a5,a4,2b38 <CHRV3s20+0x84>
    2b16:	16c1c703          	lbu	a4,364(gp) # 200009cc <mFatSecChanged>
    2b1a:	c711                	beqz	a4,2b26 <CHRV3s20+0x72>
    2b1c:	f1bff0ef          	jal	ra,2a36 <mSaveFatSector>
    2b20:	ed5d                	bnez	a0,2bde <CHRV3s20+0x12a>
    2b22:	1601a783          	lw	a5,352(gp) # 200009c0 <mLinkClusSource>
    2b26:	18f1aa23          	sw	a5,404(gp) # 200009f4 <CHRV3vLbaCurrent>
    2b2a:	fe5fe0ef          	jal	ra,1b0e <mReadSectorFAT>
    2b2e:	e945                	bnez	a0,2bde <CHRV3s20+0x12a>
    2b30:	16d1c803          	lbu	a6,365(gp) # 200009cd <CHRV3vDiskFat>
    2b34:	19c1a683          	lw	a3,412(gp) # 200009fc <mTempAddrPoint>
    2b38:	00090f63          	beqz	s2,2b56 <CHRV3s20+0xa2>
    2b3c:	4791                	li	a5,4
    2b3e:	16f90863          	beq	s2,a5,2cae <CHRV3s20+0x1fa>
    2b42:	4785                	li	a5,1
    2b44:	0ef90f63          	beq	s2,a5,2c42 <CHRV3s20+0x18e>
    2b48:	1b41a783          	lw	a5,436(gp) # 20000a14 <mCurrentCluster>
    2b4c:	16f1a023          	sw	a5,352(gp) # 200009c0 <mLinkClusSource>
    2b50:	4705                	li	a4,1
    2b52:	16e18623          	sb	a4,364(gp) # 200009cc <mFatSecChanged>
    2b56:	1c018223          	sb	zero,452(gp) # 20000a24 <mLinkEndOfClus>
    2b5a:	4789                	li	a5,2
    2b5c:	0af80063          	beq	a6,a5,2bfc <CHRV3s20+0x148>
    2b60:	470d                	li	a4,3
    2b62:	1601a783          	lw	a5,352(gp) # 200009c0 <mLinkClusSource>
    2b66:	0ee80163          	beq	a6,a4,2c48 <CHRV3s20+0x194>
    2b6a:	0006c503          	lbu	a0,0(a3)
    2b6e:	0ff7f813          	andi	a6,a5,255
    2b72:	1ac1d583          	lhu	a1,428(gp) # 20000a0c <CHRV3vSectorSize>
    2b76:	00f57713          	andi	a4,a0,15
    2b7a:	00481893          	slli	a7,a6,0x4
    2b7e:	1681a603          	lw	a2,360(gp) # 200009c8 <pDISK_FAT_BUF>
    2b82:	01176733          	or	a4,a4,a7
    2b86:	17818493          	addi	s1,gp,376 # 200009d8 <mValue>
    2b8a:	8391                	srli	a5,a5,0x4
    2b8c:	0ff77713          	andi	a4,a4,255
    2b90:	15fd                	addi	a1,a1,-1
    2b92:	00f480a3          	sb	a5,1(s1)
    2b96:	00a48123          	sb	a0,2(s1)
    2b9a:	16e18c23          	sb	a4,376(gp) # 200009d8 <mValue>
    2b9e:	00b607b3          	add	a5,a2,a1
    2ba2:	10f68a63          	beq	a3,a5,2cb6 <CHRV3s20+0x202>
    2ba6:	0016c783          	lbu	a5,1(a3)
    2baa:	00f481a3          	sb	a5,3(s1)
    2bae:	08091063          	bnez	s2,2c2e <CHRV3s20+0x17a>
    2bb2:	0e040963          	beqz	s0,2ca4 <CHRV3s20+0x1f0>
    2bb6:	0024d783          	lhu	a5,2(s1)
    2bba:	8391                	srli	a5,a5,0x4
    2bbc:	6705                	lui	a4,0x1
    2bbe:	00f49123          	sh	a5,2(s1)
    2bc2:	1759                	addi	a4,a4,-10
    2bc4:	0af76c63          	bltu	a4,a5,2c7c <CHRV3s20+0x1c8>
    2bc8:	1c41c703          	lbu	a4,452(gp) # 20000a24 <mLinkEndOfClus>
    2bcc:	16f1ac23          	sw	a5,376(gp) # 200009d8 <mValue>
    2bd0:	00e96933          	or	s2,s2,a4
    2bd4:	04091b63          	bnez	s2,2c2a <CHRV3s20+0x176>
    2bd8:	1af1aa23          	sw	a5,436(gp) # 20000a14 <mCurrentCluster>
    2bdc:	4501                	li	a0,0
    2bde:	50b2                	lw	ra,44(sp)
    2be0:	5422                	lw	s0,40(sp)
    2be2:	5492                	lw	s1,36(sp)
    2be4:	5902                	lw	s2,32(sp)
    2be6:	49f2                	lw	s3,28(sp)
    2be8:	4a62                	lw	s4,24(sp)
    2bea:	4ad2                	lw	s5,20(sp)
    2bec:	4b42                	lw	s6,16(sp)
    2bee:	4bb2                	lw	s7,12(sp)
    2bf0:	6145                	addi	sp,sp,48
    2bf2:	8082                	ret
    2bf4:	070a                	slli	a4,a4,0x2
    2bf6:	bdd5                	j	2aea <CHRV3s20+0x36>
    2bf8:	0706                	slli	a4,a4,0x1
    2bfa:	bdc5                	j	2aea <CHRV3s20+0x36>
    2bfc:	0006d703          	lhu	a4,0(a3)
    2c00:	16e1ac23          	sw	a4,376(gp) # 200009d8 <mValue>
    2c04:	67c1                	lui	a5,0x10
    2c06:	17d9                	addi	a5,a5,-10
    2c08:	00e7fd63          	bgeu	a5,a4,2c22 <CHRV3s20+0x16e>
    2c0c:	4785                	li	a5,1
    2c0e:	1cf18223          	sb	a5,452(gp) # 20000a24 <mLinkEndOfClus>
    2c12:	00090c63          	beqz	s2,2c2a <CHRV3s20+0x176>
    2c16:	1601a783          	lw	a5,352(gp) # 200009c0 <mLinkClusSource>
    2c1a:	4501                	li	a0,0
    2c1c:	00f69023          	sh	a5,0(a3)
    2c20:	bf7d                	j	2bde <CHRV3s20+0x12a>
    2c22:	fe091ae3          	bnez	s2,2c16 <CHRV3s20+0x162>
    2c26:	1ae1aa23          	sw	a4,436(gp) # 20000a14 <mCurrentCluster>
    2c2a:	4501                	li	a0,0
    2c2c:	bf4d                	j	2bde <CHRV3s20+0x12a>
    2c2e:	cc31                	beqz	s0,2c8a <CHRV3s20+0x1d6>
    2c30:	00e68023          	sb	a4,0(a3)
    2c34:	19c1a783          	lw	a5,412(gp) # 200009fc <mTempAddrPoint>
    2c38:	0014c703          	lbu	a4,1(s1)
    2c3c:	00e780a3          	sb	a4,1(a5) # 10001 <_bootloader_limit+0x8001>
    2c40:	bf9d                	j	2bb6 <CHRV3s20+0x102>
    2c42:	1601a023          	sw	zero,352(gp) # 200009c0 <mLinkClusSource>
    2c46:	b729                	j	2b50 <CHRV3s20+0x9c>
    2c48:	4298                	lw	a4,0(a3)
    2c4a:	10000637          	lui	a2,0x10000
    2c4e:	fff60513          	addi	a0,a2,-1 # fffffff <_bootloader_limit+0xfff7fff>
    2c52:	f00005b7          	lui	a1,0xf0000
    2c56:	8df9                	and	a1,a1,a4
    2c58:	8fe9                	and	a5,a5,a0
    2c5a:	8fcd                	or	a5,a5,a1
    2c5c:	8f69                	and	a4,a4,a0
    2c5e:	16f1a023          	sw	a5,352(gp) # 200009c0 <mLinkClusSource>
    2c62:	16e1ac23          	sw	a4,376(gp) # 200009d8 <mValue>
    2c66:	1659                	addi	a2,a2,-10
    2c68:	06e67c63          	bgeu	a2,a4,2ce0 <CHRV3s20+0x22c>
    2c6c:	4705                	li	a4,1
    2c6e:	1ce18223          	sb	a4,452(gp) # 20000a24 <mLinkEndOfClus>
    2c72:	fa090ce3          	beqz	s2,2c2a <CHRV3s20+0x176>
    2c76:	c29c                	sw	a5,0(a3)
    2c78:	4501                	li	a0,0
    2c7a:	b795                	j	2bde <CHRV3s20+0x12a>
    2c7c:	4705                	li	a4,1
    2c7e:	1ce18223          	sb	a4,452(gp) # 20000a24 <mLinkEndOfClus>
    2c82:	16f1ac23          	sw	a5,376(gp) # 200009d8 <mValue>
    2c86:	4501                	li	a0,0
    2c88:	bf99                	j	2bde <CHRV3s20+0x12a>
    2c8a:	01068023          	sb	a6,0(a3)
    2c8e:	0034c783          	lbu	a5,3(s1)
    2c92:	0014c703          	lbu	a4,1(s1)
    2c96:	19c1a683          	lw	a3,412(gp) # 200009fc <mTempAddrPoint>
    2c9a:	9bc1                	andi	a5,a5,-16
    2c9c:	8311                	srli	a4,a4,0x4
    2c9e:	8fd9                	or	a5,a5,a4
    2ca0:	00f680a3          	sb	a5,1(a3)
    2ca4:	0024d783          	lhu	a5,2(s1)
    2ca8:	07d2                	slli	a5,a5,0x14
    2caa:	83d1                	srli	a5,a5,0x14
    2cac:	bf01                	j	2bbc <CHRV3s20+0x108>
    2cae:	57fd                	li	a5,-1
    2cb0:	16f1a023          	sw	a5,352(gp) # 200009c0 <mLinkClusSource>
    2cb4:	bd71                	j	2b50 <CHRV3s20+0x9c>
    2cb6:	02091863          	bnez	s2,2ce6 <CHRV3s20+0x232>
    2cba:	16c1c783          	lbu	a5,364(gp) # 200009cc <mFatSecChanged>
    2cbe:	eb85                	bnez	a5,2cee <CHRV3s20+0x23a>
    2cc0:	1d01a783          	lw	a5,464(gp) # 20000a30 <mLbaBufferFAT>
    2cc4:	0785                	addi	a5,a5,1
    2cc6:	18f1aa23          	sw	a5,404(gp) # 200009f4 <CHRV3vLbaCurrent>
    2cca:	e45fe0ef          	jal	ra,1b0e <mReadSectorFAT>
    2cce:	f00518e3          	bnez	a0,2bde <CHRV3s20+0x12a>
    2cd2:	1681a783          	lw	a5,360(gp) # 200009c8 <pDISK_FAT_BUF>
    2cd6:	0007c783          	lbu	a5,0(a5)
    2cda:	00f481a3          	sb	a5,3(s1)
    2cde:	bdd1                	j	2bb2 <CHRV3s20+0xfe>
    2ce0:	f8091be3          	bnez	s2,2c76 <CHRV3s20+0x1c2>
    2ce4:	b789                	j	2c26 <CHRV3s20+0x172>
    2ce6:	e011                	bnez	s0,2cea <CHRV3s20+0x236>
    2ce8:	8742                	mv	a4,a6
    2cea:	00e68023          	sb	a4,0(a3)
    2cee:	d49ff0ef          	jal	ra,2a36 <mSaveFatSector>
    2cf2:	ee0516e3          	bnez	a0,2bde <CHRV3s20+0x12a>
    2cf6:	1d01a783          	lw	a5,464(gp) # 20000a30 <mLbaBufferFAT>
    2cfa:	0785                	addi	a5,a5,1
    2cfc:	18f1aa23          	sw	a5,404(gp) # 200009f4 <CHRV3vLbaCurrent>
    2d00:	e0ffe0ef          	jal	ra,1b0e <mReadSectorFAT>
    2d04:	ec051de3          	bnez	a0,2bde <CHRV3s20+0x12a>
    2d08:	1681a683          	lw	a3,360(gp) # 200009c8 <pDISK_FAT_BUF>
    2d0c:	0006c703          	lbu	a4,0(a3)
    2d10:	00e481a3          	sb	a4,3(s1)
    2d14:	e8090fe3          	beqz	s2,2bb2 <CHRV3s20+0xfe>
    2d18:	0014c783          	lbu	a5,1(s1)
    2d1c:	e401                	bnez	s0,2d24 <CHRV3s20+0x270>
    2d1e:	9b41                	andi	a4,a4,-16
    2d20:	8391                	srli	a5,a5,0x4
    2d22:	8fd9                	or	a5,a5,a4
    2d24:	00f68023          	sb	a5,0(a3)
    2d28:	4705                	li	a4,1
    2d2a:	16e18623          	sb	a4,364(gp) # 200009cc <mFatSecChanged>
    2d2e:	b551                	j	2bb2 <CHRV3s20+0xfe>

00002d30 <CHRV3FileOpen>:
CHRV3FileOpen():
    2d30:	715d                	addi	sp,sp,-80
    2d32:	da56                	sw	s5,52(sp)
    2d34:	1981c783          	lbu	a5,408(gp) # 200009f8 <CHRV3DiskStatus>
    2d38:	c686                	sw	ra,76(sp)
    2d3a:	c4a2                	sw	s0,72(sp)
    2d3c:	c2a6                	sw	s1,68(sp)
    2d3e:	c0ca                	sw	s2,64(sp)
    2d40:	de4e                	sw	s3,60(sp)
    2d42:	dc52                	sw	s4,56(sp)
    2d44:	d85a                	sw	s6,48(sp)
    2d46:	d65e                	sw	s7,44(sp)
    2d48:	d462                	sw	s8,40(sp)
    2d4a:	d266                	sw	s9,36(sp)
    2d4c:	d06a                	sw	s10,32(sp)
    2d4e:	ce6e                	sw	s11,28(sp)
    2d50:	473d                	li	a4,15
    2d52:	2cf77c63          	bgeu	a4,a5,302a <CHRV3FileOpen+0x2fa>
    2d56:	1981c783          	lbu	a5,408(gp) # 200009f8 <CHRV3DiskStatus>
    2d5a:	473d                	li	a4,15
    2d5c:	10f77d63          	bgeu	a4,a5,2e76 <CHRV3FileOpen+0x146>
    2d60:	47c1                	li	a5,16
    2d62:	18f18c23          	sb	a5,408(gp) # 200009f8 <CHRV3DiskStatus>
    2d66:	11c1c683          	lbu	a3,284(gp) # 2000097c <mCmdParam>
    2d6a:	1e018523          	sb	zero,490(gp) # 20000a4a <mFileSizeChanged>
    2d6e:	30068663          	beqz	a3,307a <CHRV3FileOpen+0x34a>
    2d72:	05c00713          	li	a4,92
    2d76:	30e68763          	beq	a3,a4,3084 <CHRV3FileOpen+0x354>
    2d7a:	02f00713          	li	a4,47
    2d7e:	30e68363          	beq	a3,a4,3084 <CHRV3FileOpen+0x354>
    2d82:	11c18713          	addi	a4,gp,284 # 2000097c <mCmdParam>
    2d86:	00174603          	lbu	a2,1(a4) # 1001 <IAP_Main_Deal+0x277>
    2d8a:	03a00793          	li	a5,58
    2d8e:	2af60663          	beq	a2,a5,303a <CHRV3FileOpen+0x30a>
    2d92:	c43e                	sw	a5,8(sp)
    2d94:	1741a683          	lw	a3,372(gp) # 200009d4 <CHRV3vStartCluster>
    2d98:	1d41a783          	lw	a5,468(gp) # 20000a34 <CHRV3vDataStart>
    2d9c:	c632                	sw	a2,12(sp)
    2d9e:	1ce1ac23          	sw	a4,472(gp) # 20000a38 <mCurrentName>
    2da2:	17818413          	addi	s0,gp,376 # 200009d8 <mValue>
    2da6:	1c068d63          	beqz	a3,2f80 <CHRV3FileOpen+0x250>
    2daa:	1641c583          	lbu	a1,356(gp) # 200009c4 <mDiskSecPerClusB>
    2dae:	1c01c603          	lbu	a2,448(gp) # 20000a20 <CHRV3vSecPerClus>
    2db2:	ffe68713          	addi	a4,a3,-2
    2db6:	00b71733          	sll	a4,a4,a1
    2dba:	97ba                	add	a5,a5,a4
    2dbc:	1ec184a3          	sb	a2,489(gp) # 20000a49 <mCurSecOffset>
    2dc0:	1af1ac23          	sw	a5,440(gp) # 20000a18 <CHRV3vFdtLba>
    2dc4:	24060263          	beqz	a2,3008 <CHRV3FileOpen+0x2d8>
    2dc8:	18f1aa23          	sw	a5,404(gp) # 200009f4 <CHRV3vLbaCurrent>
    2dcc:	da5fe0ef          	jal	ra,1b70 <mReadSectorFDT>
    2dd0:	e55d                	bnez	a0,2e7e <CHRV3FileOpen+0x14e>
    2dd2:	1ac1d783          	lhu	a5,428(gp) # 20000a0c <CHRV3vSectorSize>
    2dd6:	1a019723          	sh	zero,430(gp) # 20000a0e <CHRV3vFdtOffset>
    2dda:	20078463          	beqz	a5,2fe2 <CHRV3FileOpen+0x2b2>
    2dde:	1801a583          	lw	a1,384(gp) # 200009e0 <pDISK_BASE_BUF>
    2de2:	18b1ae23          	sw	a1,412(gp) # 200009fc <mTempAddrPoint>
    2de6:	0005c783          	lbu	a5,0(a1) # f0000000 <_eusrstack+0xcfffb000>
    2dea:	cbb9                	beqz	a5,2e40 <CHRV3FileOpen+0x110>
    2dec:	0e500d93          	li	s11,229
    2df0:	452d                	li	a0,11
    2df2:	05c00b93          	li	s7,92
    2df6:	03b78163          	beq	a5,s11,2e18 <CHRV3FileOpen+0xe8>
    2dfa:	4715                	li	a4,5
    2dfc:	00e79463          	bne	a5,a4,2e04 <CHRV3FileOpen+0xd4>
    2e00:	0e500793          	li	a5,229
    2e04:	1d81a803          	lw	a6,472(gp) # 20000a38 <mCurrentName>
    2e08:	00084683          	lbu	a3,0(a6) # 8008000 <_bootloader_limit+0x8000000>
    2e0c:	08f68863          	beq	a3,a5,2e9c <CHRV3FileOpen+0x16c>
    2e10:	02a00713          	li	a4,42
    2e14:	08e68463          	beq	a3,a4,2e9c <CHRV3FileOpen+0x16c>
    2e18:	1ae1d783          	lhu	a5,430(gp) # 20000a0e <CHRV3vFdtOffset>
    2e1c:	1ac1d703          	lhu	a4,428(gp) # 20000a0c <CHRV3vSectorSize>
    2e20:	02078793          	addi	a5,a5,32
    2e24:	07c2                	slli	a5,a5,0x10
    2e26:	83c1                	srli	a5,a5,0x10
    2e28:	1af19723          	sh	a5,430(gp) # 20000a0e <CHRV3vFdtOffset>
    2e2c:	1ae7fb63          	bgeu	a5,a4,2fe2 <CHRV3FileOpen+0x2b2>
    2e30:	1801a583          	lw	a1,384(gp) # 200009e0 <pDISK_BASE_BUF>
    2e34:	95be                	add	a1,a1,a5
    2e36:	18b1ae23          	sw	a1,412(gp) # 200009fc <mTempAddrPoint>
    2e3a:	0005c783          	lbu	a5,0(a1)
    2e3e:	ffc5                	bnez	a5,2df6 <CHRV3FileOpen+0xc6>
    2e40:	1d81a683          	lw	a3,472(gp) # 20000a38 <mCurrentName>
    2e44:	4781                	li	a5,0
    2e46:	02a00613          	li	a2,42
    2e4a:	05c00593          	li	a1,92
    2e4e:	02f00513          	li	a0,47
    2e52:	a039                	j	2e60 <CHRV3FileOpen+0x130>
    2e54:	00c70e63          	beq	a4,a2,2e70 <CHRV3FileOpen+0x140>
    2e58:	22b70363          	beq	a4,a1,307e <CHRV3FileOpen+0x34e>
    2e5c:	22a70163          	beq	a4,a0,307e <CHRV3FileOpen+0x34e>
    2e60:	00f68733          	add	a4,a3,a5
    2e64:	00074703          	lbu	a4,0(a4)
    2e68:	0785                	addi	a5,a5,1
    2e6a:	0ff7f793          	andi	a5,a5,255
    2e6e:	f37d                	bnez	a4,2e54 <CHRV3FileOpen+0x124>
    2e70:	04200513          	li	a0,66
    2e74:	a029                	j	2e7e <CHRV3FileOpen+0x14e>
    2e76:	c7ffe0ef          	jal	ra,1af4 <mUpdateStatus.part.1>
    2e7a:	ee0506e3          	beqz	a0,2d66 <CHRV3FileOpen+0x36>
    2e7e:	40b6                	lw	ra,76(sp)
    2e80:	4426                	lw	s0,72(sp)
    2e82:	4496                	lw	s1,68(sp)
    2e84:	4906                	lw	s2,64(sp)
    2e86:	59f2                	lw	s3,60(sp)
    2e88:	5a62                	lw	s4,56(sp)
    2e8a:	5ad2                	lw	s5,52(sp)
    2e8c:	5b42                	lw	s6,48(sp)
    2e8e:	5bb2                	lw	s7,44(sp)
    2e90:	5c22                	lw	s8,40(sp)
    2e92:	5c92                	lw	s9,36(sp)
    2e94:	5d02                	lw	s10,32(sp)
    2e96:	4df2                	lw	s11,28(sp)
    2e98:	6161                	addi	sp,sp,80
    2e9a:	8082                	ret
    2e9c:	8e9d                	sub	a3,a3,a5
    2e9e:	0016b693          	seqz	a3,a3
    2ea2:	8736                	mv	a4,a3
    2ea4:	00d40123          	sb	a3,2(s0)
    2ea8:	00d58633          	add	a2,a1,a3
    2eac:	00e807b3          	add	a5,a6,a4
    2eb0:	0007c783          	lbu	a5,0(a5)
    2eb4:	00064603          	lbu	a2,0(a2)
    2eb8:	02f00893          	li	a7,47
    2ebc:	02e00313          	li	t1,46
    2ec0:	4e21                	li	t3,8
    2ec2:	02000e93          	li	t4,32
    2ec6:	00170f13          	addi	t5,a4,1
    2eca:	02c78e63          	beq	a5,a2,2f06 <CHRV3FileOpen+0x1d6>
    2ece:	c7f9                	beqz	a5,2f9c <CHRV3FileOpen+0x26c>
    2ed0:	0d778663          	beq	a5,s7,2f9c <CHRV3FileOpen+0x26c>
    2ed4:	0d178463          	beq	a5,a7,2f9c <CHRV3FileOpen+0x26c>
    2ed8:	0c679d63          	bne	a5,t1,2fb2 <CHRV3FileOpen+0x282>
    2edc:	01c70463          	beq	a4,t3,2ee4 <CHRV3FileOpen+0x1b4>
    2ee0:	15d61a63          	bne	a2,t4,3034 <CHRV3FileOpen+0x304>
    2ee4:	01e40123          	sb	t5,2(s0)
    2ee8:	46a1                	li	a3,8
    2eea:	00244703          	lbu	a4,2(s0)
    2eee:	00d58633          	add	a2,a1,a3
    2ef2:	00064603          	lbu	a2,0(a2)
    2ef6:	00e807b3          	add	a5,a6,a4
    2efa:	0007c783          	lbu	a5,0(a5)
    2efe:	00170f13          	addi	t5,a4,1
    2f02:	fcc796e3          	bne	a5,a2,2ece <CHRV3FileOpen+0x19e>
    2f06:	0705                	addi	a4,a4,1
    2f08:	0685                	addi	a3,a3,1
    2f0a:	0ff77713          	andi	a4,a4,255
    2f0e:	00e40123          	sb	a4,2(s0)
    2f12:	0ff6f693          	andi	a3,a3,255
    2f16:	fca69ae3          	bne	a3,a0,2eea <CHRV3FileOpen+0x1ba>
    2f1a:	9742                	add	a4,a4,a6
    2f1c:	00074783          	lbu	a5,0(a4)
    2f20:	00f401a3          	sb	a5,3(s0)
    2f24:	00b5c783          	lbu	a5,11(a1)
    2f28:	8ba1                	andi	a5,a5,8
    2f2a:	ee0797e3          	bnez	a5,2e18 <CHRV3FileOpen+0xe8>
    2f2e:	1c018223          	sb	zero,452(gp) # 20000a24 <mLinkEndOfClus>
    2f32:	19c1a783          	lw	a5,412(gp) # 200009fc <mTempAddrPoint>
    2f36:	45a2                	lw	a1,8(sp)
    2f38:	01a7d683          	lhu	a3,26(a5)
    2f3c:	16d1c603          	lbu	a2,365(gp) # 200009cd <CHRV3vDiskFat>
    2f40:	470d                	li	a4,3
    2f42:	16d1aa23          	sw	a3,372(gp) # 200009d4 <CHRV3vStartCluster>
    2f46:	00e61863          	bne	a2,a4,2f56 <CHRV3FileOpen+0x226>
    2f4a:	0147d703          	lhu	a4,20(a5)
    2f4e:	0742                	slli	a4,a4,0x10
    2f50:	8ed9                	or	a3,a3,a4
    2f52:	16d1aa23          	sw	a3,372(gp) # 200009d4 <CHRV3vStartCluster>
    2f56:	00344703          	lbu	a4,3(s0)
    2f5a:	24070b63          	beqz	a4,31b0 <CHRV3FileOpen+0x480>
    2f5e:	1c41c703          	lbu	a4,452(gp) # 20000a24 <mLinkEndOfClus>
    2f62:	24071763          	bnez	a4,31b0 <CHRV3FileOpen+0x480>
    2f66:	00244703          	lbu	a4,2(s0)
    2f6a:	1d81a783          	lw	a5,472(gp) # 20000a38 <mCurrentName>
    2f6e:	0705                	addi	a4,a4,1
    2f70:	97ba                	add	a5,a5,a4
    2f72:	1cf1ac23          	sw	a5,472(gp) # 20000a38 <mCurrentName>
    2f76:	47b2                	lw	a5,12(sp)
    2f78:	1d41a783          	lw	a5,468(gp) # 20000a34 <CHRV3vDataStart>
    2f7c:	e20697e3          	bnez	a3,2daa <CHRV3FileOpen+0x7a>
    2f80:	1701a703          	lw	a4,368(gp) # 200009d0 <CHRV3vDiskRoot>
    2f84:	0ff77693          	andi	a3,a4,255
    2f88:	8f95                	sub	a5,a5,a3
    2f8a:	0ff77713          	andi	a4,a4,255
    2f8e:	1ee184a3          	sb	a4,489(gp) # 20000a49 <mCurSecOffset>
    2f92:	1af1ac23          	sw	a5,440(gp) # 20000a18 <CHRV3vFdtLba>
    2f96:	e20719e3          	bnez	a4,2dc8 <CHRV3FileOpen+0x98>
    2f9a:	b55d                	j	2e40 <CHRV3FileOpen+0x110>
    2f9c:	02000713          	li	a4,32
    2fa0:	02e61e63          	bne	a2,a4,2fdc <CHRV3FileOpen+0x2ac>
    2fa4:	471d                	li	a4,7
    2fa6:	f6d76de3          	bltu	a4,a3,2f20 <CHRV3FileOpen+0x1f0>
    2faa:	0085c703          	lbu	a4,8(a1)
    2fae:	f6c709e3          	beq	a4,a2,2f20 <CHRV3FileOpen+0x1f0>
    2fb2:	00f401a3          	sb	a5,3(s0)
    2fb6:	02a00713          	li	a4,42
    2fba:	e4e79fe3          	bne	a5,a4,2e18 <CHRV3FileOpen+0xe8>
    2fbe:	00b5c783          	lbu	a5,11(a1)
    2fc2:	8ba1                	andi	a5,a5,8
    2fc4:	e4079ae3          	bnez	a5,2e18 <CHRV3FileOpen+0xe8>
    2fc8:	1a81a783          	lw	a5,424(gp) # 20000a08 <CHRV3vFileSize>
    2fcc:	14078963          	beqz	a5,311e <CHRV3FileOpen+0x3ee>
    2fd0:	1207c163          	bltz	a5,30f2 <CHRV3FileOpen+0x3c2>
    2fd4:	17fd                	addi	a5,a5,-1
    2fd6:	1af1a423          	sw	a5,424(gp) # 20000a08 <CHRV3vFileSize>
    2fda:	bd3d                	j	2e18 <CHRV3FileOpen+0xe8>
    2fdc:	00f401a3          	sb	a5,3(s0)
    2fe0:	bd25                	j	2e18 <CHRV3FileOpen+0xe8>
    2fe2:	1e91c703          	lbu	a4,489(gp) # 20000a49 <mCurSecOffset>
    2fe6:	1b81a783          	lw	a5,440(gp) # 20000a18 <CHRV3vFdtLba>
    2fea:	177d                	addi	a4,a4,-1
    2fec:	0785                	addi	a5,a5,1
    2fee:	0ff77713          	andi	a4,a4,255
    2ff2:	1af1ac23          	sw	a5,440(gp) # 20000a18 <CHRV3vFdtLba>
    2ff6:	1ee184a3          	sb	a4,489(gp) # 20000a49 <mCurSecOffset>
    2ffa:	dc0717e3          	bnez	a4,2dc8 <CHRV3FileOpen+0x98>
    2ffe:	47a2                	lw	a5,8(sp)
    3000:	1741a683          	lw	a3,372(gp) # 200009d4 <CHRV3vStartCluster>
    3004:	e2068ee3          	beqz	a3,2e40 <CHRV3FileOpen+0x110>
    3008:	4501                	li	a0,0
    300a:	16d1a023          	sw	a3,352(gp) # 200009c0 <mLinkClusSource>
    300e:	aa7ff0ef          	jal	ra,2ab4 <CHRV3s20>
    3012:	e60516e3          	bnez	a0,2e7e <CHRV3FileOpen+0x14e>
    3016:	1c41c783          	lbu	a5,452(gp) # 20000a24 <mLinkEndOfClus>
    301a:	e20793e3          	bnez	a5,2e40 <CHRV3FileOpen+0x110>
    301e:	1781a683          	lw	a3,376(gp) # 200009d8 <mValue>
    3022:	47a2                	lw	a5,8(sp)
    3024:	16d1aa23          	sw	a3,372(gp) # 200009d4 <CHRV3vStartCluster>
    3028:	b7b9                	j	2f76 <CHRV3FileOpen+0x246>
    302a:	ddeff0ef          	jal	ra,2608 <CHRV3s11>
    302e:	d20504e3          	beqz	a0,2d56 <CHRV3FileOpen+0x26>
    3032:	b5b1                	j	2e7e <CHRV3FileOpen+0x14e>
    3034:	006401a3          	sb	t1,3(s0)
    3038:	b3c5                	j	2e18 <CHRV3FileOpen+0xe8>
    303a:	04200793          	li	a5,66
    303e:	d4d7fae3          	bgeu	a5,a3,2d92 <CHRV3FileOpen+0x62>
    3042:	11f18713          	addi	a4,gp,287 # 2000097f <mCmdParam+0x3>
    3046:	1ce1ac23          	sw	a4,472(gp) # 20000a38 <mCurrentName>
    304a:	11f18793          	addi	a5,gp,287 # 2000097f <mCmdParam+0x3>
    304e:	a089                	j	3090 <CHRV3FileOpen+0x360>
    3050:	4fd8                	lw	a4,28(a5)
    3052:	1ae1a423          	sw	a4,424(gp) # 20000a08 <CHRV3vFileSize>
    3056:	e691                	bnez	a3,3062 <CHRV3FileOpen+0x332>
    3058:	577d                	li	a4,-1
    305a:	1ee184a3          	sb	a4,489(gp) # 20000a49 <mCurSecOffset>
    305e:	1a01a423          	sw	zero,424(gp) # 20000a08 <CHRV3vFileSize>
    3062:	1981c783          	lbu	a5,408(gp) # 200009f8 <CHRV3DiskStatus>
    3066:	473d                	li	a4,15
    3068:	18f77863          	bgeu	a4,a5,31f8 <CHRV3FileOpen+0x4c8>
    306c:	47d1                	li	a5,20
    306e:	18f18c23          	sb	a5,408(gp) # 200009f8 <CHRV3DiskStatus>
    3072:	1c41c783          	lbu	a5,452(gp) # 20000a24 <mLinkEndOfClus>
    3076:	16079963          	bnez	a5,31e8 <CHRV3FileOpen+0x4b8>
    307a:	4501                	li	a0,0
    307c:	b509                	j	2e7e <CHRV3FileOpen+0x14e>
    307e:	0b300513          	li	a0,179
    3082:	bbf5                	j	2e7e <CHRV3FileOpen+0x14e>
    3084:	11d18713          	addi	a4,gp,285 # 2000097d <mCmdParam+0x1>
    3088:	1ce1ac23          	sw	a4,472(gp) # 20000a38 <mCurrentName>
    308c:	11d18793          	addi	a5,gp,285 # 2000097d <mCmdParam+0x1>
    3090:	16d1c683          	lbu	a3,365(gp) # 200009cd <CHRV3vDiskFat>
    3094:	470d                	li	a4,3
    3096:	06e68463          	beq	a3,a4,30fe <CHRV3FileOpen+0x3ce>
    309a:	0007c703          	lbu	a4,0(a5)
    309e:	c43e                	sw	a5,8(sp)
    30a0:	c636                	sw	a3,12(sp)
    30a2:	1601aa23          	sw	zero,372(gp) # 200009d4 <CHRV3vStartCluster>
    30a6:	1d41a783          	lw	a5,468(gp) # 20000a34 <CHRV3vDataStart>
    30aa:	4681                	li	a3,0
    30ac:	ce071be3          	bnez	a4,2da2 <CHRV3FileOpen+0x72>
    30b0:	1701a683          	lw	a3,368(gp) # 200009d0 <CHRV3vDiskRoot>
    30b4:	1dd1c603          	lbu	a2,477(gp) # 20000a3d <CHRV3vSectorSizeB>
    30b8:	45a2                	lw	a1,8(sp)
    30ba:	0ff6f713          	andi	a4,a3,255
    30be:	8f99                	sub	a5,a5,a4
    30c0:	00c71733          	sll	a4,a4,a2
    30c4:	4609                	li	a2,2
    30c6:	16c1aa23          	sw	a2,372(gp) # 200009d4 <CHRV3vStartCluster>
    30ca:	1cd18023          	sb	a3,448(gp) # 20000a20 <CHRV3vSecPerClus>
    30ce:	46b2                	lw	a3,12(sp)
    30d0:	1cf1aa23          	sw	a5,468(gp) # 20000a34 <CHRV3vDataStart>
    30d4:	1ae1a423          	sw	a4,424(gp) # 20000a08 <CHRV3vFileSize>
    30d8:	4689                	li	a3,2
    30da:	1ad1aa23          	sw	a3,436(gp) # 20000a14 <mCurrentCluster>
    30de:	1801a223          	sw	zero,388(gp) # 200009e4 <CHRV3vCurrentOffset>
    30e2:	1e0184a3          	sb	zero,489(gp) # 20000a49 <mCurSecOffset>
    30e6:	47c9                	li	a5,18
    30e8:	18f18c23          	sb	a5,408(gp) # 200009f8 <CHRV3DiskStatus>
    30ec:	04100513          	li	a0,65
    30f0:	b379                	j	2e7e <CHRV3FileOpen+0x14e>
    30f2:	d0afe0ef          	jal	ra,15fc <xFileNameEnumer>
    30f6:	1a81a783          	lw	a5,424(gp) # 20000a08 <CHRV3vFileSize>
    30fa:	452d                	li	a0,11
    30fc:	bde1                	j	2fd4 <CHRV3FileOpen+0x2a4>
    30fe:	1701a683          	lw	a3,368(gp) # 200009d0 <CHRV3vDiskRoot>
    3102:	0007c783          	lbu	a5,0(a5)
    3106:	c43a                	sw	a4,8(sp)
    3108:	16d1aa23          	sw	a3,372(gp) # 200009d4 <CHRV3vStartCluster>
    310c:	c789                	beqz	a5,3116 <CHRV3FileOpen+0x3e6>
    310e:	c63e                	sw	a5,12(sp)
    3110:	1d41a783          	lw	a5,468(gp) # 20000a34 <CHRV3vDataStart>
    3114:	b179                	j	2da2 <CHRV3FileOpen+0x72>
    3116:	577d                	li	a4,-1
    3118:	1ae1a423          	sw	a4,424(gp) # 20000a08 <CHRV3vFileSize>
    311c:	bf7d                	j	30da <CHRV3FileOpen+0x3aa>
    311e:	16018c23          	sb	zero,376(gp) # 200009d8 <mValue>
    3122:	1d81a783          	lw	a5,472(gp) # 20000a38 <mCurrentName>
    3126:	4701                	li	a4,0
    3128:	02000513          	li	a0,32
    312c:	4821                	li	a6,8
    312e:	4e15                	li	t3,5
    3130:	5315                	li	t1,-27
    3132:	02e00893          	li	a7,46
    3136:	45ad                	li	a1,11
    3138:	a81d                	j	316e <CHRV3FileOpen+0x43e>
    313a:	00d60023          	sb	a3,0(a2)
    313e:	1781c783          	lbu	a5,376(gp) # 200009d8 <mValue>
    3142:	1d81a683          	lw	a3,472(gp) # 20000a38 <mCurrentName>
    3146:	eb99                	bnez	a5,315c <CHRV3FileOpen+0x42c>
    3148:	0006c603          	lbu	a2,0(a3)
    314c:	01c61863          	bne	a2,t3,315c <CHRV3FileOpen+0x42c>
    3150:	00668023          	sb	t1,0(a3)
    3154:	1781c783          	lbu	a5,376(gp) # 200009d8 <mValue>
    3158:	1d81a683          	lw	a3,472(gp) # 20000a38 <mCurrentName>
    315c:	0785                	addi	a5,a5,1
    315e:	0ff7f793          	andi	a5,a5,255
    3162:	16f18c23          	sb	a5,376(gp) # 200009d8 <mValue>
    3166:	97b6                	add	a5,a5,a3
    3168:	0705                	addi	a4,a4,1
    316a:	02b70d63          	beq	a4,a1,31a4 <CHRV3FileOpen+0x474>
    316e:	19c1a683          	lw	a3,412(gp) # 200009fc <mTempAddrPoint>
    3172:	863e                	mv	a2,a5
    3174:	96ba                	add	a3,a3,a4
    3176:	0006c683          	lbu	a3,0(a3)
    317a:	fea687e3          	beq	a3,a0,3168 <CHRV3FileOpen+0x438>
    317e:	fb071ee3          	bne	a4,a6,313a <CHRV3FileOpen+0x40a>
    3182:	01178023          	sb	a7,0(a5)
    3186:	1781c783          	lbu	a5,376(gp) # 200009d8 <mValue>
    318a:	19c1a683          	lw	a3,412(gp) # 200009fc <mTempAddrPoint>
    318e:	1d81a603          	lw	a2,472(gp) # 20000a38 <mCurrentName>
    3192:	0785                	addi	a5,a5,1
    3194:	0ff7f793          	andi	a5,a5,255
    3198:	16f18c23          	sb	a5,376(gp) # 200009d8 <mValue>
    319c:	0086c683          	lbu	a3,8(a3)
    31a0:	963e                	add	a2,a2,a5
    31a2:	bf61                	j	313a <CHRV3FileOpen+0x40a>
    31a4:	00078023          	sb	zero,0(a5)
    31a8:	4785                	li	a5,1
    31aa:	1cf18223          	sb	a5,452(gp) # 20000a24 <mLinkEndOfClus>
    31ae:	b351                	j	2f32 <CHRV3FileOpen+0x202>
    31b0:	00b7c703          	lbu	a4,11(a5)
    31b4:	1ad1aa23          	sw	a3,436(gp) # 20000a14 <mCurrentCluster>
    31b8:	1801a223          	sw	zero,388(gp) # 200009e4 <CHRV3vCurrentOffset>
    31bc:	1e0184a3          	sb	zero,489(gp) # 20000a49 <mCurSecOffset>
    31c0:	8b41                	andi	a4,a4,16
    31c2:	e80707e3          	beqz	a4,3050 <CHRV3FileOpen+0x320>
    31c6:	1981c783          	lbu	a5,408(gp) # 200009f8 <CHRV3DiskStatus>
    31ca:	56fd                	li	a3,-1
    31cc:	1ad1a423          	sw	a3,424(gp) # 20000a08 <CHRV3vFileSize>
    31d0:	473d                	li	a4,15
    31d2:	00f77e63          	bgeu	a4,a5,31ee <CHRV3FileOpen+0x4be>
    31d6:	47cd                	li	a5,19
    31d8:	18f18c23          	sb	a5,408(gp) # 200009f8 <CHRV3DiskStatus>
    31dc:	1c41c783          	lbu	a5,452(gp) # 20000a24 <mLinkEndOfClus>
    31e0:	04100513          	li	a0,65
    31e4:	c8078de3          	beqz	a5,2e7e <CHRV3FileOpen+0x14e>
    31e8:	04300513          	li	a0,67
    31ec:	b949                	j	2e7e <CHRV3FileOpen+0x14e>
    31ee:	907fe0ef          	jal	ra,1af4 <mUpdateStatus.part.1>
    31f2:	c80516e3          	bnez	a0,2e7e <CHRV3FileOpen+0x14e>
    31f6:	b7dd                	j	31dc <CHRV3FileOpen+0x4ac>
    31f8:	8fdfe0ef          	jal	ra,1af4 <mUpdateStatus.part.1>
    31fc:	c80511e3          	bnez	a0,2e7e <CHRV3FileOpen+0x14e>
    3200:	bd8d                	j	3072 <CHRV3FileOpen+0x342>

00003202 <mModifyFileSize>:
mModifyFileSize():
    3202:	1981c783          	lbu	a5,408(gp) # 200009f8 <CHRV3DiskStatus>
    3206:	1e018523          	sb	zero,490(gp) # 20000a4a <mFileSizeChanged>
    320a:	474d                	li	a4,19
    320c:	00f76463          	bltu	a4,a5,3214 <mModifyFileSize+0x12>
    3210:	4501                	li	a0,0
    3212:	8082                	ret
    3214:	1b81a703          	lw	a4,440(gp) # 20000a18 <CHRV3vFdtLba>
    3218:	1141                	addi	sp,sp,-16
    321a:	c606                	sw	ra,12(sp)
    321c:	18e1aa23          	sw	a4,404(gp) # 200009f4 <CHRV3vLbaCurrent>
    3220:	951fe0ef          	jal	ra,1b70 <mReadSectorFDT>
    3224:	ed09                	bnez	a0,323e <mModifyFileSize+0x3c>
    3226:	1ae1d703          	lhu	a4,430(gp) # 20000a0e <CHRV3vFdtOffset>
    322a:	1801a783          	lw	a5,384(gp) # 200009e0 <pDISK_BASE_BUF>
    322e:	4501                	li	a0,0
    3230:	97ba                	add	a5,a5,a4
    3232:	00b7c703          	lbu	a4,11(a5)
    3236:	18f1ae23          	sw	a5,412(gp) # 200009fc <mTempAddrPoint>
    323a:	8b41                	andi	a4,a4,16
    323c:	c701                	beqz	a4,3244 <mModifyFileSize+0x42>
    323e:	40b2                	lw	ra,12(sp)
    3240:	0141                	addi	sp,sp,16
    3242:	8082                	ret
    3244:	1a81a703          	lw	a4,424(gp) # 20000a08 <CHRV3vFileSize>
    3248:	40b2                	lw	ra,12(sp)
    324a:	cfd8                	sw	a4,28(a5)
    324c:	0141                	addi	sp,sp,16
    324e:	9cbfe06f          	j	1c18 <mWriteSectorFDT>

00003252 <CHRV3FileClose>:
CHRV3FileClose():
    3252:	1141                	addi	sp,sp,-16
    3254:	c422                	sw	s0,8(sp)
    3256:	1981c783          	lbu	a5,408(gp) # 200009f8 <CHRV3DiskStatus>
    325a:	c606                	sw	ra,12(sp)
    325c:	4745                	li	a4,17
    325e:	0ff7f793          	andi	a5,a5,255
    3262:	08f77263          	bgeu	a4,a5,32e6 <CHRV3FileClose+0x94>
    3266:	4749                	li	a4,18
    3268:	04e78b63          	beq	a5,a4,32be <CHRV3FileClose+0x6c>
    326c:	1981c783          	lbu	a5,408(gp) # 200009f8 <CHRV3DiskStatus>
    3270:	474d                	li	a4,19
    3272:	0ff7f793          	andi	a5,a5,255
    3276:	02f76163          	bltu	a4,a5,3298 <CHRV3FileClose+0x46>
    327a:	1e018523          	sb	zero,490(gp) # 20000a4a <mFileSizeChanged>
    327e:	1981c783          	lbu	a5,408(gp) # 200009f8 <CHRV3DiskStatus>
    3282:	473d                	li	a4,15
    3284:	02f77863          	bgeu	a4,a5,32b4 <CHRV3FileClose+0x62>
    3288:	47c1                	li	a5,16
    328a:	18f18c23          	sb	a5,408(gp) # 200009f8 <CHRV3DiskStatus>
    328e:	4501                	li	a0,0
    3290:	40b2                	lw	ra,12(sp)
    3292:	4422                	lw	s0,8(sp)
    3294:	0141                	addi	sp,sp,16
    3296:	8082                	ret
    3298:	4751                	li	a4,20
    329a:	04e78c63          	beq	a5,a4,32f2 <CHRV3FileClose+0xa0>
    329e:	1ea1c783          	lbu	a5,490(gp) # 20000a4a <mFileSizeChanged>
    32a2:	dff1                	beqz	a5,327e <CHRV3FileClose+0x2c>
    32a4:	f5fff0ef          	jal	ra,3202 <mModifyFileSize>
    32a8:	f565                	bnez	a0,3290 <CHRV3FileClose+0x3e>
    32aa:	1981c783          	lbu	a5,408(gp) # 200009f8 <CHRV3DiskStatus>
    32ae:	473d                	li	a4,15
    32b0:	fcf76ce3          	bltu	a4,a5,3288 <CHRV3FileClose+0x36>
    32b4:	4422                	lw	s0,8(sp)
    32b6:	40b2                	lw	ra,12(sp)
    32b8:	0141                	addi	sp,sp,16
    32ba:	83bfe06f          	j	1af4 <mUpdateStatus.part.1>
    32be:	16d1c703          	lbu	a4,365(gp) # 200009cd <CHRV3vDiskFat>
    32c2:	478d                	li	a5,3
    32c4:	faf704e3          	beq	a4,a5,326c <CHRV3FileClose+0x1a>
    32c8:	1641c583          	lbu	a1,356(gp) # 200009c4 <mDiskSecPerClusB>
    32cc:	1d41a603          	lw	a2,468(gp) # 20000a34 <CHRV3vDataStart>
    32d0:	1701c783          	lbu	a5,368(gp) # 200009d0 <CHRV3vDiskRoot>
    32d4:	4705                	li	a4,1
    32d6:	00b71733          	sll	a4,a4,a1
    32da:	97b2                	add	a5,a5,a2
    32dc:	1ce18023          	sb	a4,448(gp) # 20000a20 <CHRV3vSecPerClus>
    32e0:	1cf1aa23          	sw	a5,468(gp) # 20000a34 <CHRV3vDataStart>
    32e4:	b761                	j	326c <CHRV3FileClose+0x1a>
    32e6:	40b2                	lw	ra,12(sp)
    32e8:	4422                	lw	s0,8(sp)
    32ea:	0b400513          	li	a0,180
    32ee:	0141                	addi	sp,sp,16
    32f0:	8082                	ret
    32f2:	11c1c783          	lbu	a5,284(gp) # 2000097c <mCmdParam>
    32f6:	f7c5                	bnez	a5,329e <CHRV3FileClose+0x4c>
    32f8:	b749                	j	327a <CHRV3FileClose+0x28>

000032fa <CHRV3s25.part.0>:
CHRV3s25.part.0():
    32fa:	1741a703          	lw	a4,372(gp) # 200009d4 <CHRV3vStartCluster>
    32fe:	45d5                	li	a1,21
    3300:	00173793          	seqz	a5,a4
    3304:	1ae1aa23          	sw	a4,436(gp) # 20000a14 <mCurrentCluster>
    3308:	40f007b3          	neg	a5,a5
    330c:	1801a223          	sw	zero,388(gp) # 200009e4 <CHRV3vCurrentOffset>
    3310:	4551                	li	a0,20
    3312:	1ef184a3          	sb	a5,489(gp) # 20000a49 <mCurSecOffset>
    3316:	96dfe06f          	j	1c82 <mUpdateStatus>

0000331a <CHRV3ByteRead>:
CHRV3ByteRead():
    331a:	1981c703          	lbu	a4,408(gp) # 200009f8 <CHRV3DiskStatus>
    331e:	7139                	addi	sp,sp,-64
    3320:	de06                	sw	ra,60(sp)
    3322:	dc22                	sw	s0,56(sp)
    3324:	da26                	sw	s1,52(sp)
    3326:	d84a                	sw	s2,48(sp)
    3328:	d64e                	sw	s3,44(sp)
    332a:	d452                	sw	s4,40(sp)
    332c:	d256                	sw	s5,36(sp)
    332e:	d05a                	sw	s6,32(sp)
    3330:	ce5e                	sw	s7,28(sp)
    3332:	cc62                	sw	s8,24(sp)
    3334:	ca66                	sw	s9,20(sp)
    3336:	c86a                	sw	s10,16(sp)
    3338:	c66e                	sw	s11,12(sp)
    333a:	46d5                	li	a3,21
    333c:	00e68d63          	beq	a3,a4,3356 <CHRV3ByteRead+0x3c>
    3340:	1981c783          	lbu	a5,408(gp) # 200009f8 <CHRV3DiskStatus>
    3344:	4751                	li	a4,20
    3346:	0b400513          	li	a0,180
    334a:	12f71863          	bne	a4,a5,347a <CHRV3ByteRead+0x160>
    334e:	fadff0ef          	jal	ra,32fa <CHRV3s25.part.0>
    3352:	12051463          	bnez	a0,347a <CHRV3ByteRead+0x160>
    3356:	11c1d783          	lhu	a5,284(gp) # 2000097c <mCmdParam>
    335a:	1e91c683          	lbu	a3,489(gp) # 20000a49 <mCurSecOffset>
    335e:	11c18d93          	addi	s11,gp,284 # 2000097c <mCmdParam>
    3362:	00fd9423          	sh	a5,8(s11)
    3366:	10019e23          	sh	zero,284(gp) # 2000097c <mCmdParam>
    336a:	0ff00713          	li	a4,255
    336e:	10e68563          	beq	a3,a4,3478 <CHRV3ByteRead+0x15e>
    3372:	6a41                	lui	s4,0x10
    3374:	fffa0b13          	addi	s6,s4,-1 # ffff <_bootloader_limit+0x7fff>
    3378:	10078063          	beqz	a5,3478 <CHRV3ByteRead+0x15e>
    337c:	1a81a703          	lw	a4,424(gp) # 20000a08 <CHRV3vFileSize>
    3380:	1841a783          	lw	a5,388(gp) # 200009e4 <CHRV3vCurrentOffset>
    3384:	0ee7fa63          	bgeu	a5,a4,3478 <CHRV3ByteRead+0x15e>
    3388:	8d7fe0ef          	jal	ra,1c5e <mClusterToLba>
    338c:	1a81a783          	lw	a5,424(gp) # 20000a08 <CHRV3vFileSize>
    3390:	0147e363          	bltu	a5,s4,3396 <CHRV3ByteRead+0x7c>
    3394:	87da                	mv	a5,s6
    3396:	008dd703          	lhu	a4,8(s11)
    339a:	07c2                	slli	a5,a5,0x10
    339c:	83c1                	srli	a5,a5,0x10
    339e:	00e7f363          	bgeu	a5,a4,33a4 <CHRV3ByteRead+0x8a>
    33a2:	873e                	mv	a4,a5
    33a4:	1ac1d783          	lhu	a5,428(gp) # 20000a0c <CHRV3vSectorSize>
    33a8:	1841a603          	lw	a2,388(gp) # 200009e4 <CHRV3vCurrentOffset>
    33ac:	86ba                	mv	a3,a4
    33ae:	fff78c93          	addi	s9,a5,-1
    33b2:	00ccfcb3          	and	s9,s9,a2
    33b6:	0cc2                	slli	s9,s9,0x10
    33b8:	010cdc93          	srli	s9,s9,0x10
    33bc:	0cf76f63          	bltu	a4,a5,349a <CHRV3ByteRead+0x180>
    33c0:	0c0c9d63          	bnez	s9,349a <CHRV3ByteRead+0x180>
    33c4:	11c1d683          	lhu	a3,284(gp) # 2000097c <mCmdParam>
    33c8:	004da583          	lw	a1,4(s11)
    33cc:	95b6                	add	a1,a1,a3
    33ce:	0035f693          	andi	a3,a1,3
    33d2:	e2f9                	bnez	a3,3498 <CHRV3ByteRead+0x17e>
    33d4:	1dd1c503          	lbu	a0,477(gp) # 20000a3d <CHRV3vSectorSizeB>
    33d8:	1c01c783          	lbu	a5,448(gp) # 20000a20 <CHRV3vSecPerClus>
    33dc:	1e91c603          	lbu	a2,489(gp) # 20000a49 <mCurSecOffset>
    33e0:	40a75733          	sra	a4,a4,a0
    33e4:	0742                	slli	a4,a4,0x10
    33e6:	8f91                	sub	a5,a5,a2
    33e8:	8341                	srli	a4,a4,0x10
    33ea:	0ff7f793          	andi	a5,a5,255
    33ee:	00f77363          	bgeu	a4,a5,33f4 <CHRV3ByteRead+0xda>
    33f2:	87ba                	mv	a5,a4
    33f4:	01079c93          	slli	s9,a5,0x10
    33f8:	010cdc93          	srli	s9,s9,0x10
    33fc:	0ffcfc13          	andi	s8,s9,255
    3400:	8562                	mv	a0,s8
    3402:	ffffd0ef          	jal	ra,1400 <CHRV3ReadSector>
    3406:	e935                	bnez	a0,347a <CHRV3ByteRead+0x160>
    3408:	1dd1c783          	lbu	a5,477(gp) # 20000a3d <CHRV3vSectorSizeB>
    340c:	008dd603          	lhu	a2,8(s11)
    3410:	1e91c803          	lbu	a6,489(gp) # 20000a49 <mCurSecOffset>
    3414:	00fc97b3          	sll	a5,s9,a5
    3418:	01079693          	slli	a3,a5,0x10
    341c:	1841a503          	lw	a0,388(gp) # 200009e4 <CHRV3vCurrentOffset>
    3420:	11c1d583          	lhu	a1,284(gp) # 2000097c <mCmdParam>
    3424:	82c1                	srli	a3,a3,0x10
    3426:	0167fcb3          	and	s9,a5,s6
    342a:	40d607b3          	sub	a5,a2,a3
    342e:	010c0733          	add	a4,s8,a6
    3432:	07c2                	slli	a5,a5,0x10
    3434:	1c01c603          	lbu	a2,448(gp) # 20000a20 <CHRV3vSecPerClus>
    3438:	0ff77713          	andi	a4,a4,255
    343c:	9caa                	add	s9,s9,a0
    343e:	83c1                	srli	a5,a5,0x10
    3440:	96ae                	add	a3,a3,a1
    3442:	1ee184a3          	sb	a4,489(gp) # 20000a49 <mCurSecOffset>
    3446:	1991a223          	sw	s9,388(gp) # 200009e4 <CHRV3vCurrentOffset>
    344a:	00fd9423          	sh	a5,8(s11)
    344e:	10d19e23          	sh	a3,284(gp) # 2000097c <mCmdParam>
    3452:	f2c763e3          	bltu	a4,a2,3378 <CHRV3ByteRead+0x5e>
    3456:	1b41a783          	lw	a5,436(gp) # 20000a14 <mCurrentCluster>
    345a:	4501                	li	a0,0
    345c:	16f1a023          	sw	a5,352(gp) # 200009c0 <mLinkClusSource>
    3460:	e54ff0ef          	jal	ra,2ab4 <CHRV3s20>
    3464:	e919                	bnez	a0,347a <CHRV3ByteRead+0x160>
    3466:	1c41c783          	lbu	a5,452(gp) # 20000a24 <mLinkEndOfClus>
    346a:	ebe9                	bnez	a5,353c <CHRV3ByteRead+0x222>
    346c:	008dd783          	lhu	a5,8(s11)
    3470:	1e0184a3          	sb	zero,489(gp) # 20000a49 <mCurSecOffset>
    3474:	f00794e3          	bnez	a5,337c <CHRV3ByteRead+0x62>
    3478:	4501                	li	a0,0
    347a:	50f2                	lw	ra,60(sp)
    347c:	5462                	lw	s0,56(sp)
    347e:	54d2                	lw	s1,52(sp)
    3480:	5942                	lw	s2,48(sp)
    3482:	59b2                	lw	s3,44(sp)
    3484:	5a22                	lw	s4,40(sp)
    3486:	5a92                	lw	s5,36(sp)
    3488:	5b02                	lw	s6,32(sp)
    348a:	4bf2                	lw	s7,28(sp)
    348c:	4c62                	lw	s8,24(sp)
    348e:	4cd2                	lw	s9,20(sp)
    3490:	4d42                	lw	s10,16(sp)
    3492:	4db2                	lw	s11,12(sp)
    3494:	6121                	addi	sp,sp,64
    3496:	8082                	ret
    3498:	86be                	mv	a3,a5
    349a:	41978cb3          	sub	s9,a5,s9
    349e:	010c9793          	slli	a5,s9,0x10
    34a2:	83c1                	srli	a5,a5,0x10
    34a4:	00f6f363          	bgeu	a3,a5,34aa <CHRV3ByteRead+0x190>
    34a8:	8cb6                	mv	s9,a3
    34aa:	0cc2                	slli	s9,s9,0x10
    34ac:	010cdc93          	srli	s9,s9,0x10
    34b0:	ec0fe0ef          	jal	ra,1b70 <mReadSectorFDT>
    34b4:	f179                	bnez	a0,347a <CHRV3ByteRead+0x160>
    34b6:	1ac1d603          	lhu	a2,428(gp) # 20000a0c <CHRV3vSectorSize>
    34ba:	1841a683          	lw	a3,388(gp) # 200009e4 <CHRV3vCurrentOffset>
    34be:	1801a703          	lw	a4,384(gp) # 200009e0 <pDISK_BASE_BUF>
    34c2:	11c1d583          	lhu	a1,284(gp) # 2000097c <mCmdParam>
    34c6:	004da783          	lw	a5,4(s11)
    34ca:	167d                	addi	a2,a2,-1
    34cc:	00d67533          	and	a0,a2,a3
    34d0:	972a                	add	a4,a4,a0
    34d2:	97ae                	add	a5,a5,a1
    34d4:	020c8763          	beqz	s9,3502 <CHRV3ByteRead+0x1e8>
    34d8:	fffc8613          	addi	a2,s9,-1
    34dc:	0642                	slli	a2,a2,0x10
    34de:	8241                	srli	a2,a2,0x10
    34e0:	0605                	addi	a2,a2,1
    34e2:	963e                	add	a2,a2,a5
    34e4:	0705                	addi	a4,a4,1
    34e6:	fff74683          	lbu	a3,-1(a4)
    34ea:	0785                	addi	a5,a5,1
    34ec:	fed78fa3          	sb	a3,-1(a5)
    34f0:	fef61ae3          	bne	a2,a5,34e4 <CHRV3ByteRead+0x1ca>
    34f4:	1ac1d603          	lhu	a2,428(gp) # 20000a0c <CHRV3vSectorSize>
    34f8:	1841a683          	lw	a3,388(gp) # 200009e4 <CHRV3vCurrentOffset>
    34fc:	11c1d583          	lhu	a1,284(gp) # 2000097c <mCmdParam>
    3500:	167d                	addi	a2,a2,-1
    3502:	008dd783          	lhu	a5,8(s11)
    3506:	96e6                	add	a3,a3,s9
    3508:	95e6                	add	a1,a1,s9
    350a:	419787b3          	sub	a5,a5,s9
    350e:	07c2                	slli	a5,a5,0x10
    3510:	83c1                	srli	a5,a5,0x10
    3512:	18d1a223          	sw	a3,388(gp) # 200009e4 <CHRV3vCurrentOffset>
    3516:	00fd9423          	sh	a5,8(s11)
    351a:	10b19e23          	sh	a1,284(gp) # 2000097c <mCmdParam>
    351e:	8ef1                	and	a3,a3,a2
    3520:	e4069ce3          	bnez	a3,3378 <CHRV3ByteRead+0x5e>
    3524:	1e91c703          	lbu	a4,489(gp) # 20000a49 <mCurSecOffset>
    3528:	1c01c683          	lbu	a3,448(gp) # 20000a20 <CHRV3vSecPerClus>
    352c:	0705                	addi	a4,a4,1
    352e:	0ff77713          	andi	a4,a4,255
    3532:	1ee184a3          	sb	a4,489(gp) # 20000a49 <mCurSecOffset>
    3536:	f2d770e3          	bgeu	a4,a3,3456 <CHRV3ByteRead+0x13c>
    353a:	bd3d                	j	3378 <CHRV3ByteRead+0x5e>
    353c:	1841a783          	lw	a5,388(gp) # 200009e4 <CHRV3vCurrentOffset>
    3540:	577d                	li	a4,-1
    3542:	1ee184a3          	sb	a4,489(gp) # 20000a49 <mCurSecOffset>
    3546:	1af1a423          	sw	a5,424(gp) # 20000a08 <CHRV3vFileSize>
    354a:	bf05                	j	347a <CHRV3ByteRead+0x160>

0000354c <iprintf>:
printf():
    354c:	7139                	addi	sp,sp,-64
    354e:	da3e                	sw	a5,52(sp)
    3550:	d22e                	sw	a1,36(sp)
    3552:	d432                	sw	a2,40(sp)
    3554:	d636                	sw	a3,44(sp)
    3556:	d83a                	sw	a4,48(sp)
    3558:	dc42                	sw	a6,56(sp)
    355a:	de46                	sw	a7,60(sp)
    355c:	80818793          	addi	a5,gp,-2040 # 20000068 <_impure_ptr>
    3560:	cc22                	sw	s0,24(sp)
    3562:	4380                	lw	s0,0(a5)
    3564:	ca26                	sw	s1,20(sp)
    3566:	ce06                	sw	ra,28(sp)
    3568:	84aa                	mv	s1,a0
    356a:	c409                	beqz	s0,3574 <iprintf+0x28>
    356c:	4c1c                	lw	a5,24(s0)
    356e:	e399                	bnez	a5,3574 <iprintf+0x28>
    3570:	8522                	mv	a0,s0
    3572:	2b9d                	jal	3ae8 <__sinit>
    3574:	440c                	lw	a1,8(s0)
    3576:	1054                	addi	a3,sp,36
    3578:	8626                	mv	a2,s1
    357a:	8522                	mv	a0,s0
    357c:	c636                	sw	a3,12(sp)
    357e:	1cb000ef          	jal	ra,3f48 <_vfiprintf_r>
    3582:	40f2                	lw	ra,28(sp)
    3584:	4462                	lw	s0,24(sp)
    3586:	44d2                	lw	s1,20(sp)
    3588:	6121                	addi	sp,sp,64
    358a:	8082                	ret

0000358c <putchar>:
putchar():
    358c:	1101                	addi	sp,sp,-32
    358e:	80818793          	addi	a5,gp,-2040 # 20000068 <_impure_ptr>
    3592:	cc22                	sw	s0,24(sp)
    3594:	4380                	lw	s0,0(a5)
    3596:	ce06                	sw	ra,28(sp)
    3598:	85aa                	mv	a1,a0
    359a:	c419                	beqz	s0,35a8 <putchar+0x1c>
    359c:	4c1c                	lw	a5,24(s0)
    359e:	e789                	bnez	a5,35a8 <putchar+0x1c>
    35a0:	c62a                	sw	a0,12(sp)
    35a2:	8522                	mv	a0,s0
    35a4:	2391                	jal	3ae8 <__sinit>
    35a6:	45b2                	lw	a1,12(sp)
    35a8:	4410                	lw	a2,8(s0)
    35aa:	8522                	mv	a0,s0
    35ac:	4462                	lw	s0,24(sp)
    35ae:	40f2                	lw	ra,28(sp)
    35b0:	6105                	addi	sp,sp,32
    35b2:	7eb0006f          	j	459c <_putc_r>

000035b6 <_puts_r>:
_puts_r():
    35b6:	1101                	addi	sp,sp,-32
    35b8:	ca26                	sw	s1,20(sp)
    35ba:	c84a                	sw	s2,16(sp)
    35bc:	ce06                	sw	ra,28(sp)
    35be:	cc22                	sw	s0,24(sp)
    35c0:	c64e                	sw	s3,12(sp)
    35c2:	c452                	sw	s4,8(sp)
    35c4:	84aa                	mv	s1,a0
    35c6:	892e                	mv	s2,a1
    35c8:	c501                	beqz	a0,35d0 <_puts_r+0x1a>
    35ca:	4d1c                	lw	a5,24(a0)
    35cc:	e391                	bnez	a5,35d0 <_puts_r+0x1a>
    35ce:	2b29                	jal	3ae8 <__sinit>
    35d0:	4c9c                	lw	a5,24(s1)
    35d2:	4480                	lw	s0,8(s1)
    35d4:	e399                	bnez	a5,35da <_puts_r+0x24>
    35d6:	8526                	mv	a0,s1
    35d8:	2b01                	jal	3ae8 <__sinit>
    35da:	00001797          	auipc	a5,0x1
    35de:	56e78793          	addi	a5,a5,1390 # 4b48 <__sf_fake_stdin>
    35e2:	02f41c63          	bne	s0,a5,361a <_puts_r+0x64>
    35e6:	40c0                	lw	s0,4(s1)
    35e8:	00c45783          	lhu	a5,12(s0)
    35ec:	8ba1                	andi	a5,a5,8
    35ee:	c7b1                	beqz	a5,363a <_puts_r+0x84>
    35f0:	481c                	lw	a5,16(s0)
    35f2:	c7a1                	beqz	a5,363a <_puts_r+0x84>
    35f4:	59fd                	li	s3,-1
    35f6:	4a29                	li	s4,10
    35f8:	441c                	lw	a5,8(s0)
    35fa:	00094583          	lbu	a1,0(s2)
    35fe:	17fd                	addi	a5,a5,-1
    3600:	e9b1                	bnez	a1,3654 <_puts_r+0x9e>
    3602:	c41c                	sw	a5,8(s0)
    3604:	0607de63          	bgez	a5,3680 <_puts_r+0xca>
    3608:	8622                	mv	a2,s0
    360a:	45a9                	li	a1,10
    360c:	8526                	mv	a0,s1
    360e:	284d                	jal	36c0 <__swbuf_r>
    3610:	57fd                	li	a5,-1
    3612:	02f50863          	beq	a0,a5,3642 <_puts_r+0x8c>
    3616:	4529                	li	a0,10
    3618:	a035                	j	3644 <_puts_r+0x8e>
    361a:	00001797          	auipc	a5,0x1
    361e:	54e78793          	addi	a5,a5,1358 # 4b68 <__sf_fake_stdout>
    3622:	00f41463          	bne	s0,a5,362a <_puts_r+0x74>
    3626:	4480                	lw	s0,8(s1)
    3628:	b7c1                	j	35e8 <_puts_r+0x32>
    362a:	00001797          	auipc	a5,0x1
    362e:	4fe78793          	addi	a5,a5,1278 # 4b28 <__sf_fake_stderr>
    3632:	faf41be3          	bne	s0,a5,35e8 <_puts_r+0x32>
    3636:	44c0                	lw	s0,12(s1)
    3638:	bf45                	j	35e8 <_puts_r+0x32>
    363a:	85a2                	mv	a1,s0
    363c:	8526                	mv	a0,s1
    363e:	2289                	jal	3780 <__swsetup_r>
    3640:	d955                	beqz	a0,35f4 <_puts_r+0x3e>
    3642:	557d                	li	a0,-1
    3644:	40f2                	lw	ra,28(sp)
    3646:	4462                	lw	s0,24(sp)
    3648:	44d2                	lw	s1,20(sp)
    364a:	4942                	lw	s2,16(sp)
    364c:	49b2                	lw	s3,12(sp)
    364e:	4a22                	lw	s4,8(sp)
    3650:	6105                	addi	sp,sp,32
    3652:	8082                	ret
    3654:	c41c                	sw	a5,8(s0)
    3656:	0905                	addi	s2,s2,1
    3658:	0007d763          	bgez	a5,3666 <_puts_r+0xb0>
    365c:	4c18                	lw	a4,24(s0)
    365e:	00e7cb63          	blt	a5,a4,3674 <_puts_r+0xbe>
    3662:	01458963          	beq	a1,s4,3674 <_puts_r+0xbe>
    3666:	401c                	lw	a5,0(s0)
    3668:	00178713          	addi	a4,a5,1
    366c:	c018                	sw	a4,0(s0)
    366e:	00b78023          	sb	a1,0(a5)
    3672:	b759                	j	35f8 <_puts_r+0x42>
    3674:	8622                	mv	a2,s0
    3676:	8526                	mv	a0,s1
    3678:	20a1                	jal	36c0 <__swbuf_r>
    367a:	f7351fe3          	bne	a0,s3,35f8 <_puts_r+0x42>
    367e:	b7d1                	j	3642 <_puts_r+0x8c>
    3680:	401c                	lw	a5,0(s0)
    3682:	00178713          	addi	a4,a5,1
    3686:	c018                	sw	a4,0(s0)
    3688:	4729                	li	a4,10
    368a:	00e78023          	sb	a4,0(a5)
    368e:	b761                	j	3616 <_puts_r+0x60>

00003690 <puts>:
puts():
    3690:	80818793          	addi	a5,gp,-2040 # 20000068 <_impure_ptr>
    3694:	85aa                	mv	a1,a0
    3696:	4388                	lw	a0,0(a5)
    3698:	f1fff06f          	j	35b6 <_puts_r>

0000369c <strcpy>:
strcpy():
    369c:	87aa                	mv	a5,a0
    369e:	0005c703          	lbu	a4,0(a1)
    36a2:	0785                	addi	a5,a5,1
    36a4:	0585                	addi	a1,a1,1
    36a6:	fee78fa3          	sb	a4,-1(a5)
    36aa:	fb75                	bnez	a4,369e <strcpy+0x2>
    36ac:	8082                	ret

000036ae <strlen>:
strlen():
    36ae:	87aa                	mv	a5,a0
    36b0:	0785                	addi	a5,a5,1
    36b2:	fff7c703          	lbu	a4,-1(a5)
    36b6:	ff6d                	bnez	a4,36b0 <strlen+0x2>
    36b8:	40a78533          	sub	a0,a5,a0
    36bc:	157d                	addi	a0,a0,-1
    36be:	8082                	ret

000036c0 <__swbuf_r>:
__swbuf_r():
    36c0:	1101                	addi	sp,sp,-32
    36c2:	cc22                	sw	s0,24(sp)
    36c4:	ca26                	sw	s1,20(sp)
    36c6:	c84a                	sw	s2,16(sp)
    36c8:	ce06                	sw	ra,28(sp)
    36ca:	c64e                	sw	s3,12(sp)
    36cc:	84aa                	mv	s1,a0
    36ce:	892e                	mv	s2,a1
    36d0:	8432                	mv	s0,a2
    36d2:	c501                	beqz	a0,36da <__swbuf_r+0x1a>
    36d4:	4d1c                	lw	a5,24(a0)
    36d6:	e391                	bnez	a5,36da <__swbuf_r+0x1a>
    36d8:	2901                	jal	3ae8 <__sinit>
    36da:	00001797          	auipc	a5,0x1
    36de:	46e78793          	addi	a5,a5,1134 # 4b48 <__sf_fake_stdin>
    36e2:	06f41963          	bne	s0,a5,3754 <__swbuf_r+0x94>
    36e6:	40c0                	lw	s0,4(s1)
    36e8:	4c1c                	lw	a5,24(s0)
    36ea:	c41c                	sw	a5,8(s0)
    36ec:	00c45783          	lhu	a5,12(s0)
    36f0:	8ba1                	andi	a5,a5,8
    36f2:	c3c9                	beqz	a5,3774 <__swbuf_r+0xb4>
    36f4:	481c                	lw	a5,16(s0)
    36f6:	cfbd                	beqz	a5,3774 <__swbuf_r+0xb4>
    36f8:	481c                	lw	a5,16(s0)
    36fa:	4008                	lw	a0,0(s0)
    36fc:	0ff97993          	andi	s3,s2,255
    3700:	0ff97913          	andi	s2,s2,255
    3704:	8d1d                	sub	a0,a0,a5
    3706:	485c                	lw	a5,20(s0)
    3708:	00f54663          	blt	a0,a5,3714 <__swbuf_r+0x54>
    370c:	85a2                	mv	a1,s0
    370e:	8526                	mv	a0,s1
    3710:	2c65                	jal	39c8 <_fflush_r>
    3712:	e52d                	bnez	a0,377c <__swbuf_r+0xbc>
    3714:	441c                	lw	a5,8(s0)
    3716:	0505                	addi	a0,a0,1
    3718:	17fd                	addi	a5,a5,-1
    371a:	c41c                	sw	a5,8(s0)
    371c:	401c                	lw	a5,0(s0)
    371e:	00178713          	addi	a4,a5,1
    3722:	c018                	sw	a4,0(s0)
    3724:	01378023          	sb	s3,0(a5)
    3728:	485c                	lw	a5,20(s0)
    372a:	00a78963          	beq	a5,a0,373c <__swbuf_r+0x7c>
    372e:	00c45783          	lhu	a5,12(s0)
    3732:	8b85                	andi	a5,a5,1
    3734:	cb81                	beqz	a5,3744 <__swbuf_r+0x84>
    3736:	47a9                	li	a5,10
    3738:	00f91663          	bne	s2,a5,3744 <__swbuf_r+0x84>
    373c:	85a2                	mv	a1,s0
    373e:	8526                	mv	a0,s1
    3740:	2461                	jal	39c8 <_fflush_r>
    3742:	ed0d                	bnez	a0,377c <__swbuf_r+0xbc>
    3744:	40f2                	lw	ra,28(sp)
    3746:	4462                	lw	s0,24(sp)
    3748:	854a                	mv	a0,s2
    374a:	44d2                	lw	s1,20(sp)
    374c:	4942                	lw	s2,16(sp)
    374e:	49b2                	lw	s3,12(sp)
    3750:	6105                	addi	sp,sp,32
    3752:	8082                	ret
    3754:	00001797          	auipc	a5,0x1
    3758:	41478793          	addi	a5,a5,1044 # 4b68 <__sf_fake_stdout>
    375c:	00f41463          	bne	s0,a5,3764 <__swbuf_r+0xa4>
    3760:	4480                	lw	s0,8(s1)
    3762:	b759                	j	36e8 <__swbuf_r+0x28>
    3764:	00001797          	auipc	a5,0x1
    3768:	3c478793          	addi	a5,a5,964 # 4b28 <__sf_fake_stderr>
    376c:	f6f41ee3          	bne	s0,a5,36e8 <__swbuf_r+0x28>
    3770:	44c0                	lw	s0,12(s1)
    3772:	bf9d                	j	36e8 <__swbuf_r+0x28>
    3774:	85a2                	mv	a1,s0
    3776:	8526                	mv	a0,s1
    3778:	2021                	jal	3780 <__swsetup_r>
    377a:	dd3d                	beqz	a0,36f8 <__swbuf_r+0x38>
    377c:	597d                	li	s2,-1
    377e:	b7d9                	j	3744 <__swbuf_r+0x84>

00003780 <__swsetup_r>:
__swsetup_r():
    3780:	1141                	addi	sp,sp,-16
    3782:	80818793          	addi	a5,gp,-2040 # 20000068 <_impure_ptr>
    3786:	c226                	sw	s1,4(sp)
    3788:	4384                	lw	s1,0(a5)
    378a:	c422                	sw	s0,8(sp)
    378c:	c04a                	sw	s2,0(sp)
    378e:	c606                	sw	ra,12(sp)
    3790:	892a                	mv	s2,a0
    3792:	842e                	mv	s0,a1
    3794:	c489                	beqz	s1,379e <__swsetup_r+0x1e>
    3796:	4c9c                	lw	a5,24(s1)
    3798:	e399                	bnez	a5,379e <__swsetup_r+0x1e>
    379a:	8526                	mv	a0,s1
    379c:	26b1                	jal	3ae8 <__sinit>
    379e:	00001797          	auipc	a5,0x1
    37a2:	3aa78793          	addi	a5,a5,938 # 4b48 <__sf_fake_stdin>
    37a6:	02f41c63          	bne	s0,a5,37de <__swsetup_r+0x5e>
    37aa:	40c0                	lw	s0,4(s1)
    37ac:	00c41703          	lh	a4,12(s0)
    37b0:	01071793          	slli	a5,a4,0x10
    37b4:	83c1                	srli	a5,a5,0x10
    37b6:	0087f693          	andi	a3,a5,8
    37ba:	eeb5                	bnez	a3,3836 <__swsetup_r+0xb6>
    37bc:	0107f693          	andi	a3,a5,16
    37c0:	ee9d                	bnez	a3,37fe <__swsetup_r+0x7e>
    37c2:	47a5                	li	a5,9
    37c4:	00f92023          	sw	a5,0(s2)
    37c8:	04076713          	ori	a4,a4,64
    37cc:	00e41623          	sh	a4,12(s0)
    37d0:	557d                	li	a0,-1
    37d2:	40b2                	lw	ra,12(sp)
    37d4:	4422                	lw	s0,8(sp)
    37d6:	4492                	lw	s1,4(sp)
    37d8:	4902                	lw	s2,0(sp)
    37da:	0141                	addi	sp,sp,16
    37dc:	8082                	ret
    37de:	00001797          	auipc	a5,0x1
    37e2:	38a78793          	addi	a5,a5,906 # 4b68 <__sf_fake_stdout>
    37e6:	00f41463          	bne	s0,a5,37ee <__swsetup_r+0x6e>
    37ea:	4480                	lw	s0,8(s1)
    37ec:	b7c1                	j	37ac <__swsetup_r+0x2c>
    37ee:	00001797          	auipc	a5,0x1
    37f2:	33a78793          	addi	a5,a5,826 # 4b28 <__sf_fake_stderr>
    37f6:	faf41be3          	bne	s0,a5,37ac <__swsetup_r+0x2c>
    37fa:	44c0                	lw	s0,12(s1)
    37fc:	bf45                	j	37ac <__swsetup_r+0x2c>
    37fe:	8b91                	andi	a5,a5,4
    3800:	c78d                	beqz	a5,382a <__swsetup_r+0xaa>
    3802:	584c                	lw	a1,52(s0)
    3804:	c989                	beqz	a1,3816 <__swsetup_r+0x96>
    3806:	04440793          	addi	a5,s0,68
    380a:	00f58463          	beq	a1,a5,3812 <__swsetup_r+0x92>
    380e:	854a                	mv	a0,s2
    3810:	23a9                	jal	3d5a <_free_r>
    3812:	02042a23          	sw	zero,52(s0)
    3816:	00c45783          	lhu	a5,12(s0)
    381a:	00042223          	sw	zero,4(s0)
    381e:	fdb7f793          	andi	a5,a5,-37
    3822:	00f41623          	sh	a5,12(s0)
    3826:	481c                	lw	a5,16(s0)
    3828:	c01c                	sw	a5,0(s0)
    382a:	00c45783          	lhu	a5,12(s0)
    382e:	0087e793          	ori	a5,a5,8
    3832:	00f41623          	sh	a5,12(s0)
    3836:	481c                	lw	a5,16(s0)
    3838:	ef81                	bnez	a5,3850 <__swsetup_r+0xd0>
    383a:	00c45783          	lhu	a5,12(s0)
    383e:	20000713          	li	a4,512
    3842:	2807f793          	andi	a5,a5,640
    3846:	00e78563          	beq	a5,a4,3850 <__swsetup_r+0xd0>
    384a:	85a2                	mv	a1,s0
    384c:	854a                	mv	a0,s2
    384e:	21b5                	jal	3cba <__smakebuf_r>
    3850:	00c45783          	lhu	a5,12(s0)
    3854:	0017f713          	andi	a4,a5,1
    3858:	c705                	beqz	a4,3880 <__swsetup_r+0x100>
    385a:	485c                	lw	a5,20(s0)
    385c:	00042423          	sw	zero,8(s0)
    3860:	40f007b3          	neg	a5,a5
    3864:	cc1c                	sw	a5,24(s0)
    3866:	481c                	lw	a5,16(s0)
    3868:	4501                	li	a0,0
    386a:	f7a5                	bnez	a5,37d2 <__swsetup_r+0x52>
    386c:	00c41783          	lh	a5,12(s0)
    3870:	0807f713          	andi	a4,a5,128
    3874:	df39                	beqz	a4,37d2 <__swsetup_r+0x52>
    3876:	0407e793          	ori	a5,a5,64
    387a:	00f41623          	sh	a5,12(s0)
    387e:	bf89                	j	37d0 <__swsetup_r+0x50>
    3880:	8b89                	andi	a5,a5,2
    3882:	4701                	li	a4,0
    3884:	e391                	bnez	a5,3888 <__swsetup_r+0x108>
    3886:	4858                	lw	a4,20(s0)
    3888:	c418                	sw	a4,8(s0)
    388a:	bff1                	j	3866 <__swsetup_r+0xe6>

0000388c <__sflush_r>:
__sflush_r():
    388c:	00c5d783          	lhu	a5,12(a1)
    3890:	1101                	addi	sp,sp,-32
    3892:	cc22                	sw	s0,24(sp)
    3894:	ca26                	sw	s1,20(sp)
    3896:	ce06                	sw	ra,28(sp)
    3898:	c84a                	sw	s2,16(sp)
    389a:	c64e                	sw	s3,12(sp)
    389c:	0087f713          	andi	a4,a5,8
    38a0:	84aa                	mv	s1,a0
    38a2:	842e                	mv	s0,a1
    38a4:	ef71                	bnez	a4,3980 <__sflush_r+0xf4>
    38a6:	41d8                	lw	a4,4(a1)
    38a8:	00e04d63          	bgtz	a4,38c2 <__sflush_r+0x36>
    38ac:	41b8                	lw	a4,64(a1)
    38ae:	00e04a63          	bgtz	a4,38c2 <__sflush_r+0x36>
    38b2:	4501                	li	a0,0
    38b4:	40f2                	lw	ra,28(sp)
    38b6:	4462                	lw	s0,24(sp)
    38b8:	44d2                	lw	s1,20(sp)
    38ba:	4942                	lw	s2,16(sp)
    38bc:	49b2                	lw	s3,12(sp)
    38be:	6105                	addi	sp,sp,32
    38c0:	8082                	ret
    38c2:	5458                	lw	a4,44(s0)
    38c4:	d77d                	beqz	a4,38b2 <__sflush_r+0x26>
    38c6:	0004a903          	lw	s2,0(s1)
    38ca:	01379693          	slli	a3,a5,0x13
    38ce:	0004a023          	sw	zero,0(s1)
    38d2:	0606dd63          	bgez	a3,394c <__sflush_r+0xc0>
    38d6:	4870                	lw	a2,84(s0)
    38d8:	00c45783          	lhu	a5,12(s0)
    38dc:	8b91                	andi	a5,a5,4
    38de:	c799                	beqz	a5,38ec <__sflush_r+0x60>
    38e0:	405c                	lw	a5,4(s0)
    38e2:	8e1d                	sub	a2,a2,a5
    38e4:	585c                	lw	a5,52(s0)
    38e6:	c399                	beqz	a5,38ec <__sflush_r+0x60>
    38e8:	403c                	lw	a5,64(s0)
    38ea:	8e1d                	sub	a2,a2,a5
    38ec:	545c                	lw	a5,44(s0)
    38ee:	500c                	lw	a1,32(s0)
    38f0:	4681                	li	a3,0
    38f2:	8526                	mv	a0,s1
    38f4:	9782                	jalr	a5
    38f6:	57fd                	li	a5,-1
    38f8:	00c45703          	lhu	a4,12(s0)
    38fc:	00f51d63          	bne	a0,a5,3916 <__sflush_r+0x8a>
    3900:	4094                	lw	a3,0(s1)
    3902:	47f5                	li	a5,29
    3904:	06d7e863          	bltu	a5,a3,3974 <__sflush_r+0xe8>
    3908:	204007b7          	lui	a5,0x20400
    390c:	0785                	addi	a5,a5,1
    390e:	00d7d7b3          	srl	a5,a5,a3
    3912:	8b85                	andi	a5,a5,1
    3914:	c3a5                	beqz	a5,3974 <__sflush_r+0xe8>
    3916:	481c                	lw	a5,16(s0)
    3918:	00042223          	sw	zero,4(s0)
    391c:	c01c                	sw	a5,0(s0)
    391e:	01371793          	slli	a5,a4,0x13
    3922:	0007d863          	bgez	a5,3932 <__sflush_r+0xa6>
    3926:	57fd                	li	a5,-1
    3928:	00f51463          	bne	a0,a5,3930 <__sflush_r+0xa4>
    392c:	409c                	lw	a5,0(s1)
    392e:	e391                	bnez	a5,3932 <__sflush_r+0xa6>
    3930:	c868                	sw	a0,84(s0)
    3932:	584c                	lw	a1,52(s0)
    3934:	0124a023          	sw	s2,0(s1)
    3938:	ddad                	beqz	a1,38b2 <__sflush_r+0x26>
    393a:	04440793          	addi	a5,s0,68
    393e:	00f58463          	beq	a1,a5,3946 <__sflush_r+0xba>
    3942:	8526                	mv	a0,s1
    3944:	2919                	jal	3d5a <_free_r>
    3946:	02042a23          	sw	zero,52(s0)
    394a:	b7a5                	j	38b2 <__sflush_r+0x26>
    394c:	500c                	lw	a1,32(s0)
    394e:	4601                	li	a2,0
    3950:	4685                	li	a3,1
    3952:	8526                	mv	a0,s1
    3954:	9702                	jalr	a4
    3956:	57fd                	li	a5,-1
    3958:	862a                	mv	a2,a0
    395a:	f6f51fe3          	bne	a0,a5,38d8 <__sflush_r+0x4c>
    395e:	409c                	lw	a5,0(s1)
    3960:	dfa5                	beqz	a5,38d8 <__sflush_r+0x4c>
    3962:	4775                	li	a4,29
    3964:	00e78563          	beq	a5,a4,396e <__sflush_r+0xe2>
    3968:	4759                	li	a4,22
    396a:	04e79463          	bne	a5,a4,39b2 <__sflush_r+0x126>
    396e:	0124a023          	sw	s2,0(s1)
    3972:	b781                	j	38b2 <__sflush_r+0x26>
    3974:	04076713          	ori	a4,a4,64
    3978:	00e41623          	sh	a4,12(s0)
    397c:	557d                	li	a0,-1
    397e:	bf1d                	j	38b4 <__sflush_r+0x28>
    3980:	0105a983          	lw	s3,16(a1)
    3984:	f20987e3          	beqz	s3,38b2 <__sflush_r+0x26>
    3988:	0005a903          	lw	s2,0(a1)
    398c:	8b8d                	andi	a5,a5,3
    398e:	0135a023          	sw	s3,0(a1)
    3992:	41390933          	sub	s2,s2,s3
    3996:	4701                	li	a4,0
    3998:	e391                	bnez	a5,399c <__sflush_r+0x110>
    399a:	49d8                	lw	a4,20(a1)
    399c:	c418                	sw	a4,8(s0)
    399e:	f1205ae3          	blez	s2,38b2 <__sflush_r+0x26>
    39a2:	541c                	lw	a5,40(s0)
    39a4:	500c                	lw	a1,32(s0)
    39a6:	86ca                	mv	a3,s2
    39a8:	864e                	mv	a2,s3
    39aa:	8526                	mv	a0,s1
    39ac:	9782                	jalr	a5
    39ae:	00a04963          	bgtz	a0,39c0 <__sflush_r+0x134>
    39b2:	00c45783          	lhu	a5,12(s0)
    39b6:	0407e793          	ori	a5,a5,64
    39ba:	00f41623          	sh	a5,12(s0)
    39be:	bf7d                	j	397c <__sflush_r+0xf0>
    39c0:	99aa                	add	s3,s3,a0
    39c2:	40a90933          	sub	s2,s2,a0
    39c6:	bfe1                	j	399e <__sflush_r+0x112>

000039c8 <_fflush_r>:
_fflush_r():
    39c8:	499c                	lw	a5,16(a1)
    39ca:	c3a5                	beqz	a5,3a2a <_fflush_r+0x62>
    39cc:	1101                	addi	sp,sp,-32
    39ce:	cc22                	sw	s0,24(sp)
    39d0:	ce06                	sw	ra,28(sp)
    39d2:	842a                	mv	s0,a0
    39d4:	c511                	beqz	a0,39e0 <_fflush_r+0x18>
    39d6:	4d1c                	lw	a5,24(a0)
    39d8:	e781                	bnez	a5,39e0 <_fflush_r+0x18>
    39da:	c62e                	sw	a1,12(sp)
    39dc:	2231                	jal	3ae8 <__sinit>
    39de:	45b2                	lw	a1,12(sp)
    39e0:	00001797          	auipc	a5,0x1
    39e4:	16878793          	addi	a5,a5,360 # 4b48 <__sf_fake_stdin>
    39e8:	00f59c63          	bne	a1,a5,3a00 <_fflush_r+0x38>
    39ec:	404c                	lw	a1,4(s0)
    39ee:	00c59783          	lh	a5,12(a1)
    39f2:	c79d                	beqz	a5,3a20 <_fflush_r+0x58>
    39f4:	8522                	mv	a0,s0
    39f6:	4462                	lw	s0,24(sp)
    39f8:	40f2                	lw	ra,28(sp)
    39fa:	6105                	addi	sp,sp,32
    39fc:	e91ff06f          	j	388c <__sflush_r>
    3a00:	00001797          	auipc	a5,0x1
    3a04:	16878793          	addi	a5,a5,360 # 4b68 <__sf_fake_stdout>
    3a08:	00f59463          	bne	a1,a5,3a10 <_fflush_r+0x48>
    3a0c:	440c                	lw	a1,8(s0)
    3a0e:	b7c5                	j	39ee <_fflush_r+0x26>
    3a10:	00001797          	auipc	a5,0x1
    3a14:	11878793          	addi	a5,a5,280 # 4b28 <__sf_fake_stderr>
    3a18:	fcf59be3          	bne	a1,a5,39ee <_fflush_r+0x26>
    3a1c:	444c                	lw	a1,12(s0)
    3a1e:	bfc1                	j	39ee <_fflush_r+0x26>
    3a20:	40f2                	lw	ra,28(sp)
    3a22:	4462                	lw	s0,24(sp)
    3a24:	4501                	li	a0,0
    3a26:	6105                	addi	sp,sp,32
    3a28:	8082                	ret
    3a2a:	4501                	li	a0,0
    3a2c:	8082                	ret

00003a2e <std>:
std():
    3a2e:	1141                	addi	sp,sp,-16
    3a30:	c422                	sw	s0,8(sp)
    3a32:	c606                	sw	ra,12(sp)
    3a34:	842a                	mv	s0,a0
    3a36:	00b51623          	sh	a1,12(a0)
    3a3a:	00c51723          	sh	a2,14(a0)
    3a3e:	00052023          	sw	zero,0(a0)
    3a42:	00052223          	sw	zero,4(a0)
    3a46:	00052423          	sw	zero,8(a0)
    3a4a:	06052223          	sw	zero,100(a0)
    3a4e:	00052823          	sw	zero,16(a0)
    3a52:	00052a23          	sw	zero,20(a0)
    3a56:	00052c23          	sw	zero,24(a0)
    3a5a:	4621                	li	a2,8
    3a5c:	4581                	li	a1,0
    3a5e:	05c50513          	addi	a0,a0,92
    3a62:	edefc0ef          	jal	ra,140 <memset>
    3a66:	00001797          	auipc	a5,0x1
    3a6a:	be678793          	addi	a5,a5,-1050 # 464c <__sread>
    3a6e:	d05c                	sw	a5,36(s0)
    3a70:	00001797          	auipc	a5,0x1
    3a74:	c0c78793          	addi	a5,a5,-1012 # 467c <__swrite>
    3a78:	d41c                	sw	a5,40(s0)
    3a7a:	00001797          	auipc	a5,0x1
    3a7e:	c5078793          	addi	a5,a5,-944 # 46ca <__sseek>
    3a82:	d45c                	sw	a5,44(s0)
    3a84:	00001797          	auipc	a5,0x1
    3a88:	c7c78793          	addi	a5,a5,-900 # 4700 <__sclose>
    3a8c:	d000                	sw	s0,32(s0)
    3a8e:	d81c                	sw	a5,48(s0)
    3a90:	40b2                	lw	ra,12(sp)
    3a92:	4422                	lw	s0,8(sp)
    3a94:	0141                	addi	sp,sp,16
    3a96:	8082                	ret

00003a98 <_cleanup_r>:
_cleanup_r():
    3a98:	00000597          	auipc	a1,0x0
    3a9c:	f3058593          	addi	a1,a1,-208 # 39c8 <_fflush_r>
    3aa0:	aa91                	j	3bf4 <_fwalk_reent>

00003aa2 <__sfmoreglue>:
__sfmoreglue():
    3aa2:	1141                	addi	sp,sp,-16
    3aa4:	c226                	sw	s1,4(sp)
    3aa6:	06800613          	li	a2,104
    3aaa:	fff58493          	addi	s1,a1,-1
    3aae:	02c484b3          	mul	s1,s1,a2
    3ab2:	c04a                	sw	s2,0(sp)
    3ab4:	892e                	mv	s2,a1
    3ab6:	c422                	sw	s0,8(sp)
    3ab8:	c606                	sw	ra,12(sp)
    3aba:	07448593          	addi	a1,s1,116
    3abe:	2691                	jal	3e02 <_malloc_r>
    3ac0:	842a                	mv	s0,a0
    3ac2:	cd01                	beqz	a0,3ada <__sfmoreglue+0x38>
    3ac4:	00052023          	sw	zero,0(a0)
    3ac8:	01252223          	sw	s2,4(a0)
    3acc:	0531                	addi	a0,a0,12
    3ace:	c408                	sw	a0,8(s0)
    3ad0:	06848613          	addi	a2,s1,104
    3ad4:	4581                	li	a1,0
    3ad6:	e6afc0ef          	jal	ra,140 <memset>
    3ada:	8522                	mv	a0,s0
    3adc:	40b2                	lw	ra,12(sp)
    3ade:	4422                	lw	s0,8(sp)
    3ae0:	4492                	lw	s1,4(sp)
    3ae2:	4902                	lw	s2,0(sp)
    3ae4:	0141                	addi	sp,sp,16
    3ae6:	8082                	ret

00003ae8 <__sinit>:
__sinit():
    3ae8:	4d1c                	lw	a5,24(a0)
    3aea:	e7a5                	bnez	a5,3b52 <__sinit+0x6a>
    3aec:	1141                	addi	sp,sp,-16
    3aee:	c606                	sw	ra,12(sp)
    3af0:	c422                	sw	s0,8(sp)
    3af2:	00000797          	auipc	a5,0x0
    3af6:	fa678793          	addi	a5,a5,-90 # 3a98 <_cleanup_r>
    3afa:	d51c                	sw	a5,40(a0)
    3afc:	83418793          	addi	a5,gp,-1996 # 20000094 <_global_impure_ptr>
    3b00:	439c                	lw	a5,0(a5)
    3b02:	04052423          	sw	zero,72(a0)
    3b06:	04052623          	sw	zero,76(a0)
    3b0a:	04052823          	sw	zero,80(a0)
    3b0e:	00f51463          	bne	a0,a5,3b16 <__sinit+0x2e>
    3b12:	4785                	li	a5,1
    3b14:	cd1c                	sw	a5,24(a0)
    3b16:	842a                	mv	s0,a0
    3b18:	2835                	jal	3b54 <__sfp>
    3b1a:	c048                	sw	a0,4(s0)
    3b1c:	8522                	mv	a0,s0
    3b1e:	281d                	jal	3b54 <__sfp>
    3b20:	c408                	sw	a0,8(s0)
    3b22:	8522                	mv	a0,s0
    3b24:	2805                	jal	3b54 <__sfp>
    3b26:	c448                	sw	a0,12(s0)
    3b28:	4048                	lw	a0,4(s0)
    3b2a:	4601                	li	a2,0
    3b2c:	4591                	li	a1,4
    3b2e:	f01ff0ef          	jal	ra,3a2e <std>
    3b32:	4408                	lw	a0,8(s0)
    3b34:	4605                	li	a2,1
    3b36:	45a5                	li	a1,9
    3b38:	ef7ff0ef          	jal	ra,3a2e <std>
    3b3c:	4448                	lw	a0,12(s0)
    3b3e:	4609                	li	a2,2
    3b40:	45c9                	li	a1,18
    3b42:	eedff0ef          	jal	ra,3a2e <std>
    3b46:	4785                	li	a5,1
    3b48:	cc1c                	sw	a5,24(s0)
    3b4a:	40b2                	lw	ra,12(sp)
    3b4c:	4422                	lw	s0,8(sp)
    3b4e:	0141                	addi	sp,sp,16
    3b50:	8082                	ret
    3b52:	8082                	ret

00003b54 <__sfp>:
__sfp():
    3b54:	1141                	addi	sp,sp,-16
    3b56:	83418793          	addi	a5,gp,-1996 # 20000094 <_global_impure_ptr>
    3b5a:	c226                	sw	s1,4(sp)
    3b5c:	4384                	lw	s1,0(a5)
    3b5e:	c04a                	sw	s2,0(sp)
    3b60:	c606                	sw	ra,12(sp)
    3b62:	4c9c                	lw	a5,24(s1)
    3b64:	c422                	sw	s0,8(sp)
    3b66:	892a                	mv	s2,a0
    3b68:	e781                	bnez	a5,3b70 <__sfp+0x1c>
    3b6a:	8526                	mv	a0,s1
    3b6c:	f7dff0ef          	jal	ra,3ae8 <__sinit>
    3b70:	04848493          	addi	s1,s1,72
    3b74:	4480                	lw	s0,8(s1)
    3b76:	40dc                	lw	a5,4(s1)
    3b78:	17fd                	addi	a5,a5,-1
    3b7a:	0007d663          	bgez	a5,3b86 <__sfp+0x32>
    3b7e:	409c                	lw	a5,0(s1)
    3b80:	cfb9                	beqz	a5,3bde <__sfp+0x8a>
    3b82:	4084                	lw	s1,0(s1)
    3b84:	bfc5                	j	3b74 <__sfp+0x20>
    3b86:	00c41703          	lh	a4,12(s0)
    3b8a:	e739                	bnez	a4,3bd8 <__sfp+0x84>
    3b8c:	77c1                	lui	a5,0xffff0
    3b8e:	0785                	addi	a5,a5,1
    3b90:	06042223          	sw	zero,100(s0)
    3b94:	00042023          	sw	zero,0(s0)
    3b98:	00042223          	sw	zero,4(s0)
    3b9c:	00042423          	sw	zero,8(s0)
    3ba0:	c45c                	sw	a5,12(s0)
    3ba2:	00042823          	sw	zero,16(s0)
    3ba6:	00042a23          	sw	zero,20(s0)
    3baa:	00042c23          	sw	zero,24(s0)
    3bae:	4621                	li	a2,8
    3bb0:	4581                	li	a1,0
    3bb2:	05c40513          	addi	a0,s0,92
    3bb6:	d8afc0ef          	jal	ra,140 <memset>
    3bba:	02042a23          	sw	zero,52(s0)
    3bbe:	02042c23          	sw	zero,56(s0)
    3bc2:	04042423          	sw	zero,72(s0)
    3bc6:	04042623          	sw	zero,76(s0)
    3bca:	8522                	mv	a0,s0
    3bcc:	40b2                	lw	ra,12(sp)
    3bce:	4422                	lw	s0,8(sp)
    3bd0:	4492                	lw	s1,4(sp)
    3bd2:	4902                	lw	s2,0(sp)
    3bd4:	0141                	addi	sp,sp,16
    3bd6:	8082                	ret
    3bd8:	06840413          	addi	s0,s0,104
    3bdc:	bf71                	j	3b78 <__sfp+0x24>
    3bde:	4591                	li	a1,4
    3be0:	854a                	mv	a0,s2
    3be2:	ec1ff0ef          	jal	ra,3aa2 <__sfmoreglue>
    3be6:	c088                	sw	a0,0(s1)
    3be8:	fd49                	bnez	a0,3b82 <__sfp+0x2e>
    3bea:	47b1                	li	a5,12
    3bec:	00f92023          	sw	a5,0(s2)
    3bf0:	4401                	li	s0,0
    3bf2:	bfe1                	j	3bca <__sfp+0x76>

00003bf4 <_fwalk_reent>:
_fwalk_reent():
    3bf4:	7179                	addi	sp,sp,-48
    3bf6:	d422                	sw	s0,40(sp)
    3bf8:	d04a                	sw	s2,32(sp)
    3bfa:	cc52                	sw	s4,24(sp)
    3bfc:	ca56                	sw	s5,20(sp)
    3bfe:	c85a                	sw	s6,16(sp)
    3c00:	c65e                	sw	s7,12(sp)
    3c02:	d606                	sw	ra,44(sp)
    3c04:	d226                	sw	s1,36(sp)
    3c06:	ce4e                	sw	s3,28(sp)
    3c08:	8a2a                	mv	s4,a0
    3c0a:	8aae                	mv	s5,a1
    3c0c:	04850413          	addi	s0,a0,72
    3c10:	4901                	li	s2,0
    3c12:	4b05                	li	s6,1
    3c14:	5bfd                	li	s7,-1
    3c16:	ec09                	bnez	s0,3c30 <_fwalk_reent+0x3c>
    3c18:	50b2                	lw	ra,44(sp)
    3c1a:	5422                	lw	s0,40(sp)
    3c1c:	854a                	mv	a0,s2
    3c1e:	5492                	lw	s1,36(sp)
    3c20:	5902                	lw	s2,32(sp)
    3c22:	49f2                	lw	s3,28(sp)
    3c24:	4a62                	lw	s4,24(sp)
    3c26:	4ad2                	lw	s5,20(sp)
    3c28:	4b42                	lw	s6,16(sp)
    3c2a:	4bb2                	lw	s7,12(sp)
    3c2c:	6145                	addi	sp,sp,48
    3c2e:	8082                	ret
    3c30:	4404                	lw	s1,8(s0)
    3c32:	00442983          	lw	s3,4(s0)
    3c36:	19fd                	addi	s3,s3,-1
    3c38:	0009d463          	bgez	s3,3c40 <_fwalk_reent+0x4c>
    3c3c:	4000                	lw	s0,0(s0)
    3c3e:	bfe1                	j	3c16 <_fwalk_reent+0x22>
    3c40:	00c4d783          	lhu	a5,12(s1)
    3c44:	00fb7b63          	bgeu	s6,a5,3c5a <_fwalk_reent+0x66>
    3c48:	00e49783          	lh	a5,14(s1)
    3c4c:	01778763          	beq	a5,s7,3c5a <_fwalk_reent+0x66>
    3c50:	85a6                	mv	a1,s1
    3c52:	8552                	mv	a0,s4
    3c54:	9a82                	jalr	s5
    3c56:	00a96933          	or	s2,s2,a0
    3c5a:	06848493          	addi	s1,s1,104
    3c5e:	bfe1                	j	3c36 <_fwalk_reent+0x42>

00003c60 <__swhatbuf_r>:
__swhatbuf_r():
    3c60:	7119                	addi	sp,sp,-128
    3c62:	daa6                	sw	s1,116(sp)
    3c64:	84ae                	mv	s1,a1
    3c66:	00e59583          	lh	a1,14(a1)
    3c6a:	dca2                	sw	s0,120(sp)
    3c6c:	de86                	sw	ra,124(sp)
    3c6e:	8432                	mv	s0,a2
    3c70:	0005dc63          	bgez	a1,3c88 <__swhatbuf_r+0x28>
    3c74:	00c4d783          	lhu	a5,12(s1)
    3c78:	0006a023          	sw	zero,0(a3)
    3c7c:	0807f793          	andi	a5,a5,128
    3c80:	e785                	bnez	a5,3ca8 <__swhatbuf_r+0x48>
    3c82:	40000793          	li	a5,1024
    3c86:	a01d                	j	3cac <__swhatbuf_r+0x4c>
    3c88:	0830                	addi	a2,sp,24
    3c8a:	c636                	sw	a3,12(sp)
    3c8c:	2d1000ef          	jal	ra,475c <_fstat_r>
    3c90:	46b2                	lw	a3,12(sp)
    3c92:	fe0541e3          	bltz	a0,3c74 <__swhatbuf_r+0x14>
    3c96:	4772                	lw	a4,28(sp)
    3c98:	67bd                	lui	a5,0xf
    3c9a:	8ff9                	and	a5,a5,a4
    3c9c:	7779                	lui	a4,0xffffe
    3c9e:	97ba                	add	a5,a5,a4
    3ca0:	0017b793          	seqz	a5,a5
    3ca4:	c29c                	sw	a5,0(a3)
    3ca6:	bff1                	j	3c82 <__swhatbuf_r+0x22>
    3ca8:	04000793          	li	a5,64
    3cac:	c01c                	sw	a5,0(s0)
    3cae:	50f6                	lw	ra,124(sp)
    3cb0:	5466                	lw	s0,120(sp)
    3cb2:	54d6                	lw	s1,116(sp)
    3cb4:	4501                	li	a0,0
    3cb6:	6109                	addi	sp,sp,128
    3cb8:	8082                	ret

00003cba <__smakebuf_r>:
__smakebuf_r():
    3cba:	00c5d783          	lhu	a5,12(a1)
    3cbe:	1101                	addi	sp,sp,-32
    3cc0:	cc22                	sw	s0,24(sp)
    3cc2:	ce06                	sw	ra,28(sp)
    3cc4:	ca26                	sw	s1,20(sp)
    3cc6:	c84a                	sw	s2,16(sp)
    3cc8:	8b89                	andi	a5,a5,2
    3cca:	842e                	mv	s0,a1
    3ccc:	cf89                	beqz	a5,3ce6 <__smakebuf_r+0x2c>
    3cce:	04740793          	addi	a5,s0,71
    3cd2:	c01c                	sw	a5,0(s0)
    3cd4:	c81c                	sw	a5,16(s0)
    3cd6:	4785                	li	a5,1
    3cd8:	c85c                	sw	a5,20(s0)
    3cda:	40f2                	lw	ra,28(sp)
    3cdc:	4462                	lw	s0,24(sp)
    3cde:	44d2                	lw	s1,20(sp)
    3ce0:	4942                	lw	s2,16(sp)
    3ce2:	6105                	addi	sp,sp,32
    3ce4:	8082                	ret
    3ce6:	0074                	addi	a3,sp,12
    3ce8:	0030                	addi	a2,sp,8
    3cea:	84aa                	mv	s1,a0
    3cec:	f75ff0ef          	jal	ra,3c60 <__swhatbuf_r>
    3cf0:	45a2                	lw	a1,8(sp)
    3cf2:	892a                	mv	s2,a0
    3cf4:	8526                	mv	a0,s1
    3cf6:	2231                	jal	3e02 <_malloc_r>
    3cf8:	ed01                	bnez	a0,3d10 <__smakebuf_r+0x56>
    3cfa:	00c41783          	lh	a5,12(s0)
    3cfe:	2007f713          	andi	a4,a5,512
    3d02:	ff61                	bnez	a4,3cda <__smakebuf_r+0x20>
    3d04:	9bf1                	andi	a5,a5,-4
    3d06:	0027e793          	ori	a5,a5,2
    3d0a:	00f41623          	sh	a5,12(s0)
    3d0e:	b7c1                	j	3cce <__smakebuf_r+0x14>
    3d10:	00000797          	auipc	a5,0x0
    3d14:	d8878793          	addi	a5,a5,-632 # 3a98 <_cleanup_r>
    3d18:	d49c                	sw	a5,40(s1)
    3d1a:	00c45783          	lhu	a5,12(s0)
    3d1e:	c008                	sw	a0,0(s0)
    3d20:	c808                	sw	a0,16(s0)
    3d22:	0807e793          	ori	a5,a5,128
    3d26:	00f41623          	sh	a5,12(s0)
    3d2a:	47a2                	lw	a5,8(sp)
    3d2c:	c85c                	sw	a5,20(s0)
    3d2e:	47b2                	lw	a5,12(sp)
    3d30:	cf91                	beqz	a5,3d4c <__smakebuf_r+0x92>
    3d32:	00e41583          	lh	a1,14(s0)
    3d36:	8526                	mv	a0,s1
    3d38:	24f000ef          	jal	ra,4786 <_isatty_r>
    3d3c:	c901                	beqz	a0,3d4c <__smakebuf_r+0x92>
    3d3e:	00c45783          	lhu	a5,12(s0)
    3d42:	9bf1                	andi	a5,a5,-4
    3d44:	0017e793          	ori	a5,a5,1
    3d48:	00f41623          	sh	a5,12(s0)
    3d4c:	00c45783          	lhu	a5,12(s0)
    3d50:	00f96933          	or	s2,s2,a5
    3d54:	01241623          	sh	s2,12(s0)
    3d58:	b749                	j	3cda <__smakebuf_r+0x20>

00003d5a <_free_r>:
_free_r():
    3d5a:	c1dd                	beqz	a1,3e00 <_free_r+0xa6>
    3d5c:	ffc5a783          	lw	a5,-4(a1)
    3d60:	1141                	addi	sp,sp,-16
    3d62:	c422                	sw	s0,8(sp)
    3d64:	c606                	sw	ra,12(sp)
    3d66:	c226                	sw	s1,4(sp)
    3d68:	ffc58413          	addi	s0,a1,-4
    3d6c:	0007d363          	bgez	a5,3d72 <_free_r+0x18>
    3d70:	943e                	add	s0,s0,a5
    3d72:	84aa                	mv	s1,a0
    3d74:	281000ef          	jal	ra,47f4 <__malloc_lock>
    3d78:	84018793          	addi	a5,gp,-1984 # 200000a0 <__malloc_free_list>
    3d7c:	439c                	lw	a5,0(a5)
    3d7e:	ef81                	bnez	a5,3d96 <_free_r+0x3c>
    3d80:	00042223          	sw	zero,4(s0)
    3d84:	8481a023          	sw	s0,-1984(gp) # 200000a0 <__malloc_free_list>
    3d88:	4422                	lw	s0,8(sp)
    3d8a:	40b2                	lw	ra,12(sp)
    3d8c:	8526                	mv	a0,s1
    3d8e:	4492                	lw	s1,4(sp)
    3d90:	0141                	addi	sp,sp,16
    3d92:	2650006f          	j	47f6 <__malloc_unlock>
    3d96:	00f47e63          	bgeu	s0,a5,3db2 <_free_r+0x58>
    3d9a:	4014                	lw	a3,0(s0)
    3d9c:	00d40733          	add	a4,s0,a3
    3da0:	00e79663          	bne	a5,a4,3dac <_free_r+0x52>
    3da4:	4398                	lw	a4,0(a5)
    3da6:	43dc                	lw	a5,4(a5)
    3da8:	9736                	add	a4,a4,a3
    3daa:	c018                	sw	a4,0(s0)
    3dac:	c05c                	sw	a5,4(s0)
    3dae:	bfd9                	j	3d84 <_free_r+0x2a>
    3db0:	87ba                	mv	a5,a4
    3db2:	43d8                	lw	a4,4(a5)
    3db4:	c319                	beqz	a4,3dba <_free_r+0x60>
    3db6:	fee47de3          	bgeu	s0,a4,3db0 <_free_r+0x56>
    3dba:	4394                	lw	a3,0(a5)
    3dbc:	00d78633          	add	a2,a5,a3
    3dc0:	00861f63          	bne	a2,s0,3dde <_free_r+0x84>
    3dc4:	4010                	lw	a2,0(s0)
    3dc6:	96b2                	add	a3,a3,a2
    3dc8:	c394                	sw	a3,0(a5)
    3dca:	00d78633          	add	a2,a5,a3
    3dce:	fac71de3          	bne	a4,a2,3d88 <_free_r+0x2e>
    3dd2:	4310                	lw	a2,0(a4)
    3dd4:	4358                	lw	a4,4(a4)
    3dd6:	96b2                	add	a3,a3,a2
    3dd8:	c394                	sw	a3,0(a5)
    3dda:	c3d8                	sw	a4,4(a5)
    3ddc:	b775                	j	3d88 <_free_r+0x2e>
    3dde:	00c47563          	bgeu	s0,a2,3de8 <_free_r+0x8e>
    3de2:	47b1                	li	a5,12
    3de4:	c09c                	sw	a5,0(s1)
    3de6:	b74d                	j	3d88 <_free_r+0x2e>
    3de8:	4010                	lw	a2,0(s0)
    3dea:	00c406b3          	add	a3,s0,a2
    3dee:	00d71663          	bne	a4,a3,3dfa <_free_r+0xa0>
    3df2:	4314                	lw	a3,0(a4)
    3df4:	4358                	lw	a4,4(a4)
    3df6:	96b2                	add	a3,a3,a2
    3df8:	c014                	sw	a3,0(s0)
    3dfa:	c058                	sw	a4,4(s0)
    3dfc:	c3c0                	sw	s0,4(a5)
    3dfe:	b769                	j	3d88 <_free_r+0x2e>
    3e00:	8082                	ret

00003e02 <_malloc_r>:
_malloc_r():
    3e02:	1101                	addi	sp,sp,-32
    3e04:	ca26                	sw	s1,20(sp)
    3e06:	00358493          	addi	s1,a1,3
    3e0a:	98f1                	andi	s1,s1,-4
    3e0c:	ce06                	sw	ra,28(sp)
    3e0e:	cc22                	sw	s0,24(sp)
    3e10:	c84a                	sw	s2,16(sp)
    3e12:	c64e                	sw	s3,12(sp)
    3e14:	04a1                	addi	s1,s1,8
    3e16:	47b1                	li	a5,12
    3e18:	04f4f563          	bgeu	s1,a5,3e62 <_malloc_r+0x60>
    3e1c:	44b1                	li	s1,12
    3e1e:	04b4e463          	bltu	s1,a1,3e66 <_malloc_r+0x64>
    3e22:	892a                	mv	s2,a0
    3e24:	1d1000ef          	jal	ra,47f4 <__malloc_lock>
    3e28:	84018793          	addi	a5,gp,-1984 # 200000a0 <__malloc_free_list>
    3e2c:	4398                	lw	a4,0(a5)
    3e2e:	843a                	mv	s0,a4
    3e30:	e429                	bnez	s0,3e7a <_malloc_r+0x78>
    3e32:	84418793          	addi	a5,gp,-1980 # 200000a4 <__malloc_sbrk_start>
    3e36:	439c                	lw	a5,0(a5)
    3e38:	e799                	bnez	a5,3e46 <_malloc_r+0x44>
    3e3a:	4581                	li	a1,0
    3e3c:	854a                	mv	a0,s2
    3e3e:	7e4000ef          	jal	ra,4622 <_sbrk_r>
    3e42:	84a1a223          	sw	a0,-1980(gp) # 200000a4 <__malloc_sbrk_start>
    3e46:	85a6                	mv	a1,s1
    3e48:	854a                	mv	a0,s2
    3e4a:	7d8000ef          	jal	ra,4622 <_sbrk_r>
    3e4e:	59fd                	li	s3,-1
    3e50:	07351963          	bne	a0,s3,3ec2 <_malloc_r+0xc0>
    3e54:	47b1                	li	a5,12
    3e56:	00f92023          	sw	a5,0(s2)
    3e5a:	854a                	mv	a0,s2
    3e5c:	19b000ef          	jal	ra,47f6 <__malloc_unlock>
    3e60:	a029                	j	3e6a <_malloc_r+0x68>
    3e62:	fa04dee3          	bgez	s1,3e1e <_malloc_r+0x1c>
    3e66:	47b1                	li	a5,12
    3e68:	c11c                	sw	a5,0(a0)
    3e6a:	4501                	li	a0,0
    3e6c:	40f2                	lw	ra,28(sp)
    3e6e:	4462                	lw	s0,24(sp)
    3e70:	44d2                	lw	s1,20(sp)
    3e72:	4942                	lw	s2,16(sp)
    3e74:	49b2                	lw	s3,12(sp)
    3e76:	6105                	addi	sp,sp,32
    3e78:	8082                	ret
    3e7a:	401c                	lw	a5,0(s0)
    3e7c:	8f85                	sub	a5,a5,s1
    3e7e:	0207cf63          	bltz	a5,3ebc <_malloc_r+0xba>
    3e82:	46ad                	li	a3,11
    3e84:	00f6f663          	bgeu	a3,a5,3e90 <_malloc_r+0x8e>
    3e88:	c01c                	sw	a5,0(s0)
    3e8a:	943e                	add	s0,s0,a5
    3e8c:	c004                	sw	s1,0(s0)
    3e8e:	a031                	j	3e9a <_malloc_r+0x98>
    3e90:	405c                	lw	a5,4(s0)
    3e92:	02871363          	bne	a4,s0,3eb8 <_malloc_r+0xb6>
    3e96:	84f1a023          	sw	a5,-1984(gp) # 200000a0 <__malloc_free_list>
    3e9a:	854a                	mv	a0,s2
    3e9c:	15b000ef          	jal	ra,47f6 <__malloc_unlock>
    3ea0:	00b40513          	addi	a0,s0,11
    3ea4:	00440793          	addi	a5,s0,4
    3ea8:	9961                	andi	a0,a0,-8
    3eaa:	40f50733          	sub	a4,a0,a5
    3eae:	df5d                	beqz	a4,3e6c <_malloc_r+0x6a>
    3eb0:	943a                	add	s0,s0,a4
    3eb2:	8f89                	sub	a5,a5,a0
    3eb4:	c01c                	sw	a5,0(s0)
    3eb6:	bf5d                	j	3e6c <_malloc_r+0x6a>
    3eb8:	c35c                	sw	a5,4(a4)
    3eba:	b7c5                	j	3e9a <_malloc_r+0x98>
    3ebc:	8722                	mv	a4,s0
    3ebe:	4040                	lw	s0,4(s0)
    3ec0:	bf85                	j	3e30 <_malloc_r+0x2e>
    3ec2:	00350413          	addi	s0,a0,3
    3ec6:	9871                	andi	s0,s0,-4
    3ec8:	fc8502e3          	beq	a0,s0,3e8c <_malloc_r+0x8a>
    3ecc:	40a405b3          	sub	a1,s0,a0
    3ed0:	854a                	mv	a0,s2
    3ed2:	2f81                	jal	4622 <_sbrk_r>
    3ed4:	fb351ce3          	bne	a0,s3,3e8c <_malloc_r+0x8a>
    3ed8:	bfb5                	j	3e54 <_malloc_r+0x52>

00003eda <__sfputc_r>:
__sfputc_r():
    3eda:	461c                	lw	a5,8(a2)
    3edc:	17fd                	addi	a5,a5,-1
    3ede:	c61c                	sw	a5,8(a2)
    3ee0:	0007da63          	bgez	a5,3ef4 <__sfputc_r+0x1a>
    3ee4:	4e18                	lw	a4,24(a2)
    3ee6:	00e7c563          	blt	a5,a4,3ef0 <__sfputc_r+0x16>
    3eea:	47a9                	li	a5,10
    3eec:	00f59463          	bne	a1,a5,3ef4 <__sfputc_r+0x1a>
    3ef0:	fd0ff06f          	j	36c0 <__swbuf_r>
    3ef4:	421c                	lw	a5,0(a2)
    3ef6:	852e                	mv	a0,a1
    3ef8:	00178713          	addi	a4,a5,1
    3efc:	c218                	sw	a4,0(a2)
    3efe:	00b78023          	sb	a1,0(a5)
    3f02:	8082                	ret

00003f04 <__sfputs_r>:
__sfputs_r():
    3f04:	1101                	addi	sp,sp,-32
    3f06:	cc22                	sw	s0,24(sp)
    3f08:	ca26                	sw	s1,20(sp)
    3f0a:	c84a                	sw	s2,16(sp)
    3f0c:	c64e                	sw	s3,12(sp)
    3f0e:	c452                	sw	s4,8(sp)
    3f10:	ce06                	sw	ra,28(sp)
    3f12:	892a                	mv	s2,a0
    3f14:	89ae                	mv	s3,a1
    3f16:	8432                	mv	s0,a2
    3f18:	00d604b3          	add	s1,a2,a3
    3f1c:	5a7d                	li	s4,-1
    3f1e:	00941463          	bne	s0,s1,3f26 <__sfputs_r+0x22>
    3f22:	4501                	li	a0,0
    3f24:	a811                	j	3f38 <__sfputs_r+0x34>
    3f26:	00044583          	lbu	a1,0(s0)
    3f2a:	864e                	mv	a2,s3
    3f2c:	854a                	mv	a0,s2
    3f2e:	fadff0ef          	jal	ra,3eda <__sfputc_r>
    3f32:	0405                	addi	s0,s0,1
    3f34:	ff4515e3          	bne	a0,s4,3f1e <__sfputs_r+0x1a>
    3f38:	40f2                	lw	ra,28(sp)
    3f3a:	4462                	lw	s0,24(sp)
    3f3c:	44d2                	lw	s1,20(sp)
    3f3e:	4942                	lw	s2,16(sp)
    3f40:	49b2                	lw	s3,12(sp)
    3f42:	4a22                	lw	s4,8(sp)
    3f44:	6105                	addi	sp,sp,32
    3f46:	8082                	ret

00003f48 <_vfiprintf_r>:
_vfiprintf_r():
    3f48:	7135                	addi	sp,sp,-160
    3f4a:	cd22                	sw	s0,152(sp)
    3f4c:	cb26                	sw	s1,148(sp)
    3f4e:	c94a                	sw	s2,144(sp)
    3f50:	c74e                	sw	s3,140(sp)
    3f52:	cf06                	sw	ra,156(sp)
    3f54:	c552                	sw	s4,136(sp)
    3f56:	c356                	sw	s5,132(sp)
    3f58:	c15a                	sw	s6,128(sp)
    3f5a:	dede                	sw	s7,124(sp)
    3f5c:	dce2                	sw	s8,120(sp)
    3f5e:	dae6                	sw	s9,116(sp)
    3f60:	89aa                	mv	s3,a0
    3f62:	84ae                	mv	s1,a1
    3f64:	8932                	mv	s2,a2
    3f66:	8436                	mv	s0,a3
    3f68:	c509                	beqz	a0,3f72 <_vfiprintf_r+0x2a>
    3f6a:	4d1c                	lw	a5,24(a0)
    3f6c:	e399                	bnez	a5,3f72 <_vfiprintf_r+0x2a>
    3f6e:	b7bff0ef          	jal	ra,3ae8 <__sinit>
    3f72:	00001797          	auipc	a5,0x1
    3f76:	bd678793          	addi	a5,a5,-1066 # 4b48 <__sf_fake_stdin>
    3f7a:	0cf49d63          	bne	s1,a5,4054 <_vfiprintf_r+0x10c>
    3f7e:	0049a483          	lw	s1,4(s3)
    3f82:	00c4d783          	lhu	a5,12(s1)
    3f86:	8ba1                	andi	a5,a5,8
    3f88:	cbe5                	beqz	a5,4078 <_vfiprintf_r+0x130>
    3f8a:	489c                	lw	a5,16(s1)
    3f8c:	c7f5                	beqz	a5,4078 <_vfiprintf_r+0x130>
    3f8e:	02000793          	li	a5,32
    3f92:	02f104a3          	sb	a5,41(sp)
    3f96:	03000793          	li	a5,48
    3f9a:	d202                	sw	zero,36(sp)
    3f9c:	02f10523          	sb	a5,42(sp)
    3fa0:	c622                	sw	s0,12(sp)
    3fa2:	02500b93          	li	s7,37
    3fa6:	00001a97          	auipc	s5,0x1
    3faa:	be2a8a93          	addi	s5,s5,-1054 # 4b88 <__sf_fake_stdout+0x20>
    3fae:	4c05                	li	s8,1
    3fb0:	4b29                	li	s6,10
    3fb2:	844a                	mv	s0,s2
    3fb4:	00044783          	lbu	a5,0(s0)
    3fb8:	c399                	beqz	a5,3fbe <_vfiprintf_r+0x76>
    3fba:	0f779263          	bne	a5,s7,409e <_vfiprintf_r+0x156>
    3fbe:	41240cb3          	sub	s9,s0,s2
    3fc2:	000c8e63          	beqz	s9,3fde <_vfiprintf_r+0x96>
    3fc6:	86e6                	mv	a3,s9
    3fc8:	864a                	mv	a2,s2
    3fca:	85a6                	mv	a1,s1
    3fcc:	854e                	mv	a0,s3
    3fce:	f37ff0ef          	jal	ra,3f04 <__sfputs_r>
    3fd2:	57fd                	li	a5,-1
    3fd4:	1ef50763          	beq	a0,a5,41c2 <_vfiprintf_r+0x27a>
    3fd8:	5692                	lw	a3,36(sp)
    3fda:	96e6                	add	a3,a3,s9
    3fdc:	d236                	sw	a3,36(sp)
    3fde:	00044783          	lbu	a5,0(s0)
    3fe2:	1e078063          	beqz	a5,41c2 <_vfiprintf_r+0x27a>
    3fe6:	57fd                	li	a5,-1
    3fe8:	00140913          	addi	s2,s0,1
    3fec:	c802                	sw	zero,16(sp)
    3fee:	ce02                	sw	zero,28(sp)
    3ff0:	ca3e                	sw	a5,20(sp)
    3ff2:	cc02                	sw	zero,24(sp)
    3ff4:	040109a3          	sb	zero,83(sp)
    3ff8:	d482                	sw	zero,104(sp)
    3ffa:	00094583          	lbu	a1,0(s2)
    3ffe:	4615                	li	a2,5
    4000:	8556                	mv	a0,s5
    4002:	7d8000ef          	jal	ra,47da <memchr>
    4006:	00190413          	addi	s0,s2,1
    400a:	47c2                	lw	a5,16(sp)
    400c:	e959                	bnez	a0,40a2 <_vfiprintf_r+0x15a>
    400e:	0107f713          	andi	a4,a5,16
    4012:	c709                	beqz	a4,401c <_vfiprintf_r+0xd4>
    4014:	02000713          	li	a4,32
    4018:	04e109a3          	sb	a4,83(sp)
    401c:	0087f713          	andi	a4,a5,8
    4020:	c709                	beqz	a4,402a <_vfiprintf_r+0xe2>
    4022:	02b00713          	li	a4,43
    4026:	04e109a3          	sb	a4,83(sp)
    402a:	00094683          	lbu	a3,0(s2)
    402e:	02a00713          	li	a4,42
    4032:	08e68063          	beq	a3,a4,40b2 <_vfiprintf_r+0x16a>
    4036:	47f2                	lw	a5,28(sp)
    4038:	844a                	mv	s0,s2
    403a:	4681                	li	a3,0
    403c:	4625                	li	a2,9
    403e:	00044703          	lbu	a4,0(s0)
    4042:	00140593          	addi	a1,s0,1
    4046:	fd070713          	addi	a4,a4,-48 # ffffdfd0 <_eusrstack+0xdfff8fd0>
    404a:	0ae67963          	bgeu	a2,a4,40fc <_vfiprintf_r+0x1b4>
    404e:	cab5                	beqz	a3,40c2 <_vfiprintf_r+0x17a>
    4050:	ce3e                	sw	a5,28(sp)
    4052:	a885                	j	40c2 <_vfiprintf_r+0x17a>
    4054:	00001797          	auipc	a5,0x1
    4058:	b1478793          	addi	a5,a5,-1260 # 4b68 <__sf_fake_stdout>
    405c:	00f49563          	bne	s1,a5,4066 <_vfiprintf_r+0x11e>
    4060:	0089a483          	lw	s1,8(s3)
    4064:	bf39                	j	3f82 <_vfiprintf_r+0x3a>
    4066:	00001797          	auipc	a5,0x1
    406a:	ac278793          	addi	a5,a5,-1342 # 4b28 <__sf_fake_stderr>
    406e:	f0f49ae3          	bne	s1,a5,3f82 <_vfiprintf_r+0x3a>
    4072:	00c9a483          	lw	s1,12(s3)
    4076:	b731                	j	3f82 <_vfiprintf_r+0x3a>
    4078:	85a6                	mv	a1,s1
    407a:	854e                	mv	a0,s3
    407c:	f04ff0ef          	jal	ra,3780 <__swsetup_r>
    4080:	d519                	beqz	a0,3f8e <_vfiprintf_r+0x46>
    4082:	557d                	li	a0,-1
    4084:	40fa                	lw	ra,156(sp)
    4086:	446a                	lw	s0,152(sp)
    4088:	44da                	lw	s1,148(sp)
    408a:	494a                	lw	s2,144(sp)
    408c:	49ba                	lw	s3,140(sp)
    408e:	4a2a                	lw	s4,136(sp)
    4090:	4a9a                	lw	s5,132(sp)
    4092:	4b0a                	lw	s6,128(sp)
    4094:	5bf6                	lw	s7,124(sp)
    4096:	5c66                	lw	s8,120(sp)
    4098:	5cd6                	lw	s9,116(sp)
    409a:	610d                	addi	sp,sp,160
    409c:	8082                	ret
    409e:	0405                	addi	s0,s0,1
    40a0:	bf11                	j	3fb4 <_vfiprintf_r+0x6c>
    40a2:	41550533          	sub	a0,a0,s5
    40a6:	00ac1533          	sll	a0,s8,a0
    40aa:	8fc9                	or	a5,a5,a0
    40ac:	c83e                	sw	a5,16(sp)
    40ae:	8922                	mv	s2,s0
    40b0:	b7a9                	j	3ffa <_vfiprintf_r+0xb2>
    40b2:	4732                	lw	a4,12(sp)
    40b4:	00470693          	addi	a3,a4,4
    40b8:	4318                	lw	a4,0(a4)
    40ba:	c636                	sw	a3,12(sp)
    40bc:	02074963          	bltz	a4,40ee <_vfiprintf_r+0x1a6>
    40c0:	ce3a                	sw	a4,28(sp)
    40c2:	00044703          	lbu	a4,0(s0)
    40c6:	02e00793          	li	a5,46
    40ca:	04f71f63          	bne	a4,a5,4128 <_vfiprintf_r+0x1e0>
    40ce:	00144703          	lbu	a4,1(s0)
    40d2:	02a00793          	li	a5,42
    40d6:	02f71b63          	bne	a4,a5,410c <_vfiprintf_r+0x1c4>
    40da:	47b2                	lw	a5,12(sp)
    40dc:	0409                	addi	s0,s0,2
    40de:	00478713          	addi	a4,a5,4
    40e2:	439c                	lw	a5,0(a5)
    40e4:	c63a                	sw	a4,12(sp)
    40e6:	0207c163          	bltz	a5,4108 <_vfiprintf_r+0x1c0>
    40ea:	ca3e                	sw	a5,20(sp)
    40ec:	a835                	j	4128 <_vfiprintf_r+0x1e0>
    40ee:	40e00733          	neg	a4,a4
    40f2:	0027e793          	ori	a5,a5,2
    40f6:	ce3a                	sw	a4,28(sp)
    40f8:	c83e                	sw	a5,16(sp)
    40fa:	b7e1                	j	40c2 <_vfiprintf_r+0x17a>
    40fc:	036787b3          	mul	a5,a5,s6
    4100:	4685                	li	a3,1
    4102:	842e                	mv	s0,a1
    4104:	97ba                	add	a5,a5,a4
    4106:	bf25                	j	403e <_vfiprintf_r+0xf6>
    4108:	57fd                	li	a5,-1
    410a:	b7c5                	j	40ea <_vfiprintf_r+0x1a2>
    410c:	0405                	addi	s0,s0,1
    410e:	ca02                	sw	zero,20(sp)
    4110:	4681                	li	a3,0
    4112:	4781                	li	a5,0
    4114:	4625                	li	a2,9
    4116:	00044703          	lbu	a4,0(s0)
    411a:	00140593          	addi	a1,s0,1
    411e:	fd070713          	addi	a4,a4,-48
    4122:	06e67663          	bgeu	a2,a4,418e <_vfiprintf_r+0x246>
    4126:	f2f1                	bnez	a3,40ea <_vfiprintf_r+0x1a2>
    4128:	00044583          	lbu	a1,0(s0)
    412c:	460d                	li	a2,3
    412e:	00001517          	auipc	a0,0x1
    4132:	a6250513          	addi	a0,a0,-1438 # 4b90 <__sf_fake_stdout+0x28>
    4136:	2555                	jal	47da <memchr>
    4138:	cd11                	beqz	a0,4154 <_vfiprintf_r+0x20c>
    413a:	00001797          	auipc	a5,0x1
    413e:	a5678793          	addi	a5,a5,-1450 # 4b90 <__sf_fake_stdout+0x28>
    4142:	8d1d                	sub	a0,a0,a5
    4144:	04000793          	li	a5,64
    4148:	00a797b3          	sll	a5,a5,a0
    414c:	4542                	lw	a0,16(sp)
    414e:	0405                	addi	s0,s0,1
    4150:	8d5d                	or	a0,a0,a5
    4152:	c82a                	sw	a0,16(sp)
    4154:	00044583          	lbu	a1,0(s0)
    4158:	4619                	li	a2,6
    415a:	00001517          	auipc	a0,0x1
    415e:	a3a50513          	addi	a0,a0,-1478 # 4b94 <__sf_fake_stdout+0x2c>
    4162:	00140913          	addi	s2,s0,1
    4166:	02b10423          	sb	a1,40(sp)
    416a:	2d85                	jal	47da <memchr>
    416c:	c13d                	beqz	a0,41d2 <_vfiprintf_r+0x28a>
    416e:	ffffc797          	auipc	a5,0xffffc
    4172:	e9278793          	addi	a5,a5,-366 # 0 <_sinit>
    4176:	e795                	bnez	a5,41a2 <_vfiprintf_r+0x25a>
    4178:	4742                	lw	a4,16(sp)
    417a:	47b2                	lw	a5,12(sp)
    417c:	10077713          	andi	a4,a4,256
    4180:	cf09                	beqz	a4,419a <_vfiprintf_r+0x252>
    4182:	0791                	addi	a5,a5,4
    4184:	c63e                	sw	a5,12(sp)
    4186:	5792                	lw	a5,36(sp)
    4188:	97d2                	add	a5,a5,s4
    418a:	d23e                	sw	a5,36(sp)
    418c:	b51d                	j	3fb2 <_vfiprintf_r+0x6a>
    418e:	036787b3          	mul	a5,a5,s6
    4192:	4685                	li	a3,1
    4194:	842e                	mv	s0,a1
    4196:	97ba                	add	a5,a5,a4
    4198:	bfbd                	j	4116 <_vfiprintf_r+0x1ce>
    419a:	079d                	addi	a5,a5,7
    419c:	9be1                	andi	a5,a5,-8
    419e:	07a1                	addi	a5,a5,8
    41a0:	b7d5                	j	4184 <_vfiprintf_r+0x23c>
    41a2:	0078                	addi	a4,sp,12
    41a4:	00000697          	auipc	a3,0x0
    41a8:	d6068693          	addi	a3,a3,-672 # 3f04 <__sfputs_r>
    41ac:	8626                	mv	a2,s1
    41ae:	080c                	addi	a1,sp,16
    41b0:	854e                	mv	a0,s3
    41b2:	00000097          	auipc	ra,0x0
    41b6:	000000e7          	jalr	zero # 0 <_sinit>
    41ba:	57fd                	li	a5,-1
    41bc:	8a2a                	mv	s4,a0
    41be:	fcf514e3          	bne	a0,a5,4186 <_vfiprintf_r+0x23e>
    41c2:	00c4d783          	lhu	a5,12(s1)
    41c6:	0407f793          	andi	a5,a5,64
    41ca:	ea079ce3          	bnez	a5,4082 <_vfiprintf_r+0x13a>
    41ce:	5512                	lw	a0,36(sp)
    41d0:	bd55                	j	4084 <_vfiprintf_r+0x13c>
    41d2:	0078                	addi	a4,sp,12
    41d4:	00000697          	auipc	a3,0x0
    41d8:	d3068693          	addi	a3,a3,-720 # 3f04 <__sfputs_r>
    41dc:	8626                	mv	a2,s1
    41de:	080c                	addi	a1,sp,16
    41e0:	854e                	mv	a0,s3
    41e2:	2a01                	jal	42f2 <_printf_i>
    41e4:	bfd9                	j	41ba <_vfiprintf_r+0x272>

000041e6 <_printf_common>:
_printf_common():
    41e6:	7179                	addi	sp,sp,-48
    41e8:	ca56                	sw	s5,20(sp)
    41ea:	499c                	lw	a5,16(a1)
    41ec:	8aba                	mv	s5,a4
    41ee:	4598                	lw	a4,8(a1)
    41f0:	d422                	sw	s0,40(sp)
    41f2:	d226                	sw	s1,36(sp)
    41f4:	ce4e                	sw	s3,28(sp)
    41f6:	cc52                	sw	s4,24(sp)
    41f8:	d606                	sw	ra,44(sp)
    41fa:	d04a                	sw	s2,32(sp)
    41fc:	c85a                	sw	s6,16(sp)
    41fe:	c65e                	sw	s7,12(sp)
    4200:	89aa                	mv	s3,a0
    4202:	842e                	mv	s0,a1
    4204:	84b2                	mv	s1,a2
    4206:	8a36                	mv	s4,a3
    4208:	00e7d363          	bge	a5,a4,420e <_printf_common+0x28>
    420c:	87ba                	mv	a5,a4
    420e:	c09c                	sw	a5,0(s1)
    4210:	04344703          	lbu	a4,67(s0)
    4214:	c319                	beqz	a4,421a <_printf_common+0x34>
    4216:	0785                	addi	a5,a5,1
    4218:	c09c                	sw	a5,0(s1)
    421a:	401c                	lw	a5,0(s0)
    421c:	0207f793          	andi	a5,a5,32
    4220:	c781                	beqz	a5,4228 <_printf_common+0x42>
    4222:	409c                	lw	a5,0(s1)
    4224:	0789                	addi	a5,a5,2
    4226:	c09c                	sw	a5,0(s1)
    4228:	00042903          	lw	s2,0(s0)
    422c:	00697913          	andi	s2,s2,6
    4230:	00091a63          	bnez	s2,4244 <_printf_common+0x5e>
    4234:	01940b13          	addi	s6,s0,25
    4238:	5bfd                	li	s7,-1
    423a:	445c                	lw	a5,12(s0)
    423c:	4098                	lw	a4,0(s1)
    423e:	8f99                	sub	a5,a5,a4
    4240:	04f94c63          	blt	s2,a5,4298 <_printf_common+0xb2>
    4244:	401c                	lw	a5,0(s0)
    4246:	04344683          	lbu	a3,67(s0)
    424a:	0207f793          	andi	a5,a5,32
    424e:	00d036b3          	snez	a3,a3
    4252:	eba5                	bnez	a5,42c2 <_printf_common+0xdc>
    4254:	04340613          	addi	a2,s0,67
    4258:	85d2                	mv	a1,s4
    425a:	854e                	mv	a0,s3
    425c:	9a82                	jalr	s5
    425e:	57fd                	li	a5,-1
    4260:	04f50363          	beq	a0,a5,42a6 <_printf_common+0xc0>
    4264:	401c                	lw	a5,0(s0)
    4266:	4611                	li	a2,4
    4268:	4098                	lw	a4,0(s1)
    426a:	8b99                	andi	a5,a5,6
    426c:	4454                	lw	a3,12(s0)
    426e:	4481                	li	s1,0
    4270:	00c79763          	bne	a5,a2,427e <_printf_common+0x98>
    4274:	40e684b3          	sub	s1,a3,a4
    4278:	0004d363          	bgez	s1,427e <_printf_common+0x98>
    427c:	4481                	li	s1,0
    427e:	441c                	lw	a5,8(s0)
    4280:	4818                	lw	a4,16(s0)
    4282:	00f75463          	bge	a4,a5,428a <_printf_common+0xa4>
    4286:	8f99                	sub	a5,a5,a4
    4288:	94be                	add	s1,s1,a5
    428a:	4901                	li	s2,0
    428c:	0469                	addi	s0,s0,26
    428e:	5b7d                	li	s6,-1
    4290:	05249863          	bne	s1,s2,42e0 <_printf_common+0xfa>
    4294:	4501                	li	a0,0
    4296:	a809                	j	42a8 <_printf_common+0xc2>
    4298:	4685                	li	a3,1
    429a:	865a                	mv	a2,s6
    429c:	85d2                	mv	a1,s4
    429e:	854e                	mv	a0,s3
    42a0:	9a82                	jalr	s5
    42a2:	01751e63          	bne	a0,s7,42be <_printf_common+0xd8>
    42a6:	557d                	li	a0,-1
    42a8:	50b2                	lw	ra,44(sp)
    42aa:	5422                	lw	s0,40(sp)
    42ac:	5492                	lw	s1,36(sp)
    42ae:	5902                	lw	s2,32(sp)
    42b0:	49f2                	lw	s3,28(sp)
    42b2:	4a62                	lw	s4,24(sp)
    42b4:	4ad2                	lw	s5,20(sp)
    42b6:	4b42                	lw	s6,16(sp)
    42b8:	4bb2                	lw	s7,12(sp)
    42ba:	6145                	addi	sp,sp,48
    42bc:	8082                	ret
    42be:	0905                	addi	s2,s2,1
    42c0:	bfad                	j	423a <_printf_common+0x54>
    42c2:	00d40733          	add	a4,s0,a3
    42c6:	03000613          	li	a2,48
    42ca:	04c701a3          	sb	a2,67(a4)
    42ce:	04544703          	lbu	a4,69(s0)
    42d2:	00168793          	addi	a5,a3,1
    42d6:	97a2                	add	a5,a5,s0
    42d8:	0689                	addi	a3,a3,2
    42da:	04e781a3          	sb	a4,67(a5)
    42de:	bf9d                	j	4254 <_printf_common+0x6e>
    42e0:	4685                	li	a3,1
    42e2:	8622                	mv	a2,s0
    42e4:	85d2                	mv	a1,s4
    42e6:	854e                	mv	a0,s3
    42e8:	9a82                	jalr	s5
    42ea:	fb650ee3          	beq	a0,s6,42a6 <_printf_common+0xc0>
    42ee:	0905                	addi	s2,s2,1
    42f0:	b745                	j	4290 <_printf_common+0xaa>

000042f2 <_printf_i>:
_printf_i():
    42f2:	7179                	addi	sp,sp,-48
    42f4:	d422                	sw	s0,40(sp)
    42f6:	d226                	sw	s1,36(sp)
    42f8:	d04a                	sw	s2,32(sp)
    42fa:	ce4e                	sw	s3,28(sp)
    42fc:	d606                	sw	ra,44(sp)
    42fe:	cc52                	sw	s4,24(sp)
    4300:	ca56                	sw	s5,20(sp)
    4302:	c85a                	sw	s6,16(sp)
    4304:	89b6                	mv	s3,a3
    4306:	0185c683          	lbu	a3,24(a1)
    430a:	06900793          	li	a5,105
    430e:	8932                	mv	s2,a2
    4310:	84aa                	mv	s1,a0
    4312:	842e                	mv	s0,a1
    4314:	04358613          	addi	a2,a1,67
    4318:	02f68d63          	beq	a3,a5,4352 <_printf_i+0x60>
    431c:	06d7e263          	bltu	a5,a3,4380 <_printf_i+0x8e>
    4320:	05800793          	li	a5,88
    4324:	18f68863          	beq	a3,a5,44b4 <_printf_i+0x1c2>
    4328:	00d7ed63          	bltu	a5,a3,4342 <_printf_i+0x50>
    432c:	22068163          	beqz	a3,454e <_printf_i+0x25c>
    4330:	04300793          	li	a5,67
    4334:	0af68e63          	beq	a3,a5,43f0 <_printf_i+0xfe>
    4338:	04240a93          	addi	s5,s0,66
    433c:	04d40123          	sb	a3,66(s0)
    4340:	a0c9                	j	4402 <_printf_i+0x110>
    4342:	06300793          	li	a5,99
    4346:	0af68563          	beq	a3,a5,43f0 <_printf_i+0xfe>
    434a:	06400793          	li	a5,100
    434e:	fef695e3          	bne	a3,a5,4338 <_printf_i+0x46>
    4352:	401c                	lw	a5,0(s0)
    4354:	4308                	lw	a0,0(a4)
    4356:	0807f693          	andi	a3,a5,128
    435a:	00450593          	addi	a1,a0,4
    435e:	c6c5                	beqz	a3,4406 <_printf_i+0x114>
    4360:	411c                	lw	a5,0(a0)
    4362:	c30c                	sw	a1,0(a4)
    4364:	0007d863          	bgez	a5,4374 <_printf_i+0x82>
    4368:	02d00713          	li	a4,45
    436c:	40f007b3          	neg	a5,a5
    4370:	04e401a3          	sb	a4,67(s0)
    4374:	00001697          	auipc	a3,0x1
    4378:	82868693          	addi	a3,a3,-2008 # 4b9c <__sf_fake_stdout+0x34>
    437c:	4729                	li	a4,10
    437e:	a86d                	j	4438 <_printf_i+0x146>
    4380:	07000793          	li	a5,112
    4384:	16f68463          	beq	a3,a5,44ec <_printf_i+0x1fa>
    4388:	02d7e563          	bltu	a5,a3,43b2 <_printf_i+0xc0>
    438c:	06e00793          	li	a5,110
    4390:	18f68b63          	beq	a3,a5,4526 <_printf_i+0x234>
    4394:	06f00793          	li	a5,111
    4398:	faf690e3          	bne	a3,a5,4338 <_printf_i+0x46>
    439c:	400c                	lw	a1,0(s0)
    439e:	431c                	lw	a5,0(a4)
    43a0:	0805f813          	andi	a6,a1,128
    43a4:	00478513          	addi	a0,a5,4
    43a8:	06080763          	beqz	a6,4416 <_printf_i+0x124>
    43ac:	c308                	sw	a0,0(a4)
    43ae:	439c                	lw	a5,0(a5)
    43b0:	a88d                	j	4422 <_printf_i+0x130>
    43b2:	07500793          	li	a5,117
    43b6:	fef683e3          	beq	a3,a5,439c <_printf_i+0xaa>
    43ba:	07800793          	li	a5,120
    43be:	12f68b63          	beq	a3,a5,44f4 <_printf_i+0x202>
    43c2:	07300793          	li	a5,115
    43c6:	f6f699e3          	bne	a3,a5,4338 <_printf_i+0x46>
    43ca:	431c                	lw	a5,0(a4)
    43cc:	41d0                	lw	a2,4(a1)
    43ce:	4581                	li	a1,0
    43d0:	00478693          	addi	a3,a5,4
    43d4:	c314                	sw	a3,0(a4)
    43d6:	0007aa83          	lw	s5,0(a5)
    43da:	8556                	mv	a0,s5
    43dc:	2efd                	jal	47da <memchr>
    43de:	c501                	beqz	a0,43e6 <_printf_i+0xf4>
    43e0:	41550533          	sub	a0,a0,s5
    43e4:	c048                	sw	a0,4(s0)
    43e6:	405c                	lw	a5,4(s0)
    43e8:	c81c                	sw	a5,16(s0)
    43ea:	040401a3          	sb	zero,67(s0)
    43ee:	a871                	j	448a <_printf_i+0x198>
    43f0:	431c                	lw	a5,0(a4)
    43f2:	04240a93          	addi	s5,s0,66
    43f6:	00478693          	addi	a3,a5,4
    43fa:	439c                	lw	a5,0(a5)
    43fc:	c314                	sw	a3,0(a4)
    43fe:	04f40123          	sb	a5,66(s0)
    4402:	4785                	li	a5,1
    4404:	b7d5                	j	43e8 <_printf_i+0xf6>
    4406:	0407f693          	andi	a3,a5,64
    440a:	411c                	lw	a5,0(a0)
    440c:	c30c                	sw	a1,0(a4)
    440e:	dab9                	beqz	a3,4364 <_printf_i+0x72>
    4410:	07c2                	slli	a5,a5,0x10
    4412:	87c1                	srai	a5,a5,0x10
    4414:	bf81                	j	4364 <_printf_i+0x72>
    4416:	0405f593          	andi	a1,a1,64
    441a:	c308                	sw	a0,0(a4)
    441c:	d9c9                	beqz	a1,43ae <_printf_i+0xbc>
    441e:	0007d783          	lhu	a5,0(a5)
    4422:	06f00713          	li	a4,111
    4426:	0ee68863          	beq	a3,a4,4516 <_printf_i+0x224>
    442a:	00000697          	auipc	a3,0x0
    442e:	77268693          	addi	a3,a3,1906 # 4b9c <__sf_fake_stdout+0x34>
    4432:	4729                	li	a4,10
    4434:	040401a3          	sb	zero,67(s0)
    4438:	404c                	lw	a1,4(s0)
    443a:	c40c                	sw	a1,8(s0)
    443c:	0005c563          	bltz	a1,4446 <_printf_i+0x154>
    4440:	4008                	lw	a0,0(s0)
    4442:	996d                	andi	a0,a0,-5
    4444:	c008                	sw	a0,0(s0)
    4446:	e399                	bnez	a5,444c <_printf_i+0x15a>
    4448:	8ab2                	mv	s5,a2
    444a:	cd91                	beqz	a1,4466 <_printf_i+0x174>
    444c:	8ab2                	mv	s5,a2
    444e:	02e7f5b3          	remu	a1,a5,a4
    4452:	1afd                	addi	s5,s5,-1
    4454:	95b6                	add	a1,a1,a3
    4456:	0005c583          	lbu	a1,0(a1)
    445a:	00ba8023          	sb	a1,0(s5)
    445e:	02e7d5b3          	divu	a1,a5,a4
    4462:	0ce7f063          	bgeu	a5,a4,4522 <_printf_i+0x230>
    4466:	47a1                	li	a5,8
    4468:	00f71e63          	bne	a4,a5,4484 <_printf_i+0x192>
    446c:	401c                	lw	a5,0(s0)
    446e:	8b85                	andi	a5,a5,1
    4470:	cb91                	beqz	a5,4484 <_printf_i+0x192>
    4472:	4058                	lw	a4,4(s0)
    4474:	481c                	lw	a5,16(s0)
    4476:	00e7c763          	blt	a5,a4,4484 <_printf_i+0x192>
    447a:	03000793          	li	a5,48
    447e:	fefa8fa3          	sb	a5,-1(s5)
    4482:	1afd                	addi	s5,s5,-1
    4484:	41560633          	sub	a2,a2,s5
    4488:	c810                	sw	a2,16(s0)
    448a:	874e                	mv	a4,s3
    448c:	86ca                	mv	a3,s2
    448e:	0070                	addi	a2,sp,12
    4490:	85a2                	mv	a1,s0
    4492:	8526                	mv	a0,s1
    4494:	d53ff0ef          	jal	ra,41e6 <_printf_common>
    4498:	5a7d                	li	s4,-1
    449a:	0b451e63          	bne	a0,s4,4556 <_printf_i+0x264>
    449e:	557d                	li	a0,-1
    44a0:	50b2                	lw	ra,44(sp)
    44a2:	5422                	lw	s0,40(sp)
    44a4:	5492                	lw	s1,36(sp)
    44a6:	5902                	lw	s2,32(sp)
    44a8:	49f2                	lw	s3,28(sp)
    44aa:	4a62                	lw	s4,24(sp)
    44ac:	4ad2                	lw	s5,20(sp)
    44ae:	4b42                	lw	s6,16(sp)
    44b0:	6145                	addi	sp,sp,48
    44b2:	8082                	ret
    44b4:	04d582a3          	sb	a3,69(a1)
    44b8:	00000697          	auipc	a3,0x0
    44bc:	6e468693          	addi	a3,a3,1764 # 4b9c <__sf_fake_stdout+0x34>
    44c0:	400c                	lw	a1,0(s0)
    44c2:	4308                	lw	a0,0(a4)
    44c4:	0805f813          	andi	a6,a1,128
    44c8:	411c                	lw	a5,0(a0)
    44ca:	0511                	addi	a0,a0,4
    44cc:	02080d63          	beqz	a6,4506 <_printf_i+0x214>
    44d0:	c308                	sw	a0,0(a4)
    44d2:	0015f713          	andi	a4,a1,1
    44d6:	c701                	beqz	a4,44de <_printf_i+0x1ec>
    44d8:	0205e593          	ori	a1,a1,32
    44dc:	c00c                	sw	a1,0(s0)
    44de:	4741                	li	a4,16
    44e0:	fbb1                	bnez	a5,4434 <_printf_i+0x142>
    44e2:	400c                	lw	a1,0(s0)
    44e4:	fdf5f593          	andi	a1,a1,-33
    44e8:	c00c                	sw	a1,0(s0)
    44ea:	b7a9                	j	4434 <_printf_i+0x142>
    44ec:	419c                	lw	a5,0(a1)
    44ee:	0207e793          	ori	a5,a5,32
    44f2:	c19c                	sw	a5,0(a1)
    44f4:	07800793          	li	a5,120
    44f8:	04f402a3          	sb	a5,69(s0)
    44fc:	00000697          	auipc	a3,0x0
    4500:	6b468693          	addi	a3,a3,1716 # 4bb0 <__sf_fake_stdout+0x48>
    4504:	bf75                	j	44c0 <_printf_i+0x1ce>
    4506:	0405f813          	andi	a6,a1,64
    450a:	c308                	sw	a0,0(a4)
    450c:	fc0803e3          	beqz	a6,44d2 <_printf_i+0x1e0>
    4510:	07c2                	slli	a5,a5,0x10
    4512:	83c1                	srli	a5,a5,0x10
    4514:	bf7d                	j	44d2 <_printf_i+0x1e0>
    4516:	00000697          	auipc	a3,0x0
    451a:	68668693          	addi	a3,a3,1670 # 4b9c <__sf_fake_stdout+0x34>
    451e:	4721                	li	a4,8
    4520:	bf11                	j	4434 <_printf_i+0x142>
    4522:	87ae                	mv	a5,a1
    4524:	b72d                	j	444e <_printf_i+0x15c>
    4526:	4194                	lw	a3,0(a1)
    4528:	431c                	lw	a5,0(a4)
    452a:	49cc                	lw	a1,20(a1)
    452c:	0806f813          	andi	a6,a3,128
    4530:	00478513          	addi	a0,a5,4
    4534:	00080663          	beqz	a6,4540 <_printf_i+0x24e>
    4538:	c308                	sw	a0,0(a4)
    453a:	439c                	lw	a5,0(a5)
    453c:	c38c                	sw	a1,0(a5)
    453e:	a801                	j	454e <_printf_i+0x25c>
    4540:	c308                	sw	a0,0(a4)
    4542:	0406f693          	andi	a3,a3,64
    4546:	439c                	lw	a5,0(a5)
    4548:	daf5                	beqz	a3,453c <_printf_i+0x24a>
    454a:	00b79023          	sh	a1,0(a5)
    454e:	00042823          	sw	zero,16(s0)
    4552:	8ab2                	mv	s5,a2
    4554:	bf1d                	j	448a <_printf_i+0x198>
    4556:	4814                	lw	a3,16(s0)
    4558:	8656                	mv	a2,s5
    455a:	85ca                	mv	a1,s2
    455c:	8526                	mv	a0,s1
    455e:	9982                	jalr	s3
    4560:	f3450fe3          	beq	a0,s4,449e <_printf_i+0x1ac>
    4564:	401c                	lw	a5,0(s0)
    4566:	8b89                	andi	a5,a5,2
    4568:	e78d                	bnez	a5,4592 <_printf_i+0x2a0>
    456a:	47b2                	lw	a5,12(sp)
    456c:	4448                	lw	a0,12(s0)
    456e:	f2f559e3          	bge	a0,a5,44a0 <_printf_i+0x1ae>
    4572:	853e                	mv	a0,a5
    4574:	b735                	j	44a0 <_printf_i+0x1ae>
    4576:	4685                	li	a3,1
    4578:	8656                	mv	a2,s5
    457a:	85ca                	mv	a1,s2
    457c:	8526                	mv	a0,s1
    457e:	9982                	jalr	s3
    4580:	f1650fe3          	beq	a0,s6,449e <_printf_i+0x1ac>
    4584:	0a05                	addi	s4,s4,1
    4586:	445c                	lw	a5,12(s0)
    4588:	4732                	lw	a4,12(sp)
    458a:	8f99                	sub	a5,a5,a4
    458c:	fefa45e3          	blt	s4,a5,4576 <_printf_i+0x284>
    4590:	bfe9                	j	456a <_printf_i+0x278>
    4592:	4a01                	li	s4,0
    4594:	01940a93          	addi	s5,s0,25
    4598:	5b7d                	li	s6,-1
    459a:	b7f5                	j	4586 <_printf_i+0x294>

0000459c <_putc_r>:
_putc_r():
    459c:	1101                	addi	sp,sp,-32
    459e:	cc22                	sw	s0,24(sp)
    45a0:	ce06                	sw	ra,28(sp)
    45a2:	842a                	mv	s0,a0
    45a4:	c909                	beqz	a0,45b6 <_putc_r+0x1a>
    45a6:	4d1c                	lw	a5,24(a0)
    45a8:	e799                	bnez	a5,45b6 <_putc_r+0x1a>
    45aa:	c632                	sw	a2,12(sp)
    45ac:	c42e                	sw	a1,8(sp)
    45ae:	d3aff0ef          	jal	ra,3ae8 <__sinit>
    45b2:	4632                	lw	a2,12(sp)
    45b4:	45a2                	lw	a1,8(sp)
    45b6:	00000797          	auipc	a5,0x0
    45ba:	59278793          	addi	a5,a5,1426 # 4b48 <__sf_fake_stdin>
    45be:	02f61663          	bne	a2,a5,45ea <_putc_r+0x4e>
    45c2:	4050                	lw	a2,4(s0)
    45c4:	461c                	lw	a5,8(a2)
    45c6:	17fd                	addi	a5,a5,-1
    45c8:	c61c                	sw	a5,8(a2)
    45ca:	0407d063          	bgez	a5,460a <_putc_r+0x6e>
    45ce:	4e18                	lw	a4,24(a2)
    45d0:	00e7c763          	blt	a5,a4,45de <_putc_r+0x42>
    45d4:	0ff5f793          	andi	a5,a1,255
    45d8:	4729                	li	a4,10
    45da:	02e79863          	bne	a5,a4,460a <_putc_r+0x6e>
    45de:	8522                	mv	a0,s0
    45e0:	4462                	lw	s0,24(sp)
    45e2:	40f2                	lw	ra,28(sp)
    45e4:	6105                	addi	sp,sp,32
    45e6:	8daff06f          	j	36c0 <__swbuf_r>
    45ea:	00000797          	auipc	a5,0x0
    45ee:	57e78793          	addi	a5,a5,1406 # 4b68 <__sf_fake_stdout>
    45f2:	00f61463          	bne	a2,a5,45fa <_putc_r+0x5e>
    45f6:	4410                	lw	a2,8(s0)
    45f8:	b7f1                	j	45c4 <_putc_r+0x28>
    45fa:	00000797          	auipc	a5,0x0
    45fe:	52e78793          	addi	a5,a5,1326 # 4b28 <__sf_fake_stderr>
    4602:	fcf611e3          	bne	a2,a5,45c4 <_putc_r+0x28>
    4606:	4450                	lw	a2,12(s0)
    4608:	bf75                	j	45c4 <_putc_r+0x28>
    460a:	421c                	lw	a5,0(a2)
    460c:	0ff5f513          	andi	a0,a1,255
    4610:	00178713          	addi	a4,a5,1
    4614:	c218                	sw	a4,0(a2)
    4616:	00b78023          	sb	a1,0(a5)
    461a:	40f2                	lw	ra,28(sp)
    461c:	4462                	lw	s0,24(sp)
    461e:	6105                	addi	sp,sp,32
    4620:	8082                	ret

00004622 <_sbrk_r>:
_sbrk_r():
    4622:	1141                	addi	sp,sp,-16
    4624:	c422                	sw	s0,8(sp)
    4626:	842a                	mv	s0,a0
    4628:	852e                	mv	a0,a1
    462a:	1e01a623          	sw	zero,492(gp) # 20000a4c <errno>
    462e:	c606                	sw	ra,12(sp)
    4630:	c04fd0ef          	jal	ra,1a34 <_sbrk>
    4634:	57fd                	li	a5,-1
    4636:	00f51763          	bne	a0,a5,4644 <_sbrk_r+0x22>
    463a:	1ec18793          	addi	a5,gp,492 # 20000a4c <errno>
    463e:	439c                	lw	a5,0(a5)
    4640:	c391                	beqz	a5,4644 <_sbrk_r+0x22>
    4642:	c01c                	sw	a5,0(s0)
    4644:	40b2                	lw	ra,12(sp)
    4646:	4422                	lw	s0,8(sp)
    4648:	0141                	addi	sp,sp,16
    464a:	8082                	ret

0000464c <__sread>:
__sread():
    464c:	1141                	addi	sp,sp,-16
    464e:	c422                	sw	s0,8(sp)
    4650:	842e                	mv	s0,a1
    4652:	00e59583          	lh	a1,14(a1)
    4656:	c606                	sw	ra,12(sp)
    4658:	2245                	jal	47f8 <_read_r>
    465a:	00054963          	bltz	a0,466c <__sread+0x20>
    465e:	487c                	lw	a5,84(s0)
    4660:	97aa                	add	a5,a5,a0
    4662:	c87c                	sw	a5,84(s0)
    4664:	40b2                	lw	ra,12(sp)
    4666:	4422                	lw	s0,8(sp)
    4668:	0141                	addi	sp,sp,16
    466a:	8082                	ret
    466c:	00c45783          	lhu	a5,12(s0)
    4670:	777d                	lui	a4,0xfffff
    4672:	177d                	addi	a4,a4,-1
    4674:	8ff9                	and	a5,a5,a4
    4676:	00f41623          	sh	a5,12(s0)
    467a:	b7ed                	j	4664 <__sread+0x18>

0000467c <__swrite>:
__swrite():
    467c:	00c5d783          	lhu	a5,12(a1)
    4680:	1101                	addi	sp,sp,-32
    4682:	cc22                	sw	s0,24(sp)
    4684:	ca26                	sw	s1,20(sp)
    4686:	c84a                	sw	s2,16(sp)
    4688:	c64e                	sw	s3,12(sp)
    468a:	ce06                	sw	ra,28(sp)
    468c:	1007f793          	andi	a5,a5,256
    4690:	84aa                	mv	s1,a0
    4692:	842e                	mv	s0,a1
    4694:	8932                	mv	s2,a2
    4696:	89b6                	mv	s3,a3
    4698:	c791                	beqz	a5,46a4 <__swrite+0x28>
    469a:	00e59583          	lh	a1,14(a1)
    469e:	4689                	li	a3,2
    46a0:	4601                	li	a2,0
    46a2:	2231                	jal	47ae <_lseek_r>
    46a4:	00c45783          	lhu	a5,12(s0)
    46a8:	777d                	lui	a4,0xfffff
    46aa:	177d                	addi	a4,a4,-1
    46ac:	8ff9                	and	a5,a5,a4
    46ae:	00f41623          	sh	a5,12(s0)
    46b2:	00e41583          	lh	a1,14(s0)
    46b6:	4462                	lw	s0,24(sp)
    46b8:	40f2                	lw	ra,28(sp)
    46ba:	86ce                	mv	a3,s3
    46bc:	864a                	mv	a2,s2
    46be:	49b2                	lw	s3,12(sp)
    46c0:	4942                	lw	s2,16(sp)
    46c2:	8526                	mv	a0,s1
    46c4:	44d2                	lw	s1,20(sp)
    46c6:	6105                	addi	sp,sp,32
    46c8:	a83d                	j	4706 <_write_r>

000046ca <__sseek>:
__sseek():
    46ca:	1141                	addi	sp,sp,-16
    46cc:	c422                	sw	s0,8(sp)
    46ce:	842e                	mv	s0,a1
    46d0:	00e59583          	lh	a1,14(a1)
    46d4:	c606                	sw	ra,12(sp)
    46d6:	28e1                	jal	47ae <_lseek_r>
    46d8:	57fd                	li	a5,-1
    46da:	00c45703          	lhu	a4,12(s0)
    46de:	00f51b63          	bne	a0,a5,46f4 <__sseek+0x2a>
    46e2:	77fd                	lui	a5,0xfffff
    46e4:	17fd                	addi	a5,a5,-1
    46e6:	8ff9                	and	a5,a5,a4
    46e8:	00f41623          	sh	a5,12(s0)
    46ec:	40b2                	lw	ra,12(sp)
    46ee:	4422                	lw	s0,8(sp)
    46f0:	0141                	addi	sp,sp,16
    46f2:	8082                	ret
    46f4:	6785                	lui	a5,0x1
    46f6:	8fd9                	or	a5,a5,a4
    46f8:	00f41623          	sh	a5,12(s0)
    46fc:	c868                	sw	a0,84(s0)
    46fe:	b7fd                	j	46ec <__sseek+0x22>

00004700 <__sclose>:
__sclose():
    4700:	00e59583          	lh	a1,14(a1)
    4704:	a805                	j	4734 <_close_r>

00004706 <_write_r>:
_write_r():
    4706:	1141                	addi	sp,sp,-16
    4708:	c422                	sw	s0,8(sp)
    470a:	842a                	mv	s0,a0
    470c:	852e                	mv	a0,a1
    470e:	85b2                	mv	a1,a2
    4710:	8636                	mv	a2,a3
    4712:	1e01a623          	sw	zero,492(gp) # 20000a4c <errno>
    4716:	c606                	sw	ra,12(sp)
    4718:	b18fd0ef          	jal	ra,1a30 <_write>
    471c:	57fd                	li	a5,-1
    471e:	00f51763          	bne	a0,a5,472c <_write_r+0x26>
    4722:	1ec18793          	addi	a5,gp,492 # 20000a4c <errno>
    4726:	439c                	lw	a5,0(a5)
    4728:	c391                	beqz	a5,472c <_write_r+0x26>
    472a:	c01c                	sw	a5,0(s0)
    472c:	40b2                	lw	ra,12(sp)
    472e:	4422                	lw	s0,8(sp)
    4730:	0141                	addi	sp,sp,16
    4732:	8082                	ret

00004734 <_close_r>:
_close_r():
    4734:	1141                	addi	sp,sp,-16
    4736:	c422                	sw	s0,8(sp)
    4738:	842a                	mv	s0,a0
    473a:	852e                	mv	a0,a1
    473c:	1e01a623          	sw	zero,492(gp) # 20000a4c <errno>
    4740:	c606                	sw	ra,12(sp)
    4742:	20cd                	jal	4824 <_close>
    4744:	57fd                	li	a5,-1
    4746:	00f51763          	bne	a0,a5,4754 <_close_r+0x20>
    474a:	1ec18793          	addi	a5,gp,492 # 20000a4c <errno>
    474e:	439c                	lw	a5,0(a5)
    4750:	c391                	beqz	a5,4754 <_close_r+0x20>
    4752:	c01c                	sw	a5,0(s0)
    4754:	40b2                	lw	ra,12(sp)
    4756:	4422                	lw	s0,8(sp)
    4758:	0141                	addi	sp,sp,16
    475a:	8082                	ret

0000475c <_fstat_r>:
_fstat_r():
    475c:	1141                	addi	sp,sp,-16
    475e:	c422                	sw	s0,8(sp)
    4760:	842a                	mv	s0,a0
    4762:	852e                	mv	a0,a1
    4764:	85b2                	mv	a1,a2
    4766:	1e01a623          	sw	zero,492(gp) # 20000a4c <errno>
    476a:	c606                	sw	ra,12(sp)
    476c:	20d1                	jal	4830 <_fstat>
    476e:	57fd                	li	a5,-1
    4770:	00f51763          	bne	a0,a5,477e <_fstat_r+0x22>
    4774:	1ec18793          	addi	a5,gp,492 # 20000a4c <errno>
    4778:	439c                	lw	a5,0(a5)
    477a:	c391                	beqz	a5,477e <_fstat_r+0x22>
    477c:	c01c                	sw	a5,0(s0)
    477e:	40b2                	lw	ra,12(sp)
    4780:	4422                	lw	s0,8(sp)
    4782:	0141                	addi	sp,sp,16
    4784:	8082                	ret

00004786 <_isatty_r>:
_isatty_r():
    4786:	1141                	addi	sp,sp,-16
    4788:	c422                	sw	s0,8(sp)
    478a:	842a                	mv	s0,a0
    478c:	852e                	mv	a0,a1
    478e:	1e01a623          	sw	zero,492(gp) # 20000a4c <errno>
    4792:	c606                	sw	ra,12(sp)
    4794:	2065                	jal	483c <_isatty>
    4796:	57fd                	li	a5,-1
    4798:	00f51763          	bne	a0,a5,47a6 <_isatty_r+0x20>
    479c:	1ec18793          	addi	a5,gp,492 # 20000a4c <errno>
    47a0:	439c                	lw	a5,0(a5)
    47a2:	c391                	beqz	a5,47a6 <_isatty_r+0x20>
    47a4:	c01c                	sw	a5,0(s0)
    47a6:	40b2                	lw	ra,12(sp)
    47a8:	4422                	lw	s0,8(sp)
    47aa:	0141                	addi	sp,sp,16
    47ac:	8082                	ret

000047ae <_lseek_r>:
_lseek_r():
    47ae:	1141                	addi	sp,sp,-16
    47b0:	c422                	sw	s0,8(sp)
    47b2:	842a                	mv	s0,a0
    47b4:	852e                	mv	a0,a1
    47b6:	85b2                	mv	a1,a2
    47b8:	8636                	mv	a2,a3
    47ba:	1e01a623          	sw	zero,492(gp) # 20000a4c <errno>
    47be:	c606                	sw	ra,12(sp)
    47c0:	2061                	jal	4848 <_lseek>
    47c2:	57fd                	li	a5,-1
    47c4:	00f51763          	bne	a0,a5,47d2 <_lseek_r+0x24>
    47c8:	1ec18793          	addi	a5,gp,492 # 20000a4c <errno>
    47cc:	439c                	lw	a5,0(a5)
    47ce:	c391                	beqz	a5,47d2 <_lseek_r+0x24>
    47d0:	c01c                	sw	a5,0(s0)
    47d2:	40b2                	lw	ra,12(sp)
    47d4:	4422                	lw	s0,8(sp)
    47d6:	0141                	addi	sp,sp,16
    47d8:	8082                	ret

000047da <memchr>:
memchr():
    47da:	0ff5f593          	andi	a1,a1,255
    47de:	962a                	add	a2,a2,a0
    47e0:	00c51463          	bne	a0,a2,47e8 <memchr+0xe>
    47e4:	4501                	li	a0,0
    47e6:	8082                	ret
    47e8:	00054783          	lbu	a5,0(a0)
    47ec:	feb78de3          	beq	a5,a1,47e6 <memchr+0xc>
    47f0:	0505                	addi	a0,a0,1
    47f2:	b7fd                	j	47e0 <memchr+0x6>

000047f4 <__malloc_lock>:
__malloc_lock():
    47f4:	8082                	ret

000047f6 <__malloc_unlock>:
__malloc_unlock():
    47f6:	8082                	ret

000047f8 <_read_r>:
_read_r():
    47f8:	1141                	addi	sp,sp,-16
    47fa:	c422                	sw	s0,8(sp)
    47fc:	842a                	mv	s0,a0
    47fe:	852e                	mv	a0,a1
    4800:	85b2                	mv	a1,a2
    4802:	8636                	mv	a2,a3
    4804:	1e01a623          	sw	zero,492(gp) # 20000a4c <errno>
    4808:	c606                	sw	ra,12(sp)
    480a:	20a9                	jal	4854 <_read>
    480c:	57fd                	li	a5,-1
    480e:	00f51763          	bne	a0,a5,481c <_read_r+0x24>
    4812:	1ec18793          	addi	a5,gp,492 # 20000a4c <errno>
    4816:	439c                	lw	a5,0(a5)
    4818:	c391                	beqz	a5,481c <_read_r+0x24>
    481a:	c01c                	sw	a5,0(s0)
    481c:	40b2                	lw	ra,12(sp)
    481e:	4422                	lw	s0,8(sp)
    4820:	0141                	addi	sp,sp,16
    4822:	8082                	ret

00004824 <_close>:
_close():
    4824:	05800793          	li	a5,88
    4828:	1ef1a623          	sw	a5,492(gp) # 20000a4c <errno>
    482c:	557d                	li	a0,-1
    482e:	8082                	ret

00004830 <_fstat>:
_fstat():
    4830:	05800793          	li	a5,88
    4834:	1ef1a623          	sw	a5,492(gp) # 20000a4c <errno>
    4838:	557d                	li	a0,-1
    483a:	8082                	ret

0000483c <_isatty>:
_isatty():
    483c:	05800793          	li	a5,88
    4840:	1ef1a623          	sw	a5,492(gp) # 20000a4c <errno>
    4844:	4501                	li	a0,0
    4846:	8082                	ret

00004848 <_lseek>:
_lseek():
    4848:	05800793          	li	a5,88
    484c:	1ef1a623          	sw	a5,492(gp) # 20000a4c <errno>
    4850:	557d                	li	a0,-1
    4852:	8082                	ret

00004854 <_read>:
_read():
    4854:	05800793          	li	a5,88
    4858:	1ef1a623          	sw	a5,492(gp) # 20000a4c <errno>
    485c:	557d                	li	a0,-1
    485e:	8082                	ret
    4860:	5355                	li	t1,-11
    4862:	2042                	fld	ft0,16(sp)
    4864:	6f48                	flw	fa0,28(a4)
    4866:	26207473          	csrrci	s0,0x262,0
    486a:	5520                	lw	s0,104(a0)
    486c:	6944                	flw	fs1,20(a0)
    486e:	4c206b73          	csrrsi	s6,0x4c2,0
    4872:	6269                	lui	tp,0x1a
    4874:	4920                	lw	s0,80(a0)
    4876:	696e                	flw	fs2,216(sp)
    4878:	6974                	flw	fa3,84(a0)
    487a:	6c61                	lui	s8,0x18
    487c:	7a69                	lui	s4,0xffffa
    487e:	7461                	lui	s0,0xffff8
    4880:	6f69                	lui	t5,0x1a
    4882:	2e6e                	fld	ft8,216(sp)
    4884:	0d20                	addi	s0,sp,664
    4886:	0000                	unimp
    4888:	5355                	li	t1,-11
    488a:	4642                	lw	a2,16(sp)
    488c:	6f482053          	0x6f482053
    4890:	49207473          	csrrci	s0,0x492,0
    4894:	696e                	flw	fs2,216(sp)
    4896:	0d74                	addi	a3,sp,668
    4898:	0000                	unimp
    489a:	0000                	unimp
    489c:	4455                	li	s0,21
    489e:	7369                	lui	t1,0xffffa
    48a0:	696c206b          	0x696c206b
    48a4:	7262                	flw	ft4,56(sp)
    48a6:	7261                	lui	tp,0xffff8
    48a8:	2079                	jal	4936 <_read+0xe2>
    48aa:	6e49                	lui	t3,0x12
    48ac:	7469                	lui	s0,0xffffa
    48ae:	6169                	addi	sp,sp,208
    48b0:	696c                	flw	fa1,84(a0)
    48b2:	617a                	flw	ft2,156(sp)
    48b4:	6974                	flw	fa3,84(a0)
    48b6:	202e6e6f          	jal	t3,eaab8 <_bootloader_limit+0xe2ab8>
    48ba:	000d                	c.nop	3
    48bc:	74696157          	0x74696157
    48c0:	4420                	lw	s0,72(s0)
    48c2:	7369                	lui	t1,0xffffa
    48c4:	6552206b          	0x6552206b
    48c8:	6461                	lui	s0,0x18
    48ca:	2e79                	jal	4c68 <_data_lma+0xa4>
    48cc:	2e2e                	fld	ft8,200(sp)
    48ce:	000d                	c.nop	3
    48d0:	6944                	flw	fs1,20(a0)
    48d2:	52206b73          	csrrsi	s6,0x522,0
    48d6:	6165                	addi	sp,sp,112
    48d8:	7964                	flw	fs1,116(a0)
    48da:	4320                	lw	s0,64(a4)
    48dc:	3a65646f          	jal	s0,5ac82 <_bootloader_limit+0x52c82>
    48e0:	3025                	jal	4108 <_vfiprintf_r+0x1c0>
    48e2:	7832                	flw	fa6,44(sp)
    48e4:	0d2e                	slli	s10,s10,0xb
    48e6:	000a                	c.slli	zero,0x2
    48e8:	56524843          	fmadd.q	fa6,ft4,ft5,fa0,rmm
    48ec:	73694433          	0x73694433
    48f0:	6174536b          	0x6174536b
    48f4:	7574                	flw	fa3,108(a0)
    48f6:	30253a73          	csrrc	s4,medeleg,a0
    48fa:	7832                	flw	fa6,44(sp)
    48fc:	000a                	c.slli	zero,0x2
    48fe:	0000                	unimp
    4900:	6f4e                	flw	ft10,208(sp)
    4902:	2074                	fld	fa3,192(s0)
    4904:	6552                	flw	fa0,20(sp)
    4906:	6461                	lui	s0,0x18
    4908:	2079                	jal	4996 <_read+0x142>
    490a:	65646f43          	0x65646f43
    490e:	3a20                	fld	fs0,112(a2)
    4910:	3025                	jal	4138 <_vfiprintf_r+0x1f0>
    4912:	7832                	flw	fa6,44(sp)
    4914:	0d2e                	slli	s10,s10,0xb
    4916:	000a                	c.slli	zero,0x2
    4918:	56524843          	fmadd.q	fa6,ft4,ft5,fa0,rmm
    491c:	73694433          	0x73694433
    4920:	6174536b          	0x6174536b
    4924:	7574                	flw	fa3,108(a0)
    4926:	30253a73          	csrrc	s4,medeleg,a0
    492a:	7832                	flw	fa6,44(sp)
    492c:	0a2e                	slli	s4,s4,0xb
    492e:	0000                	unimp
    4930:	5349522f          	0x5349522f
    4934:	564b594b          	fnmsub.q	fs2,fs6,ft4,fa0,unknown
    4938:	2e4d                	jal	4cea <_data_lma+0x126>
    493a:	5055                	c.li	zero,-11
    493c:	0044                	addi	s1,sp,4
    493e:	0000                	unimp
    4940:	5041                	c.li	zero,-16
    4942:	2050                	fld	fa2,128(s0)
    4944:	6966                	flw	fs2,88(sp)
    4946:	656c                	flw	fa1,76(a0)
    4948:	6e20                	flw	fs0,88(a2)
    494a:	4620746f          	jal	s0,bdac <_bootloader_limit+0x3dac>
    494e:	646e756f          	jal	a0,ebf94 <_bootloader_limit+0xe3f94>
    4952:	202c                	fld	fa1,64(s0)
    4954:	79617453          	0x79617453
    4958:	4920                	lw	s0,80(a0)
    495a:	206e                	fld	ft0,216(sp)
    495c:	4149                	li	sp,18
    495e:	2e50                	fld	fa2,152(a2)
    4960:	000d                	c.nop	3
    4962:	0000                	unimp
    4964:	00002a2f          	amoadd.w	s4,zero,(zero)
    4968:	694c                	flw	fa1,20(a0)
    496a:	61207473          	csrrci	s0,0x612,0
    496e:	6c6c                	flw	fa1,92(s0)
    4970:	6620                	flw	fs0,72(a2)
    4972:	6c69                	lui	s8,0x1a
    4974:	7365                	lui	t1,0xffff9
    4976:	2520                	fld	fs0,72(a0)
    4978:	000a0d73          	0xa0d73
    497c:	2020                	fld	fs0,64(s0)
    497e:	616d                	addi	sp,sp,240
    4980:	6374                	flw	fa3,68(a4)
    4982:	2068                	fld	fa0,192(s0)
    4984:	6966                	flw	fs2,88(sp)
    4986:	656c                	flw	fa1,76(a0)
    4988:	2520                	fld	fs0,72(a0)
    498a:	3430                	fld	fa2,104(s0)
    498c:	2364                	fld	fs1,192(a4)
    498e:	203a                	fld	ft0,392(sp)
    4990:	7325                	lui	t1,0xfffe9
    4992:	0a0d                	addi	s4,s4,3
    4994:	0000                	unimp
    4996:	0000                	unimp
    4998:	6946                	flw	fs2,80(sp)
    499a:	656c                	flw	fa1,76(a0)
    499c:	4620                	lw	s0,72(a2)
    499e:	646e756f          	jal	a0,ebfe4 <_bootloader_limit+0xe3fe4>
    49a2:	202c                	fld	fa1,64(s0)
    49a4:	72617453          	0x72617453
    49a8:	2074                	fld	fa3,192(s0)
    49aa:	4149                	li	sp,18
    49ac:	2050                	fld	fa2,128(s0)
    49ae:	7250                	flw	fa2,36(a2)
    49b0:	7365636f          	jal	t1,5b0e6 <_bootloader_limit+0x530e6>
    49b4:	00000d73          	0xd73
    49b8:	6946                	flw	fs2,80(sp)
    49ba:	656c                	flw	fa1,76(a0)
    49bc:	7320                	flw	fs0,96(a4)
    49be:	7a69                	lui	s4,0xffffa
    49c0:	2065                	jal	4a68 <_read+0x214>
    49c2:	6e69                	lui	t3,0x1a
    49c4:	6220                	flw	fs0,64(a2)
    49c6:	7479                	lui	s0,0xffffe
    49c8:	7365                	lui	t1,0xffff9
    49ca:	203a                	fld	ft0,392(sp)
    49cc:	6425                	lui	s0,0x9
    49ce:	0d2e                	slli	s10,s10,0xb
    49d0:	000a                	c.slli	zero,0x2
    49d2:	0000                	unimp
    49d4:	0a0d                	addi	s4,s4,3
    49d6:	6946                	flw	fs2,80(sp)
    49d8:	656c                	flw	fa1,76(a0)
    49da:	4520                	lw	s0,72(a0)
    49dc:	646e                	flw	fs0,216(sp)
    49de:	0d2e                	slli	s10,s10,0xb
    49e0:	0000                	unimp
    49e2:	0000                	unimp
    49e4:	0a0d                	addi	s4,s4,3
    49e6:	6946                	flw	fs2,80(sp)
    49e8:	656c                	flw	fa1,76(a0)
    49ea:	20657a53          	0x20657a53
    49ee:	203a                	fld	ft0,392(sp)
    49f0:	6425                	lui	s0,0x9
    49f2:	252c                	fld	fa1,72(a0)
    49f4:	2e64                	fld	fs1,216(a2)
    49f6:	0a0d                	addi	s4,s4,3
    49f8:	0000                	unimp
    49fa:	0000                	unimp
    49fc:	0a0d                	addi	s4,s4,3
    49fe:	4149                	li	sp,18
    4a00:	2050                	fld	fa2,128(s0)
    4a02:	6e45                	lui	t3,0x11
    4a04:	2e64                	fld	fs1,216(a2)
    4a06:	000d                	c.nop	3
    4a08:	4149                	li	sp,18
    4a0a:	2050                	fld	fa2,128(s0)
    4a0c:	656c                	flw	fa1,76(a0)
    4a0e:	676e                	flw	fa4,216(sp)
    4a10:	6874                	flw	fa3,84(s0)
    4a12:	6320                	flw	fs0,64(a4)
    4a14:	6568                	flw	fa0,76(a0)
    4a16:	75736b63          	bltu	t1,s7,516c <_data_lma+0x5a8>
    4a1a:	206d                	jal	4ac4 <_read+0x270>
    4a1c:	5245                	li	tp,-15
    4a1e:	2e52                	fld	ft8,272(sp)
    4a20:	0d20                	addi	s0,sp,664
    4a22:	0000                	unimp
    4a24:	5355                	li	t1,-11
    4a26:	2042                	fld	ft0,16(sp)
    4a28:	6544                	flw	fs1,12(a0)
    4a2a:	2076                	fld	ft0,344(sp)
    4a2c:	6e49                	lui	t3,0x12
    4a2e:	002e                	c.slli	zero,0xb
    4a30:	5355                	li	t1,-11
    4a32:	2042                	fld	ft0,16(sp)
    4a34:	6f50                	flw	fa2,28(a4)
    4a36:	7472                	flw	fs0,60(sp)
    4a38:	2520                	fld	fs0,72(a0)
    4a3a:	3230                	fld	fa2,96(a2)
    4a3c:	2078                	fld	fa4,192(s0)
    4a3e:	6544                	flw	fs1,12(a0)
    4a40:	6976                	flw	fs2,92(sp)
    4a42:	45206563          	bltu	zero,s2,4e8c <_data_lma+0x2c8>
    4a46:	756e                	flw	fa0,248(sp)
    4a48:	656d                	lui	a0,0x1b
    4a4a:	6172                	flw	ft2,28(sp)
    4a4c:	6974                	flw	fa3,84(a0)
    4a4e:	53206e6f          	jal	t3,af80 <_bootloader_limit+0x2f80>
    4a52:	6375                	lui	t1,0x1d
    4a54:	64656563          	bltu	a0,t1,509e <_data_lma+0x4da>
    4a58:	0a0d                	addi	s4,s4,3
    4a5a:	0000                	unimp
    4a5c:	5355                	li	t1,-11
    4a5e:	2042                	fld	ft0,16(sp)
    4a60:	6f50                	flw	fa2,28(a4)
    4a62:	7472                	flw	fs0,60(sp)
    4a64:	2520                	fld	fs0,72(a0)
    4a66:	3230                	fld	fa2,96(a2)
    4a68:	2078                	fld	fa4,192(s0)
    4a6a:	6544                	flw	fs1,12(a0)
    4a6c:	6976                	flw	fs2,92(sp)
    4a6e:	45206563          	bltu	zero,s2,4eb8 <_data_lma+0x2f4>
    4a72:	756e                	flw	fa0,248(sp)
    4a74:	656d                	lui	a0,0x1b
    4a76:	6172                	flw	ft2,28(sp)
    4a78:	6974                	flw	fa3,84(a0)
    4a7a:	45206e6f          	jal	t3,aecc <_bootloader_limit+0x2ecc>
    4a7e:	5252                	lw	tp,52(sp)
    4a80:	2520                	fld	fs0,72(a0)
    4a82:	3230                	fld	fa2,96(a2)
    4a84:	2e78                	fld	fa4,216(a2)
    4a86:	0a0d                	addi	s4,s4,3
    4a88:	0000                	unimp
    4a8a:	0000                	unimp
    4a8c:	5355                	li	t1,-11
    4a8e:	2042                	fld	ft0,16(sp)
    4a90:	6f50                	flw	fa2,28(a4)
    4a92:	7472                	flw	fs0,60(sp)
    4a94:	2520                	fld	fs0,72(a0)
    4a96:	3230                	fld	fa2,96(a2)
    4a98:	2078                	fld	fa4,192(s0)
    4a9a:	6544                	flw	fs1,12(a0)
    4a9c:	6976                	flw	fs2,92(sp)
    4a9e:	4f206563          	bltu	zero,s2,4f88 <_data_lma+0x3c4>
    4aa2:	7475                	lui	s0,0xffffd
    4aa4:	0d2e                	slli	s10,s10,0xb
    4aa6:	000a                	c.slli	zero,0x2
    4aa8:	6e45                	lui	t3,0x11
    4aaa:	6d75                	lui	s10,0x1d
    4aac:	0d3a                	slli	s10,s10,0xe
    4aae:	0000                	unimp
    4ab0:	3025                	jal	42d8 <_printf_common+0xf2>
    4ab2:	7832                	flw	fa6,44(sp)
    4ab4:	0020                	addi	s0,sp,8
    4ab6:	0000                	unimp
    4ab8:	20746553          	0x20746553
    4abc:	6544                	flw	fs1,12(a0)
    4abe:	4176                	lw	sp,92(sp)
    4ac0:	6464                	flw	fs1,76(s0)
    4ac2:	3a72                	fld	fs4,312(sp)
    4ac4:	0020                	addi	s0,sp,8
    4ac6:	0000                	unimp
    4ac8:	7245                	lui	tp,0xffff1
    4aca:	2872                	fld	fa6,280(sp)
    4acc:	3025                	jal	42f4 <_printf_i+0x2>
    4ace:	7832                	flw	fa6,44(sp)
    4ad0:	0a29                	addi	s4,s4,10
    4ad2:	0000                	unimp
    4ad4:	00004b4f          	fnmadd.s	fs6,ft0,ft0,ft0,rmm
    4ad8:	20746547          	fmsub.s	fa0,fs0,ft7,ft4,unknown
    4adc:	44676643          	0x44676643
    4ae0:	7365                	lui	t1,0xffff9
    4ae2:	00203a63          	0x203a63
    4ae6:	0000                	unimp
    4ae8:	20746553          	0x20746553
    4aec:	3a676643          	fmadd.d	fa2,fa4,ft6,ft7,unknown
    4af0:	0020                	addi	s0,sp,8
    4af2:	0000                	unimp
    4af4:	20746547          	fmsub.s	fa0,fs0,ft7,ft4,unknown
    4af8:	6544                	flw	fs1,12(a0)
    4afa:	4476                	lw	s0,92(sp)
    4afc:	7365                	lui	t1,0xffff9
    4afe:	00203a63          	0x203a63
    4b02:	0000                	unimp
    4b04:	7245                	lui	tp,0xffff1
    4b06:	6f72                	flw	ft10,28(sp)
    4b08:	3a72                	fld	fs4,312(sp)
    4b0a:	3025                	jal	4332 <_printf_i+0x40>
    4b0c:	7832                	flw	fa6,44(sp)
    4b0e:	0a0d                	addi	s4,s4,3
    4b10:	0000                	unimp
    4b12:	0000                	unimp
    4b14:	696c                	flw	fa1,84(a0)
    4b16:	2062                	fld	ft0,24(sp)
    4b18:	6976                	flw	fs2,92(sp)
    4b1a:	6e6f6973          	csrrsi	s2,0x6e6,30
    4b1e:	253a                	fld	fa0,392(sp)
    4b20:	3230                	fld	fa2,96(a2)
    4b22:	0d78                	addi	a4,sp,668
    4b24:	000a                	c.slli	zero,0x2
	...

00004b28 <__sf_fake_stderr>:
	...

00004b48 <__sf_fake_stdin>:
	...

00004b68 <__sf_fake_stdout>:
	...
    4b88:	2d23 2b30 0020 0000 6c68 004c 6665 4567     #-0+ ...hlL.efgE
    4b98:	4746 0000 3130 3332 3534 3736 3938 4241     FG..0123456789AB
    4ba8:	4443 4645 0000 0000 3130 3332 3534 3736     CDEF....01234567
    4bb8:	3938 6261 6463 6665 0000 0000               89abcdef....
