
RISKYKVMBoot.elf:     file format elf32-littleriscv
RISKYKVMBoot.elf
architecture: riscv:rv32, flags 0x00000112:
EXEC_P, HAS_SYMS, D_PAGED
start address 0x00008000

Program Header:
    LOAD off    0x00001000 vaddr 0x00008000 paddr 0x00008000 align 2**12
         filesz 0x00005a98 memsz 0x00005a98 flags r-x
    LOAD off    0x00007000 vaddr 0x20000000 paddr 0x0000da98 align 2**12
         filesz 0x00000070 memsz 0x00001ba4 flags rw-
    LOAD off    0x00007800 vaddr 0x20004800 paddr 0x20004800 align 2**12
         filesz 0x00000000 memsz 0x00000800 flags rw-

Sections:
Idx Name           Size      VMA       LMA       File off  Algn  Flags
  0 .init          00000038  00008000  00008000  00001000  2**1  CONTENTS, ALLOC, LOAD, READONLY, CODE
  1 .vector        00000108  00008038  00008038  00001038  2**1  CONTENTS, ALLOC, LOAD, READONLY, CODE
  2 .text          00005958  00008140  00008140  00001140  2**2  CONTENTS, ALLOC, LOAD, READONLY, CODE
  3 .fini          00000000  0000da98  0000da98  00007070  2**0  CONTENTS, ALLOC, LOAD, CODE
  4 .dalign        00000000  20000000  20000000  00007070  2**0  CONTENTS
  5 .dlalign       00000000  0000da98  0000da98  00007070  2**0  CONTENTS
  6 .data          00000070  20000000  0000da98  00007000  2**2  CONTENTS, ALLOC, LOAD, DATA
  7 .bss           00001b34  20000070  0000db08  00007070  2**2  ALLOC
  8 .stack         00000800  20004800  20004800  00007800  2**0  ALLOC
  9 .debug_info    0001ebff  00000000  00000000  00007070  2**0  CONTENTS, READONLY, DEBUGGING
 10 .debug_abbrev  00004920  00000000  00000000  00025c6f  2**0  CONTENTS, READONLY, DEBUGGING
 11 .debug_loc     0000a922  00000000  00000000  0002a58f  2**0  CONTENTS, READONLY, DEBUGGING
 12 .debug_aranges 00000990  00000000  00000000  00034eb8  2**3  CONTENTS, READONLY, DEBUGGING
 13 .debug_ranges  00001480  00000000  00000000  00035848  2**3  CONTENTS, READONLY, DEBUGGING
 14 .debug_line    000186d5  00000000  00000000  00036cc8  2**0  CONTENTS, READONLY, DEBUGGING
 15 .debug_str     00003a94  00000000  00000000  0004f39d  2**0  CONTENTS, READONLY, DEBUGGING
 16 .comment       00000033  00000000  00000000  00052e31  2**0  CONTENTS, READONLY
 17 .debug_frame   00001964  00000000  00000000  00052e64  2**2  CONTENTS, READONLY, DEBUGGING
SYMBOL TABLE:
00008000 l    d  .init	00000000 .init
00008038 l    d  .vector	00000000 .vector
00008140 l    d  .text	00000000 .text
0000da98 l    d  .fini	00000000 .fini
20000000 l    d  .dalign	00000000 .dalign
0000da98 l    d  .dlalign	00000000 .dlalign
20000000 l    d  .data	00000000 .data
20000070 l    d  .bss	00000000 .bss
20004800 l    d  .stack	00000000 .stack
00000000 l    d  .debug_info	00000000 .debug_info
00000000 l    d  .debug_abbrev	00000000 .debug_abbrev
00000000 l    d  .debug_loc	00000000 .debug_loc
00000000 l    d  .debug_aranges	00000000 .debug_aranges
00000000 l    d  .debug_ranges	00000000 .debug_ranges
00000000 l    d  .debug_line	00000000 .debug_line
00000000 l    d  .debug_str	00000000 .debug_str
00000000 l    d  .comment	00000000 .comment
00000000 l    d  .debug_frame	00000000 .debug_frame
00000000 l    df *ABS*	00000000 ./Startup/startup_ch32v20x_D6.o
00008038 l       .vector	00000000 _vector_base
00000000 l    df *ABS*	00000000 app_km.c
00000000 l    df *ABS*	00000000 ch32v20x_usbfs_host.c
00009e04 l     F .text	00000318 USBFSH_CtrlTransfer.part.1
20000008 l     O .data	00000008 SetupClearEndpStall
20000010 l     O .data	00000008 SetupGetCfgDesc
20000018 l     O .data	00000008 SetupGetDevDesc
20000020 l     O .data	00000008 SetupGetStrDesc
20000028 l     O .data	00000008 SetupSetAddr
20000030 l     O .data	00000008 SetupSetConfig
00000000 l    df *ABS*	00000000 usb_gamepad.c
20000088 l     O .bss	00000040 gamepad_report_data
00000000 l    df *ABS*	00000000 usb_hid_reportparser.c
00000000 l    df *ABS*	00000000 usb_host_hid.c
20000038 l     O .data	00000008 SetupGetHidDes
20000040 l     O .data	00000008 SetupSetReport
20000048 l     O .data	00000008 SetupSetidle
00000000 l    df *ABS*	00000000 usb_host_hub.c
20000050 l     O .data	00000008 ClearPortFeature
20000058 l     O .data	00000008 GetHubDescr
20000060 l     O .data	00000008 GetPortStatus
20000068 l     O .data	00000008 SetPortFeature
00000000 l    df *ABS*	00000000 usb_keyboard.c
00000000 l    df *ABS*	00000000 usb_mouse.c
00000000 l    df *ABS*	00000000 ch32v20x_it.c
00000000 l    df *ABS*	00000000 gamepad.c
00000000 l    df *ABS*	00000000 gpio.c
00000000 l    df *ABS*	00000000 keyboard.c
0000b6fe l     F .text	000001c2 amikb_send
200000c8 l     O .bss	0000000e prevkeycode
0000d9b4 l     O .text	000000e4 scancodeamiga
20000070 l     O .bss	00000001 capslk
20000072 l     O .bss	00000001 numlk
20000073 l     O .bss	00000001 scrolllk
20000000 l     O .data	00000001 prev_keycode
00000000 l    df *ABS*	00000000 main.c
00000000 l    df *ABS*	00000000 mouse.c
00000000 l    df *ABS*	00000000 system_ch32v20x.c
00000000 l    df *ABS*	00000000 tim.c
00000000 l    df *ABS*	00000000 utils.c
00000000 l    df *ABS*	00000000 ch32v20x_exti.c
00000000 l    df *ABS*	00000000 ch32v20x_gpio.c
00000000 l    df *ABS*	00000000 ch32v20x_misc.c
00000000 l    df *ABS*	00000000 ch32v20x_rcc.c
00000000 l    df *ABS*	00000000 ch32v20x_tim.c
00000000 l    df *ABS*	00000000 debug.c
20000084 l     O .bss	00000002 p_ms
20000086 l     O .bss	00000001 p_us
00000000 l    df *ABS*	00000000 memchr.c
00000000 l    df *ABS*	00000000 memcpy.c
0000ceec  w      .text	00000000 EXTI2_IRQHandler
20001ae4 g     O .bss	00000010 keybd_report_data
20000800 g       .data	00000000 __global_pointer$
0000cf12  w      .text	00000000 TIM1_CC_IRQHandler
0000b402 g     F .text	00000002 HardFault_Handler
0000b204 g     F .text	000001fa USB_GetMouseInfo
0000a53e g     F .text	0000009a USBFSH_ClearEndpStall
20001af4 g     O .bss	0000000e keybd_info
0000ced8  w      .text	00000000 SysTick_Handler
0000d5b6 g     F .text	000000e6 NVIC_Init
0000cd72 g     F .text	00000086 FifoWrite
0000a646 g     F .text	00000052 USBFSH_SendEndpData
0000cede  w      .text	00000000 PVD_IRQHandler
0000a3cc g     F .text	000000d8 USBFSH_SetUsbAddress
0000ccf0 g     F .text	00000018 FifoInit
0000b3fe g     F .text	00000004 NMI_Handler
0000ceee  w      .text	00000000 EXTI3_IRQHandler
0000b8c0 g     F .text	000006e8 amikb_process
00009a42 g     F .text	00000072 USBFS_RCC_Init
0000a206 g     F .text	000000f6 USBFSH_GetConfigDescr
20001a60 g     O .bss	00000040 USBFS_RX_Buf
20000070 g       .bss	00000000 _sbss
00000800 g       *ABS*	00000000 __stack_size
200000d8 g     O .bss	00001554 HostCtl
0000a4a4 g     F .text	0000009a USBFSH_SetUsbConfig
20001b04 g     O .bss	0000000a mouse_info
20000076 g     O .bss	00000002 mouseDistanceX
0000b422 g     F .text	000000a2 ProcessGamepad
0000d8c0 g     F .text	000000b6 memcpy
0000cc26 g     F .text	00000076 TIM4_Init
0000afb8 g     F .text	00000030 HID_GetHidDesr
0000cee8  w      .text	00000000 EXTI0_IRQHandler
0000cf1e  w      .text	00000000 I2C2_EV_IRQHandler
0000d7a4 g     F .text	00000020 TIM_Cmd
0000afe8 g     F .text	00000028 HID_SetReport
20000075 g     O .bss	00000001 mouseDirectionY
20000004 g     O .data	00000004 SystemCoreClock
20000002 g     O .data	00000001 yTimerTop
20001ae0 g     O .bss	00000002 gamepad_info
2000007c g     O .bss	00000001 previousMMB
00008038 g       .init	00000000 _einit
0000d7fa g     F .text	0000000e TIM_ClearITPendingBit
0000d6d4 g     F .text	0000001e RCC_APB2PeriphClockCmd
0000cf00  w      .text	00000000 ADC1_2_IRQHandler
0000d05a g     F .text	000004ba GPIO_Init
0000ced6  w      .text	00000000 Break_Point_Handler
20000080 g     O .bss	00000004 NVIC_Priority_Group
0000cf22  w      .text	00000000 SPI1_IRQHandler
0000cee0  w      .text	00000000 TAMPER_IRQHandler
0000d574 g     F .text	00000018 GPIO_Write
000090bc g     F .text	00000152 USBH_EnumHubPortDevice
0000d538 g     F .text	00000020 GPIO_ReadOutputData
0000d6f2 g     F .text	0000001e RCC_APB1PeriphClockCmd
0000ced2  w      .text	00000000 Ecall_M_Mode_Handler
20004800 g       .stack	00000000 _heap_end
2000162c g     O .bss	00000012 DevDesc_Buf
0000d832 g     F .text	0000003a Delay_Us
0000d6b6 g     F .text	0000001e RCC_AHBPeriphClockCmd
0000cef8  w      .text	00000000 DMA1_Channel4_IRQHandler
0000cf2a  w      .text	00000000 USART3_IRQHandler
0000d050 g     F .text	0000000a EXTI_ClearITPendingBit
0000cee2  w      .text	00000000 RTC_IRQHandler
20001ba4 g       .bss	00000000 _ebss
2000007a g     O .bss	00000001 mouseEncoderPhaseX
0000b040 g     F .text	00000034 HUB_GetPortStatus
0000cefe  w      .text	00000000 DMA1_Channel7_IRQHandler
0000cf06  w      .text	00000000 CAN1_RX1_IRQHandler
0000d808 g     F .text	0000002a Delay_Init
0000b09c g     F .text	00000028 HUB_SetPortFeature
0000ccbe g     F .text	00000032 TIM4_IRQHandler
0000d558 g     F .text	0000001c GPIO_WriteBit
0000a698 g     F .text	0000034e GetGamepadInfo
20000074 g     O .bss	00000001 mouseDirectionX
0000cf1a  w      .text	00000000 I2C1_EV_IRQHandler
0000d7de g     F .text	0000001c TIM_GetITStatus
0000cf32  w      .text	00000000 USBHD_IRQHandler
20001640 g     O .bss	0000001f RootHubDev
20000071 g     O .bss	00000001 i
00008570 g     F .text	00000194 USBH_EnumRootDevice
0000cefc  w      .text	00000000 DMA1_Channel6_IRQHandler
20001b10 g     O .bss	00000008 mouse_report_data
0000cf36  w      .text	00000000 UART4_IRQHandler
0000d8a6 g     F .text	0000001a memchr
0000826c g     F .text	00000304 TIM3_IRQHandler
0000cee6  w      .text	00000000 RCC_IRQHandler
0000cf10  w      .text	00000000 TIM1_TRG_COM_IRQHandler
00008996 g     F .text	000001c0 KM_AnalyzeHidReportDesc
0000cef2  w      .text	00000000 DMA1_Channel1_IRQHandler
00008000 g       .init	00000000 _start
20001660 g     O .bss	00000400 Com_Buf
0000920e g     F .text	00000100 KB_AnalyzeKeyValue
0000b404 g     F .text	0000001e EXTI15_10_IRQHandler
0000d7c4 g     F .text	0000001a TIM_ITConfig
0000cfc4 g     F .text	0000006e EXTI_Init
00008b56 g     F .text	00000210 USBH_EnumHidDevice
0000cf38  w      .text	00000000 DMA1_Channel8_IRQHandler
20000000 g       .dalign	00000000 _data_vma
2000007d g     O .bss	00000001 MCU_Version
00009b68 g     F .text	00000062 USBFSH_SetSelfSpeed
0000930e g     F .text	00000734 USBH_MainDeal
0000cf0a  w      .text	00000000 EXTI9_5_IRQHandler
20000001 g     O .data	00000001 xTimerTop
0000b122 g     F .text	000000e2 USBH_HID_GetKeyboardInfo
0000d58c g     F .text	0000002a GPIO_EXTILineConfig
0000d032 g     F .text	0000001e EXTI_GetITStatus
0000cf24  w      .text	00000000 SPI2_IRQHandler
0000c336 g     F .text	0000000c InitMouse
0000c342 g     F .text	000002da ProcessMouse
00008140 g     F .text	000000a8 memset
0000bfa8 g     F .text	0000038e main
000081e8 g     F .text	00000084 TIM3_Init
0000cdf8 g     F .text	000000d6 collect_bits
00009c5c g     F .text	0000006c USBFSH_EnableRootHubPort
0000c7a6 g     F .text	0000018e ProcessY_IRQ
0000cefa  w      .text	00000000 DMA1_Channel5_IRQHandler
0000d69c g     F .text	0000001a RCC_USBCLKConfig
0000cef0  w      .text	00000000 EXTI4_IRQHandler
0000d86c g     F .text	0000003a Delay_Ms
0000cf04  w      .text	00000000 USB_LP_CAN1_RX0_IRQHandler
0000c61c g     F .text	0000018a ProcessX_IRQ
0000a2fc g     F .text	000000d0 USBFSH_GetStrDescr
0000cb0c g     F .text	000000ac SystemInit
0000cf02  w      .text	00000000 USB_HP_CAN1_TX_IRQHandler
00008000 g       .init	00000000 _sinit
20001aa0 g     O .bss	00000040 USBFS_TX_Buf
00008704 g     F .text	00000292 KM_AnalyzeConfigDesc
0000cf34  w      .text	00000000 USBHDWakeUp_IRQHandler
0000cef6  w      .text	00000000 DMA1_Channel3_IRQHandler
0000cf0e  w      .text	00000000 TIM1_UP_IRQHandler
2000007b g     O .bss	00000001 mouseEncoderPhaseY
0000a172 g     F .text	00000094 USBFSH_GetDeviceDescr
0000a5d8 g     F .text	0000006e USBFSH_GetEndpData
0000cedc  w      .text	00000000 WWDG_IRQHandler
0000b074 g     F .text	00000028 HUB_ClearPortFeature
0000ced4  w      .text	00000000 Ecall_U_Mode_Handler
0000cc9c g     F .text	00000022 TIM2_IRQHandler
20005000 g       .stack	00000000 _eusrstack
0000ceda  w      .text	00000000 SW_Handler
0000b0c4 g     F .text	0000005e HUB_GetClassDevDescr
20000078 g     O .bss	00000002 mouseDistanceY
00008d66 g     F .text	00000156 HUB_AnalyzeConfigDesc
0000cf0c  w      .text	00000000 TIM1_BRK_IRQHandler
00009b18 g     F .text	00000038 USBFSH_CheckRootHubPortStatus
0000ceea  w      .text	00000000 EXTI1_IRQHandler
20000070 g       .data	00000000 _edata
20001b18 g     O .bss	0000008c ScrollBuffer
20001ba4 g       .bss	00000000 _end
0000cd08 g     F .text	0000006a FifoRead
0000d710 g     F .text	00000094 TIM_TimeBaseInit
0000cf2e  w      .text	00000000 RTCAlarm_IRQHandler
00008ff8 g     F .text	000000c4 HUB_Port_PreEnum2
0000da98 g       .dlalign	00000000 _data_lma
00009ab4 g     F .text	00000064 USBFS_Host_Init
0000b010 g     F .text	00000030 HID_SetIdle
0000cf28  w      .text	00000000 USART2_IRQHandler
00009bca g     F .text	00000092 USBFSH_ResetRootHubPort
0000cf20  w      .text	00000000 I2C2_ER_IRQHandler
0000cef4  w      .text	00000000 DMA1_Channel2_IRQHandler
0000b4c4 g     F .text	0000023a GPIO_Config
0000cf3a  w      .text	00000000 handle_reset
0000cf08  w      .text	00000000 CAN1_SCE_IRQHandler
0000cee4  w      .text	00000000 FLASH_IRQHandler
00008ebc g     F .text	0000013c USBH_EnumHubDevice
0000cbb8 g     F .text	0000006e TIM2_Init
0000cf26  w      .text	00000000 USART1_IRQHandler
00009b50 g     F .text	00000018 USBFSH_SetSelfAddr
0000c934 g     F .text	000001d8 ProcessScrollIRQ
0000cf1c  w      .text	00000000 I2C1_ER_IRQHandler
00009cc8 g     F .text	0000013c USBFSH_Transact
0000a9e6 g     F .text	000005d2 parse_report_descriptor
0000d514 g     F .text	00000024 GPIO_ReadInputDataBit
0000cf30  w      .text	00000000 USBWakeUp_IRQHandler
0000a11c g     F .text	00000056 USBFSH_CtrlTransfer



Disassembly of section .init:

00008000 <_sinit>:
_start():
C:/Repository/RISKYKVM/firmware/src/Startup/startup_ch32v20x_D6.S:18

	.section	.init,"ax",@progbits
	.global	_start
	.align	1
_start:
	j	handle_reset
    8000:	73b0406f          	j	cf3a <handle_reset>
    8004:	00000013          	nop
    8008:	00000013          	nop
    800c:	00000013          	nop
    8010:	00000013          	nop
    8014:	00000013          	nop
    8018:	00000013          	nop
    801c:	00000013          	nop
    8020:	00000013          	nop
    8024:	00000013          	nop
    8028:	00000013          	nop
    802c:	00000013          	nop
    8030:	00000013          	nop
    8034:	00100073          	ebreak

Disassembly of section .vector:

00008038 <_vector_base>:
_vector_base():
    8038:	8000                	0x8000
    803a:	0000                	unimp
    803c:	0000                	unimp
    803e:	0000                	unimp
    8040:	b3fe                	fsd	ft11,480(sp)
    8042:	0000                	unimp
    8044:	b402                	fsd	ft0,40(sp)
    8046:	0000                	unimp
    8048:	0000                	unimp
    804a:	0000                	unimp
    804c:	ced2                	sw	s4,92(sp)
	...
    8056:	0000                	unimp
    8058:	ced4                	sw	a3,28(a3)
    805a:	0000                	unimp
    805c:	ced6                	sw	s5,92(sp)
	...
    8066:	0000                	unimp
    8068:	ced8                	sw	a4,28(a3)
    806a:	0000                	unimp
    806c:	0000                	unimp
    806e:	0000                	unimp
    8070:	ceda                	sw	s6,92(sp)
    8072:	0000                	unimp
    8074:	0000                	unimp
    8076:	0000                	unimp
    8078:	cedc                	sw	a5,28(a3)
    807a:	0000                	unimp
    807c:	cede                	sw	s7,92(sp)
    807e:	0000                	unimp
    8080:	cee0                	sw	s0,92(a3)
    8082:	0000                	unimp
    8084:	cee2                	sw	s8,92(sp)
    8086:	0000                	unimp
    8088:	cee4                	sw	s1,92(a3)
    808a:	0000                	unimp
    808c:	cee6                	sw	s9,92(sp)
    808e:	0000                	unimp
    8090:	cee8                	sw	a0,92(a3)
    8092:	0000                	unimp
    8094:	ceea                	sw	s10,92(sp)
    8096:	0000                	unimp
    8098:	ceec                	sw	a1,92(a3)
    809a:	0000                	unimp
    809c:	ceee                	sw	s11,92(sp)
    809e:	0000                	unimp
    80a0:	cef0                	sw	a2,92(a3)
    80a2:	0000                	unimp
    80a4:	cef2                	sw	t3,92(sp)
    80a6:	0000                	unimp
    80a8:	cef4                	sw	a3,92(a3)
    80aa:	0000                	unimp
    80ac:	cef6                	sw	t4,92(sp)
    80ae:	0000                	unimp
    80b0:	cef8                	sw	a4,92(a3)
    80b2:	0000                	unimp
    80b4:	cefa                	sw	t5,92(sp)
    80b6:	0000                	unimp
    80b8:	cefc                	sw	a5,92(a3)
    80ba:	0000                	unimp
    80bc:	cefe                	sw	t6,92(sp)
    80be:	0000                	unimp
    80c0:	cf00                	sw	s0,24(a4)
    80c2:	0000                	unimp
    80c4:	cf02                	sw	zero,156(sp)
    80c6:	0000                	unimp
    80c8:	cf04                	sw	s1,24(a4)
    80ca:	0000                	unimp
    80cc:	cf06                	sw	ra,156(sp)
    80ce:	0000                	unimp
    80d0:	cf08                	sw	a0,24(a4)
    80d2:	0000                	unimp
    80d4:	cf0a                	sw	sp,156(sp)
    80d6:	0000                	unimp
    80d8:	cf0c                	sw	a1,24(a4)
    80da:	0000                	unimp
    80dc:	cf0e                	sw	gp,156(sp)
    80de:	0000                	unimp
    80e0:	cf10                	sw	a2,24(a4)
    80e2:	0000                	unimp
    80e4:	cf12                	sw	tp,156(sp)
    80e6:	0000                	unimp
    80e8:	cc9c                	sw	a5,24(s1)
    80ea:	0000                	unimp
    80ec:	826c                	0x826c
    80ee:	0000                	unimp
    80f0:	ccbe                	sw	a5,88(sp)
    80f2:	0000                	unimp
    80f4:	cf1a                	sw	t1,156(sp)
    80f6:	0000                	unimp
    80f8:	cf1c                	sw	a5,24(a4)
    80fa:	0000                	unimp
    80fc:	cf1e                	sw	t2,156(sp)
    80fe:	0000                	unimp
    8100:	cf20                	sw	s0,88(a4)
    8102:	0000                	unimp
    8104:	cf22                	sw	s0,156(sp)
    8106:	0000                	unimp
    8108:	cf24                	sw	s1,88(a4)
    810a:	0000                	unimp
    810c:	cf26                	sw	s1,156(sp)
    810e:	0000                	unimp
    8110:	cf28                	sw	a0,88(a4)
    8112:	0000                	unimp
    8114:	cf2a                	sw	a0,156(sp)
    8116:	0000                	unimp
    8118:	b404                	fsd	fs1,40(s0)
    811a:	0000                	unimp
    811c:	cf2e                	sw	a1,156(sp)
    811e:	0000                	unimp
    8120:	cf30                	sw	a2,88(a4)
    8122:	0000                	unimp
    8124:	cf32                	sw	a2,156(sp)
    8126:	0000                	unimp
    8128:	cf34                	sw	a3,88(a4)
    812a:	0000                	unimp
    812c:	cf36                	sw	a3,156(sp)
    812e:	0000                	unimp
    8130:	cf38                	sw	a4,88(a4)
	...

Disassembly of section .text:

00008140 <memset>:
memset():
    8140:	433d                	li	t1,15
    8142:	872a                	mv	a4,a0
    8144:	02c37363          	bgeu	t1,a2,816a <memset+0x2a>
    8148:	00f77793          	andi	a5,a4,15
    814c:	efbd                	bnez	a5,81ca <memset+0x8a>
    814e:	e5ad                	bnez	a1,81b8 <memset+0x78>
    8150:	ff067693          	andi	a3,a2,-16
    8154:	8a3d                	andi	a2,a2,15
    8156:	96ba                	add	a3,a3,a4
    8158:	c30c                	sw	a1,0(a4)
    815a:	c34c                	sw	a1,4(a4)
    815c:	c70c                	sw	a1,8(a4)
    815e:	c74c                	sw	a1,12(a4)
    8160:	0741                	addi	a4,a4,16
    8162:	fed76be3          	bltu	a4,a3,8158 <memset+0x18>
    8166:	e211                	bnez	a2,816a <memset+0x2a>
    8168:	8082                	ret
    816a:	40c306b3          	sub	a3,t1,a2
    816e:	068a                	slli	a3,a3,0x2
    8170:	00000297          	auipc	t0,0x0
    8174:	9696                	add	a3,a3,t0
    8176:	00a68067          	jr	10(a3)
    817a:	00b70723          	sb	a1,14(a4)
    817e:	00b706a3          	sb	a1,13(a4)
    8182:	00b70623          	sb	a1,12(a4)
    8186:	00b705a3          	sb	a1,11(a4)
    818a:	00b70523          	sb	a1,10(a4)
    818e:	00b704a3          	sb	a1,9(a4)
    8192:	00b70423          	sb	a1,8(a4)
    8196:	00b703a3          	sb	a1,7(a4)
    819a:	00b70323          	sb	a1,6(a4)
    819e:	00b702a3          	sb	a1,5(a4)
    81a2:	00b70223          	sb	a1,4(a4)
    81a6:	00b701a3          	sb	a1,3(a4)
    81aa:	00b70123          	sb	a1,2(a4)
    81ae:	00b700a3          	sb	a1,1(a4)
    81b2:	00b70023          	sb	a1,0(a4)
    81b6:	8082                	ret
    81b8:	0ff5f593          	andi	a1,a1,255
    81bc:	00859693          	slli	a3,a1,0x8
    81c0:	8dd5                	or	a1,a1,a3
    81c2:	01059693          	slli	a3,a1,0x10
    81c6:	8dd5                	or	a1,a1,a3
    81c8:	b761                	j	8150 <memset+0x10>
    81ca:	00279693          	slli	a3,a5,0x2
    81ce:	00000297          	auipc	t0,0x0
    81d2:	9696                	add	a3,a3,t0
    81d4:	8286                	mv	t0,ra
    81d6:	fa8680e7          	jalr	-88(a3)
    81da:	8096                	mv	ra,t0
    81dc:	17c1                	addi	a5,a5,-16
    81de:	8f1d                	sub	a4,a4,a5
    81e0:	963e                	add	a2,a2,a5
    81e2:	f8c374e3          	bgeu	t1,a2,816a <memset+0x2a>
    81e6:	b7a5                	j	814e <memset+0xe>

000081e8 <TIM3_Init>:
TIM3_Init():
C:/Repository/RISKYKVM/firmware/src/User/USB_Host/app_km.c:41
 *          psc - The specifies prescaler value.
 *
 * @return  none
 */
void TIM3_Init( uint16_t arr, uint16_t psc )
{
    81e8:	7179                	addi	sp,sp,-48
    81ea:	d226                	sw	s1,36(sp)
    81ec:	d04a                	sw	s2,32(sp)
    81ee:	84ae                	mv	s1,a1
    81f0:	892a                	mv	s2,a0
C:/Repository/RISKYKVM/firmware/src/User/USB_Host/app_km.c:46
    TIM_TimeBaseInitTypeDef TIM_TimeBaseStructure = { 0 };
    NVIC_InitTypeDef NVIC_InitStructure = { 0 };

    /* Enable timer3 clock */
    RCC_APB1PeriphClockCmd( RCC_APB1Periph_TIM3, ENABLE );
    81f2:	4585                	li	a1,1
    81f4:	4509                	li	a0,2
C:/Repository/RISKYKVM/firmware/src/User/USB_Host/app_km.c:41
{
    81f6:	d606                	sw	ra,44(sp)
    81f8:	d422                	sw	s0,40(sp)
C:/Repository/RISKYKVM/firmware/src/User/USB_Host/app_km.c:42
    TIM_TimeBaseInitTypeDef TIM_TimeBaseStructure = { 0 };
    81fa:	ca02                	sw	zero,20(sp)
C:/Repository/RISKYKVM/firmware/src/User/USB_Host/app_km.c:53
    /* Initialize timer3 */
    TIM_TimeBaseStructure.TIM_Period = arr;
    TIM_TimeBaseStructure.TIM_Prescaler = psc;
    TIM_TimeBaseStructure.TIM_ClockDivision = TIM_CKD_DIV1;
    TIM_TimeBaseStructure.TIM_CounterMode = TIM_CounterMode_Up;
    TIM_TimeBaseInit( TIM3, &TIM_TimeBaseStructure );
    81fc:	40000437          	lui	s0,0x40000
C:/Repository/RISKYKVM/firmware/src/User/USB_Host/app_km.c:42
    TIM_TimeBaseInitTypeDef TIM_TimeBaseStructure = { 0 };
    8200:	cc02                	sw	zero,24(sp)
    8202:	00011e23          	sh	zero,28(sp)
C:/Repository/RISKYKVM/firmware/src/User/USB_Host/app_km.c:43
    NVIC_InitTypeDef NVIC_InitStructure = { 0 };
    8206:	c602                	sw	zero,12(sp)
    8208:	c802                	sw	zero,16(sp)
C:/Repository/RISKYKVM/firmware/src/User/USB_Host/app_km.c:46
    RCC_APB1PeriphClockCmd( RCC_APB1Periph_TIM3, ENABLE );
    820a:	4e8050ef          	jal	ra,d6f2 <RCC_APB1PeriphClockCmd>
C:/Repository/RISKYKVM/firmware/src/User/USB_Host/app_km.c:53
    TIM_TimeBaseInit( TIM3, &TIM_TimeBaseStructure );
    820e:	084c                	addi	a1,sp,20
    8210:	40040513          	addi	a0,s0,1024 # 40000400 <_eusrstack+0x1fffb400>
C:/Repository/RISKYKVM/firmware/src/User/USB_Host/app_km.c:49
    TIM_TimeBaseStructure.TIM_Period = arr;
    8214:	01211c23          	sh	s2,24(sp)
C:/Repository/RISKYKVM/firmware/src/User/USB_Host/app_km.c:50
    TIM_TimeBaseStructure.TIM_Prescaler = psc;
    8218:	00911a23          	sh	s1,20(sp)
C:/Repository/RISKYKVM/firmware/src/User/USB_Host/app_km.c:51
    TIM_TimeBaseStructure.TIM_ClockDivision = TIM_CKD_DIV1;
    821c:	00011d23          	sh	zero,26(sp)
C:/Repository/RISKYKVM/firmware/src/User/USB_Host/app_km.c:52
    TIM_TimeBaseStructure.TIM_CounterMode = TIM_CounterMode_Up;
    8220:	00011b23          	sh	zero,22(sp)
C:/Repository/RISKYKVM/firmware/src/User/USB_Host/app_km.c:53
    TIM_TimeBaseInit( TIM3, &TIM_TimeBaseStructure );
    8224:	4ec050ef          	jal	ra,d710 <TIM_TimeBaseInit>
C:/Repository/RISKYKVM/firmware/src/User/USB_Host/app_km.c:56

    /* Enable updating timer3 interrupt */
    TIM_ITConfig( TIM3, TIM_IT_Update, ENABLE );
    8228:	4605                	li	a2,1
    822a:	4585                	li	a1,1
    822c:	40040513          	addi	a0,s0,1024
    8230:	594050ef          	jal	ra,d7c4 <TIM_ITConfig>
C:/Repository/RISKYKVM/firmware/src/User/USB_Host/app_km.c:59

    /* Configure timer3 interrupt */
    NVIC_InitStructure.NVIC_IRQChannel = TIM3_IRQn;
    8234:	12d00793          	li	a5,301
    8238:	00f11623          	sh	a5,12(sp)
C:/Repository/RISKYKVM/firmware/src/User/USB_Host/app_km.c:61
    NVIC_InitStructure.NVIC_IRQChannelPreemptionPriority = 1;
    NVIC_InitStructure.NVIC_IRQChannelSubPriority = 2;
    823c:	4789                	li	a5,2
C:/Repository/RISKYKVM/firmware/src/User/USB_Host/app_km.c:63
    NVIC_InitStructure.NVIC_IRQChannelCmd = ENABLE;
    NVIC_Init( &NVIC_InitStructure );
    823e:	0068                	addi	a0,sp,12
C:/Repository/RISKYKVM/firmware/src/User/USB_Host/app_km.c:61
    NVIC_InitStructure.NVIC_IRQChannelSubPriority = 2;
    8240:	00f10723          	sb	a5,14(sp)
C:/Repository/RISKYKVM/firmware/src/User/USB_Host/app_km.c:62
    NVIC_InitStructure.NVIC_IRQChannelCmd = ENABLE;
    8244:	4785                	li	a5,1
    8246:	c83e                	sw	a5,16(sp)
C:/Repository/RISKYKVM/firmware/src/User/USB_Host/app_km.c:63
    NVIC_Init( &NVIC_InitStructure );
    8248:	36e050ef          	jal	ra,d5b6 <NVIC_Init>
C:/Repository/RISKYKVM/firmware/src/User/USB_Host/app_km.c:66

    /* Enable timer3 */
    TIM_Cmd( TIM3, ENABLE );
    824c:	40040513          	addi	a0,s0,1024
    8250:	4585                	li	a1,1
    8252:	552050ef          	jal	ra,d7a4 <TIM_Cmd>
C:/Repository/RISKYKVM/firmware/src/User/USB_Host/app_km.c:70

    /* Enable timer3 interrupt */
    NVIC_EnableIRQ( TIM3_IRQn );
}
    8256:	50b2                	lw	ra,44(sp)
    8258:	5422                	lw	s0,40(sp)
NVIC_EnableIRQ():
C:\Repository\RISKYKVM\firmware\src\Core/core_riscv.h:170
 *
 * @return  none
 */
RV_STATIC_INLINE void NVIC_EnableIRQ(IRQn_Type IRQn)
{
  NVIC->IENR[((uint32_t)(IRQn) >> 5)] = (1 << ((uint32_t)(IRQn) & 0x1F));
    825a:	e000e7b7          	lui	a5,0xe000e
    825e:	6709                	lui	a4,0x2
    8260:	10e7a223          	sw	a4,260(a5) # e000e104 <_eusrstack+0xc0009104>
TIM3_Init():
C:/Repository/RISKYKVM/firmware/src/User/USB_Host/app_km.c:70
    8264:	5492                	lw	s1,36(sp)
    8266:	5902                	lw	s2,32(sp)
    8268:	6145                	addi	sp,sp,48
    826a:	8082                	ret

0000826c <TIM3_IRQHandler>:
TIM3_IRQHandler():
C:/Repository/RISKYKVM/firmware/src/User/USB_Host/app_km.c:80
 * @brief   This function handles TIM3 global interrupt request.
 *
 * @return  none
 */
void TIM3_IRQHandler( void )
{
    826c:	1141                	addi	sp,sp,-16
    826e:	c622                	sw	s0,12(sp)
C:/Repository/RISKYKVM/firmware/src/User/USB_Host/app_km.c:85
    uint8_t index;
    uint8_t hub_port;
    uint8_t intf_num, in_num;

    if( TIM_GetITStatus( TIM3, TIM_IT_Update ) != RESET )
    8270:	40000437          	lui	s0,0x40000
    8274:	4585                	li	a1,1
    8276:	40040513          	addi	a0,s0,1024 # 40000400 <_eusrstack+0x1fffb400>
    827a:	564050ef          	jal	ra,d7de <TIM_GetITStatus>
    827e:	e509                	bnez	a0,8288 <TIM3_IRQHandler+0x1c>
C:/Repository/RISKYKVM/firmware/src/User/USB_Host/app_km.c:128
                    }
                }
            }
        }
    }
}
    8280:	4432                	lw	s0,12(sp)
    8282:	0141                	addi	sp,sp,16
    8284:	30200073          	mret
C:/Repository/RISKYKVM/firmware/src/User/USB_Host/app_km.c:88
        TIM_ClearITPendingBit( TIM3, TIM_IT_Update );
    8288:	4585                	li	a1,1
    828a:	40040513          	addi	a0,s0,1024
    828e:	56c050ef          	jal	ra,d7fa <TIM_ClearITPendingBit>
C:/Repository/RISKYKVM/firmware/src/User/USB_Host/app_km.c:91
        if( RootHubDev.bStatus >= ROOT_DEV_SUCCESS )
    8292:	200017b7          	lui	a5,0x20001
    8296:	6407c683          	lbu	a3,1600(a5) # 20001640 <RootHubDev>
    829a:	4709                	li	a4,2
    829c:	fed772e3          	bgeu	a4,a3,8280 <TIM3_IRQHandler+0x14>
C:/Repository/RISKYKVM/firmware/src/User/USB_Host/app_km.c:93
            index = RootHubDev.DeviceIndex;
    82a0:	64078593          	addi	a1,a5,1600
C:/Repository/RISKYKVM/firmware/src/User/USB_Host/app_km.c:94
            if( RootHubDev.bType == USB_DEV_CLASS_HID )
    82a4:	0015c503          	lbu	a0,1(a1)
    82a8:	460d                	li	a2,3
C:/Repository/RISKYKVM/firmware/src/User/USB_Host/app_km.c:93
            index = RootHubDev.DeviceIndex;
    82aa:	0055c683          	lbu	a3,5(a1)
C:/Repository/RISKYKVM/firmware/src/User/USB_Host/app_km.c:94
            if( RootHubDev.bType == USB_DEV_CLASS_HID )
    82ae:	16c50e63          	beq	a0,a2,842a <TIM3_IRQHandler+0x1be>
C:/Repository/RISKYKVM/firmware/src/User/USB_Host/app_km.c:104
            else if( RootHubDev.bType == USB_DEV_CLASS_HUB )
    82b2:	4725                	li	a4,9
    82b4:	fce516e3          	bne	a0,a4,8280 <TIM3_IRQHandler+0x14>
C:/Repository/RISKYKVM/firmware/src/User/USB_Host/app_km.c:106
                HostCtl[ index ].Interface[ 0 ].InEndpTimeCount[ 0 ]++;
    82b8:	44400713          	li	a4,1092
    82bc:	02e68733          	mul	a4,a3,a4
    82c0:	20000637          	lui	a2,0x20000
    82c4:	0d860613          	addi	a2,a2,216 # 200000d8 <HostCtl>
C:/Repository/RISKYKVM/firmware/src/User/USB_Host/app_km.c:107
                for( hub_port = 0; hub_port < RootHubDev.bPortNum; hub_port++ )
    82c8:	0065c503          	lbu	a0,6(a1)
C:/Repository/RISKYKVM/firmware/src/User/USB_Host/app_km.c:106
                HostCtl[ index ].Interface[ 0 ].InEndpTimeCount[ 0 ]++;
    82cc:	9732                	add	a4,a4,a2
    82ce:	02474683          	lbu	a3,36(a4) # 2024 <__stack_size+0x1824>
    82d2:	0685                	addi	a3,a3,1
    82d4:	02d70223          	sb	a3,36(a4)
C:/Repository/RISKYKVM/firmware/src/User/USB_Host/app_km.c:107
                for( hub_port = 0; hub_port < RootHubDev.bPortNum; hub_port++ )
    82d8:	d545                	beqz	a0,8280 <TIM3_IRQHandler+0x14>
    82da:	64078793          	addi	a5,a5,1600
    82de:	4701                	li	a4,0
C:/Repository/RISKYKVM/firmware/src/User/USB_Host/app_km.c:109
                    if( RootHubDev.Device[ hub_port ].bStatus >= ROOT_DEV_SUCCESS )
    82e0:	4589                	li	a1,2
C:/Repository/RISKYKVM/firmware/src/User/USB_Host/app_km.c:113
                        if( RootHubDev.Device[ hub_port ].bType == USB_DEV_CLASS_HID )
    82e2:	480d                	li	a6,3
C:/Repository/RISKYKVM/firmware/src/User/USB_Host/app_km.c:115
                            for( intf_num = 0; intf_num < HostCtl[ index ].InterfaceNum; intf_num++ )
    82e4:	44400e13          	li	t3,1092
    82e8:	4305                	li	t1,1
    82ea:	a039                	j	82f8 <TIM3_IRQHandler+0x8c>
C:/Repository/RISKYKVM/firmware/src/User/USB_Host/app_km.c:107
                for( hub_port = 0; hub_port < RootHubDev.bPortNum; hub_port++ )
    82ec:	0705                	addi	a4,a4,1
    82ee:	0ff77713          	andi	a4,a4,255
    82f2:	0799                	addi	a5,a5,6
    82f4:	f8a706e3          	beq	a4,a0,8280 <TIM3_IRQHandler+0x14>
C:/Repository/RISKYKVM/firmware/src/User/USB_Host/app_km.c:109
                    if( RootHubDev.Device[ hub_port ].bStatus >= ROOT_DEV_SUCCESS )
    82f8:	0077c683          	lbu	a3,7(a5)
    82fc:	fed5f8e3          	bgeu	a1,a3,82ec <TIM3_IRQHandler+0x80>
C:/Repository/RISKYKVM/firmware/src/User/USB_Host/app_km.c:113
                        if( RootHubDev.Device[ hub_port ].bType == USB_DEV_CLASS_HID )
    8300:	0087c683          	lbu	a3,8(a5)
    8304:	ff0694e3          	bne	a3,a6,82ec <TIM3_IRQHandler+0x80>
C:/Repository/RISKYKVM/firmware/src/User/USB_Host/app_km.c:115
                            for( intf_num = 0; intf_num < HostCtl[ index ].InterfaceNum; intf_num++ )
    8308:	00c7c883          	lbu	a7,12(a5)
    830c:	03c886b3          	mul	a3,a7,t3
    8310:	96b2                	add	a3,a3,a2
    8312:	0006ce83          	lbu	t4,0(a3)
    8316:	fc0e8be3          	beqz	t4,82ec <TIM3_IRQHandler+0x80>
C:/Repository/RISKYKVM/firmware/src/User/USB_Host/app_km.c:117
                                for( in_num = 0; in_num < HostCtl[ index ].Interface[ intf_num ].InEndpNum; in_num++ )
    831a:	00a6cf03          	lbu	t5,10(a3)
    831e:	020f0c63          	beqz	t5,8356 <TIM3_IRQHandler+0xea>
C:/Repository/RISKYKVM/firmware/src/User/USB_Host/app_km.c:119
                                    HostCtl[ index ].Interface[ intf_num ].InEndpTimeCount[ in_num ]++;
    8322:	0246cf83          	lbu	t6,36(a3)
    8326:	0f85                	addi	t6,t6,1
    8328:	03f68223          	sb	t6,36(a3)
C:/Repository/RISKYKVM/firmware/src/User/USB_Host/app_km.c:117
                                for( in_num = 0; in_num < HostCtl[ index ].Interface[ intf_num ].InEndpNum; in_num++ )
    832c:	03e37563          	bgeu	t1,t5,8356 <TIM3_IRQHandler+0xea>
C:/Repository/RISKYKVM/firmware/src/User/USB_Host/app_km.c:119
                                    HostCtl[ index ].Interface[ intf_num ].InEndpTimeCount[ in_num ]++;
    8330:	0256cf83          	lbu	t6,37(a3)
    8334:	0f85                	addi	t6,t6,1
    8336:	03f682a3          	sb	t6,37(a3)
C:/Repository/RISKYKVM/firmware/src/User/USB_Host/app_km.c:117
                                for( in_num = 0; in_num < HostCtl[ index ].Interface[ intf_num ].InEndpNum; in_num++ )
    833a:	00bf0e63          	beq	t5,a1,8356 <TIM3_IRQHandler+0xea>
C:/Repository/RISKYKVM/firmware/src/User/USB_Host/app_km.c:119
                                    HostCtl[ index ].Interface[ intf_num ].InEndpTimeCount[ in_num ]++;
    833e:	0266cf83          	lbu	t6,38(a3)
    8342:	0f85                	addi	t6,t6,1
    8344:	03f68323          	sb	t6,38(a3)
C:/Repository/RISKYKVM/firmware/src/User/USB_Host/app_km.c:117
                                for( in_num = 0; in_num < HostCtl[ index ].Interface[ intf_num ].InEndpNum; in_num++ )
    8348:	010f0763          	beq	t5,a6,8356 <TIM3_IRQHandler+0xea>
C:/Repository/RISKYKVM/firmware/src/User/USB_Host/app_km.c:119
                                    HostCtl[ index ].Interface[ intf_num ].InEndpTimeCount[ in_num ]++;
    834c:	0276cf03          	lbu	t5,39(a3)
    8350:	0f05                	addi	t5,t5,1
    8352:	03e683a3          	sb	t5,39(a3)
C:/Repository/RISKYKVM/firmware/src/User/USB_Host/app_km.c:115
                            for( intf_num = 0; intf_num < HostCtl[ index ].InterfaceNum; intf_num++ )
    8356:	f9d37be3          	bgeu	t1,t4,82ec <TIM3_IRQHandler+0x80>
C:/Repository/RISKYKVM/firmware/src/User/USB_Host/app_km.c:117
                                for( in_num = 0; in_num < HostCtl[ index ].Interface[ intf_num ].InEndpNum; in_num++ )
    835a:	03c886b3          	mul	a3,a7,t3
    835e:	96b2                	add	a3,a3,a2
    8360:	11a6cf03          	lbu	t5,282(a3)
    8364:	020f0c63          	beqz	t5,839c <TIM3_IRQHandler+0x130>
C:/Repository/RISKYKVM/firmware/src/User/USB_Host/app_km.c:119
                                    HostCtl[ index ].Interface[ intf_num ].InEndpTimeCount[ in_num ]++;
    8368:	1346cf83          	lbu	t6,308(a3)
    836c:	0f85                	addi	t6,t6,1
    836e:	13f68a23          	sb	t6,308(a3)
C:/Repository/RISKYKVM/firmware/src/User/USB_Host/app_km.c:117
                                for( in_num = 0; in_num < HostCtl[ index ].Interface[ intf_num ].InEndpNum; in_num++ )
    8372:	03e37563          	bgeu	t1,t5,839c <TIM3_IRQHandler+0x130>
C:/Repository/RISKYKVM/firmware/src/User/USB_Host/app_km.c:119
                                    HostCtl[ index ].Interface[ intf_num ].InEndpTimeCount[ in_num ]++;
    8376:	1356cf83          	lbu	t6,309(a3)
    837a:	0f85                	addi	t6,t6,1
    837c:	13f68aa3          	sb	t6,309(a3)
C:/Repository/RISKYKVM/firmware/src/User/USB_Host/app_km.c:117
                                for( in_num = 0; in_num < HostCtl[ index ].Interface[ intf_num ].InEndpNum; in_num++ )
    8380:	00bf0e63          	beq	t5,a1,839c <TIM3_IRQHandler+0x130>
C:/Repository/RISKYKVM/firmware/src/User/USB_Host/app_km.c:119
                                    HostCtl[ index ].Interface[ intf_num ].InEndpTimeCount[ in_num ]++;
    8384:	1366cf83          	lbu	t6,310(a3)
    8388:	0f85                	addi	t6,t6,1
    838a:	13f68b23          	sb	t6,310(a3)
C:/Repository/RISKYKVM/firmware/src/User/USB_Host/app_km.c:117
                                for( in_num = 0; in_num < HostCtl[ index ].Interface[ intf_num ].InEndpNum; in_num++ )
    838e:	010f0763          	beq	t5,a6,839c <TIM3_IRQHandler+0x130>
C:/Repository/RISKYKVM/firmware/src/User/USB_Host/app_km.c:119
                                    HostCtl[ index ].Interface[ intf_num ].InEndpTimeCount[ in_num ]++;
    8392:	1376cf03          	lbu	t5,311(a3)
    8396:	0f05                	addi	t5,t5,1
    8398:	13e68ba3          	sb	t5,311(a3)
C:/Repository/RISKYKVM/firmware/src/User/USB_Host/app_km.c:115
                            for( intf_num = 0; intf_num < HostCtl[ index ].InterfaceNum; intf_num++ )
    839c:	f4be88e3          	beq	t4,a1,82ec <TIM3_IRQHandler+0x80>
C:/Repository/RISKYKVM/firmware/src/User/USB_Host/app_km.c:117
                                for( in_num = 0; in_num < HostCtl[ index ].Interface[ intf_num ].InEndpNum; in_num++ )
    83a0:	03c886b3          	mul	a3,a7,t3
    83a4:	96b2                	add	a3,a3,a2
    83a6:	22a6cf03          	lbu	t5,554(a3)
    83aa:	020f0c63          	beqz	t5,83e2 <TIM3_IRQHandler+0x176>
C:/Repository/RISKYKVM/firmware/src/User/USB_Host/app_km.c:119
                                    HostCtl[ index ].Interface[ intf_num ].InEndpTimeCount[ in_num ]++;
    83ae:	2446cf83          	lbu	t6,580(a3)
    83b2:	0f85                	addi	t6,t6,1
    83b4:	25f68223          	sb	t6,580(a3)
C:/Repository/RISKYKVM/firmware/src/User/USB_Host/app_km.c:117
                                for( in_num = 0; in_num < HostCtl[ index ].Interface[ intf_num ].InEndpNum; in_num++ )
    83b8:	03e37563          	bgeu	t1,t5,83e2 <TIM3_IRQHandler+0x176>
C:/Repository/RISKYKVM/firmware/src/User/USB_Host/app_km.c:119
                                    HostCtl[ index ].Interface[ intf_num ].InEndpTimeCount[ in_num ]++;
    83bc:	2456cf83          	lbu	t6,581(a3)
    83c0:	0f85                	addi	t6,t6,1
    83c2:	25f682a3          	sb	t6,581(a3)
C:/Repository/RISKYKVM/firmware/src/User/USB_Host/app_km.c:117
                                for( in_num = 0; in_num < HostCtl[ index ].Interface[ intf_num ].InEndpNum; in_num++ )
    83c6:	00bf0e63          	beq	t5,a1,83e2 <TIM3_IRQHandler+0x176>
C:/Repository/RISKYKVM/firmware/src/User/USB_Host/app_km.c:119
                                    HostCtl[ index ].Interface[ intf_num ].InEndpTimeCount[ in_num ]++;
    83ca:	2466cf83          	lbu	t6,582(a3)
    83ce:	0f85                	addi	t6,t6,1
    83d0:	25f68323          	sb	t6,582(a3)
C:/Repository/RISKYKVM/firmware/src/User/USB_Host/app_km.c:117
                                for( in_num = 0; in_num < HostCtl[ index ].Interface[ intf_num ].InEndpNum; in_num++ )
    83d4:	010f0763          	beq	t5,a6,83e2 <TIM3_IRQHandler+0x176>
C:/Repository/RISKYKVM/firmware/src/User/USB_Host/app_km.c:119
                                    HostCtl[ index ].Interface[ intf_num ].InEndpTimeCount[ in_num ]++;
    83d8:	2476cf03          	lbu	t5,583(a3)
    83dc:	0f05                	addi	t5,t5,1
    83de:	25e683a3          	sb	t5,583(a3)
C:/Repository/RISKYKVM/firmware/src/User/USB_Host/app_km.c:115
                            for( intf_num = 0; intf_num < HostCtl[ index ].InterfaceNum; intf_num++ )
    83e2:	f10e85e3          	beq	t4,a6,82ec <TIM3_IRQHandler+0x80>
C:/Repository/RISKYKVM/firmware/src/User/USB_Host/app_km.c:117
                                for( in_num = 0; in_num < HostCtl[ index ].Interface[ intf_num ].InEndpNum; in_num++ )
    83e6:	03c886b3          	mul	a3,a7,t3
    83ea:	96b2                	add	a3,a3,a2
    83ec:	33a6c883          	lbu	a7,826(a3)
    83f0:	ee088ee3          	beqz	a7,82ec <TIM3_IRQHandler+0x80>
C:/Repository/RISKYKVM/firmware/src/User/USB_Host/app_km.c:119
                                    HostCtl[ index ].Interface[ intf_num ].InEndpTimeCount[ in_num ]++;
    83f4:	3546ce83          	lbu	t4,852(a3)
    83f8:	0e85                	addi	t4,t4,1
    83fa:	35d68a23          	sb	t4,852(a3)
C:/Repository/RISKYKVM/firmware/src/User/USB_Host/app_km.c:117
                                for( in_num = 0; in_num < HostCtl[ index ].Interface[ intf_num ].InEndpNum; in_num++ )
    83fe:	ef1377e3          	bgeu	t1,a7,82ec <TIM3_IRQHandler+0x80>
C:/Repository/RISKYKVM/firmware/src/User/USB_Host/app_km.c:119
                                    HostCtl[ index ].Interface[ intf_num ].InEndpTimeCount[ in_num ]++;
    8402:	3556ce83          	lbu	t4,853(a3)
    8406:	0e85                	addi	t4,t4,1
    8408:	35d68aa3          	sb	t4,853(a3)
C:/Repository/RISKYKVM/firmware/src/User/USB_Host/app_km.c:117
                                for( in_num = 0; in_num < HostCtl[ index ].Interface[ intf_num ].InEndpNum; in_num++ )
    840c:	eeb880e3          	beq	a7,a1,82ec <TIM3_IRQHandler+0x80>
C:/Repository/RISKYKVM/firmware/src/User/USB_Host/app_km.c:119
                                    HostCtl[ index ].Interface[ intf_num ].InEndpTimeCount[ in_num ]++;
    8410:	3566ce83          	lbu	t4,854(a3)
    8414:	0e85                	addi	t4,t4,1
    8416:	35d68b23          	sb	t4,854(a3)
C:/Repository/RISKYKVM/firmware/src/User/USB_Host/app_km.c:117
                                for( in_num = 0; in_num < HostCtl[ index ].Interface[ intf_num ].InEndpNum; in_num++ )
    841a:	ed0889e3          	beq	a7,a6,82ec <TIM3_IRQHandler+0x80>
C:/Repository/RISKYKVM/firmware/src/User/USB_Host/app_km.c:119 (discriminator 3)
                                    HostCtl[ index ].Interface[ intf_num ].InEndpTimeCount[ in_num ]++;
    841e:	3576c883          	lbu	a7,855(a3)
    8422:	0885                	addi	a7,a7,1
    8424:	35168ba3          	sb	a7,855(a3)
    8428:	b5d1                	j	82ec <TIM3_IRQHandler+0x80>
C:/Repository/RISKYKVM/firmware/src/User/USB_Host/app_km.c:96
                for( intf_num = 0; intf_num < HostCtl[ index ].InterfaceNum; intf_num++ )
    842a:	44400793          	li	a5,1092
    842e:	02f687b3          	mul	a5,a3,a5
    8432:	20000637          	lui	a2,0x20000
    8436:	0d860613          	addi	a2,a2,216 # 200000d8 <HostCtl>
    843a:	97b2                	add	a5,a5,a2
    843c:	0007c583          	lbu	a1,0(a5)
    8440:	e40580e3          	beqz	a1,8280 <TIM3_IRQHandler+0x14>
C:/Repository/RISKYKVM/firmware/src/User/USB_Host/app_km.c:98
                    for( in_num = 0; in_num < HostCtl[ index ].Interface[ intf_num ].InEndpNum; in_num++ )
    8444:	00a7c803          	lbu	a6,10(a5)
    8448:	02080d63          	beqz	a6,8482 <TIM3_IRQHandler+0x216>
C:/Repository/RISKYKVM/firmware/src/User/USB_Host/app_km.c:100
                        HostCtl[ index ].Interface[ intf_num ].InEndpTimeCount[ in_num ]++;
    844c:	0247c883          	lbu	a7,36(a5)
C:/Repository/RISKYKVM/firmware/src/User/USB_Host/app_km.c:98
                    for( in_num = 0; in_num < HostCtl[ index ].Interface[ intf_num ].InEndpNum; in_num++ )
    8450:	4305                	li	t1,1
C:/Repository/RISKYKVM/firmware/src/User/USB_Host/app_km.c:100
                        HostCtl[ index ].Interface[ intf_num ].InEndpTimeCount[ in_num ]++;
    8452:	0885                	addi	a7,a7,1
    8454:	03178223          	sb	a7,36(a5)
C:/Repository/RISKYKVM/firmware/src/User/USB_Host/app_km.c:98
                    for( in_num = 0; in_num < HostCtl[ index ].Interface[ intf_num ].InEndpNum; in_num++ )
    8458:	03037563          	bgeu	t1,a6,8482 <TIM3_IRQHandler+0x216>
C:/Repository/RISKYKVM/firmware/src/User/USB_Host/app_km.c:100
                        HostCtl[ index ].Interface[ intf_num ].InEndpTimeCount[ in_num ]++;
    845c:	0257c883          	lbu	a7,37(a5)
    8460:	0885                	addi	a7,a7,1
    8462:	031782a3          	sb	a7,37(a5)
C:/Repository/RISKYKVM/firmware/src/User/USB_Host/app_km.c:98
                    for( in_num = 0; in_num < HostCtl[ index ].Interface[ intf_num ].InEndpNum; in_num++ )
    8466:	00e80e63          	beq	a6,a4,8482 <TIM3_IRQHandler+0x216>
C:/Repository/RISKYKVM/firmware/src/User/USB_Host/app_km.c:100
                        HostCtl[ index ].Interface[ intf_num ].InEndpTimeCount[ in_num ]++;
    846a:	0267c703          	lbu	a4,38(a5)
    846e:	0705                	addi	a4,a4,1
    8470:	02e78323          	sb	a4,38(a5)
C:/Repository/RISKYKVM/firmware/src/User/USB_Host/app_km.c:98
                    for( in_num = 0; in_num < HostCtl[ index ].Interface[ intf_num ].InEndpNum; in_num++ )
    8474:	00a80763          	beq	a6,a0,8482 <TIM3_IRQHandler+0x216>
C:/Repository/RISKYKVM/firmware/src/User/USB_Host/app_km.c:100
                        HostCtl[ index ].Interface[ intf_num ].InEndpTimeCount[ in_num ]++;
    8478:	0277c703          	lbu	a4,39(a5)
    847c:	0705                	addi	a4,a4,1
    847e:	02e783a3          	sb	a4,39(a5)
C:/Repository/RISKYKVM/firmware/src/User/USB_Host/app_km.c:96
                for( intf_num = 0; intf_num < HostCtl[ index ].InterfaceNum; intf_num++ )
    8482:	4805                	li	a6,1
    8484:	deb87ee3          	bgeu	a6,a1,8280 <TIM3_IRQHandler+0x14>
C:/Repository/RISKYKVM/firmware/src/User/USB_Host/app_km.c:98
                    for( in_num = 0; in_num < HostCtl[ index ].Interface[ intf_num ].InEndpNum; in_num++ )
    8488:	44400793          	li	a5,1092
    848c:	02f687b3          	mul	a5,a3,a5
    8490:	97b2                	add	a5,a5,a2
    8492:	11a7c703          	lbu	a4,282(a5)
    8496:	cf0d                	beqz	a4,84d0 <TIM3_IRQHandler+0x264>
C:/Repository/RISKYKVM/firmware/src/User/USB_Host/app_km.c:100
                        HostCtl[ index ].Interface[ intf_num ].InEndpTimeCount[ in_num ]++;
    8498:	1347c503          	lbu	a0,308(a5)
    849c:	0505                	addi	a0,a0,1
    849e:	12a78a23          	sb	a0,308(a5)
C:/Repository/RISKYKVM/firmware/src/User/USB_Host/app_km.c:98
                    for( in_num = 0; in_num < HostCtl[ index ].Interface[ intf_num ].InEndpNum; in_num++ )
    84a2:	02e87763          	bgeu	a6,a4,84d0 <TIM3_IRQHandler+0x264>
C:/Repository/RISKYKVM/firmware/src/User/USB_Host/app_km.c:100
                        HostCtl[ index ].Interface[ intf_num ].InEndpTimeCount[ in_num ]++;
    84a6:	1357c503          	lbu	a0,309(a5)
C:/Repository/RISKYKVM/firmware/src/User/USB_Host/app_km.c:98
                    for( in_num = 0; in_num < HostCtl[ index ].Interface[ intf_num ].InEndpNum; in_num++ )
    84aa:	4809                	li	a6,2
C:/Repository/RISKYKVM/firmware/src/User/USB_Host/app_km.c:100
                        HostCtl[ index ].Interface[ intf_num ].InEndpTimeCount[ in_num ]++;
    84ac:	0505                	addi	a0,a0,1
    84ae:	12a78aa3          	sb	a0,309(a5)
C:/Repository/RISKYKVM/firmware/src/User/USB_Host/app_km.c:98
                    for( in_num = 0; in_num < HostCtl[ index ].Interface[ intf_num ].InEndpNum; in_num++ )
    84b2:	01070f63          	beq	a4,a6,84d0 <TIM3_IRQHandler+0x264>
C:/Repository/RISKYKVM/firmware/src/User/USB_Host/app_km.c:100
                        HostCtl[ index ].Interface[ intf_num ].InEndpTimeCount[ in_num ]++;
    84b6:	1367c503          	lbu	a0,310(a5)
C:/Repository/RISKYKVM/firmware/src/User/USB_Host/app_km.c:98
                    for( in_num = 0; in_num < HostCtl[ index ].Interface[ intf_num ].InEndpNum; in_num++ )
    84ba:	480d                	li	a6,3
C:/Repository/RISKYKVM/firmware/src/User/USB_Host/app_km.c:100
                        HostCtl[ index ].Interface[ intf_num ].InEndpTimeCount[ in_num ]++;
    84bc:	0505                	addi	a0,a0,1
    84be:	12a78b23          	sb	a0,310(a5)
C:/Repository/RISKYKVM/firmware/src/User/USB_Host/app_km.c:98
                    for( in_num = 0; in_num < HostCtl[ index ].Interface[ intf_num ].InEndpNum; in_num++ )
    84c2:	01070763          	beq	a4,a6,84d0 <TIM3_IRQHandler+0x264>
C:/Repository/RISKYKVM/firmware/src/User/USB_Host/app_km.c:100
                        HostCtl[ index ].Interface[ intf_num ].InEndpTimeCount[ in_num ]++;
    84c6:	1377c703          	lbu	a4,311(a5)
    84ca:	0705                	addi	a4,a4,1
    84cc:	12e78ba3          	sb	a4,311(a5)
C:/Repository/RISKYKVM/firmware/src/User/USB_Host/app_km.c:96
                for( intf_num = 0; intf_num < HostCtl[ index ].InterfaceNum; intf_num++ )
    84d0:	4809                	li	a6,2
    84d2:	db0587e3          	beq	a1,a6,8280 <TIM3_IRQHandler+0x14>
C:/Repository/RISKYKVM/firmware/src/User/USB_Host/app_km.c:98
                    for( in_num = 0; in_num < HostCtl[ index ].Interface[ intf_num ].InEndpNum; in_num++ )
    84d6:	44400793          	li	a5,1092
    84da:	02f687b3          	mul	a5,a3,a5
    84de:	97b2                	add	a5,a5,a2
    84e0:	22a7c703          	lbu	a4,554(a5)
    84e4:	cf0d                	beqz	a4,851e <TIM3_IRQHandler+0x2b2>
C:/Repository/RISKYKVM/firmware/src/User/USB_Host/app_km.c:100
                        HostCtl[ index ].Interface[ intf_num ].InEndpTimeCount[ in_num ]++;
    84e6:	2447c503          	lbu	a0,580(a5)
C:/Repository/RISKYKVM/firmware/src/User/USB_Host/app_km.c:98
                    for( in_num = 0; in_num < HostCtl[ index ].Interface[ intf_num ].InEndpNum; in_num++ )
    84ea:	4885                	li	a7,1
C:/Repository/RISKYKVM/firmware/src/User/USB_Host/app_km.c:100
                        HostCtl[ index ].Interface[ intf_num ].InEndpTimeCount[ in_num ]++;
    84ec:	0505                	addi	a0,a0,1
    84ee:	24a78223          	sb	a0,580(a5)
C:/Repository/RISKYKVM/firmware/src/User/USB_Host/app_km.c:98
                    for( in_num = 0; in_num < HostCtl[ index ].Interface[ intf_num ].InEndpNum; in_num++ )
    84f2:	02e8f663          	bgeu	a7,a4,851e <TIM3_IRQHandler+0x2b2>
C:/Repository/RISKYKVM/firmware/src/User/USB_Host/app_km.c:100
                        HostCtl[ index ].Interface[ intf_num ].InEndpTimeCount[ in_num ]++;
    84f6:	2457c503          	lbu	a0,581(a5)
    84fa:	0505                	addi	a0,a0,1
    84fc:	24a782a3          	sb	a0,581(a5)
C:/Repository/RISKYKVM/firmware/src/User/USB_Host/app_km.c:98
                    for( in_num = 0; in_num < HostCtl[ index ].Interface[ intf_num ].InEndpNum; in_num++ )
    8500:	01070f63          	beq	a4,a6,851e <TIM3_IRQHandler+0x2b2>
C:/Repository/RISKYKVM/firmware/src/User/USB_Host/app_km.c:100
                        HostCtl[ index ].Interface[ intf_num ].InEndpTimeCount[ in_num ]++;
    8504:	2467c503          	lbu	a0,582(a5)
C:/Repository/RISKYKVM/firmware/src/User/USB_Host/app_km.c:98
                    for( in_num = 0; in_num < HostCtl[ index ].Interface[ intf_num ].InEndpNum; in_num++ )
    8508:	480d                	li	a6,3
C:/Repository/RISKYKVM/firmware/src/User/USB_Host/app_km.c:100
                        HostCtl[ index ].Interface[ intf_num ].InEndpTimeCount[ in_num ]++;
    850a:	0505                	addi	a0,a0,1
    850c:	24a78323          	sb	a0,582(a5)
C:/Repository/RISKYKVM/firmware/src/User/USB_Host/app_km.c:98
                    for( in_num = 0; in_num < HostCtl[ index ].Interface[ intf_num ].InEndpNum; in_num++ )
    8510:	01070763          	beq	a4,a6,851e <TIM3_IRQHandler+0x2b2>
C:/Repository/RISKYKVM/firmware/src/User/USB_Host/app_km.c:100
                        HostCtl[ index ].Interface[ intf_num ].InEndpTimeCount[ in_num ]++;
    8514:	2477c703          	lbu	a4,583(a5)
    8518:	0705                	addi	a4,a4,1
    851a:	24e783a3          	sb	a4,583(a5)
C:/Repository/RISKYKVM/firmware/src/User/USB_Host/app_km.c:96
                for( intf_num = 0; intf_num < HostCtl[ index ].InterfaceNum; intf_num++ )
    851e:	450d                	li	a0,3
    8520:	d6a580e3          	beq	a1,a0,8280 <TIM3_IRQHandler+0x14>
C:/Repository/RISKYKVM/firmware/src/User/USB_Host/app_km.c:98
                    for( in_num = 0; in_num < HostCtl[ index ].Interface[ intf_num ].InEndpNum; in_num++ )
    8524:	44400793          	li	a5,1092
    8528:	02f686b3          	mul	a3,a3,a5
    852c:	9636                	add	a2,a2,a3
    852e:	33a64783          	lbu	a5,826(a2)
    8532:	d40787e3          	beqz	a5,8280 <TIM3_IRQHandler+0x14>
C:/Repository/RISKYKVM/firmware/src/User/USB_Host/app_km.c:100
                        HostCtl[ index ].Interface[ intf_num ].InEndpTimeCount[ in_num ]++;
    8536:	35464703          	lbu	a4,852(a2)
C:/Repository/RISKYKVM/firmware/src/User/USB_Host/app_km.c:98
                    for( in_num = 0; in_num < HostCtl[ index ].Interface[ intf_num ].InEndpNum; in_num++ )
    853a:	4685                	li	a3,1
C:/Repository/RISKYKVM/firmware/src/User/USB_Host/app_km.c:100
                        HostCtl[ index ].Interface[ intf_num ].InEndpTimeCount[ in_num ]++;
    853c:	0705                	addi	a4,a4,1
    853e:	34e60a23          	sb	a4,852(a2)
C:/Repository/RISKYKVM/firmware/src/User/USB_Host/app_km.c:98
                    for( in_num = 0; in_num < HostCtl[ index ].Interface[ intf_num ].InEndpNum; in_num++ )
    8542:	d2f6ffe3          	bgeu	a3,a5,8280 <TIM3_IRQHandler+0x14>
C:/Repository/RISKYKVM/firmware/src/User/USB_Host/app_km.c:100
                        HostCtl[ index ].Interface[ intf_num ].InEndpTimeCount[ in_num ]++;
    8546:	35564703          	lbu	a4,853(a2)
C:/Repository/RISKYKVM/firmware/src/User/USB_Host/app_km.c:98
                    for( in_num = 0; in_num < HostCtl[ index ].Interface[ intf_num ].InEndpNum; in_num++ )
    854a:	4689                	li	a3,2
C:/Repository/RISKYKVM/firmware/src/User/USB_Host/app_km.c:100
                        HostCtl[ index ].Interface[ intf_num ].InEndpTimeCount[ in_num ]++;
    854c:	0705                	addi	a4,a4,1
    854e:	34e60aa3          	sb	a4,853(a2)
C:/Repository/RISKYKVM/firmware/src/User/USB_Host/app_km.c:98
                    for( in_num = 0; in_num < HostCtl[ index ].Interface[ intf_num ].InEndpNum; in_num++ )
    8552:	d2d787e3          	beq	a5,a3,8280 <TIM3_IRQHandler+0x14>
C:/Repository/RISKYKVM/firmware/src/User/USB_Host/app_km.c:100
                        HostCtl[ index ].Interface[ intf_num ].InEndpTimeCount[ in_num ]++;
    8556:	35664703          	lbu	a4,854(a2)
    855a:	0705                	addi	a4,a4,1
    855c:	34e60b23          	sb	a4,854(a2)
C:/Repository/RISKYKVM/firmware/src/User/USB_Host/app_km.c:98
                    for( in_num = 0; in_num < HostCtl[ index ].Interface[ intf_num ].InEndpNum; in_num++ )
    8560:	d2a780e3          	beq	a5,a0,8280 <TIM3_IRQHandler+0x14>
C:/Repository/RISKYKVM/firmware/src/User/USB_Host/app_km.c:100 (discriminator 3)
                        HostCtl[ index ].Interface[ intf_num ].InEndpTimeCount[ in_num ]++;
    8564:	35764783          	lbu	a5,855(a2)
    8568:	0785                	addi	a5,a5,1
    856a:	34f60ba3          	sb	a5,855(a2)
    856e:	bb09                	j	8280 <TIM3_IRQHandler+0x14>

00008570 <USBH_EnumRootDevice>:
USBH_EnumRootDevice():
C:/Repository/RISKYKVM/firmware/src/User/USB_Host/app_km.c:179
 * @para    index: USB host port
 *
 * @return  Enumeration result
 */
uint8_t USBH_EnumRootDevice( void )
{
    8570:	7139                	addi	sp,sp,-64
    8572:	d05a                	sw	s6,32(sp)
C:/Repository/RISKYKVM/firmware/src/User/USB_Host/app_km.c:247
        return DEF_DEV_DESCR_GETFAIL;
    }

    /* Set the USB device address */
    DUG_PRINTF("Set DevAddr: ");
    RootHubDev.bAddress = (uint8_t)( USB_DEVICE_ADDR );
    8574:	20001b37          	lui	s6,0x20001
C:/Repository/RISKYKVM/firmware/src/User/USB_Host/app_km.c:179
{
    8578:	d84a                	sw	s2,48(sp)
    857a:	d64e                	sw	s3,44(sp)
    857c:	d452                	sw	s4,40(sp)
    857e:	ce5e                	sw	s7,28(sp)
    8580:	cc62                	sw	s8,24(sp)
    8582:	ca66                	sw	s9,20(sp)
    8584:	de06                	sw	ra,60(sp)
    8586:	dc22                	sw	s0,56(sp)
    8588:	da26                	sw	s1,52(sp)
    858a:	d256                	sw	s5,36(sp)
C:/Repository/RISKYKVM/firmware/src/User/USB_Host/app_km.c:188
    enum_cnt = 0;
    858c:	4a01                	li	s4,0
    858e:	20001937          	lui	s2,0x20001
C:/Repository/RISKYKVM/firmware/src/User/USB_Host/app_km.c:203
            if( s > 6 )
    8592:	4999                	li	s3,6
C:/Repository/RISKYKVM/firmware/src/User/USB_Host/app_km.c:222
    s = USBFSH_GetDeviceDescr( &RootHubDev.bEp0MaxPks, DevDesc_Buf );
    8594:	20001bb7          	lui	s7,0x20001
    8598:	20001c37          	lui	s8,0x20001
C:/Repository/RISKYKVM/firmware/src/User/USB_Host/app_km.c:247
    RootHubDev.bAddress = (uint8_t)( USB_DEVICE_ADDR );
    859c:	640b0b13          	addi	s6,s6,1600 # 20001640 <RootHubDev>
C:/Repository/RISKYKVM/firmware/src/User/USB_Host/app_km.c:269
    }
    Delay_Ms( 5 );

    /* Get the USB device configuration descriptor */
    DUG_PRINTF("Get CfgDesc: ");
    s = USBFSH_GetConfigDescr( RootHubDev.bEp0MaxPks, Com_Buf, DEF_COM_BUF_LEN, &len );
    85a0:	20001cb7          	lui	s9,0x20001
C:/Repository/RISKYKVM/firmware/src/User/USB_Host/app_km.c:191
    Delay_Ms( 100 );
    85a4:	06400513          	li	a0,100
    85a8:	2c4050ef          	jal	ra,d86c <Delay_Ms>
C:/Repository/RISKYKVM/firmware/src/User/USB_Host/app_km.c:192
    enum_cnt++;
    85ac:	0a05                	addi	s4,s4,1
    85ae:	0ffa7a13          	andi	s4,s4,255
C:/Repository/RISKYKVM/firmware/src/User/USB_Host/app_km.c:193
    Delay_Ms( 8 << enum_cnt );
    85b2:	4521                	li	a0,8
    85b4:	01451533          	sll	a0,a0,s4
    85b8:	2b4050ef          	jal	ra,d86c <Delay_Ms>
C:/Repository/RISKYKVM/firmware/src/User/USB_Host/app_km.c:196
    USBFSH_ResetRootHubPort( 0 );
    85bc:	4501                	li	a0,0
    85be:	60c010ef          	jal	ra,9bca <USBFSH_ResetRootHubPort>
C:/Repository/RISKYKVM/firmware/src/User/USB_Host/app_km.c:197
    for( i = 0, s = 0; i < DEF_RE_ATTACH_TIMEOUT; i++ )
    85c2:	4481                	li	s1,0
    85c4:	4401                	li	s0,0
    85c6:	06400a93          	li	s5,100
C:/Repository/RISKYKVM/firmware/src/User/USB_Host/app_km.c:199
        if( USBFSH_EnableRootHubPort( &RootHubDev.bSpeed ) == ERR_SUCCESS )
    85ca:	64390513          	addi	a0,s2,1603 # 20001643 <RootHubDev+0x3>
    85ce:	68e010ef          	jal	ra,9c5c <USBFSH_EnableRootHubPort>
C:/Repository/RISKYKVM/firmware/src/User/USB_Host/app_km.c:202
            s++;
    85d2:	00140793          	addi	a5,s0,1
C:/Repository/RISKYKVM/firmware/src/User/USB_Host/app_km.c:199
        if( USBFSH_EnableRootHubPort( &RootHubDev.bSpeed ) == ERR_SUCCESS )
    85d6:	e105                	bnez	a0,85f6 <USBH_EnumRootDevice+0x86>
C:/Repository/RISKYKVM/firmware/src/User/USB_Host/app_km.c:202
            s++;
    85d8:	0ff7f413          	andi	s0,a5,255
C:/Repository/RISKYKVM/firmware/src/User/USB_Host/app_km.c:208
        Delay_Ms( 1 );
    85dc:	4505                	li	a0,1
C:/Repository/RISKYKVM/firmware/src/User/USB_Host/app_km.c:203
            if( s > 6 )
    85de:	0489e563          	bltu	s3,s0,8628 <USBH_EnumRootDevice+0xb8>
C:/Repository/RISKYKVM/firmware/src/User/USB_Host/app_km.c:208
        Delay_Ms( 1 );
    85e2:	28a050ef          	jal	ra,d86c <Delay_Ms>
C:/Repository/RISKYKVM/firmware/src/User/USB_Host/app_km.c:199
        if( USBFSH_EnableRootHubPort( &RootHubDev.bSpeed ) == ERR_SUCCESS )
    85e6:	64390513          	addi	a0,s2,1603
    85ea:	672010ef          	jal	ra,9c5c <USBFSH_EnableRootHubPort>
C:/Repository/RISKYKVM/firmware/src/User/USB_Host/app_km.c:197
    for( i = 0, s = 0; i < DEF_RE_ATTACH_TIMEOUT; i++ )
    85ee:	4485                	li	s1,1
C:/Repository/RISKYKVM/firmware/src/User/USB_Host/app_km.c:202
            s++;
    85f0:	00140793          	addi	a5,s0,1
C:/Repository/RISKYKVM/firmware/src/User/USB_Host/app_km.c:199
        if( USBFSH_EnableRootHubPort( &RootHubDev.bSpeed ) == ERR_SUCCESS )
    85f4:	d175                	beqz	a0,85d8 <USBH_EnumRootDevice+0x68>
C:/Repository/RISKYKVM/firmware/src/User/USB_Host/app_km.c:197 (discriminator 2)
    for( i = 0, s = 0; i < DEF_RE_ATTACH_TIMEOUT; i++ )
    85f6:	0485                	addi	s1,s1,1
    85f8:	04c2                	slli	s1,s1,0x10
C:/Repository/RISKYKVM/firmware/src/User/USB_Host/app_km.c:208 (discriminator 2)
        Delay_Ms( 1 );
    85fa:	4505                	li	a0,1
C:/Repository/RISKYKVM/firmware/src/User/USB_Host/app_km.c:197 (discriminator 2)
    for( i = 0, s = 0; i < DEF_RE_ATTACH_TIMEOUT; i++ )
    85fc:	80c1                	srli	s1,s1,0x10
C:/Repository/RISKYKVM/firmware/src/User/USB_Host/app_km.c:208 (discriminator 2)
        Delay_Ms( 1 );
    85fe:	26e050ef          	jal	ra,d86c <Delay_Ms>
C:/Repository/RISKYKVM/firmware/src/User/USB_Host/app_km.c:197 (discriminator 2)
    for( i = 0, s = 0; i < DEF_RE_ATTACH_TIMEOUT; i++ )
    8602:	fd5494e3          	bne	s1,s5,85ca <USBH_EnumRootDevice+0x5a>
C:/Repository/RISKYKVM/firmware/src/User/USB_Host/app_km.c:213
        if( enum_cnt <= 5 )
    8606:	4795                	li	a5,5
    8608:	f947fee3          	bgeu	a5,s4,85a4 <USBH_EnumRootDevice+0x34>
C:/Repository/RISKYKVM/firmware/src/User/USB_Host/app_km.c:217
        return ERR_USB_DISCON;
    860c:	4559                	li	a0,22
C:/Repository/RISKYKVM/firmware/src/User/USB_Host/app_km.c:317
        }
        return ERR_USB_UNSUPPORT;
    }

    return ERR_SUCCESS;
}
    860e:	50f2                	lw	ra,60(sp)
    8610:	5462                	lw	s0,56(sp)
    8612:	54d2                	lw	s1,52(sp)
    8614:	5942                	lw	s2,48(sp)
    8616:	59b2                	lw	s3,44(sp)
    8618:	5a22                	lw	s4,40(sp)
    861a:	5a92                	lw	s5,36(sp)
    861c:	5b02                	lw	s6,32(sp)
    861e:	4bf2                	lw	s7,28(sp)
    8620:	4c62                	lw	s8,24(sp)
    8622:	4cd2                	lw	s9,20(sp)
    8624:	6121                	addi	sp,sp,64
    8626:	8082                	ret
C:/Repository/RISKYKVM/firmware/src/User/USB_Host/app_km.c:222
    s = USBFSH_GetDeviceDescr( &RootHubDev.bEp0MaxPks, DevDesc_Buf );
    8628:	62cb8593          	addi	a1,s7,1580 # 2000162c <DevDesc_Buf>
    862c:	644c0513          	addi	a0,s8,1604 # 20001644 <RootHubDev+0x4>
    8630:	343010ef          	jal	ra,a172 <USBFSH_GetDeviceDescr>
C:/Repository/RISKYKVM/firmware/src/User/USB_Host/app_km.c:223
    if( s == ERR_SUCCESS )
    8634:	c519                	beqz	a0,8642 <USBH_EnumRootDevice+0xd2>
C:/Repository/RISKYKVM/firmware/src/User/USB_Host/app_km.c:238 (discriminator 3)
        if( enum_cnt <= 5 )
    8636:	4795                	li	a5,5
    8638:	f747f6e3          	bgeu	a5,s4,85a4 <USBH_EnumRootDevice+0x34>
C:/Repository/RISKYKVM/firmware/src/User/USB_Host/app_km.c:242
        return DEF_DEV_DESCR_GETFAIL;
    863c:	04500513          	li	a0,69
    8640:	b7f9                	j	860e <USBH_EnumRootDevice+0x9e>
C:/Repository/RISKYKVM/firmware/src/User/USB_Host/app_km.c:248 (discriminator 3)
    s = USBFSH_SetUsbAddress( RootHubDev.bEp0MaxPks, RootHubDev.bAddress );
    8642:	004b4503          	lbu	a0,4(s6)
C:/Repository/RISKYKVM/firmware/src/User/USB_Host/app_km.c:247 (discriminator 3)
    RootHubDev.bAddress = (uint8_t)( USB_DEVICE_ADDR );
    8646:	4409                	li	s0,2
C:/Repository/RISKYKVM/firmware/src/User/USB_Host/app_km.c:248 (discriminator 3)
    s = USBFSH_SetUsbAddress( RootHubDev.bEp0MaxPks, RootHubDev.bAddress );
    8648:	4589                	li	a1,2
C:/Repository/RISKYKVM/firmware/src/User/USB_Host/app_km.c:247 (discriminator 3)
    RootHubDev.bAddress = (uint8_t)( USB_DEVICE_ADDR );
    864a:	008b0123          	sb	s0,2(s6)
C:/Repository/RISKYKVM/firmware/src/User/USB_Host/app_km.c:248 (discriminator 3)
    s = USBFSH_SetUsbAddress( RootHubDev.bEp0MaxPks, RootHubDev.bAddress );
    864e:	57f010ef          	jal	ra,a3cc <USBFSH_SetUsbAddress>
C:/Repository/RISKYKVM/firmware/src/User/USB_Host/app_km.c:249 (discriminator 3)
    if( s == ERR_SUCCESS )
    8652:	c519                	beqz	a0,8660 <USBH_EnumRootDevice+0xf0>
C:/Repository/RISKYKVM/firmware/src/User/USB_Host/app_km.c:259 (discriminator 3)
        if( enum_cnt <= 5 )
    8654:	4795                	li	a5,5
    8656:	f547f7e3          	bgeu	a5,s4,85a4 <USBH_EnumRootDevice+0x34>
C:/Repository/RISKYKVM/firmware/src/User/USB_Host/app_km.c:263
        return DEF_DEV_ADDR_SETFAIL;
    865a:	04600513          	li	a0,70
    865e:	bf45                	j	860e <USBH_EnumRootDevice+0x9e>
C:/Repository/RISKYKVM/firmware/src/User/USB_Host/app_km.c:265 (discriminator 3)
    Delay_Ms( 5 );
    8660:	4515                	li	a0,5
C:/Repository/RISKYKVM/firmware/src/User/USB_Host/app_km.c:253 (discriminator 3)
        RootHubDev.bAddress = USB_DEVICE_ADDR;
    8662:	008b0123          	sb	s0,2(s6)
C:/Repository/RISKYKVM/firmware/src/User/USB_Host/app_km.c:265 (discriminator 3)
    Delay_Ms( 5 );
    8666:	206050ef          	jal	ra,d86c <Delay_Ms>
C:/Repository/RISKYKVM/firmware/src/User/USB_Host/app_km.c:269 (discriminator 3)
    s = USBFSH_GetConfigDescr( RootHubDev.bEp0MaxPks, Com_Buf, DEF_COM_BUF_LEN, &len );
    866a:	004b4503          	lbu	a0,4(s6)
    866e:	00e10693          	addi	a3,sp,14
    8672:	40000613          	li	a2,1024
    8676:	660c8593          	addi	a1,s9,1632 # 20001660 <Com_Buf>
    867a:	38d010ef          	jal	ra,a206 <USBFSH_GetConfigDescr>
C:/Repository/RISKYKVM/firmware/src/User/USB_Host/app_km.c:270 (discriminator 3)
    if( s == ERR_SUCCESS )
    867e:	c519                	beqz	a0,868c <USBH_EnumRootDevice+0x11c>
C:/Repository/RISKYKVM/firmware/src/User/USB_Host/app_km.c:291 (discriminator 3)
        if( enum_cnt <= 5 )
    8680:	4795                	li	a5,5
    8682:	f347f1e3          	bgeu	a5,s4,85a4 <USBH_EnumRootDevice+0x34>
C:/Repository/RISKYKVM/firmware/src/User/USB_Host/app_km.c:295
        return DEF_CFG_DESCR_GETFAIL;
    8686:	04700513          	li	a0,71
    868a:	b751                	j	860e <USBH_EnumRootDevice+0x9e>
USBH_AnalyseType():
C:/Repository/RISKYKVM/firmware/src/User/USB_Host/app_km.c:145
    dv_cls = ( (PUSB_DEV_DESCR)pdev_buf )->bDeviceClass;
    868c:	62cb8793          	addi	a5,s7,1580
    8690:	0047c703          	lbu	a4,4(a5)
C:/Repository/RISKYKVM/firmware/src/User/USB_Host/app_km.c:147
    if( ( dv_cls == USB_DEV_CLASS_STORAGE ) || ( if_cls == USB_DEV_CLASS_STORAGE ) )
    8694:	46a1                	li	a3,8
USBH_EnumRootDevice():
C:/Repository/RISKYKVM/firmware/src/User/USB_Host/app_km.c:272
        cfg_val = ( (PUSB_CFG_DESCR)Com_Buf )->bConfigurationValue;
    8696:	660c8793          	addi	a5,s9,1632
    869a:	0057c583          	lbu	a1,5(a5)
USBH_AnalyseType():
C:/Repository/RISKYKVM/firmware/src/User/USB_Host/app_km.c:147
    if( ( dv_cls == USB_DEV_CLASS_STORAGE ) || ( if_cls == USB_DEV_CLASS_STORAGE ) )
    869e:	02d70963          	beq	a4,a3,86d0 <USBH_EnumRootDevice+0x160>
C:/Repository/RISKYKVM/firmware/src/User/USB_Host/app_km.c:146
    if_cls = ( (PUSB_CFG_DESCR_LONG)pcfg_buf )->itf_descr.bInterfaceClass;
    86a2:	00e7c783          	lbu	a5,14(a5)
C:/Repository/RISKYKVM/firmware/src/User/USB_Host/app_km.c:147
    if( ( dv_cls == USB_DEV_CLASS_STORAGE ) || ( if_cls == USB_DEV_CLASS_STORAGE ) )
    86a6:	02d78563          	beq	a5,a3,86d0 <USBH_EnumRootDevice+0x160>
C:/Repository/RISKYKVM/firmware/src/User/USB_Host/app_km.c:151
    else if( ( dv_cls == USB_DEV_CLASS_PRINTER ) || ( if_cls == USB_DEV_CLASS_PRINTER ) )
    86aa:	469d                	li	a3,7
    86ac:	04d70063          	beq	a4,a3,86ec <USBH_EnumRootDevice+0x17c>
    86b0:	02d78e63          	beq	a5,a3,86ec <USBH_EnumRootDevice+0x17c>
C:/Repository/RISKYKVM/firmware/src/User/USB_Host/app_km.c:155
    else if( ( dv_cls == USB_DEV_CLASS_HID ) || ( if_cls == USB_DEV_CLASS_HID ) )
    86b4:	468d                	li	a3,3
    86b6:	02d70f63          	beq	a4,a3,86f4 <USBH_EnumRootDevice+0x184>
    86ba:	02d78d63          	beq	a5,a3,86f4 <USBH_EnumRootDevice+0x184>
C:/Repository/RISKYKVM/firmware/src/User/USB_Host/app_km.c:159
    else if( ( dv_cls == USB_DEV_CLASS_HUB ) || ( if_cls == USB_DEV_CLASS_HUB ) )
    86be:	46a5                	li	a3,9
    86c0:	02d70e63          	beq	a4,a3,86fc <USBH_EnumRootDevice+0x18c>
    86c4:	02d78c63          	beq	a5,a3,86fc <USBH_EnumRootDevice+0x18c>
C:/Repository/RISKYKVM/firmware/src/User/USB_Host/app_km.c:165
        *ptype = DEF_DEV_TYPE_UNKNOWN;
    86c8:	57fd                	li	a5,-1
    86ca:	00fb00a3          	sb	a5,1(s6)
    86ce:	a021                	j	86d6 <USBH_EnumRootDevice+0x166>
C:/Repository/RISKYKVM/firmware/src/User/USB_Host/app_km.c:149
        *ptype = USB_DEV_CLASS_STORAGE;
    86d0:	47a1                	li	a5,8
    86d2:	00fb00a3          	sb	a5,1(s6)
USBH_EnumRootDevice():
C:/Repository/RISKYKVM/firmware/src/User/USB_Host/app_km.c:300
    s = USBFSH_SetUsbConfig( RootHubDev.bEp0MaxPks, cfg_val );
    86d6:	004b4503          	lbu	a0,4(s6)
    86da:	5cb010ef          	jal	ra,a4a4 <USBFSH_SetUsbConfig>
C:/Repository/RISKYKVM/firmware/src/User/USB_Host/app_km.c:301
    if( s == ERR_SUCCESS )
    86de:	d905                	beqz	a0,860e <USBH_EnumRootDevice+0x9e>
C:/Repository/RISKYKVM/firmware/src/User/USB_Host/app_km.c:309 (discriminator 3)
        if( enum_cnt <= 5 )
    86e0:	4795                	li	a5,5
    86e2:	ed47f1e3          	bgeu	a5,s4,85a4 <USBH_EnumRootDevice+0x34>
C:/Repository/RISKYKVM/firmware/src/User/USB_Host/app_km.c:313
        return ERR_USB_UNSUPPORT;
    86e6:	0fb00513          	li	a0,251
    86ea:	b715                	j	860e <USBH_EnumRootDevice+0x9e>
USBH_AnalyseType():
C:/Repository/RISKYKVM/firmware/src/User/USB_Host/app_km.c:153
        *ptype = USB_DEV_CLASS_PRINTER;
    86ec:	479d                	li	a5,7
    86ee:	00fb00a3          	sb	a5,1(s6)
    86f2:	b7d5                	j	86d6 <USBH_EnumRootDevice+0x166>
C:/Repository/RISKYKVM/firmware/src/User/USB_Host/app_km.c:157
        *ptype = USB_DEV_CLASS_HID;
    86f4:	478d                	li	a5,3
    86f6:	00fb00a3          	sb	a5,1(s6)
    86fa:	bff1                	j	86d6 <USBH_EnumRootDevice+0x166>
C:/Repository/RISKYKVM/firmware/src/User/USB_Host/app_km.c:161
        *ptype = USB_DEV_CLASS_HUB;
    86fc:	47a5                	li	a5,9
    86fe:	00fb00a3          	sb	a5,1(s6)
    8702:	bfd1                	j	86d6 <USBH_EnumRootDevice+0x166>

00008704 <KM_AnalyzeConfigDesc>:
KM_AnalyzeConfigDesc():
C:/Repository/RISKYKVM/firmware/src/User/USB_Host/app_km.c:329
 * @para    index: USB host port
 *
 * @return  The result of the analysis.
 */
uint8_t KM_AnalyzeConfigDesc( uint8_t index, uint8_t ep0_size  )
{
    8704:	715d                	addi	sp,sp,-80
    8706:	de4e                	sw	s3,60(sp)
C:/Repository/RISKYKVM/firmware/src/User/USB_Host/app_km.c:405
                                else
                                {
                                    /* OUT */
                                    HostCtl[ index ].Interface[ num ].OutEndpAddr[ outnum ] = ( (PUSB_ENDP_DESCR)( &Com_Buf[ i ] ) )->bEndpointAddress & 0x0f;
                                    HostCtl[ index ].Interface[ num ].OutEndpType[ outnum ] = ( (PUSB_ENDP_DESCR)( &Com_Buf[ i ] ) )->bmAttributes;
                                    HostCtl[ index ].Interface[ num ].OutEndpSize[ outnum ] = ( (PUSB_ENDP_DESCR)( &Com_Buf[ i ] ) )->wMaxPacketSizeL +
    8708:	22200613          	li	a2,546
C:/Repository/RISKYKVM/firmware/src/User/USB_Host/app_km.c:435
                        HostCtl[ index ].Interface[ num ].SetReport_Swi = 0xFF;
                    }
                }
                else
                {
                    HostCtl[ index ].Interface[ num ].Type = DEC_UNKNOW;
    870c:	44400993          	li	s3,1092
    8710:	033509b3          	mul	s3,a0,s3
C:/Repository/RISKYKVM/firmware/src/User/USB_Host/app_km.c:329
{
    8714:	c4a2                	sw	s0,72(sp)
    8716:	20001437          	lui	s0,0x20001
    871a:	66040413          	addi	s0,s0,1632 # 20001660 <Com_Buf>
    871e:	00344703          	lbu	a4,3(s0)
    8722:	c0ca                	sw	s2,64(sp)
    8724:	00244683          	lbu	a3,2(s0)
C:/Repository/RISKYKVM/firmware/src/User/USB_Host/app_km.c:435
                    HostCtl[ index ].Interface[ num ].Type = DEC_UNKNOW;
    8728:	20000937          	lui	s2,0x20000
    872c:	0d890913          	addi	s2,s2,216 # 200000d8 <HostCtl>
C:/Repository/RISKYKVM/firmware/src/User/USB_Host/app_km.c:329
{
    8730:	c2a6                	sw	s1,68(sp)
C:/Repository/RISKYKVM/firmware/src/User/USB_Host/app_km.c:405
                                    HostCtl[ index ].Interface[ num ].OutEndpSize[ outnum ] = ( (PUSB_ENDP_DESCR)( &Com_Buf[ i ] ) )->wMaxPacketSizeL +
    8732:	02c50633          	mul	a2,a0,a2
C:/Repository/RISKYKVM/firmware/src/User/USB_Host/app_km.c:329
{
    8736:	dc52                	sw	s4,56(sp)
    8738:	ce6e                	sw	s11,28(sp)
    873a:	c686                	sw	ra,76(sp)
    873c:	da56                	sw	s5,52(sp)
    873e:	d85a                	sw	s6,48(sp)
    8740:	d65e                	sw	s7,44(sp)
    8742:	d462                	sw	s8,40(sp)
    8744:	d266                	sw	s9,36(sp)
    8746:	d06a                	sw	s10,32(sp)
    8748:	8daa                	mv	s11,a0
    874a:	c42e                	sw	a1,8(sp)
C:/Repository/RISKYKVM/firmware/src/User/USB_Host/app_km.c:334
    num = 0;
    874c:	4481                	li	s1,0
C:/Repository/RISKYKVM/firmware/src/User/USB_Host/app_km.c:335
    for( i = 0; i < ( Com_Buf[ 2 ] + ( (uint16_t)Com_Buf[ 3 ] << 8 ) ); )
    874e:	4781                	li	a5,0
    8750:	0722                	slli	a4,a4,0x8
C:/Repository/RISKYKVM/firmware/src/User/USB_Host/app_km.c:405
                                    HostCtl[ index ].Interface[ num ].OutEndpSize[ outnum ] = ( (PUSB_ENDP_DESCR)( &Com_Buf[ i ] ) )->wMaxPacketSizeL +
    8752:	c232                	sw	a2,4(sp)
C:/Repository/RISKYKVM/firmware/src/User/USB_Host/app_km.c:346
                HostCtl[ index ].InterfaceNum = ( (PUSB_CFG_DESCR)( &Com_Buf[ i ] ) )->bNumInterfaces;
    8754:	01298a33          	add	s4,s3,s2
C:/Repository/RISKYKVM/firmware/src/User/USB_Host/app_km.c:335 (discriminator 1)
    for( i = 0; i < ( Com_Buf[ 2 ] + ( (uint16_t)Com_Buf[ 3 ] << 8 ) ); )
    8758:	00d70633          	add	a2,a4,a3
    875c:	02c7d563          	bge	a5,a2,8786 <KM_AnalyzeConfigDesc+0x82>
C:/Repository/RISKYKVM/firmware/src/User/USB_Host/app_km.c:337
        if( Com_Buf[ i + 1 ] == DEF_DECR_CONFIG )
    8760:	00f40633          	add	a2,s0,a5
    8764:	00164583          	lbu	a1,1(a2)
    8768:	4509                	li	a0,2
    876a:	02a58e63          	beq	a1,a0,87a6 <KM_AnalyzeConfigDesc+0xa2>
C:/Repository/RISKYKVM/firmware/src/User/USB_Host/app_km.c:350
        else if( Com_Buf[ i + 1 ] == DEF_DECR_INTERFACE )
    876e:	4811                	li	a6,4
    8770:	05058a63          	beq	a1,a6,87c4 <KM_AnalyzeConfigDesc+0xc0>
C:/Repository/RISKYKVM/firmware/src/User/USB_Host/app_km.c:452
                  
            num++;
        }
        else
        {
            i += Com_Buf[ i ];
    8774:	00064603          	lbu	a2,0(a2)
    8778:	97b2                	add	a5,a5,a2
    877a:	07c2                	slli	a5,a5,0x10
    877c:	83c1                	srli	a5,a5,0x10
C:/Repository/RISKYKVM/firmware/src/User/USB_Host/app_km.c:335
    for( i = 0; i < ( Com_Buf[ 2 ] + ( (uint16_t)Com_Buf[ 3 ] << 8 ) ); )
    877e:	00d70633          	add	a2,a4,a3
    8782:	fcc7cfe3          	blt	a5,a2,8760 <KM_AnalyzeConfigDesc+0x5c>
C:/Repository/RISKYKVM/firmware/src/User/USB_Host/app_km.c:457
        }
    }
    
    return s;
}
    8786:	40b6                	lw	ra,76(sp)
    8788:	4426                	lw	s0,72(sp)
    878a:	4496                	lw	s1,68(sp)
    878c:	4906                	lw	s2,64(sp)
    878e:	59f2                	lw	s3,60(sp)
    8790:	5a62                	lw	s4,56(sp)
    8792:	5ad2                	lw	s5,52(sp)
    8794:	5b42                	lw	s6,48(sp)
    8796:	5bb2                	lw	s7,44(sp)
    8798:	5c22                	lw	s8,40(sp)
    879a:	5c92                	lw	s9,36(sp)
    879c:	5d02                	lw	s10,32(sp)
    879e:	4df2                	lw	s11,28(sp)
    87a0:	4501                	li	a0,0
    87a2:	6161                	addi	sp,sp,80
    87a4:	8082                	ret
C:/Repository/RISKYKVM/firmware/src/User/USB_Host/app_km.c:340
            if( ( (PUSB_CFG_DESCR)( &Com_Buf[ i ] ) )->bNumInterfaces > DEF_INTERFACE_NUM_MAX )
    87a6:	00464603          	lbu	a2,4(a2)
    87aa:	4591                	li	a1,4
    87ac:	04c5fc63          	bgeu	a1,a2,8804 <KM_AnalyzeConfigDesc+0x100>
C:/Repository/RISKYKVM/firmware/src/User/USB_Host/app_km.c:342
                HostCtl[ index ].InterfaceNum = DEF_INTERFACE_NUM_MAX;
    87b0:	00ba0023          	sb	a1,0(s4)
C:/Repository/RISKYKVM/firmware/src/User/USB_Host/app_km.c:348
            i += Com_Buf[ i ];
    87b4:	00f40633          	add	a2,s0,a5
    87b8:	00064603          	lbu	a2,0(a2)
    87bc:	97b2                	add	a5,a5,a2
    87be:	07c2                	slli	a5,a5,0x10
    87c0:	83c1                	srli	a5,a5,0x10
    87c2:	bf59                	j	8758 <KM_AnalyzeConfigDesc+0x54>
C:/Repository/RISKYKVM/firmware/src/User/USB_Host/app_km.c:352
            if( num == DEF_INTERFACE_NUM_MAX )
    87c4:	fcb481e3          	beq	s1,a1,8786 <KM_AnalyzeConfigDesc+0x82>
C:/Repository/RISKYKVM/firmware/src/User/USB_Host/app_km.c:356
            if( ( (PUSB_ITF_DESCR)( &Com_Buf[ i ] ) )->bInterfaceClass == 0x03 )
    87c8:	00564803          	lbu	a6,5(a2)
    87cc:	458d                	li	a1,3
    87ce:	1ab81263          	bne	a6,a1,8972 <KM_AnalyzeConfigDesc+0x26e>
C:/Repository/RISKYKVM/firmware/src/User/USB_Host/app_km.c:359
                if( ( (PUSB_ITF_DESCR)( &Com_Buf[ i ] ) )->bInterfaceSubClass <= 0x01 &&
    87d2:	00664803          	lbu	a6,6(a2)
    87d6:	4585                	li	a1,1
    87d8:	0305f963          	bgeu	a1,a6,880a <KM_AnalyzeConfigDesc+0x106>
C:/Repository/RISKYKVM/firmware/src/User/USB_Host/app_km.c:436
                    i += Com_Buf[ i ];
    87dc:	00f405b3          	add	a1,s0,a5
    87e0:	0005c583          	lbu	a1,0(a1)
C:/Repository/RISKYKVM/firmware/src/User/USB_Host/app_km.c:435
                    HostCtl[ index ].Interface[ num ].Type = DEC_UNKNOW;
    87e4:	00449613          	slli	a2,s1,0x4
    87e8:	9626                	add	a2,a2,s1
    87ea:	0612                	slli	a2,a2,0x4
C:/Repository/RISKYKVM/firmware/src/User/USB_Host/app_km.c:436
                    i += Com_Buf[ i ];
    87ec:	97ae                	add	a5,a5,a1
C:/Repository/RISKYKVM/firmware/src/User/USB_Host/app_km.c:435
                    HostCtl[ index ].Interface[ num ].Type = DEC_UNKNOW;
    87ee:	964e                	add	a2,a2,s3
    87f0:	964a                	add	a2,a2,s2
    87f2:	55fd                	li	a1,-1
C:/Repository/RISKYKVM/firmware/src/User/USB_Host/app_km.c:436
                    i += Com_Buf[ i ];
    87f4:	07c2                	slli	a5,a5,0x10
C:/Repository/RISKYKVM/firmware/src/User/USB_Host/app_km.c:435
                    HostCtl[ index ].Interface[ num ].Type = DEC_UNKNOW;
    87f6:	00b60223          	sb	a1,4(a2)
C:/Repository/RISKYKVM/firmware/src/User/USB_Host/app_km.c:436
                    i += Com_Buf[ i ];
    87fa:	83c1                	srli	a5,a5,0x10
C:/Repository/RISKYKVM/firmware/src/User/USB_Host/app_km.c:448
            num++;
    87fc:	0485                	addi	s1,s1,1
    87fe:	0ff4f493          	andi	s1,s1,255
    8802:	bf99                	j	8758 <KM_AnalyzeConfigDesc+0x54>
C:/Repository/RISKYKVM/firmware/src/User/USB_Host/app_km.c:346
                HostCtl[ index ].InterfaceNum = ( (PUSB_CFG_DESCR)( &Com_Buf[ i ] ) )->bNumInterfaces;
    8804:	00ca0023          	sb	a2,0(s4)
    8808:	b775                	j	87b4 <KM_AnalyzeConfigDesc+0xb0>
C:/Repository/RISKYKVM/firmware/src/User/USB_Host/app_km.c:360 (discriminator 1)
                    ( (PUSB_ITF_DESCR)( &Com_Buf[ i ] ) )->bInterfaceProtocol <= 2 )
    880a:	00764803          	lbu	a6,7(a2)
C:/Repository/RISKYKVM/firmware/src/User/USB_Host/app_km.c:359 (discriminator 1)
                if( ( (PUSB_ITF_DESCR)( &Com_Buf[ i ] ) )->bInterfaceSubClass <= 0x01 &&
    880e:	fd0567e3          	bltu	a0,a6,87dc <KM_AnalyzeConfigDesc+0xd8>
C:/Repository/RISKYKVM/firmware/src/User/USB_Host/app_km.c:362
                    if( ( (PUSB_ITF_DESCR)( &Com_Buf[ i ] ) )->bInterfaceProtocol == 0x01 ) // Keyboard
    8812:	12b80a63          	beq	a6,a1,8946 <KM_AnalyzeConfigDesc+0x242>
C:/Repository/RISKYKVM/firmware/src/User/USB_Host/app_km.c:367
                    else if( ( (PUSB_ITF_DESCR)( &Com_Buf[ i ] ) )->bInterfaceProtocol == 0x02 ) // Mouse
    8816:	12a80863          	beq	a6,a0,8946 <KM_AnalyzeConfigDesc+0x242>
C:/Repository/RISKYKVM/firmware/src/User/USB_Host/app_km.c:373
                    i += Com_Buf[ i ];
    881a:	00f40633          	add	a2,s0,a5
    881e:	00064603          	lbu	a2,0(a2)
C:/Repository/RISKYKVM/firmware/src/User/USB_Host/app_km.c:417
                                HostCtl[ index ].Interface[ num ].HidDescLen = ( (PUSB_HID_DESCR)( &Com_Buf[ i ] ) )->wDescriptorLengthL | \
    8822:	00449e13          	slli	t3,s1,0x4
    8826:	9e26                	add	t3,t3,s1
C:/Repository/RISKYKVM/firmware/src/User/USB_Host/app_km.c:373
                    i += Com_Buf[ i ];
    8828:	97b2                	add	a5,a5,a2
C:/Repository/RISKYKVM/firmware/src/User/USB_Host/app_km.c:405
                                    HostCtl[ index ].Interface[ num ].OutEndpSize[ outnum ] = ( (PUSB_ENDP_DESCR)( &Com_Buf[ i ] ) )->wMaxPacketSizeL +
    882a:	4612                	lw	a2,4(sp)
C:/Repository/RISKYKVM/firmware/src/User/USB_Host/app_km.c:417
                                HostCtl[ index ].Interface[ num ].HidDescLen = ( (PUSB_HID_DESCR)( &Com_Buf[ i ] ) )->wDescriptorLengthL | \
    882c:	004e1893          	slli	a7,t3,0x4
    8830:	98ce                	add	a7,a7,s3
C:/Repository/RISKYKVM/firmware/src/User/USB_Host/app_km.c:405
                                    HostCtl[ index ].Interface[ num ].OutEndpSize[ outnum ] = ( (PUSB_ENDP_DESCR)( &Com_Buf[ i ] ) )->wMaxPacketSizeL +
    8832:	0e0e                	slli	t3,t3,0x3
C:/Repository/RISKYKVM/firmware/src/User/USB_Host/app_km.c:373
                    i += Com_Buf[ i ];
    8834:	07c2                	slli	a5,a5,0x10
C:/Repository/RISKYKVM/firmware/src/User/USB_Host/app_km.c:378
                        if( ( Com_Buf[ i + 1 ] == DEF_DECR_INTERFACE ) || ( i >= Com_Buf[ 2 ] ) )
    8836:	01069293          	slli	t0,a3,0x10
C:/Repository/RISKYKVM/firmware/src/User/USB_Host/app_km.c:373
                    i += Com_Buf[ i ];
    883a:	83c1                	srli	a5,a5,0x10
C:/Repository/RISKYKVM/firmware/src/User/USB_Host/app_km.c:378
                        if( ( Com_Buf[ i + 1 ] == DEF_DECR_INTERFACE ) || ( i >= Com_Buf[ 2 ] ) )
    883c:	0102d293          	srli	t0,t0,0x10
C:/Repository/RISKYKVM/firmware/src/User/USB_Host/app_km.c:375
                    outnum = 0;
    8840:	4e81                	li	t4,0
C:/Repository/RISKYKVM/firmware/src/User/USB_Host/app_km.c:374
                    innum = 0;
    8842:	4f01                	li	t5,0
C:/Repository/RISKYKVM/firmware/src/User/USB_Host/app_km.c:378
                        if( ( Com_Buf[ i + 1 ] == DEF_DECR_INTERFACE ) || ( i >= Com_Buf[ 2 ] ) )
    8844:	4f91                	li	t6,4
C:/Repository/RISKYKVM/firmware/src/User/USB_Host/app_km.c:385
                            if( Com_Buf[ i + 1 ] == DEF_DECR_ENDPOINT )
    8846:	4395                	li	t2,5
C:/Repository/RISKYKVM/firmware/src/User/USB_Host/app_km.c:414
                            else if( Com_Buf[ i + 1 ] == DEF_DECR_HID )
    8848:	02100d13          	li	s10,33
C:/Repository/RISKYKVM/firmware/src/User/USB_Host/app_km.c:417
                                HostCtl[ index ].Interface[ num ].HidDescLen = ( (PUSB_HID_DESCR)( &Com_Buf[ i ] ) )->wDescriptorLengthL | \
    884c:	98ca                	add	a7,a7,s2
C:/Repository/RISKYKVM/firmware/src/User/USB_Host/app_km.c:405
                                    HostCtl[ index ].Interface[ num ].OutEndpSize[ outnum ] = ( (PUSB_ENDP_DESCR)( &Com_Buf[ i ] ) )->wMaxPacketSizeL +
    884e:	9e32                	add	t3,t3,a2
    8850:	c626                	sw	s1,12(sp)
C:/Repository/RISKYKVM/firmware/src/User/USB_Host/app_km.c:378
                        if( ( Com_Buf[ i + 1 ] == DEF_DECR_INTERFACE ) || ( i >= Com_Buf[ 2 ] ) )
    8852:	00f40633          	add	a2,s0,a5
    8856:	00164583          	lbu	a1,1(a2)
    885a:	03f58c63          	beq	a1,t6,8892 <KM_AnalyzeConfigDesc+0x18e>
C:/Repository/RISKYKVM/firmware/src/User/USB_Host/app_km.c:378 (discriminator 1)
    885e:	0257fa63          	bgeu	a5,t0,8892 <KM_AnalyzeConfigDesc+0x18e>
    8862:	00064503          	lbu	a0,0(a2)
    8866:	97aa                	add	a5,a5,a0
    8868:	07c2                	slli	a5,a5,0x10
    886a:	83c1                	srli	a5,a5,0x10
C:/Repository/RISKYKVM/firmware/src/User/USB_Host/app_km.c:385
                            if( Com_Buf[ i + 1 ] == DEF_DECR_ENDPOINT )
    886c:	04758563          	beq	a1,t2,88b6 <KM_AnalyzeConfigDesc+0x1b2>
C:/Repository/RISKYKVM/firmware/src/User/USB_Host/app_km.c:414
                            else if( Com_Buf[ i + 1 ] == DEF_DECR_HID )
    8870:	ffa591e3          	bne	a1,s10,8852 <KM_AnalyzeConfigDesc+0x14e>
C:/Repository/RISKYKVM/firmware/src/User/USB_Host/app_km.c:418
                                                                               ( (uint16_t)( ( (PUSB_HID_DESCR)( &Com_Buf[ i ] ) )->wDescriptorLengthH ) << 8 );
    8874:	00864583          	lbu	a1,8(a2)
C:/Repository/RISKYKVM/firmware/src/User/USB_Host/app_km.c:417
                                HostCtl[ index ].Interface[ num ].HidDescLen = ( (PUSB_HID_DESCR)( &Com_Buf[ i ] ) )->wDescriptorLengthL | \
    8878:	00764503          	lbu	a0,7(a2)
C:/Repository/RISKYKVM/firmware/src/User/USB_Host/app_km.c:418
                                                                               ( (uint16_t)( ( (PUSB_HID_DESCR)( &Com_Buf[ i ] ) )->wDescriptorLengthH ) << 8 );
    887c:	00859613          	slli	a2,a1,0x8
C:/Repository/RISKYKVM/firmware/src/User/USB_Host/app_km.c:417
                                HostCtl[ index ].Interface[ num ].HidDescLen = ( (PUSB_HID_DESCR)( &Com_Buf[ i ] ) )->wDescriptorLengthL | \
    8880:	8e49                	or	a2,a2,a0
    8882:	00c89323          	sh	a2,6(a7)
C:/Repository/RISKYKVM/firmware/src/User/USB_Host/app_km.c:378
                        if( ( Com_Buf[ i + 1 ] == DEF_DECR_INTERFACE ) || ( i >= Com_Buf[ 2 ] ) )
    8886:	00f40633          	add	a2,s0,a5
    888a:	00164583          	lbu	a1,1(a2)
    888e:	fdf598e3          	bne	a1,t6,885e <KM_AnalyzeConfigDesc+0x15a>
C:/Repository/RISKYKVM/firmware/src/User/USB_Host/app_km.c:428
                    if( ( outnum == 1 ) && ( HostCtl[ index ].Interface[ num ].Type == DEC_KEY ) )
    8892:	4605                	li	a2,1
    8894:	44b2                	lw	s1,12(sp)
    8896:	f6ce93e3          	bne	t4,a2,87fc <KM_AnalyzeConfigDesc+0xf8>
C:/Repository/RISKYKVM/firmware/src/User/USB_Host/app_km.c:428 (discriminator 1)
    889a:	00449613          	slli	a2,s1,0x4
    889e:	9626                	add	a2,a2,s1
    88a0:	0612                	slli	a2,a2,0x4
    88a2:	964e                	add	a2,a2,s3
    88a4:	964a                	add	a2,a2,s2
    88a6:	00464583          	lbu	a1,4(a2)
    88aa:	f5d599e3          	bne	a1,t4,87fc <KM_AnalyzeConfigDesc+0xf8>
C:/Repository/RISKYKVM/firmware/src/User/USB_Host/app_km.c:430
                        HostCtl[ index ].Interface[ num ].SetReport_Swi = 0xFF;
    88ae:	55fd                	li	a1,-1
    88b0:	04b60123          	sb	a1,66(a2)
    88b4:	b7a1                	j	87fc <KM_AnalyzeConfigDesc+0xf8>
C:/Repository/RISKYKVM/firmware/src/User/USB_Host/app_km.c:403
                                    HostCtl[ index ].Interface[ num ].OutEndpAddr[ outnum ] = ( (PUSB_ENDP_DESCR)( &Com_Buf[ i ] ) )->bEndpointAddress & 0x0f;
    88b6:	00564803          	lbu	a6,5(a2)
C:/Repository/RISKYKVM/firmware/src/User/USB_Host/app_km.c:388
                                if( ( (PUSB_ENDP_DESCR)( &Com_Buf[ i ] ) )->bEndpointAddress & 0x80 )
    88ba:	00264303          	lbu	t1,2(a2)
    88be:	00464483          	lbu	s1,4(a2)
C:/Repository/RISKYKVM/firmware/src/User/USB_Host/app_km.c:405
                                    HostCtl[ index ].Interface[ num ].OutEndpSize[ outnum ] = ( (PUSB_ENDP_DESCR)( &Com_Buf[ i ] ) )->wMaxPacketSizeL +
    88c2:	01de05b3          	add	a1,t3,t4
C:/Repository/RISKYKVM/firmware/src/User/USB_Host/app_km.c:393
                                    HostCtl[ index ].Interface[ num ].InEndpSize[ innum ] = ( (PUSB_ENDP_DESCR)( &Com_Buf[ i ] ) )->wMaxPacketSizeL +
    88c6:	01ee0533          	add	a0,t3,t5
    88ca:	0822                	slli	a6,a6,0x8
    88cc:	9826                	add	a6,a6,s1
C:/Repository/RISKYKVM/firmware/src/User/USB_Host/app_km.c:388
                                if( ( (PUSB_ENDP_DESCR)( &Com_Buf[ i ] ) )->bEndpointAddress & 0x80 )
    88ce:	01831b13          	slli	s6,t1,0x18
C:/Repository/RISKYKVM/firmware/src/User/USB_Host/app_km.c:405
                                    HostCtl[ index ].Interface[ num ].OutEndpSize[ outnum ] = ( (PUSB_ENDP_DESCR)( &Com_Buf[ i ] ) )->wMaxPacketSizeL +
    88d2:	05c1                	addi	a1,a1,16
C:/Repository/RISKYKVM/firmware/src/User/USB_Host/app_km.c:393
                                    HostCtl[ index ].Interface[ num ].InEndpSize[ innum ] = ( (PUSB_ENDP_DESCR)( &Com_Buf[ i ] ) )->wMaxPacketSizeL +
    88d4:	0521                	addi	a0,a0,8
C:/Repository/RISKYKVM/firmware/src/User/USB_Host/app_km.c:405
                                    HostCtl[ index ].Interface[ num ].OutEndpSize[ outnum ] = ( (PUSB_ENDP_DESCR)( &Com_Buf[ i ] ) )->wMaxPacketSizeL +
    88d6:	0586                	slli	a1,a1,0x1
C:/Repository/RISKYKVM/firmware/src/User/USB_Host/app_km.c:393
                                    HostCtl[ index ].Interface[ num ].InEndpSize[ innum ] = ( (PUSB_ENDP_DESCR)( &Com_Buf[ i ] ) )->wMaxPacketSizeL +
    88d8:	0506                	slli	a0,a0,0x1
    88da:	0842                	slli	a6,a6,0x10
C:/Repository/RISKYKVM/firmware/src/User/USB_Host/app_km.c:388
                                if( ( (PUSB_ENDP_DESCR)( &Com_Buf[ i ] ) )->bEndpointAddress & 0x80 )
    88dc:	418b5b13          	srai	s6,s6,0x18
C:/Repository/RISKYKVM/firmware/src/User/USB_Host/app_km.c:403
                                    HostCtl[ index ].Interface[ num ].OutEndpAddr[ outnum ] = ( (PUSB_ENDP_DESCR)( &Com_Buf[ i ] ) )->bEndpointAddress & 0x0f;
    88e0:	01d88ab3          	add	s5,a7,t4
C:/Repository/RISKYKVM/firmware/src/User/USB_Host/app_km.c:405
                                    HostCtl[ index ].Interface[ num ].OutEndpSize[ outnum ] = ( (PUSB_ENDP_DESCR)( &Com_Buf[ i ] ) )->wMaxPacketSizeL +
    88e4:	95ca                	add	a1,a1,s2
C:/Repository/RISKYKVM/firmware/src/User/USB_Host/app_km.c:409
                                    outnum++;
    88e6:	001e8c13          	addi	s8,t4,1
C:/Repository/RISKYKVM/firmware/src/User/USB_Host/app_km.c:391
                                    HostCtl[ index ].Interface[ num ].InEndpAddr[ innum ] = ( (PUSB_ENDP_DESCR)( &Com_Buf[ i ] ) )->bEndpointAddress & 0x0F;
    88ea:	01e884b3          	add	s1,a7,t5
C:/Repository/RISKYKVM/firmware/src/User/USB_Host/app_km.c:393
                                    HostCtl[ index ].Interface[ num ].InEndpSize[ innum ] = ( (PUSB_ENDP_DESCR)( &Com_Buf[ i ] ) )->wMaxPacketSizeL +
    88ee:	954a                	add	a0,a0,s2
C:/Repository/RISKYKVM/firmware/src/User/USB_Host/app_km.c:398
                                    innum++;
    88f0:	001f0c93          	addi	s9,t5,1
    88f4:	00f37313          	andi	t1,t1,15
    88f8:	00364b83          	lbu	s7,3(a2)
    88fc:	01085813          	srli	a6,a6,0x10
C:/Repository/RISKYKVM/firmware/src/User/USB_Host/app_km.c:388
                                if( ( (PUSB_ENDP_DESCR)( &Com_Buf[ i ] ) )->bEndpointAddress & 0x80 )
    8900:	020b4063          	bltz	s6,8920 <KM_AnalyzeConfigDesc+0x21c>
C:/Repository/RISKYKVM/firmware/src/User/USB_Host/app_km.c:407
                                    HostCtl[ index ].Interface[ num ].OutEndpNum++;
    8904:	0288c603          	lbu	a2,40(a7)
C:/Repository/RISKYKVM/firmware/src/User/USB_Host/app_km.c:403
                                    HostCtl[ index ].Interface[ num ].OutEndpAddr[ outnum ] = ( (PUSB_ENDP_DESCR)( &Com_Buf[ i ] ) )->bEndpointAddress & 0x0f;
    8908:	026a84a3          	sb	t1,41(s5)
C:/Repository/RISKYKVM/firmware/src/User/USB_Host/app_km.c:404
                                    HostCtl[ index ].Interface[ num ].OutEndpType[ outnum ] = ( (PUSB_ENDP_DESCR)( &Com_Buf[ i ] ) )->bmAttributes;
    890c:	037a86a3          	sb	s7,45(s5)
C:/Repository/RISKYKVM/firmware/src/User/USB_Host/app_km.c:407
                                    HostCtl[ index ].Interface[ num ].OutEndpNum++;
    8910:	0605                	addi	a2,a2,1
C:/Repository/RISKYKVM/firmware/src/User/USB_Host/app_km.c:405
                                    HostCtl[ index ].Interface[ num ].OutEndpSize[ outnum ] = ( (PUSB_ENDP_DESCR)( &Com_Buf[ i ] ) )->wMaxPacketSizeL +
    8912:	01059923          	sh	a6,18(a1)
C:/Repository/RISKYKVM/firmware/src/User/USB_Host/app_km.c:407
                                    HostCtl[ index ].Interface[ num ].OutEndpNum++;
    8916:	02c88423          	sb	a2,40(a7)
C:/Repository/RISKYKVM/firmware/src/User/USB_Host/app_km.c:409
                                    outnum++;
    891a:	0ffc7e93          	andi	t4,s8,255
C:/Repository/RISKYKVM/firmware/src/User/USB_Host/app_km.c:412
                                i += Com_Buf[ i ];
    891e:	bf15                	j	8852 <KM_AnalyzeConfigDesc+0x14e>
C:/Repository/RISKYKVM/firmware/src/User/USB_Host/app_km.c:396
                                    HostCtl[ index ].Interface[ num ].InEndpNum++;
    8920:	00a8c583          	lbu	a1,10(a7)
C:/Repository/RISKYKVM/firmware/src/User/USB_Host/app_km.c:395
                                    HostCtl[ index ].Interface[ num ].InEndpInterval[ innum ] = ( (PUSB_ENDP_DESCR)( &Com_Buf[ i ] ) )->bInterval;
    8924:	00664f03          	lbu	t5,6(a2)
C:/Repository/RISKYKVM/firmware/src/User/USB_Host/app_km.c:391
                                    HostCtl[ index ].Interface[ num ].InEndpAddr[ innum ] = ( (PUSB_ENDP_DESCR)( &Com_Buf[ i ] ) )->bEndpointAddress & 0x0F;
    8928:	006485a3          	sb	t1,11(s1)
C:/Repository/RISKYKVM/firmware/src/User/USB_Host/app_km.c:396
                                    HostCtl[ index ].Interface[ num ].InEndpNum++;
    892c:	00158613          	addi	a2,a1,1
C:/Repository/RISKYKVM/firmware/src/User/USB_Host/app_km.c:395
                                    HostCtl[ index ].Interface[ num ].InEndpInterval[ innum ] = ( (PUSB_ENDP_DESCR)( &Com_Buf[ i ] ) )->bInterval;
    8930:	03e48023          	sb	t5,32(s1)
C:/Repository/RISKYKVM/firmware/src/User/USB_Host/app_km.c:392
                                    HostCtl[ index ].Interface[ num ].InEndpType[ innum ] = ( (PUSB_ENDP_DESCR)( &Com_Buf[ i ] ) )->bmAttributes;
    8934:	017487a3          	sb	s7,15(s1)
C:/Repository/RISKYKVM/firmware/src/User/USB_Host/app_km.c:393
                                    HostCtl[ index ].Interface[ num ].InEndpSize[ innum ] = ( (PUSB_ENDP_DESCR)( &Com_Buf[ i ] ) )->wMaxPacketSizeL +
    8938:	01051223          	sh	a6,4(a0)
C:/Repository/RISKYKVM/firmware/src/User/USB_Host/app_km.c:396
                                    HostCtl[ index ].Interface[ num ].InEndpNum++;
    893c:	00c88523          	sb	a2,10(a7)
C:/Repository/RISKYKVM/firmware/src/User/USB_Host/app_km.c:398
                                    innum++;
    8940:	0ffcff13          	andi	t5,s9,255
    8944:	b739                	j	8852 <KM_AnalyzeConfigDesc+0x14e>
C:/Repository/RISKYKVM/firmware/src/User/USB_Host/app_km.c:369
                        HostCtl[ index ].Interface[ num ].Type = DEC_MOUSE;
    8946:	00449713          	slli	a4,s1,0x4
    894a:	9726                	add	a4,a4,s1
    894c:	0712                	slli	a4,a4,0x4
C:/Repository/RISKYKVM/firmware/src/User/USB_Host/app_km.c:370
                        HID_SetIdle( ep0_size, num, 0, 0 );
    894e:	4522                	lw	a0,8(sp)
C:/Repository/RISKYKVM/firmware/src/User/USB_Host/app_km.c:369
                        HostCtl[ index ].Interface[ num ].Type = DEC_MOUSE;
    8950:	974e                	add	a4,a4,s3
    8952:	c63e                	sw	a5,12(sp)
    8954:	974a                	add	a4,a4,s2
C:/Repository/RISKYKVM/firmware/src/User/USB_Host/app_km.c:370
                        HID_SetIdle( ep0_size, num, 0, 0 );
    8956:	4681                	li	a3,0
C:/Repository/RISKYKVM/firmware/src/User/USB_Host/app_km.c:369
                        HostCtl[ index ].Interface[ num ].Type = DEC_MOUSE;
    8958:	01070223          	sb	a6,4(a4)
C:/Repository/RISKYKVM/firmware/src/User/USB_Host/app_km.c:370
                        HID_SetIdle( ep0_size, num, 0, 0 );
    895c:	4601                	li	a2,0
    895e:	85a6                	mv	a1,s1
    8960:	6b0020ef          	jal	ra,b010 <HID_SetIdle>
    8964:	00344703          	lbu	a4,3(s0)
    8968:	00244683          	lbu	a3,2(s0)
    896c:	47b2                	lw	a5,12(sp)
    896e:	0722                	slli	a4,a4,0x8
    8970:	b56d                	j	881a <KM_AnalyzeConfigDesc+0x116>
C:/Repository/RISKYKVM/firmware/src/User/USB_Host/app_km.c:442
                HostCtl[ index ].Interface[ num ].Type = DEC_UNKNOW;
    8972:	44400793          	li	a5,1092
    8976:	02fd87b3          	mul	a5,s11,a5
    897a:	00449713          	slli	a4,s1,0x4
    897e:	9726                	add	a4,a4,s1
    8980:	0712                	slli	a4,a4,0x4
    8982:	200006b7          	lui	a3,0x20000
    8986:	97ba                	add	a5,a5,a4
    8988:	0d868713          	addi	a4,a3,216 # 200000d8 <HostCtl>
    898c:	97ba                	add	a5,a5,a4
    898e:	577d                	li	a4,-1
    8990:	00e78223          	sb	a4,4(a5)
C:/Repository/RISKYKVM/firmware/src/User/USB_Host/app_km.c:445
                break;
    8994:	bbcd                	j	8786 <KM_AnalyzeConfigDesc+0x82>

00008996 <KM_AnalyzeHidReportDesc>:
KM_AnalyzeHidReportDesc():
C:/Repository/RISKYKVM/firmware/src/User/USB_Host/app_km.c:480
    uint16_t report_bits;

    uint16_t i = 0;

    /* Usage Page(Generic Desktop), Usage(Kyeboard) */
    if( ( Com_Buf[ i + 0 ] == 0x05 ) && ( Com_Buf[ i + 1 ] == 0x01 ) &&
    8996:	200017b7          	lui	a5,0x20001
    899a:	6607c683          	lbu	a3,1632(a5) # 20001660 <Com_Buf>
    899e:	4715                	li	a4,5
    89a0:	00e68363          	beq	a3,a4,89a6 <KM_AnalyzeHidReportDesc+0x10>
    89a4:	8082                	ret
C:/Repository/RISKYKVM/firmware/src/User/USB_Host/app_km.c:480 (discriminator 1)
    89a6:	66078793          	addi	a5,a5,1632
    89aa:	0017c683          	lbu	a3,1(a5)
    89ae:	4705                	li	a4,1
    89b0:	fee69ae3          	bne	a3,a4,89a4 <KM_AnalyzeHidReportDesc+0xe>
C:/Repository/RISKYKVM/firmware/src/User/USB_Host/app_km.c:480 (discriminator 2)
    89b4:	0027c683          	lbu	a3,2(a5)
    89b8:	4725                	li	a4,9
    89ba:	fee695e3          	bne	a3,a4,89a4 <KM_AnalyzeHidReportDesc+0xe>
C:/Repository/RISKYKVM/firmware/src/User/USB_Host/app_km.c:481
        ( Com_Buf[ i + 2 ] == 0x09 ) && ( Com_Buf[ i + 3 ] == 0x06 ) )
    89be:	0037c683          	lbu	a3,3(a5)
    89c2:	4719                	li	a4,6
    89c4:	fee690e3          	bne	a3,a4,89a4 <KM_AnalyzeHidReportDesc+0xe>
C:/Repository/RISKYKVM/firmware/src/User/USB_Host/app_km.c:488
        i += 4;
        report_size = 0;
        report_cnt = 0;
        report_bits = 0;

        while( i < HostCtl[ index ].Interface[ intf_num ].HidDescLen )
    89c8:	44400713          	li	a4,1092
    89cc:	02e50733          	mul	a4,a0,a4
    89d0:	00459313          	slli	t1,a1,0x4
    89d4:	00b30833          	add	a6,t1,a1
    89d8:	0812                	slli	a6,a6,0x4
    89da:	20000f37          	lui	t5,0x20000
    89de:	0d8f0f13          	addi	t5,t5,216 # 200000d8 <HostCtl>
    89e2:	4691                	li	a3,4
    89e4:	983a                	add	a6,a6,a4
    89e6:	987a                	add	a6,a6,t5
    89e8:	00685883          	lhu	a7,6(a6)
    89ec:	1516f963          	bgeu	a3,a7,8b3e <KM_AnalyzeHidReportDesc+0x1a8>
C:/Repository/RISKYKVM/firmware/src/User/USB_Host/app_km.c:469
{
    89f0:	7179                	addi	sp,sp,-48
    89f2:	d622                	sw	s0,44(sp)
    89f4:	d426                	sw	s1,40(sp)
    89f6:	d24a                	sw	s2,36(sp)
    89f8:	d04e                	sw	s3,32(sp)
    89fa:	ce52                	sw	s4,28(sp)
    89fc:	cc56                	sw	s5,24(sp)
    89fe:	ca5a                	sw	s6,20(sp)
    8a00:	c85e                	sw	s7,16(sp)
    8a02:	c662                	sw	s8,12(sp)
C:/Repository/RISKYKVM/firmware/src/User/USB_Host/app_km.c:470
    uint8_t  id = 0x00;
    8a04:	4a01                	li	s4,0
C:/Repository/RISKYKVM/firmware/src/User/USB_Host/app_km.c:486
        report_bits = 0;
    8a06:	4981                	li	s3,0
C:/Repository/RISKYKVM/firmware/src/User/USB_Host/app_km.c:484
        report_size = 0;
    8a08:	4b01                	li	s6,0
C:/Repository/RISKYKVM/firmware/src/User/USB_Host/app_km.c:485
        report_cnt = 0;
    8a0a:	4a81                	li	s5,0
C:/Repository/RISKYKVM/firmware/src/User/USB_Host/app_km.c:471
    uint8_t  led = 0x00;
    8a0c:	4381                	li	t2,0
C:/Repository/RISKYKVM/firmware/src/User/USB_Host/app_km.c:483
        i += 4;
    8a0e:	4711                	li	a4,4
    8a10:	4e91                	li	t4,4
    8a12:	07000293          	li	t0,112
    8a16:	08000913          	li	s2,128
    8a1a:	09000f93          	li	t6,144
    8a1e:	4e21                	li	t3,8
    8a20:	44c1                	li	s1,16
    8a22:	02000413          	li	s0,32
C:/Repository/RISKYKVM/firmware/src/User/USB_Host/app_km.c:510
                                report_bits += report_cnt * report_size;

                                /* Save report ID for output */
                                if( ( id != 0 ) && ( HostCtl[ index ].Interface[ intf_num ].IDFlag == 0 ) )
                                {
                                    HostCtl[ index ].Interface[ intf_num ].IDFlag = 1;
    8a26:	4b85                	li	s7,1
    8a28:	a039                	j	8a36 <KM_AnalyzeHidReportDesc+0xa0>
    8a2a:	c22d                	beqz	a2,8a8c <KM_AnalyzeHidReportDesc+0xf6>
C:/Repository/RISKYKVM/firmware/src/User/USB_Host/app_km.c:596

                default:
                    i++;
                    break;
            }
            i += size;
    8a2c:	9762                	add	a4,a4,s8
    8a2e:	0742                	slli	a4,a4,0x10
    8a30:	8341                	srli	a4,a4,0x10
C:/Repository/RISKYKVM/firmware/src/User/USB_Host/app_km.c:488
        while( i < HostCtl[ index ].Interface[ intf_num ].HidDescLen )
    8a32:	09177a63          	bgeu	a4,a7,8ac6 <KM_AnalyzeHidReportDesc+0x130>
C:/Repository/RISKYKVM/firmware/src/User/USB_Host/app_km.c:491
            size = Com_Buf[ i ] & 0x03;
    8a36:	00e786b3          	add	a3,a5,a4
    8a3a:	0006c683          	lbu	a3,0(a3)
    8a3e:	0705                	addi	a4,a4,1
    8a40:	0742                	slli	a4,a4,0x10
C:/Repository/RISKYKVM/firmware/src/User/USB_Host/app_km.c:492
            type = Com_Buf[ i ] & 0x0C;
    8a42:	00c6f613          	andi	a2,a3,12
C:/Repository/RISKYKVM/firmware/src/User/USB_Host/app_km.c:491
            size = Com_Buf[ i ] & 0x03;
    8a46:	0036fc13          	andi	s8,a3,3
C:/Repository/RISKYKVM/firmware/src/User/USB_Host/app_km.c:493
            tag = Com_Buf[ i ] & 0xF0;
    8a4a:	8341                	srli	a4,a4,0x10
    8a4c:	0f06f693          	andi	a3,a3,240
C:/Repository/RISKYKVM/firmware/src/User/USB_Host/app_km.c:495
            switch( type )
    8a50:	03d60163          	beq	a2,t4,8a72 <KM_AnalyzeHidReportDesc+0xdc>
    8a54:	fdc61be3          	bne	a2,t3,8a2a <KM_AnalyzeHidReportDesc+0x94>
C:/Repository/RISKYKVM/firmware/src/User/USB_Host/app_km.c:566
                    switch( tag )
    8a58:	0a968063          	beq	a3,s1,8af8 <KM_AnalyzeHidReportDesc+0x162>
    8a5c:	fc8698e3          	bne	a3,s0,8a2c <KM_AnalyzeHidReportDesc+0x96>
C:/Repository/RISKYKVM/firmware/src/User/USB_Host/app_km.c:580
                            if( led )
    8a60:	fc0386e3          	beqz	t2,8a2c <KM_AnalyzeHidReportDesc+0x96>
C:/Repository/RISKYKVM/firmware/src/User/USB_Host/app_km.c:582
                                HostCtl[ index ].Interface[ intf_num ].LED_Usage_Max = Com_Buf[ i ];
    8a64:	00e786b3          	add	a3,a5,a4
    8a68:	0006c683          	lbu	a3,0(a3)
    8a6c:	04d800a3          	sb	a3,65(a6)
    8a70:	bf75                	j	8a2c <KM_AnalyzeHidReportDesc+0x96>
C:/Repository/RISKYKVM/firmware/src/User/USB_Host/app_km.c:525
                    switch( tag )
    8a72:	08568c63          	beq	a3,t0,8b0a <KM_AnalyzeHidReportDesc+0x174>
    8a76:	02d2ff63          	bgeu	t0,a3,8ab4 <KM_AnalyzeHidReportDesc+0x11e>
    8a7a:	09268d63          	beq	a3,s2,8b14 <KM_AnalyzeHidReportDesc+0x17e>
    8a7e:	fbf697e3          	bne	a3,t6,8a2c <KM_AnalyzeHidReportDesc+0x96>
C:/Repository/RISKYKVM/firmware/src/User/USB_Host/app_km.c:536
                            report_cnt = Com_Buf[ i ];
    8a82:	00e786b3          	add	a3,a5,a4
    8a86:	0006ca83          	lbu	s5,0(a3)
C:/Repository/RISKYKVM/firmware/src/User/USB_Host/app_km.c:537
                            break;
    8a8a:	b74d                	j	8a2c <KM_AnalyzeHidReportDesc+0x96>
C:/Repository/RISKYKVM/firmware/src/User/USB_Host/app_km.c:499
                    switch( tag )
    8a8c:	fbf690e3          	bne	a3,t6,8a2c <KM_AnalyzeHidReportDesc+0x96>
C:/Repository/RISKYKVM/firmware/src/User/USB_Host/app_km.c:503
                            if( led )
    8a90:	f8038ee3          	beqz	t2,8a2c <KM_AnalyzeHidReportDesc+0x96>
C:/Repository/RISKYKVM/firmware/src/User/USB_Host/app_km.c:505
                                report_bits += report_cnt * report_size;
    8a94:	036a86b3          	mul	a3,s5,s6
    8a98:	99b6                	add	s3,s3,a3
    8a9a:	09c2                	slli	s3,s3,0x10
    8a9c:	0109d993          	srli	s3,s3,0x10
C:/Repository/RISKYKVM/firmware/src/User/USB_Host/app_km.c:508
                                if( ( id != 0 ) && ( HostCtl[ index ].Interface[ intf_num ].IDFlag == 0 ) )
    8aa0:	f80a06e3          	beqz	s4,8a2c <KM_AnalyzeHidReportDesc+0x96>
    8aa4:	03e84683          	lbu	a3,62(a6)
    8aa8:	f2d1                	bnez	a3,8a2c <KM_AnalyzeHidReportDesc+0x96>
C:/Repository/RISKYKVM/firmware/src/User/USB_Host/app_km.c:510
                                    HostCtl[ index ].Interface[ intf_num ].IDFlag = 1;
    8aaa:	03780f23          	sb	s7,62(a6)
C:/Repository/RISKYKVM/firmware/src/User/USB_Host/app_km.c:511
                                    HostCtl[ index ].Interface[ intf_num ].ReportID = id;
    8aae:	03480fa3          	sb	s4,63(a6)
C:/Repository/RISKYKVM/firmware/src/User/USB_Host/app_km.c:515
                            break;
    8ab2:	bfad                	j	8a2c <KM_AnalyzeHidReportDesc+0x96>
    8ab4:	fea5                	bnez	a3,8a2c <KM_AnalyzeHidReportDesc+0x96>
C:/Repository/RISKYKVM/firmware/src/User/USB_Host/app_km.c:548
                            if( Com_Buf[ i ] == 0x08 )      // LED
    8ab6:	00e786b3          	add	a3,a5,a4
    8aba:	0006c383          	lbu	t2,0(a3)
    8abe:	13e1                	addi	t2,t2,-8
    8ac0:	0013b393          	seqz	t2,t2
    8ac4:	b7a5                	j	8a2c <KM_AnalyzeHidReportDesc+0x96>
C:/Repository/RISKYKVM/firmware/src/User/USB_Host/app_km.c:599
        }

        if( report_bits == 8 )
    8ac6:	47a1                	li	a5,8
    8ac8:	04f98b63          	beq	s3,a5,8b1e <KM_AnalyzeHidReportDesc+0x188>
C:/Repository/RISKYKVM/firmware/src/User/USB_Host/app_km.c:608
                HostCtl[ index ].Interface[ intf_num ].SetReport_Swi = 1;
            }
        }
        else
        {
            HostCtl[ index ].Interface[ intf_num ].SetReport_Swi = 0;
    8acc:	44400793          	li	a5,1092
    8ad0:	02f50533          	mul	a0,a0,a5
    8ad4:	00b307b3          	add	a5,t1,a1
    8ad8:	0792                	slli	a5,a5,0x4
    8ada:	953e                	add	a0,a0,a5
    8adc:	957a                	add	a0,a0,t5
    8ade:	04050123          	sb	zero,66(a0)
C:/Repository/RISKYKVM/firmware/src/User/USB_Host/app_km.c:611
        }
    }
}
    8ae2:	5432                	lw	s0,44(sp)
    8ae4:	54a2                	lw	s1,40(sp)
    8ae6:	5912                	lw	s2,36(sp)
    8ae8:	5982                	lw	s3,32(sp)
    8aea:	4a72                	lw	s4,28(sp)
    8aec:	4ae2                	lw	s5,24(sp)
    8aee:	4b52                	lw	s6,20(sp)
    8af0:	4bc2                	lw	s7,16(sp)
    8af2:	4c32                	lw	s8,12(sp)
    8af4:	6145                	addi	sp,sp,48
    8af6:	8082                	ret
C:/Repository/RISKYKVM/firmware/src/User/USB_Host/app_km.c:571
                            if( led )
    8af8:	f2038ae3          	beqz	t2,8a2c <KM_AnalyzeHidReportDesc+0x96>
C:/Repository/RISKYKVM/firmware/src/User/USB_Host/app_km.c:573
                                HostCtl[ index ].Interface[ intf_num ].LED_Usage_Min = Com_Buf[ i ];
    8afc:	00e786b3          	add	a3,a5,a4
    8b00:	0006c683          	lbu	a3,0(a3)
    8b04:	04d80023          	sb	a3,64(a6)
    8b08:	b715                	j	8a2c <KM_AnalyzeHidReportDesc+0x96>
C:/Repository/RISKYKVM/firmware/src/User/USB_Host/app_km.c:542
                            report_size = Com_Buf[ i ];
    8b0a:	00e786b3          	add	a3,a5,a4
    8b0e:	0006cb03          	lbu	s6,0(a3)
C:/Repository/RISKYKVM/firmware/src/User/USB_Host/app_km.c:543
                            break;
    8b12:	bf29                	j	8a2c <KM_AnalyzeHidReportDesc+0x96>
C:/Repository/RISKYKVM/firmware/src/User/USB_Host/app_km.c:530
                            id = Com_Buf[ i ];
    8b14:	00e786b3          	add	a3,a5,a4
    8b18:	0006ca03          	lbu	s4,0(a3)
C:/Repository/RISKYKVM/firmware/src/User/USB_Host/app_km.c:531
                            break;
    8b1c:	bf01                	j	8a2c <KM_AnalyzeHidReportDesc+0x96>
C:/Repository/RISKYKVM/firmware/src/User/USB_Host/app_km.c:601
            if( HostCtl[ index ].Interface[ intf_num ].SetReport_Swi == 0 )
    8b1e:	44400793          	li	a5,1092
    8b22:	02f50533          	mul	a0,a0,a5
    8b26:	00b307b3          	add	a5,t1,a1
    8b2a:	0792                	slli	a5,a5,0x4
    8b2c:	97aa                	add	a5,a5,a0
    8b2e:	9f3e                	add	t5,t5,a5
    8b30:	042f4783          	lbu	a5,66(t5)
    8b34:	f7dd                	bnez	a5,8ae2 <KM_AnalyzeHidReportDesc+0x14c>
C:/Repository/RISKYKVM/firmware/src/User/USB_Host/app_km.c:603
                HostCtl[ index ].Interface[ intf_num ].SetReport_Swi = 1;
    8b36:	4785                	li	a5,1
    8b38:	04ff0123          	sb	a5,66(t5)
    8b3c:	b75d                	j	8ae2 <KM_AnalyzeHidReportDesc+0x14c>
C:/Repository/RISKYKVM/firmware/src/User/USB_Host/app_km.c:608
            HostCtl[ index ].Interface[ intf_num ].SetReport_Swi = 0;
    8b3e:	44400793          	li	a5,1092
    8b42:	02f50533          	mul	a0,a0,a5
    8b46:	00b307b3          	add	a5,t1,a1
    8b4a:	0792                	slli	a5,a5,0x4
    8b4c:	953e                	add	a0,a0,a5
    8b4e:	957a                	add	a0,a0,t5
    8b50:	04050123          	sb	zero,66(a0)
    8b54:	8082                	ret

00008b56 <USBH_EnumHidDevice>:
USBH_EnumHidDevice():
C:/Repository/RISKYKVM/firmware/src/User/USB_Host/app_km.c:694
 * @para    index: USB host port
 *
 * @return  The result of the enumeration.
 */
uint8_t USBH_EnumHidDevice( uint8_t index, uint8_t ep0_size )
{
    8b56:	711d                	addi	sp,sp,-96
    8b58:	c0da                	sw	s6,64(sp)
    8b5a:	ce86                	sw	ra,92(sp)
    8b5c:	cca2                	sw	s0,88(sp)
    8b5e:	caa6                	sw	s1,84(sp)
    8b60:	c8ca                	sw	s2,80(sp)
    8b62:	c6ce                	sw	s3,76(sp)
    8b64:	c4d2                	sw	s4,72(sp)
    8b66:	c2d6                	sw	s5,68(sp)
    8b68:	de5e                	sw	s7,60(sp)
    8b6a:	dc62                	sw	s8,56(sp)
    8b6c:	da66                	sw	s9,52(sp)
    8b6e:	d86a                	sw	s10,48(sp)
    8b70:	d66e                	sw	s11,44(sp)
    8b72:	c22a                	sw	a0,4(sp)
    8b74:	8b2e                	mv	s6,a1
C:/Repository/RISKYKVM/firmware/src/User/USB_Host/app_km.c:706

    DUG_PRINTF( "Enum Hid:\r\n" );
    
    /* Analyze HID class device configuration descriptor and save relevant parameters */
    DUG_PRINTF("Analyze CfgDesc: ");
    s = KM_AnalyzeConfigDesc( index, ep0_size );
    8b76:	3679                	jal	8704 <KM_AnalyzeConfigDesc>
    8b78:	c42a                	sw	a0,8(sp)
C:/Repository/RISKYKVM/firmware/src/User/USB_Host/app_km.c:707
    if( s == ERR_SUCCESS )
    8b7a:	16051363          	bnez	a0,8ce0 <USBH_EnumHidDevice+0x18a>
C:/Repository/RISKYKVM/firmware/src/User/USB_Host/app_km.c:718
        DUG_PRINTF( "Err(%02x)\r\n", s );
        return s;
    }

    /* Get the string descriptor contained in the configuration descriptor if it exists */
    if( Com_Buf[ 6 ] )
    8b7e:	20001ab7          	lui	s5,0x20001
    8b82:	660a8793          	addi	a5,s5,1632 # 20001660 <Com_Buf>
    8b86:	0067c583          	lbu	a1,6(a5)
    8b8a:	16059b63          	bnez	a1,8d00 <USBH_EnumHidDevice+0x1aa>
KM_DealHidReportDesc():
C:/Repository/RISKYKVM/firmware/src/User/USB_Host/app_km.c:632
    num_tmp = HostCtl[ index ].InterfaceNum;
    8b8e:	4792                	lw	a5,4(sp)
    8b90:	44400d13          	li	s10,1092
    8b94:	200004b7          	lui	s1,0x20000
    8b98:	03a78cb3          	mul	s9,a5,s10
    8b9c:	0d848493          	addi	s1,s1,216 # 200000d8 <HostCtl>
    8ba0:	01948c33          	add	s8,s1,s9
    8ba4:	000c4783          	lbu	a5,0(s8)
    8ba8:	c666                	sw	s9,12(sp)
C:/Repository/RISKYKVM/firmware/src/User/USB_Host/app_km.c:633
    while( num_tmp )
    8baa:	cfd1                	beqz	a5,8c46 <USBH_EnumHidDevice+0xf0>
    8bac:	89be                	mv	s3,a5
C:/Repository/RISKYKVM/firmware/src/User/USB_Host/app_km.c:631
    getrep_cnt = 0;
    8bae:	4d01                	li	s10,0
C:/Repository/RISKYKVM/firmware/src/User/USB_Host/app_km.c:667
                if( getrep_cnt <= 5 )
    8bb0:	4b95                	li	s7,5
    8bb2:	a031                	j	8bbe <USBH_EnumHidDevice+0x68>
    8bb4:	0ff6f993          	andi	s3,a3,255
C:/Repository/RISKYKVM/firmware/src/User/USB_Host/app_km.c:633
    while( num_tmp )
    8bb8:	c659                	beqz	a2,8c46 <USBH_EnumHidDevice+0xf0>
    8bba:	000c4783          	lbu	a5,0(s8)
C:/Repository/RISKYKVM/firmware/src/User/USB_Host/app_km.c:635
        num = HostCtl[ index ].InterfaceNum - num_tmp;
    8bbe:	413787b3          	sub	a5,a5,s3
    8bc2:	0ff7fd93          	andi	s11,a5,255
C:/Repository/RISKYKVM/firmware/src/User/USB_Host/app_km.c:636
        if( HostCtl[ index ].Interface[ num ].HidDescLen )
    8bc6:	004d9913          	slli	s2,s11,0x4
    8bca:	01b90433          	add	s0,s2,s11
    8bce:	0412                	slli	s0,s0,0x4
    8bd0:	019406b3          	add	a3,s0,s9
    8bd4:	96a6                	add	a3,a3,s1
    8bd6:	0066d583          	lhu	a1,6(a3)
C:/Repository/RISKYKVM/firmware/src/User/USB_Host/app_km.c:677
            num_tmp--;
    8bda:	fff98693          	addi	a3,s3,-1
    8bde:	0ff6f613          	andi	a2,a3,255
C:/Repository/RISKYKVM/firmware/src/User/USB_Host/app_km.c:636
        if( HostCtl[ index ].Interface[ num ].HidDescLen )
    8be2:	d9e9                	beqz	a1,8bb4 <USBH_EnumHidDevice+0x5e>
    8be4:	47b2                	lw	a5,12(sp)
    8be6:	943e                	add	s0,s0,a5
C:/Repository/RISKYKVM/firmware/src/User/USB_Host/app_km.c:643
            s = HID_GetHidDesr( ep0_size, num, Com_Buf, &HostCtl[ index ].Interface[ num ].HidDescLen );
    8be8:	00640a13          	addi	s4,s0,6
    8bec:	9a26                	add	s4,s4,s1
    8bee:	a019                	j	8bf4 <USBH_EnumHidDevice+0x9e>
C:/Repository/RISKYKVM/firmware/src/User/USB_Host/app_km.c:667
                if( getrep_cnt <= 5 )
    8bf0:	05abeb63          	bltu	s7,s10,8c46 <USBH_EnumHidDevice+0xf0>
C:/Repository/RISKYKVM/firmware/src/User/USB_Host/app_km.c:639
            getrep_cnt++;
    8bf4:	001d0713          	addi	a4,s10,1
C:/Repository/RISKYKVM/firmware/src/User/USB_Host/app_km.c:643
            s = HID_GetHidDesr( ep0_size, num, Com_Buf, &HostCtl[ index ].Interface[ num ].HidDescLen );
    8bf8:	86d2                	mv	a3,s4
    8bfa:	660a8613          	addi	a2,s5,1632
    8bfe:	85ee                	mv	a1,s11
    8c00:	855a                	mv	a0,s6
C:/Repository/RISKYKVM/firmware/src/User/USB_Host/app_km.c:639
            getrep_cnt++;
    8c02:	0ff77d13          	andi	s10,a4,255
C:/Repository/RISKYKVM/firmware/src/User/USB_Host/app_km.c:643
            s = HID_GetHidDesr( ep0_size, num, Com_Buf, &HostCtl[ index ].Interface[ num ].HidDescLen );
    8c06:	3b2020ef          	jal	ra,afb8 <HID_GetHidDesr>
C:/Repository/RISKYKVM/firmware/src/User/USB_Host/app_km.c:644
            if( s == ERR_SUCCESS )
    8c0a:	f17d                	bnez	a0,8bf0 <USBH_EnumHidDevice+0x9a>
C:/Repository/RISKYKVM/firmware/src/User/USB_Host/app_km.c:656
                KM_AnalyzeHidReportDesc( index, num );
    8c0c:	4512                	lw	a0,4(sp)
    8c0e:	85ee                	mv	a1,s11
    8c10:	3359                	jal	8996 <KM_AnalyzeHidReportDesc>
C:/Repository/RISKYKVM/firmware/src/User/USB_Host/app_km.c:657
                parse_report_descriptor(Com_Buf, (uint16_t)HostCtl[ index ].Interface[ num ].HidDescLen , &HostCtl[ index ].Interface[ num ].HIDRptDesc);
    8c12:	01b907b3          	add	a5,s2,s11
    8c16:	0792                	slli	a5,a5,0x4
    8c18:	97e6                	add	a5,a5,s9
    8c1a:	97a6                	add	a5,a5,s1
    8c1c:	0067d583          	lhu	a1,6(a5)
    8c20:	04640613          	addi	a2,s0,70
    8c24:	9626                	add	a2,a2,s1
    8c26:	660a8513          	addi	a0,s5,1632
    8c2a:	5bd010ef          	jal	ra,a9e6 <parse_report_descriptor>
C:/Repository/RISKYKVM/firmware/src/User/USB_Host/app_km.c:660
                FifoInit(&HostCtl[ index ].Interface[ num ].buffer);
    8c2e:	08440513          	addi	a0,s0,132
    8c32:	9526                	add	a0,a0,s1
    8c34:	0bc040ef          	jal	ra,ccf0 <FifoInit>
C:/Repository/RISKYKVM/firmware/src/User/USB_Host/app_km.c:662
                num_tmp--;
    8c38:	fff98693          	addi	a3,s3,-1
    8c3c:	0ff6f613          	andi	a2,a3,255
    8c40:	0ff6f993          	andi	s3,a3,255
C:/Repository/RISKYKVM/firmware/src/User/USB_Host/app_km.c:633
    while( num_tmp )
    8c44:	fa3d                	bnez	a2,8bba <USBH_EnumHidDevice+0x64>
USBH_EnumHidDevice():
C:/Repository/RISKYKVM/firmware/src/User/USB_Host/app_km.c:743

    /* Get HID report descriptor */
    s = KM_DealHidReportDesc( index, ep0_size );
    
    /* Get USB vendor string descriptor  */
    if( DevDesc_Buf[ 14 ] )
    8c46:	20001437          	lui	s0,0x20001
    8c4a:	62c40413          	addi	s0,s0,1580 # 2000162c <DevDesc_Buf>
    8c4e:	00e44583          	lbu	a1,14(s0)
    8c52:	ede1                	bnez	a1,8d2a <USBH_EnumHidDevice+0x1d4>
C:/Repository/RISKYKVM/firmware/src/User/USB_Host/app_km.c:765
            DUG_PRINTF( "Err(%02x)\r\n", s );
        }
    }

    /* Get USB product string descriptor */
    if( DevDesc_Buf[ 15 ] )
    8c54:	00f44583          	lbu	a1,15(s0)
    8c58:	e1e1                	bnez	a1,8d18 <USBH_EnumHidDevice+0x1c2>
C:/Repository/RISKYKVM/firmware/src/User/USB_Host/app_km.c:787
            DUG_PRINTF( "Err(%02x)\r\n", s );
        }
    }

    /* Get USB serial number string descriptor */
    if( DevDesc_Buf[ 16 ] )
    8c5a:	01044583          	lbu	a1,16(s0)
    8c5e:	e5dd                	bnez	a1,8d0c <USBH_EnumHidDevice+0x1b6>
C:/Repository/RISKYKVM/firmware/src/User/USB_Host/app_km.c:809
            DUG_PRINTF( "Err(%02x)\r\n", s );
        }
    }

    /* Get USB serial number string descriptor */
    for( intf_num = 0; intf_num < HostCtl[ index ].InterfaceNum; intf_num++ )
    8c60:	4792                	lw	a5,4(sp)
    8c62:	44400993          	li	s3,1092
    8c66:	4401                	li	s0,0
    8c68:	033789b3          	mul	s3,a5,s3
    8c6c:	01348ab3          	add	s5,s1,s3
    8c70:	000ac603          	lbu	a2,0(s5)
    8c74:	c635                	beqz	a2,8ce0 <USBH_EnumHidDevice+0x18a>
C:/Repository/RISKYKVM/firmware/src/User/USB_Host/app_km.c:811
    {
        if( HostCtl[ index ].Interface[ intf_num ].Type == DEC_KEY )
    8c76:	4a05                	li	s4,1
KB_SetReport():
C:/Repository/RISKYKVM/firmware/src/User/USB_Host/app_km.c:1456
    if( HostCtl[ index ].Interface[ intf_num ].SetReport_Swi == 1 ) // Perform lighting operation through endpoint0
    {
        /* Send set report command */
        s = HID_SetReport( ep0_size, intf_num, dat, &len );
    }
    else if( HostCtl[ index ].Interface[ intf_num ].SetReport_Swi == 0xFF )  // Perform lighting operation through other endpoint
    8c78:	0ff00b93          	li	s7,255
C:/Repository/RISKYKVM/firmware/src/User/USB_Host/app_km.c:1458
    {
        s = USBFSH_SendEndpData( HostCtl[ index ].Interface[ intf_num ].OutEndpAddr[ 0 ],
    8c7c:	03a98913          	addi	s2,s3,58
    8c80:	a031                	j	8c8c <USBH_EnumHidDevice+0x136>
USBH_EnumHidDevice():
C:/Repository/RISKYKVM/firmware/src/User/USB_Host/app_km.c:809
    for( intf_num = 0; intf_num < HostCtl[ index ].InterfaceNum; intf_num++ )
    8c82:	0405                	addi	s0,s0,1
    8c84:	0ff47413          	andi	s0,s0,255
    8c88:	04c47c63          	bgeu	s0,a2,8ce0 <USBH_EnumHidDevice+0x18a>
C:/Repository/RISKYKVM/firmware/src/User/USB_Host/app_km.c:811
        if( HostCtl[ index ].Interface[ intf_num ].Type == DEC_KEY )
    8c8c:	00441713          	slli	a4,s0,0x4
    8c90:	008707b3          	add	a5,a4,s0
    8c94:	0792                	slli	a5,a5,0x4
    8c96:	97ce                	add	a5,a5,s3
    8c98:	97a6                	add	a5,a5,s1
    8c9a:	0047c683          	lbu	a3,4(a5)
    8c9e:	ff4692e3          	bne	a3,s4,8c82 <USBH_EnumHidDevice+0x12c>
KB_SetReport():
C:/Repository/RISKYKVM/firmware/src/User/USB_Host/app_km.c:1439
    if( HostCtl[ index ].Interface[ intf_num ].IDFlag )
    8ca2:	03e7c583          	lbu	a1,62(a5)
C:/Repository/RISKYKVM/firmware/src/User/USB_Host/app_km.c:1451
    if( HostCtl[ index ].Interface[ intf_num ].SetReport_Swi == 1 ) // Perform lighting operation through endpoint0
    8ca6:	9722                	add	a4,a4,s0
USBH_EnumHidDevice():
C:/Repository/RISKYKVM/firmware/src/User/USB_Host/app_km.c:813
            HostCtl[ index ].Interface[ intf_num ].SetReport_Value = 0x00;
    8ca8:	040781a3          	sb	zero,67(a5)
KB_SetReport():
C:/Repository/RISKYKVM/firmware/src/User/USB_Host/app_km.c:1451
    if( HostCtl[ index ].Interface[ intf_num ].SetReport_Swi == 1 ) // Perform lighting operation through endpoint0
    8cac:	0712                	slli	a4,a4,0x4
    8cae:	863e                	mv	a2,a5
C:/Repository/RISKYKVM/firmware/src/User/USB_Host/app_km.c:1448
        len = 1;
    8cb0:	4685                	li	a3,1
C:/Repository/RISKYKVM/firmware/src/User/USB_Host/app_km.c:1439
    if( HostCtl[ index ].Interface[ intf_num ].IDFlag )
    8cb2:	c591                	beqz	a1,8cbe <USBH_EnumHidDevice+0x168>
C:/Repository/RISKYKVM/firmware/src/User/USB_Host/app_km.c:1441
        dat[ 0 ] = HostCtl[ index ].Interface[ intf_num ].ReportID;
    8cb4:	03f7c583          	lbu	a1,63(a5)
C:/Repository/RISKYKVM/firmware/src/User/USB_Host/app_km.c:1442
        dat[ 1 ] = HostCtl[ index ].Interface[ intf_num ].SetReport_Value;
    8cb8:	00010ea3          	sb	zero,29(sp)
C:/Repository/RISKYKVM/firmware/src/User/USB_Host/app_km.c:1443
        len = 2;
    8cbc:	4689                	li	a3,2
C:/Repository/RISKYKVM/firmware/src/User/USB_Host/app_km.c:1451
    if( HostCtl[ index ].Interface[ intf_num ].SetReport_Swi == 1 ) // Perform lighting operation through endpoint0
    8cbe:	04264783          	lbu	a5,66(a2)
    8cc2:	00d11f23          	sh	a3,30(sp)
    8cc6:	00b10e23          	sb	a1,28(sp)
    8cca:	07478963          	beq	a5,s4,8d3c <USBH_EnumHidDevice+0x1e6>
C:/Repository/RISKYKVM/firmware/src/User/USB_Host/app_km.c:1456
    else if( HostCtl[ index ].Interface[ intf_num ].SetReport_Swi == 0xFF )  // Perform lighting operation through other endpoint
    8cce:	09778163          	beq	a5,s7,8d50 <USBH_EnumHidDevice+0x1fa>
C:/Repository/RISKYKVM/firmware/src/User/USB_Host/app_km.c:1462
                                 &HostCtl[ index ].Interface[ intf_num ].OutEndpTog[ 0 ], dat, len);
    }

    return s;
    8cd2:	000ac603          	lbu	a2,0(s5)
USBH_EnumHidDevice():
C:/Repository/RISKYKVM/firmware/src/User/USB_Host/app_km.c:809
    for( intf_num = 0; intf_num < HostCtl[ index ].InterfaceNum; intf_num++ )
    8cd6:	0405                	addi	s0,s0,1
    8cd8:	0ff47413          	andi	s0,s0,255
    8cdc:	fac468e3          	bltu	s0,a2,8c8c <USBH_EnumHidDevice+0x136>
C:/Repository/RISKYKVM/firmware/src/User/USB_Host/app_km.c:819
}
    8ce0:	40f6                	lw	ra,92(sp)
    8ce2:	4466                	lw	s0,88(sp)
    8ce4:	4522                	lw	a0,8(sp)
    8ce6:	44d6                	lw	s1,84(sp)
    8ce8:	4946                	lw	s2,80(sp)
    8cea:	49b6                	lw	s3,76(sp)
    8cec:	4a26                	lw	s4,72(sp)
    8cee:	4a96                	lw	s5,68(sp)
    8cf0:	4b06                	lw	s6,64(sp)
    8cf2:	5bf2                	lw	s7,60(sp)
    8cf4:	5c62                	lw	s8,56(sp)
    8cf6:	5cd2                	lw	s9,52(sp)
    8cf8:	5d42                	lw	s10,48(sp)
    8cfa:	5db2                	lw	s11,44(sp)
    8cfc:	6125                	addi	sp,sp,96
    8cfe:	8082                	ret
C:/Repository/RISKYKVM/firmware/src/User/USB_Host/app_km.c:721
        s = USBFSH_GetStrDescr( ep0_size, Com_Buf[ 6 ], Com_Buf );
    8d00:	660a8613          	addi	a2,s5,1632
    8d04:	855a                	mv	a0,s6
    8d06:	5f6010ef          	jal	ra,a2fc <USBFSH_GetStrDescr>
C:/Repository/RISKYKVM/firmware/src/User/USB_Host/app_km.c:722
        if( s == ERR_SUCCESS )
    8d0a:	b551                	j	8b8e <USBH_EnumHidDevice+0x38>
C:/Repository/RISKYKVM/firmware/src/User/USB_Host/app_km.c:790
        s = USBFSH_GetStrDescr( ep0_size, DevDesc_Buf[ 16 ], Com_Buf );
    8d0c:	660a8613          	addi	a2,s5,1632
    8d10:	855a                	mv	a0,s6
    8d12:	5ea010ef          	jal	ra,a2fc <USBFSH_GetStrDescr>
C:/Repository/RISKYKVM/firmware/src/User/USB_Host/app_km.c:791
        if( s == ERR_SUCCESS )
    8d16:	b7a9                	j	8c60 <USBH_EnumHidDevice+0x10a>
C:/Repository/RISKYKVM/firmware/src/User/USB_Host/app_km.c:768
        s = USBFSH_GetStrDescr( ep0_size, DevDesc_Buf[ 15 ], Com_Buf );
    8d18:	660a8613          	addi	a2,s5,1632
    8d1c:	855a                	mv	a0,s6
    8d1e:	5de010ef          	jal	ra,a2fc <USBFSH_GetStrDescr>
C:/Repository/RISKYKVM/firmware/src/User/USB_Host/app_km.c:787
    if( DevDesc_Buf[ 16 ] )
    8d22:	01044583          	lbu	a1,16(s0)
    8d26:	dd8d                	beqz	a1,8c60 <USBH_EnumHidDevice+0x10a>
    8d28:	b7d5                	j	8d0c <USBH_EnumHidDevice+0x1b6>
C:/Repository/RISKYKVM/firmware/src/User/USB_Host/app_km.c:746
        s = USBFSH_GetStrDescr( ep0_size, DevDesc_Buf[ 14 ], Com_Buf );
    8d2a:	660a8613          	addi	a2,s5,1632
    8d2e:	855a                	mv	a0,s6
    8d30:	5cc010ef          	jal	ra,a2fc <USBFSH_GetStrDescr>
C:/Repository/RISKYKVM/firmware/src/User/USB_Host/app_km.c:765
    if( DevDesc_Buf[ 15 ] )
    8d34:	00f44583          	lbu	a1,15(s0)
    8d38:	d18d                	beqz	a1,8c5a <USBH_EnumHidDevice+0x104>
    8d3a:	bff9                	j	8d18 <USBH_EnumHidDevice+0x1c2>
KB_SetReport():
C:/Repository/RISKYKVM/firmware/src/User/USB_Host/app_km.c:1454
        s = HID_SetReport( ep0_size, intf_num, dat, &len );
    8d3c:	0870                	addi	a2,sp,28
    8d3e:	01e10693          	addi	a3,sp,30
    8d42:	85a2                	mv	a1,s0
    8d44:	855a                	mv	a0,s6
    8d46:	2a2020ef          	jal	ra,afe8 <HID_SetReport>
C:/Repository/RISKYKVM/firmware/src/User/USB_Host/app_km.c:1462
    return s;
    8d4a:	000ac603          	lbu	a2,0(s5)
    8d4e:	b761                	j	8cd6 <USBH_EnumHidDevice+0x180>
C:/Repository/RISKYKVM/firmware/src/User/USB_Host/app_km.c:1458
        s = USBFSH_SendEndpData( HostCtl[ index ].Interface[ intf_num ].OutEndpAddr[ 0 ],
    8d50:	02964503          	lbu	a0,41(a2)
    8d54:	974a                	add	a4,a4,s2
    8d56:	0870                	addi	a2,sp,28
    8d58:	00e485b3          	add	a1,s1,a4
    8d5c:	0eb010ef          	jal	ra,a646 <USBFSH_SendEndpData>
C:/Repository/RISKYKVM/firmware/src/User/USB_Host/app_km.c:1462
    return s;
    8d60:	000ac603          	lbu	a2,0(s5)
    8d64:	bf8d                	j	8cd6 <USBH_EnumHidDevice+0x180>

00008d66 <HUB_AnalyzeConfigDesc>:
HUB_AnalyzeConfigDesc():
C:/Repository/RISKYKVM/firmware/src/User/USB_Host/app_km.c:835
    for( i = 0; i < ( Com_Buf[ 2 ] + ( (uint16_t)Com_Buf[ 3 ] << 8 ) ); )
    8d66:	20001337          	lui	t1,0x20001
    8d6a:	66030313          	addi	t1,t1,1632 # 20001660 <Com_Buf>
    8d6e:	00334783          	lbu	a5,3(t1)
    8d72:	00234603          	lbu	a2,2(t1)
    8d76:	07a2                	slli	a5,a5,0x8
    8d78:	963e                	add	a2,a2,a5
    8d7a:	ca39                	beqz	a2,8dd0 <HUB_AnalyzeConfigDesc+0x6a>
C:/Repository/RISKYKVM/firmware/src/User/USB_Host/app_km.c:870
                                HostCtl[ index ].Interface[ 0 ].InEndpAddr[ 0 ] = ( (PUSB_ENDP_DESCR)( &Com_Buf[ i ] ) )->bEndpointAddress & 0x0F;
    8d7c:	44400793          	li	a5,1092
    8d80:	02f50533          	mul	a0,a0,a5
    8d84:	200006b7          	lui	a3,0x20000
    8d88:	0d868693          	addi	a3,a3,216 # 200000d8 <HostCtl>
C:/Repository/RISKYKVM/firmware/src/User/USB_Host/app_km.c:835
    for( i = 0; i < ( Com_Buf[ 2 ] + ( (uint16_t)Com_Buf[ 3 ] << 8 ) ); )
    8d8c:	4781                	li	a5,0
    8d8e:	4701                	li	a4,0
C:/Repository/RISKYKVM/firmware/src/User/USB_Host/app_km.c:837
        if( Com_Buf[ i + 1 ] == DEF_DECR_CONFIG )
    8d90:	4809                	li	a6,2
C:/Repository/RISKYKVM/firmware/src/User/USB_Host/app_km.c:850
        else if( Com_Buf[ i + 1 ] == DEF_DECR_INTERFACE )
    8d92:	4891                	li	a7,4
C:/Repository/RISKYKVM/firmware/src/User/USB_Host/app_km.c:852
            if( ( (PUSB_ITF_DESCR)( &Com_Buf[ i ] ) )->bInterfaceClass == 0x09 )
    8d94:	4fa5                	li	t6,9
C:/Repository/RISKYKVM/firmware/src/User/USB_Host/app_km.c:864
                        if( Com_Buf[ i + 1 ] == DEF_DECR_ENDPOINT )
    8d96:	4f15                	li	t5,5
C:/Repository/RISKYKVM/firmware/src/User/USB_Host/app_km.c:840
            if( ( (PUSB_CFG_DESCR)( &Com_Buf[ i ] ) )->bNumInterfaces > 1 )
    8d98:	4e85                	li	t4,1
C:/Repository/RISKYKVM/firmware/src/User/USB_Host/app_km.c:870
                                HostCtl[ index ].Interface[ 0 ].InEndpAddr[ 0 ] = ( (PUSB_ENDP_DESCR)( &Com_Buf[ i ] ) )->bEndpointAddress & 0x0F;
    8d9a:	9536                	add	a0,a0,a3
C:/Repository/RISKYKVM/firmware/src/User/USB_Host/app_km.c:846
                HostCtl[ index ].InterfaceNum = ( (PUSB_CFG_DESCR)( &Com_Buf[ i ] ) )->bNumInterfaces;
    8d9c:	8e2a                	mv	t3,a0
    8d9e:	a031                	j	8daa <HUB_AnalyzeConfigDesc+0x44>
C:/Repository/RISKYKVM/firmware/src/User/USB_Host/app_km.c:850
        else if( Com_Buf[ i + 1 ] == DEF_DECR_INTERFACE )
    8da0:	03168a63          	beq	a3,a7,8dd4 <HUB_AnalyzeConfigDesc+0x6e>
C:/Repository/RISKYKVM/firmware/src/User/USB_Host/app_km.c:835
    for( i = 0; i < ( Com_Buf[ 2 ] + ( (uint16_t)Com_Buf[ 3 ] << 8 ) ); )
    8da4:	873e                	mv	a4,a5
    8da6:	02c7d563          	bge	a5,a2,8dd0 <HUB_AnalyzeConfigDesc+0x6a>
C:/Repository/RISKYKVM/firmware/src/User/USB_Host/app_km.c:837
        if( Com_Buf[ i + 1 ] == DEF_DECR_CONFIG )
    8daa:	971a                	add	a4,a4,t1
    8dac:	00074583          	lbu	a1,0(a4)
    8db0:	00174683          	lbu	a3,1(a4)
    8db4:	97ae                	add	a5,a5,a1
    8db6:	07c2                	slli	a5,a5,0x10
    8db8:	83c1                	srli	a5,a5,0x10
    8dba:	ff0693e3          	bne	a3,a6,8da0 <HUB_AnalyzeConfigDesc+0x3a>
C:/Repository/RISKYKVM/firmware/src/User/USB_Host/app_km.c:840
            if( ( (PUSB_CFG_DESCR)( &Com_Buf[ i ] ) )->bNumInterfaces > 1 )
    8dbe:	00474703          	lbu	a4,4(a4)
    8dc2:	0aeef763          	bgeu	t4,a4,8e70 <HUB_AnalyzeConfigDesc+0x10a>
C:/Repository/RISKYKVM/firmware/src/User/USB_Host/app_km.c:842
                HostCtl[ index ].InterfaceNum = 1;
    8dc6:	01de0023          	sb	t4,0(t3)
C:/Repository/RISKYKVM/firmware/src/User/USB_Host/app_km.c:835
    for( i = 0; i < ( Com_Buf[ 2 ] + ( (uint16_t)Com_Buf[ 3 ] << 8 ) ); )
    8dca:	873e                	mv	a4,a5
    8dcc:	fcc7cfe3          	blt	a5,a2,8daa <HUB_AnalyzeConfigDesc+0x44>
C:/Repository/RISKYKVM/firmware/src/User/USB_Host/app_km.c:899
}
    8dd0:	4501                	li	a0,0
    8dd2:	8082                	ret
C:/Repository/RISKYKVM/firmware/src/User/USB_Host/app_km.c:852
            if( ( (PUSB_ITF_DESCR)( &Com_Buf[ i ] ) )->bInterfaceClass == 0x09 )
    8dd4:	00574703          	lbu	a4,5(a4)
    8dd8:	fdf716e3          	bne	a4,t6,8da4 <HUB_AnalyzeConfigDesc+0x3e>
C:/Repository/RISKYKVM/firmware/src/User/USB_Host/app_km.c:857
                    if( ( Com_Buf[ i + 1 ] == DEF_DECR_INTERFACE ) || ( i >= ( Com_Buf[ 2 ] + ( (uint16_t)Com_Buf[ 3 ] << 8 ) ) ) )
    8ddc:	00f30733          	add	a4,t1,a5
    8de0:	00174683          	lbu	a3,1(a4)
    8de4:	fd1680e3          	beq	a3,a7,8da4 <HUB_AnalyzeConfigDesc+0x3e>
    8de8:	fec7d4e3          	bge	a5,a2,8dd0 <HUB_AnalyzeConfigDesc+0x6a>
    8dec:	00074583          	lbu	a1,0(a4)
    8df0:	97ae                	add	a5,a5,a1
    8df2:	07c2                	slli	a5,a5,0x10
    8df4:	83c1                	srli	a5,a5,0x10
C:/Repository/RISKYKVM/firmware/src/User/USB_Host/app_km.c:864
                        if( Com_Buf[ i + 1 ] == DEF_DECR_ENDPOINT )
    8df6:	ffe693e3          	bne	a3,t5,8ddc <HUB_AnalyzeConfigDesc+0x76>
C:/Repository/RISKYKVM/firmware/src/User/USB_Host/app_km.c:867
                            if( ( (PUSB_ENDP_DESCR)( &Com_Buf[ i ] ) )->bEndpointAddress & 0x80 )
    8dfa:	00274683          	lbu	a3,2(a4)
    8dfe:	01869593          	slli	a1,a3,0x18
    8e02:	85e1                	srai	a1,a1,0x18
C:/Repository/RISKYKVM/firmware/src/User/USB_Host/app_km.c:870
                                HostCtl[ index ].Interface[ 0 ].InEndpAddr[ 0 ] = ( (PUSB_ENDP_DESCR)( &Com_Buf[ i ] ) )->bEndpointAddress & 0x0F;
    8e04:	8abd                	andi	a3,a3,15
C:/Repository/RISKYKVM/firmware/src/User/USB_Host/app_km.c:867
                            if( ( (PUSB_ENDP_DESCR)( &Com_Buf[ i ] ) )->bEndpointAddress & 0x80 )
    8e06:	fc05dbe3          	bgez	a1,8ddc <HUB_AnalyzeConfigDesc+0x76>
C:/Repository/RISKYKVM/firmware/src/User/USB_Host/app_km.c:831
{
    8e0a:	1141                	addi	sp,sp,-16
    8e0c:	c622                	sw	s0,12(sp)
C:/Repository/RISKYKVM/firmware/src/User/USB_Host/app_km.c:871
                                HostCtl[ index ].Interface[ 0 ].InEndpType[ 0 ] = ( (PUSB_ENDP_DESCR)( &Com_Buf[ i ] ) )->bmAttributes;
    8e0e:	00374383          	lbu	t2,3(a4)
C:/Repository/RISKYKVM/firmware/src/User/USB_Host/app_km.c:873
                                                                                  (uint16_t)( ( ( (PUSB_ENDP_DESCR)( &Com_Buf[ i ] ) )->wMaxPacketSizeH ) << 8 );
    8e12:	00574583          	lbu	a1,5(a4)
C:/Repository/RISKYKVM/firmware/src/User/USB_Host/app_km.c:875
                                HostCtl[ index ].Interface[ 0 ].InEndpNum++;
    8e16:	00a54283          	lbu	t0,10(a0)
C:/Repository/RISKYKVM/firmware/src/User/USB_Host/app_km.c:872
                                HostCtl[ index ].Interface[ 0 ].InEndpSize[ 0 ] = ( (PUSB_ENDP_DESCR)( &Com_Buf[ i ] ) )->wMaxPacketSizeL + \
    8e1a:	00474403          	lbu	s0,4(a4)
C:/Repository/RISKYKVM/firmware/src/User/USB_Host/app_km.c:871
                                HostCtl[ index ].Interface[ 0 ].InEndpType[ 0 ] = ( (PUSB_ENDP_DESCR)( &Com_Buf[ i ] ) )->bmAttributes;
    8e1e:	007507a3          	sb	t2,15(a0)
C:/Repository/RISKYKVM/firmware/src/User/USB_Host/app_km.c:874
                                HostCtl[ index ].Interface[ 0 ].InEndpInterval[ 0 ] = ( (PUSB_ENDP_DESCR)( &Com_Buf[ i ] ) )->bInterval;
    8e22:	00674383          	lbu	t2,6(a4)
C:/Repository/RISKYKVM/firmware/src/User/USB_Host/app_km.c:873
                                                                                  (uint16_t)( ( ( (PUSB_ENDP_DESCR)( &Com_Buf[ i ] ) )->wMaxPacketSizeH ) << 8 );
    8e26:	00859713          	slli	a4,a1,0x8
C:/Repository/RISKYKVM/firmware/src/User/USB_Host/app_km.c:872
                                HostCtl[ index ].Interface[ 0 ].InEndpSize[ 0 ] = ( (PUSB_ENDP_DESCR)( &Com_Buf[ i ] ) )->wMaxPacketSizeL + \
    8e2a:	9722                	add	a4,a4,s0
C:/Repository/RISKYKVM/firmware/src/User/USB_Host/app_km.c:875
                                HostCtl[ index ].Interface[ 0 ].InEndpNum++;
    8e2c:	00128593          	addi	a1,t0,1 # 81cf <memset+0x8f>
C:/Repository/RISKYKVM/firmware/src/User/USB_Host/app_km.c:870
                                HostCtl[ index ].Interface[ 0 ].InEndpAddr[ 0 ] = ( (PUSB_ENDP_DESCR)( &Com_Buf[ i ] ) )->bEndpointAddress & 0x0F;
    8e30:	00d505a3          	sb	a3,11(a0)
C:/Repository/RISKYKVM/firmware/src/User/USB_Host/app_km.c:872
                                HostCtl[ index ].Interface[ 0 ].InEndpSize[ 0 ] = ( (PUSB_ENDP_DESCR)( &Com_Buf[ i ] ) )->wMaxPacketSizeL + \
    8e34:	00e51a23          	sh	a4,20(a0)
C:/Repository/RISKYKVM/firmware/src/User/USB_Host/app_km.c:874
                                HostCtl[ index ].Interface[ 0 ].InEndpInterval[ 0 ] = ( (PUSB_ENDP_DESCR)( &Com_Buf[ i ] ) )->bInterval;
    8e38:	02750023          	sb	t2,32(a0)
C:/Repository/RISKYKVM/firmware/src/User/USB_Host/app_km.c:875
                                HostCtl[ index ].Interface[ 0 ].InEndpNum++;
    8e3c:	00b50523          	sb	a1,10(a0)
C:/Repository/RISKYKVM/firmware/src/User/USB_Host/app_km.c:857
                    if( ( Com_Buf[ i + 1 ] == DEF_DECR_INTERFACE ) || ( i >= ( Com_Buf[ 2 ] + ( (uint16_t)Com_Buf[ 3 ] << 8 ) ) ) )
    8e40:	00f30733          	add	a4,t1,a5
    8e44:	00174683          	lbu	a3,1(a4)
    8e48:	03168d63          	beq	a3,a7,8e82 <HUB_AnalyzeConfigDesc+0x11c>
C:/Repository/RISKYKVM/firmware/src/User/USB_Host/app_km.c:857 (discriminator 1)
    8e4c:	06c7d163          	bge	a5,a2,8eae <HUB_AnalyzeConfigDesc+0x148>
    8e50:	00074583          	lbu	a1,0(a4)
    8e54:	97ae                	add	a5,a5,a1
    8e56:	07c2                	slli	a5,a5,0x10
    8e58:	83c1                	srli	a5,a5,0x10
C:/Repository/RISKYKVM/firmware/src/User/USB_Host/app_km.c:864
                        if( Com_Buf[ i + 1 ] == DEF_DECR_ENDPOINT )
    8e5a:	ffe693e3          	bne	a3,t5,8e40 <HUB_AnalyzeConfigDesc+0xda>
C:/Repository/RISKYKVM/firmware/src/User/USB_Host/app_km.c:867
                            if( ( (PUSB_ENDP_DESCR)( &Com_Buf[ i ] ) )->bEndpointAddress & 0x80 )
    8e5e:	00274683          	lbu	a3,2(a4)
    8e62:	01869593          	slli	a1,a3,0x18
    8e66:	85e1                	srai	a1,a1,0x18
C:/Repository/RISKYKVM/firmware/src/User/USB_Host/app_km.c:870
                                HostCtl[ index ].Interface[ 0 ].InEndpAddr[ 0 ] = ( (PUSB_ENDP_DESCR)( &Com_Buf[ i ] ) )->bEndpointAddress & 0x0F;
    8e68:	8abd                	andi	a3,a3,15
C:/Repository/RISKYKVM/firmware/src/User/USB_Host/app_km.c:867
                            if( ( (PUSB_ENDP_DESCR)( &Com_Buf[ i ] ) )->bEndpointAddress & 0x80 )
    8e6a:	fc05dbe3          	bgez	a1,8e40 <HUB_AnalyzeConfigDesc+0xda>
    8e6e:	b745                	j	8e0e <HUB_AnalyzeConfigDesc+0xa8>
C:/Repository/RISKYKVM/firmware/src/User/USB_Host/app_km.c:846
                HostCtl[ index ].InterfaceNum = ( (PUSB_CFG_DESCR)( &Com_Buf[ i ] ) )->bNumInterfaces;
    8e70:	00ee0023          	sb	a4,0(t3)
C:/Repository/RISKYKVM/firmware/src/User/USB_Host/app_km.c:848
            i += Com_Buf[ i ];
    8e74:	bf05                	j	8da4 <HUB_AnalyzeConfigDesc+0x3e>
C:/Repository/RISKYKVM/firmware/src/User/USB_Host/app_km.c:840
            if( ( (PUSB_CFG_DESCR)( &Com_Buf[ i ] ) )->bNumInterfaces > 1 )
    8e76:	00474703          	lbu	a4,4(a4)
    8e7a:	02eefe63          	bgeu	t4,a4,8eb6 <HUB_AnalyzeConfigDesc+0x150>
C:/Repository/RISKYKVM/firmware/src/User/USB_Host/app_km.c:842
                HostCtl[ index ].InterfaceNum = 1;
    8e7e:	01de0023          	sb	t4,0(t3)
C:/Repository/RISKYKVM/firmware/src/User/USB_Host/app_km.c:835 (discriminator 1)
    for( i = 0; i < ( Com_Buf[ 2 ] + ( (uint16_t)Com_Buf[ 3 ] << 8 ) ); )
    8e82:	873e                	mv	a4,a5
    8e84:	02c7d563          	bge	a5,a2,8eae <HUB_AnalyzeConfigDesc+0x148>
C:/Repository/RISKYKVM/firmware/src/User/USB_Host/app_km.c:837
        if( Com_Buf[ i + 1 ] == DEF_DECR_CONFIG )
    8e88:	971a                	add	a4,a4,t1
    8e8a:	00074583          	lbu	a1,0(a4)
    8e8e:	00174683          	lbu	a3,1(a4)
    8e92:	97ae                	add	a5,a5,a1
    8e94:	07c2                	slli	a5,a5,0x10
    8e96:	83c1                	srli	a5,a5,0x10
    8e98:	fd068fe3          	beq	a3,a6,8e76 <HUB_AnalyzeConfigDesc+0x110>
C:/Repository/RISKYKVM/firmware/src/User/USB_Host/app_km.c:850
        else if( Com_Buf[ i + 1 ] == DEF_DECR_INTERFACE )
    8e9c:	ff1693e3          	bne	a3,a7,8e82 <HUB_AnalyzeConfigDesc+0x11c>
C:/Repository/RISKYKVM/firmware/src/User/USB_Host/app_km.c:852
            if( ( (PUSB_ITF_DESCR)( &Com_Buf[ i ] ) )->bInterfaceClass == 0x09 )
    8ea0:	00574703          	lbu	a4,5(a4)
    8ea4:	f9f70ee3          	beq	a4,t6,8e40 <HUB_AnalyzeConfigDesc+0xda>
C:/Repository/RISKYKVM/firmware/src/User/USB_Host/app_km.c:835
    for( i = 0; i < ( Com_Buf[ 2 ] + ( (uint16_t)Com_Buf[ 3 ] << 8 ) ); )
    8ea8:	873e                	mv	a4,a5
    8eaa:	fcc7cfe3          	blt	a5,a2,8e88 <HUB_AnalyzeConfigDesc+0x122>
C:/Repository/RISKYKVM/firmware/src/User/USB_Host/app_km.c:899
}
    8eae:	4432                	lw	s0,12(sp)
    8eb0:	4501                	li	a0,0
    8eb2:	0141                	addi	sp,sp,16
    8eb4:	8082                	ret
C:/Repository/RISKYKVM/firmware/src/User/USB_Host/app_km.c:846
                HostCtl[ index ].InterfaceNum = ( (PUSB_CFG_DESCR)( &Com_Buf[ i ] ) )->bNumInterfaces;
    8eb6:	00ee0023          	sb	a4,0(t3)
C:/Repository/RISKYKVM/firmware/src/User/USB_Host/app_km.c:848
            i += Com_Buf[ i ];
    8eba:	b7e1                	j	8e82 <HUB_AnalyzeConfigDesc+0x11c>

00008ebc <USBH_EnumHubDevice>:
USBH_EnumHubDevice():
C:/Repository/RISKYKVM/firmware/src/User/USB_Host/app_km.c:911
{
    8ebc:	7179                	addi	sp,sp,-48
    8ebe:	d226                	sw	s1,36(sp)
C:/Repository/RISKYKVM/firmware/src/User/USB_Host/app_km.c:920
    s = HUB_AnalyzeConfigDesc( RootHubDev.DeviceIndex );
    8ec0:	200014b7          	lui	s1,0x20001
    8ec4:	64048493          	addi	s1,s1,1600 # 20001640 <RootHubDev>
    8ec8:	0054c503          	lbu	a0,5(s1)
C:/Repository/RISKYKVM/firmware/src/User/USB_Host/app_km.c:911
{
    8ecc:	d04a                	sw	s2,32(sp)
    8ece:	d606                	sw	ra,44(sp)
    8ed0:	d422                	sw	s0,40(sp)
    8ed2:	ce4e                	sw	s3,28(sp)
    8ed4:	cc52                	sw	s4,24(sp)
C:/Repository/RISKYKVM/firmware/src/User/USB_Host/app_km.c:920
    s = HUB_AnalyzeConfigDesc( RootHubDev.DeviceIndex );
    8ed6:	3d41                	jal	8d66 <HUB_AnalyzeConfigDesc>
    8ed8:	892a                	mv	s2,a0
C:/Repository/RISKYKVM/firmware/src/User/USB_Host/app_km.c:921
    if( s == ERR_SUCCESS )
    8eda:	e955                	bnez	a0,8f8e <USBH_EnumHubDevice+0xd2>
C:/Repository/RISKYKVM/firmware/src/User/USB_Host/app_km.c:932
    if( Com_Buf[ 6 ] )
    8edc:	200019b7          	lui	s3,0x20001
    8ee0:	66098a13          	addi	s4,s3,1632 # 20001660 <Com_Buf>
    8ee4:	006a4583          	lbu	a1,6(s4)
    8ee8:	0044c503          	lbu	a0,4(s1)
    8eec:	0e059563          	bnez	a1,8fd6 <USBH_EnumHubDevice+0x11a>
C:/Repository/RISKYKVM/firmware/src/User/USB_Host/app_km.c:954
    if( DevDesc_Buf[ 14 ] )
    8ef0:	20001437          	lui	s0,0x20001
    8ef4:	62c40413          	addi	s0,s0,1580 # 2000162c <DevDesc_Buf>
    8ef8:	00e44583          	lbu	a1,14(s0)
    8efc:	e1f9                	bnez	a1,8fc2 <USBH_EnumHubDevice+0x106>
C:/Repository/RISKYKVM/firmware/src/User/USB_Host/app_km.c:976
    if( DevDesc_Buf[ 15 ] )
    8efe:	00f44583          	lbu	a1,15(s0)
    8f02:	e5d5                	bnez	a1,8fae <USBH_EnumHubDevice+0xf2>
C:/Repository/RISKYKVM/firmware/src/User/USB_Host/app_km.c:998
    if( DevDesc_Buf[ 16 ] )
    8f04:	01044583          	lbu	a1,16(s0)
    8f08:	edc1                	bnez	a1,8fa0 <USBH_EnumHubDevice+0xe4>
C:/Repository/RISKYKVM/firmware/src/User/USB_Host/app_km.c:911
{
    8f0a:	4415                	li	s0,5
C:/Repository/RISKYKVM/firmware/src/User/USB_Host/app_km.c:1023
        s = HUB_GetClassDevDescr( RootHubDev.bEp0MaxPks, Com_Buf, &len );
    8f0c:	00e10613          	addi	a2,sp,14
    8f10:	66098593          	addi	a1,s3,1632
    8f14:	1b0020ef          	jal	ra,b0c4 <HUB_GetClassDevDescr>
C:/Repository/RISKYKVM/firmware/src/User/USB_Host/app_km.c:1048
            if( retry == 4 )
    8f18:	147d                	addi	s0,s0,-1
C:/Repository/RISKYKVM/firmware/src/User/USB_Host/app_km.c:1023
        s = HUB_GetClassDevDescr( RootHubDev.bEp0MaxPks, Com_Buf, &len );
    8f1a:	892a                	mv	s2,a0
C:/Repository/RISKYKVM/firmware/src/User/USB_Host/app_km.c:1024
        if( s == ERR_SUCCESS )
    8f1c:	0ff47413          	andi	s0,s0,255
    8f20:	cd19                	beqz	a0,8f3e <USBH_EnumHubDevice+0x82>
C:/Repository/RISKYKVM/firmware/src/User/USB_Host/app_km.c:1048
            if( retry == 4 )
    8f22:	c425                	beqz	s0,8f8a <USBH_EnumHubDevice+0xce>
    8f24:	0044c503          	lbu	a0,4(s1)
C:/Repository/RISKYKVM/firmware/src/User/USB_Host/app_km.c:1023
        s = HUB_GetClassDevDescr( RootHubDev.bEp0MaxPks, Com_Buf, &len );
    8f28:	00e10613          	addi	a2,sp,14
    8f2c:	66098593          	addi	a1,s3,1632
    8f30:	194020ef          	jal	ra,b0c4 <HUB_GetClassDevDescr>
C:/Repository/RISKYKVM/firmware/src/User/USB_Host/app_km.c:1048
            if( retry == 4 )
    8f34:	147d                	addi	s0,s0,-1
C:/Repository/RISKYKVM/firmware/src/User/USB_Host/app_km.c:1023
        s = HUB_GetClassDevDescr( RootHubDev.bEp0MaxPks, Com_Buf, &len );
    8f36:	892a                	mv	s2,a0
C:/Repository/RISKYKVM/firmware/src/User/USB_Host/app_km.c:1024
        if( s == ERR_SUCCESS )
    8f38:	0ff47413          	andi	s0,s0,255
    8f3c:	f17d                	bnez	a0,8f22 <USBH_EnumHubDevice+0x66>
C:/Repository/RISKYKVM/firmware/src/User/USB_Host/app_km.c:1035
            RootHubDev.bPortNum = ( (PUSB_HUB_DESCR)Com_Buf)->bNbrPorts;
    8f3e:	002a4783          	lbu	a5,2(s4)
C:/Repository/RISKYKVM/firmware/src/User/USB_Host/app_km.c:1036
            if( RootHubDev.bPortNum > DEF_NEXT_HUB_PORT_NUM_MAX )
    8f42:	4711                	li	a4,4
C:/Repository/RISKYKVM/firmware/src/User/USB_Host/app_km.c:1035
            RootHubDev.bPortNum = ( (PUSB_HUB_DESCR)Com_Buf)->bNbrPorts;
    8f44:	00f48323          	sb	a5,6(s1)
C:/Repository/RISKYKVM/firmware/src/User/USB_Host/app_km.c:1036
            if( RootHubDev.bPortNum > DEF_NEXT_HUB_PORT_NUM_MAX )
    8f48:	0af77663          	bgeu	a4,a5,8ff4 <USBH_EnumHubDevice+0x138>
C:/Repository/RISKYKVM/firmware/src/User/USB_Host/app_km.c:1038
                RootHubDev.bPortNum = DEF_NEXT_HUB_PORT_NUM_MAX;
    8f4c:	00e48323          	sb	a4,6(s1)
C:/Repository/RISKYKVM/firmware/src/User/USB_Host/app_km.c:911
{
    8f50:	4981                	li	s3,0
    8f52:	4405                	li	s0,1
C:/Repository/RISKYKVM/firmware/src/User/USB_Host/app_km.c:1069
            if( retry >= 5 )
    8f54:	4a11                	li	s4,4
    8f56:	a801                	j	8f66 <USBH_EnumHubDevice+0xaa>
    8f58:	01079413          	slli	s0,a5,0x10
    8f5c:	8041                	srli	s0,s0,0x10
C:/Repository/RISKYKVM/firmware/src/User/USB_Host/app_km.c:1056
    for( retry = 0, i = 1; i <= RootHubDev.bPortNum; i++ )
    8f5e:	0064c783          	lbu	a5,6(s1)
    8f62:	0287e663          	bltu	a5,s0,8f8e <USBH_EnumHubDevice+0xd2>
C:/Repository/RISKYKVM/firmware/src/User/USB_Host/app_km.c:1058
        s = HUB_SetPortFeature( RootHubDev.bEp0MaxPks, i, HUB_PORT_POWER );
    8f66:	0044c503          	lbu	a0,4(s1)
    8f6a:	0ff47593          	andi	a1,s0,255
    8f6e:	4621                	li	a2,8
    8f70:	12c020ef          	jal	ra,b09c <HUB_SetPortFeature>
C:/Repository/RISKYKVM/firmware/src/User/USB_Host/app_km.c:1065
            Delay_Ms( 5 );
    8f74:	00140793          	addi	a5,s0,1
C:/Repository/RISKYKVM/firmware/src/User/USB_Host/app_km.c:1059
        if( s == ERR_SUCCESS )
    8f78:	d165                	beqz	a0,8f58 <USBH_EnumHubDevice+0x9c>
C:/Repository/RISKYKVM/firmware/src/User/USB_Host/app_km.c:1068
            retry++;
    8f7a:	0985                	addi	s3,s3,1
C:/Repository/RISKYKVM/firmware/src/User/USB_Host/app_km.c:1065
            Delay_Ms( 5 );
    8f7c:	4515                	li	a0,5
C:/Repository/RISKYKVM/firmware/src/User/USB_Host/app_km.c:1068
            retry++;
    8f7e:	0ff9f993          	andi	s3,s3,255
C:/Repository/RISKYKVM/firmware/src/User/USB_Host/app_km.c:1065
            Delay_Ms( 5 );
    8f82:	0eb040ef          	jal	ra,d86c <Delay_Ms>
C:/Repository/RISKYKVM/firmware/src/User/USB_Host/app_km.c:1069
            if( retry >= 5 )
    8f86:	fd3a7ce3          	bgeu	s4,s3,8f5e <USBH_EnumHubDevice+0xa2>
C:/Repository/RISKYKVM/firmware/src/User/USB_Host/app_km.c:1050
                return ERR_USB_UNKNOWN;
    8f8a:	0fe00913          	li	s2,254
C:/Repository/RISKYKVM/firmware/src/User/USB_Host/app_km.c:1077
}
    8f8e:	50b2                	lw	ra,44(sp)
    8f90:	5422                	lw	s0,40(sp)
    8f92:	854a                	mv	a0,s2
    8f94:	5492                	lw	s1,36(sp)
    8f96:	5902                	lw	s2,32(sp)
    8f98:	49f2                	lw	s3,28(sp)
    8f9a:	4a62                	lw	s4,24(sp)
    8f9c:	6145                	addi	sp,sp,48
    8f9e:	8082                	ret
C:/Repository/RISKYKVM/firmware/src/User/USB_Host/app_km.c:1001
        s = USBFSH_GetStrDescr( RootHubDev.bEp0MaxPks, DevDesc_Buf[ 16 ], Com_Buf );
    8fa0:	66098613          	addi	a2,s3,1632
    8fa4:	358010ef          	jal	ra,a2fc <USBFSH_GetStrDescr>
C:/Repository/RISKYKVM/firmware/src/User/USB_Host/app_km.c:1002
        if( s == ERR_SUCCESS )
    8fa8:	0044c503          	lbu	a0,4(s1)
    8fac:	bfb9                	j	8f0a <USBH_EnumHubDevice+0x4e>
C:/Repository/RISKYKVM/firmware/src/User/USB_Host/app_km.c:979
        s = USBFSH_GetStrDescr( RootHubDev.bEp0MaxPks, DevDesc_Buf[ 15 ], Com_Buf );
    8fae:	66098613          	addi	a2,s3,1632
    8fb2:	34a010ef          	jal	ra,a2fc <USBFSH_GetStrDescr>
C:/Repository/RISKYKVM/firmware/src/User/USB_Host/app_km.c:998
    if( DevDesc_Buf[ 16 ] )
    8fb6:	01044583          	lbu	a1,16(s0)
    8fba:	0044c503          	lbu	a0,4(s1)
    8fbe:	d5b1                	beqz	a1,8f0a <USBH_EnumHubDevice+0x4e>
    8fc0:	b7c5                	j	8fa0 <USBH_EnumHubDevice+0xe4>
C:/Repository/RISKYKVM/firmware/src/User/USB_Host/app_km.c:957
        s = USBFSH_GetStrDescr( RootHubDev.bEp0MaxPks, DevDesc_Buf[ 14 ], Com_Buf );
    8fc2:	66098613          	addi	a2,s3,1632
    8fc6:	336010ef          	jal	ra,a2fc <USBFSH_GetStrDescr>
C:/Repository/RISKYKVM/firmware/src/User/USB_Host/app_km.c:976
    if( DevDesc_Buf[ 15 ] )
    8fca:	00f44583          	lbu	a1,15(s0)
    8fce:	0044c503          	lbu	a0,4(s1)
    8fd2:	d98d                	beqz	a1,8f04 <USBH_EnumHubDevice+0x48>
    8fd4:	bfe9                	j	8fae <USBH_EnumHubDevice+0xf2>
C:/Repository/RISKYKVM/firmware/src/User/USB_Host/app_km.c:935
        s = USBFSH_GetStrDescr( RootHubDev.bEp0MaxPks, Com_Buf[ 6 ], Com_Buf );
    8fd6:	66098613          	addi	a2,s3,1632
C:/Repository/RISKYKVM/firmware/src/User/USB_Host/app_km.c:954
    if( DevDesc_Buf[ 14 ] )
    8fda:	20001437          	lui	s0,0x20001
C:/Repository/RISKYKVM/firmware/src/User/USB_Host/app_km.c:935
        s = USBFSH_GetStrDescr( RootHubDev.bEp0MaxPks, Com_Buf[ 6 ], Com_Buf );
    8fde:	31e010ef          	jal	ra,a2fc <USBFSH_GetStrDescr>
C:/Repository/RISKYKVM/firmware/src/User/USB_Host/app_km.c:954
    if( DevDesc_Buf[ 14 ] )
    8fe2:	62c40413          	addi	s0,s0,1580 # 2000162c <DevDesc_Buf>
    8fe6:	00e44583          	lbu	a1,14(s0)
    8fea:	0044c503          	lbu	a0,4(s1)
    8fee:	f00588e3          	beqz	a1,8efe <USBH_EnumHubDevice+0x42>
    8ff2:	bfc1                	j	8fc2 <USBH_EnumHubDevice+0x106>
C:/Repository/RISKYKVM/firmware/src/User/USB_Host/app_km.c:1056
    for( retry = 0, i = 1; i <= RootHubDev.bPortNum; i++ )
    8ff4:	ffb1                	bnez	a5,8f50 <USBH_EnumHubDevice+0x94>
    8ff6:	bf61                	j	8f8e <USBH_EnumHubDevice+0xd2>

00008ff8 <HUB_Port_PreEnum2>:
HUB_Port_PreEnum2():
C:/Repository/RISKYKVM/firmware/src/User/USB_Host/app_km.c:1150
{
    8ff8:	7179                	addi	sp,sp,-48
    8ffa:	d606                	sw	ra,44(sp)
    8ffc:	d422                	sw	s0,40(sp)
    8ffe:	d226                	sw	s1,36(sp)
    9000:	d04a                	sw	s2,32(sp)
    9002:	ce4e                	sw	s3,28(sp)
    9004:	cc52                	sw	s4,24(sp)
C:/Repository/RISKYKVM/firmware/src/User/USB_Host/app_km.c:1155
    if( ( *pbuf ) & ( 1 << hub_port ) )
    9006:	0005c783          	lbu	a5,0(a1)
    900a:	40a7d7b3          	sra	a5,a5,a0
    900e:	8b85                	andi	a5,a5,1
    9010:	ef81                	bnez	a5,9028 <HUB_Port_PreEnum2+0x30>
C:/Repository/RISKYKVM/firmware/src/User/USB_Host/app_km.c:1203
    return ERR_USB_UNKNOWN;
    9012:	0fe00413          	li	s0,254
C:/Repository/RISKYKVM/firmware/src/User/USB_Host/app_km.c:1204
}
    9016:	8522                	mv	a0,s0
    9018:	50b2                	lw	ra,44(sp)
    901a:	5422                	lw	s0,40(sp)
    901c:	5492                	lw	s1,36(sp)
    901e:	5902                	lw	s2,32(sp)
    9020:	49f2                	lw	s3,28(sp)
    9022:	4a62                	lw	s4,24(sp)
    9024:	6145                	addi	sp,sp,48
    9026:	8082                	ret
C:/Repository/RISKYKVM/firmware/src/User/USB_Host/app_km.c:1157
        s = HUB_SetPortFeature( RootHubDev.bEp0MaxPks, hub_port, HUB_PORT_RESET );
    9028:	200019b7          	lui	s3,0x20001
    902c:	64098993          	addi	s3,s3,1600 # 20001640 <RootHubDev>
    9030:	892a                	mv	s2,a0
    9032:	0049c503          	lbu	a0,4(s3)
    9036:	4611                	li	a2,4
    9038:	85ca                	mv	a1,s2
    903a:	062020ef          	jal	ra,b09c <HUB_SetPortFeature>
    903e:	842a                	mv	s0,a0
C:/Repository/RISKYKVM/firmware/src/User/USB_Host/app_km.c:1158
        if( s != ERR_SUCCESS )
    9040:	f979                	bnez	a0,9016 <HUB_Port_PreEnum2+0x1e>
C:/Repository/RISKYKVM/firmware/src/User/USB_Host/app_km.c:1164
        Delay_Ms( 10 );
    9042:	4529                	li	a0,10
    9044:	029040ef          	jal	ra,d86c <Delay_Ms>
C:/Repository/RISKYKVM/firmware/src/User/USB_Host/app_km.c:1174
        }while( ( !( buf[ 2 ] & 0x10 ) ) && ( retry <= 10 ) );
    9048:	4a2d                	li	s4,11
C:/Repository/RISKYKVM/firmware/src/User/USB_Host/app_km.c:1167
            s = HUB_GetPortStatus( RootHubDev.bEp0MaxPks, hub_port, &buf[ 0 ] );
    904a:	0049c503          	lbu	a0,4(s3)
    904e:	0070                	addi	a2,sp,12
    9050:	85ca                	mv	a1,s2
    9052:	7ef010ef          	jal	ra,b040 <HUB_GetPortStatus>
    9056:	84aa                	mv	s1,a0
C:/Repository/RISKYKVM/firmware/src/User/USB_Host/app_km.c:1173
            retry++;
    9058:	0405                	addi	s0,s0,1
C:/Repository/RISKYKVM/firmware/src/User/USB_Host/app_km.c:1168
            if( s != ERR_SUCCESS )
    905a:	e939                	bnez	a0,90b0 <HUB_Port_PreEnum2+0xb8>
C:/Repository/RISKYKVM/firmware/src/User/USB_Host/app_km.c:1174
        }while( ( !( buf[ 2 ] & 0x10 ) ) && ( retry <= 10 ) );
    905c:	00e14783          	lbu	a5,14(sp)
C:/Repository/RISKYKVM/firmware/src/User/USB_Host/app_km.c:1173
            retry++;
    9060:	0ff47413          	andi	s0,s0,255
C:/Repository/RISKYKVM/firmware/src/User/USB_Host/app_km.c:1174
        }while( ( !( buf[ 2 ] & 0x10 ) ) && ( retry <= 10 ) );
    9064:	8bc1                	andi	a5,a5,16
    9066:	e3a9                	bnez	a5,90a8 <HUB_Port_PreEnum2+0xb0>
    9068:	ff4411e3          	bne	s0,s4,904a <HUB_Port_PreEnum2+0x52>
C:/Repository/RISKYKVM/firmware/src/User/USB_Host/app_km.c:1179
            s = HUB_ClearPortFeature( RootHubDev.bEp0MaxPks, hub_port, HUB_C_PORT_RESET  );
    906c:	0049c503          	lbu	a0,4(s3)
    9070:	4651                	li	a2,20
    9072:	85ca                	mv	a1,s2
    9074:	000020ef          	jal	ra,b074 <HUB_ClearPortFeature>
C:/Repository/RISKYKVM/firmware/src/User/USB_Host/app_km.c:1190
            }while( ( buf[ 2 ] & 0x10 ) && ( retry <= 10 ) );
    9078:	4a2d                	li	s4,11
C:/Repository/RISKYKVM/firmware/src/User/USB_Host/app_km.c:1183
                s = HUB_GetPortStatus( RootHubDev.bEp0MaxPks, hub_port, &buf[ 0 ] );
    907a:	0049c503          	lbu	a0,4(s3)
    907e:	0070                	addi	a2,sp,12
    9080:	85ca                	mv	a1,s2
    9082:	7bf010ef          	jal	ra,b040 <HUB_GetPortStatus>
    9086:	842a                	mv	s0,a0
C:/Repository/RISKYKVM/firmware/src/User/USB_Host/app_km.c:1189
                retry++;
    9088:	0485                	addi	s1,s1,1
C:/Repository/RISKYKVM/firmware/src/User/USB_Host/app_km.c:1184
                if( s != ERR_SUCCESS )
    908a:	f551                	bnez	a0,9016 <HUB_Port_PreEnum2+0x1e>
C:/Repository/RISKYKVM/firmware/src/User/USB_Host/app_km.c:1190
            }while( ( buf[ 2 ] & 0x10 ) && ( retry <= 10 ) );
    908c:	00e14783          	lbu	a5,14(sp)
C:/Repository/RISKYKVM/firmware/src/User/USB_Host/app_km.c:1189
                retry++;
    9090:	0ff4f493          	andi	s1,s1,255
C:/Repository/RISKYKVM/firmware/src/User/USB_Host/app_km.c:1190
            }while( ( buf[ 2 ] & 0x10 ) && ( retry <= 10 ) );
    9094:	8bc1                	andi	a5,a5,16
    9096:	cf99                	beqz	a5,90b4 <HUB_Port_PreEnum2+0xbc>
    9098:	ff4491e3          	bne	s1,s4,907a <HUB_Port_PreEnum2+0x82>
C:/Repository/RISKYKVM/firmware/src/User/USB_Host/app_km.c:1194
                if( buf[ 0 ] & 0x01 )
    909c:	00c14783          	lbu	a5,12(sp)
C:/Repository/RISKYKVM/firmware/src/User/USB_Host/app_km.c:1197
                    return ERR_USB_CONNECT;
    90a0:	4455                	li	s0,21
C:/Repository/RISKYKVM/firmware/src/User/USB_Host/app_km.c:1194
                if( buf[ 0 ] & 0x01 )
    90a2:	8b85                	andi	a5,a5,1
    90a4:	d7bd                	beqz	a5,9012 <HUB_Port_PreEnum2+0x1a>
    90a6:	bf85                	j	9016 <HUB_Port_PreEnum2+0x1e>
C:/Repository/RISKYKVM/firmware/src/User/USB_Host/app_km.c:1176
        if( retry != 10 )
    90a8:	47a9                	li	a5,10
    90aa:	f6f404e3          	beq	s0,a5,9012 <HUB_Port_PreEnum2+0x1a>
    90ae:	bf7d                	j	906c <HUB_Port_PreEnum2+0x74>
C:/Repository/RISKYKVM/firmware/src/User/USB_Host/app_km.c:1167
            s = HUB_GetPortStatus( RootHubDev.bEp0MaxPks, hub_port, &buf[ 0 ] );
    90b0:	842a                	mv	s0,a0
    90b2:	b795                	j	9016 <HUB_Port_PreEnum2+0x1e>
C:/Repository/RISKYKVM/firmware/src/User/USB_Host/app_km.c:1192
            if( retry != 10 )
    90b4:	47a9                	li	a5,10
    90b6:	f4f48ee3          	beq	s1,a5,9012 <HUB_Port_PreEnum2+0x1a>
    90ba:	b7cd                	j	909c <HUB_Port_PreEnum2+0xa4>

000090bc <USBH_EnumHubPortDevice>:
USBH_EnumHubPortDevice():
C:/Repository/RISKYKVM/firmware/src/User/USB_Host/app_km.c:1252
{
    90bc:	7139                	addi	sp,sp,-64
    90be:	d452                	sw	s4,40(sp)
C:/Repository/RISKYKVM/firmware/src/User/USB_Host/app_km.c:1267
        s = USBFSH_GetDeviceDescr( &RootHubDev.Device[ hub_port ].bEp0MaxPks, DevDesc_Buf );
    90c0:	00151a13          	slli	s4,a0,0x1
C:/Repository/RISKYKVM/firmware/src/User/USB_Host/app_km.c:1252
{
    90c4:	da26                	sw	s1,52(sp)
C:/Repository/RISKYKVM/firmware/src/User/USB_Host/app_km.c:1267
        s = USBFSH_GetDeviceDescr( &RootHubDev.Device[ hub_port ].bEp0MaxPks, DevDesc_Buf );
    90c6:	00aa04b3          	add	s1,s4,a0
C:/Repository/RISKYKVM/firmware/src/User/USB_Host/app_km.c:1252
{
    90ca:	d84a                	sw	s2,48(sp)
C:/Repository/RISKYKVM/firmware/src/User/USB_Host/app_km.c:1267
        s = USBFSH_GetDeviceDescr( &RootHubDev.Device[ hub_port ].bEp0MaxPks, DevDesc_Buf );
    90cc:	0486                	slli	s1,s1,0x1
    90ce:	20001937          	lui	s2,0x20001
    90d2:	04ad                	addi	s1,s1,11
    90d4:	64090913          	addi	s2,s2,1600 # 20001640 <RootHubDev>
C:/Repository/RISKYKVM/firmware/src/User/USB_Host/app_km.c:1252
{
    90d8:	dc22                	sw	s0,56(sp)
    90da:	d64e                	sw	s3,44(sp)
    90dc:	d256                	sw	s5,36(sp)
    90de:	d05a                	sw	s6,32(sp)
    90e0:	ce5e                	sw	s7,28(sp)
    90e2:	de06                	sw	ra,60(sp)
    90e4:	8aaa                	mv	s5,a0
    90e6:	8b2e                	mv	s6,a1
    90e8:	8bb2                	mv	s7,a2
C:/Repository/RISKYKVM/firmware/src/User/USB_Host/app_km.c:1267
        s = USBFSH_GetDeviceDescr( &RootHubDev.Device[ hub_port ].bEp0MaxPks, DevDesc_Buf );
    90ea:	94ca                	add	s1,s1,s2
    90ec:	4429                	li	s0,10
    90ee:	200019b7          	lui	s3,0x20001
    90f2:	62c98593          	addi	a1,s3,1580 # 2000162c <DevDesc_Buf>
    90f6:	8526                	mv	a0,s1
    90f8:	147d                	addi	s0,s0,-1
    90fa:	078010ef          	jal	ra,a172 <USBFSH_GetDeviceDescr>
C:/Repository/RISKYKVM/firmware/src/User/USB_Host/app_km.c:1281
            if( enum_cnt >= 10 )
    90fe:	0ff47413          	andi	s0,s0,255
C:/Repository/RISKYKVM/firmware/src/User/USB_Host/app_km.c:1268
        if( s == ERR_SUCCESS )
    9102:	cd19                	beqz	a0,9120 <USBH_EnumHubPortDevice+0x64>
C:/Repository/RISKYKVM/firmware/src/User/USB_Host/app_km.c:1281 (discriminator 3)
            if( enum_cnt >= 10 )
    9104:	f47d                	bnez	s0,90f2 <USBH_EnumHubPortDevice+0x36>
C:/Repository/RISKYKVM/firmware/src/User/USB_Host/app_km.c:1283
                return DEF_DEV_DESCR_GETFAIL;
    9106:	04500513          	li	a0,69
C:/Repository/RISKYKVM/firmware/src/User/USB_Host/app_km.c:1364
}
    910a:	50f2                	lw	ra,60(sp)
    910c:	5462                	lw	s0,56(sp)
    910e:	54d2                	lw	s1,52(sp)
    9110:	5942                	lw	s2,48(sp)
    9112:	59b2                	lw	s3,44(sp)
    9114:	5a22                	lw	s4,40(sp)
    9116:	5a92                	lw	s5,36(sp)
    9118:	5b02                	lw	s6,32(sp)
    911a:	4bf2                	lw	s7,28(sp)
    911c:	6121                	addi	sp,sp,64
    911e:	8082                	ret
C:/Repository/RISKYKVM/firmware/src/User/USB_Host/app_km.c:1295
                                  RootHubDev.Device[ hub_port ].DeviceIndex + USB_DEVICE_ADDR );
    9120:	015a0433          	add	s0,s4,s5
    9124:	0406                	slli	s0,s0,0x1
    9126:	44a9                	li	s1,10
    9128:	944a                	add	s0,s0,s2
C:/Repository/RISKYKVM/firmware/src/User/USB_Host/app_km.c:1294
        s = USBFSH_SetUsbAddress( RootHubDev.Device[ hub_port ].bEp0MaxPks, \
    912a:	00c44583          	lbu	a1,12(s0)
    912e:	00b44503          	lbu	a0,11(s0)
    9132:	14fd                	addi	s1,s1,-1
    9134:	0589                	addi	a1,a1,2
    9136:	0ff5f593          	andi	a1,a1,255
    913a:	292010ef          	jal	ra,a3cc <USBFSH_SetUsbAddress>
C:/Repository/RISKYKVM/firmware/src/User/USB_Host/app_km.c:1304
            if( enum_cnt >= 10 )
    913e:	0ff4f493          	andi	s1,s1,255
C:/Repository/RISKYKVM/firmware/src/User/USB_Host/app_km.c:1296
        if( s == ERR_SUCCESS )
    9142:	e121                	bnez	a0,9182 <USBH_EnumHubPortDevice+0xc6>
C:/Repository/RISKYKVM/firmware/src/User/USB_Host/app_km.c:1299
            *paddr = RootHubDev.Device[ hub_port ].DeviceIndex + USB_DEVICE_ADDR;
    9144:	00c44783          	lbu	a5,12(s0)
C:/Repository/RISKYKVM/firmware/src/User/USB_Host/app_km.c:1318
        s = USBFSH_GetConfigDescr( RootHubDev.Device[ hub_port ].bEp0MaxPks, Com_Buf, DEF_COM_BUF_LEN, &len );
    9148:	015a04b3          	add	s1,s4,s5
C:/Repository/RISKYKVM/firmware/src/User/USB_Host/app_km.c:1310
    Delay_Ms( 5 );
    914c:	4515                	li	a0,5
C:/Repository/RISKYKVM/firmware/src/User/USB_Host/app_km.c:1299
            *paddr = RootHubDev.Device[ hub_port ].DeviceIndex + USB_DEVICE_ADDR;
    914e:	0789                	addi	a5,a5,2
    9150:	00fb0023          	sb	a5,0(s6)
C:/Repository/RISKYKVM/firmware/src/User/USB_Host/app_km.c:1318
        s = USBFSH_GetConfigDescr( RootHubDev.Device[ hub_port ].bEp0MaxPks, Com_Buf, DEF_COM_BUF_LEN, &len );
    9154:	0486                	slli	s1,s1,0x1
C:/Repository/RISKYKVM/firmware/src/User/USB_Host/app_km.c:1310
    Delay_Ms( 5 );
    9156:	4429                	li	s0,10
    9158:	714040ef          	jal	ra,d86c <Delay_Ms>
C:/Repository/RISKYKVM/firmware/src/User/USB_Host/app_km.c:1314
    enum_cnt = 0;
    915c:	20001b37          	lui	s6,0x20001
C:/Repository/RISKYKVM/firmware/src/User/USB_Host/app_km.c:1318
        s = USBFSH_GetConfigDescr( RootHubDev.Device[ hub_port ].bEp0MaxPks, Com_Buf, DEF_COM_BUF_LEN, &len );
    9160:	94ca                	add	s1,s1,s2
    9162:	00b4c503          	lbu	a0,11(s1)
    9166:	00e10693          	addi	a3,sp,14
    916a:	40000613          	li	a2,1024
    916e:	660b0593          	addi	a1,s6,1632 # 20001660 <Com_Buf>
    9172:	147d                	addi	s0,s0,-1
    9174:	092010ef          	jal	ra,a206 <USBFSH_GetConfigDescr>
C:/Repository/RISKYKVM/firmware/src/User/USB_Host/app_km.c:1339
            if( enum_cnt >= 10 )
    9178:	0ff47413          	andi	s0,s0,255
C:/Repository/RISKYKVM/firmware/src/User/USB_Host/app_km.c:1319
        if( s == ERR_SUCCESS )
    917c:	c519                	beqz	a0,918a <USBH_EnumHubPortDevice+0xce>
C:/Repository/RISKYKVM/firmware/src/User/USB_Host/app_km.c:1339 (discriminator 3)
            if( enum_cnt >= 10 )
    917e:	f075                	bnez	s0,9162 <USBH_EnumHubPortDevice+0xa6>
    9180:	b759                	j	9106 <USBH_EnumHubPortDevice+0x4a>
C:/Repository/RISKYKVM/firmware/src/User/USB_Host/app_km.c:1304 (discriminator 3)
            if( enum_cnt >= 10 )
    9182:	f4c5                	bnez	s1,912a <USBH_EnumHubPortDevice+0x6e>
C:/Repository/RISKYKVM/firmware/src/User/USB_Host/app_km.c:1306
                return DEF_DEV_ADDR_SETFAIL;
    9184:	04600513          	li	a0,70
    9188:	b749                	j	910a <USBH_EnumHubPortDevice+0x4e>
USBH_AnalyseType():
C:/Repository/RISKYKVM/firmware/src/User/USB_Host/app_km.c:145
    dv_cls = ( (PUSB_DEV_DESCR)pdev_buf )->bDeviceClass;
    918a:	62c98993          	addi	s3,s3,1580
    918e:	0049c783          	lbu	a5,4(s3)
USBH_EnumHubPortDevice():
C:/Repository/RISKYKVM/firmware/src/User/USB_Host/app_km.c:1330
            cfg_val = ( (PUSB_CFG_DESCR)Com_Buf )->bConfigurationValue;
    9192:	660b0b13          	addi	s6,s6,1632
USBH_AnalyseType():
C:/Repository/RISKYKVM/firmware/src/User/USB_Host/app_km.c:147
    if( ( dv_cls == USB_DEV_CLASS_STORAGE ) || ( if_cls == USB_DEV_CLASS_STORAGE ) )
    9196:	4721                	li	a4,8
USBH_EnumHubPortDevice():
C:/Repository/RISKYKVM/firmware/src/User/USB_Host/app_km.c:1330
            cfg_val = ( (PUSB_CFG_DESCR)Com_Buf )->bConfigurationValue;
    9198:	005b4483          	lbu	s1,5(s6)
USBH_AnalyseType():
C:/Repository/RISKYKVM/firmware/src/User/USB_Host/app_km.c:147
    if( ( dv_cls == USB_DEV_CLASS_STORAGE ) || ( if_cls == USB_DEV_CLASS_STORAGE ) )
    919c:	02e78963          	beq	a5,a4,91ce <USBH_EnumHubPortDevice+0x112>
C:/Repository/RISKYKVM/firmware/src/User/USB_Host/app_km.c:146
    if_cls = ( (PUSB_CFG_DESCR_LONG)pcfg_buf )->itf_descr.bInterfaceClass;
    91a0:	00eb4683          	lbu	a3,14(s6)
C:/Repository/RISKYKVM/firmware/src/User/USB_Host/app_km.c:147
    if( ( dv_cls == USB_DEV_CLASS_STORAGE ) || ( if_cls == USB_DEV_CLASS_STORAGE ) )
    91a4:	02e68563          	beq	a3,a4,91ce <USBH_EnumHubPortDevice+0x112>
C:/Repository/RISKYKVM/firmware/src/User/USB_Host/app_km.c:151
    else if( ( dv_cls == USB_DEV_CLASS_PRINTER ) || ( if_cls == USB_DEV_CLASS_PRINTER ) )
    91a8:	471d                	li	a4,7
    91aa:	04e78663          	beq	a5,a4,91f6 <USBH_EnumHubPortDevice+0x13a>
    91ae:	04e68463          	beq	a3,a4,91f6 <USBH_EnumHubPortDevice+0x13a>
C:/Repository/RISKYKVM/firmware/src/User/USB_Host/app_km.c:155
    else if( ( dv_cls == USB_DEV_CLASS_HID ) || ( if_cls == USB_DEV_CLASS_HID ) )
    91b2:	470d                	li	a4,3
    91b4:	04e78563          	beq	a5,a4,91fe <USBH_EnumHubPortDevice+0x142>
    91b8:	04e68363          	beq	a3,a4,91fe <USBH_EnumHubPortDevice+0x142>
C:/Repository/RISKYKVM/firmware/src/User/USB_Host/app_km.c:159
    else if( ( dv_cls == USB_DEV_CLASS_HUB ) || ( if_cls == USB_DEV_CLASS_HUB ) )
    91bc:	4725                	li	a4,9
    91be:	04e78463          	beq	a5,a4,9206 <USBH_EnumHubPortDevice+0x14a>
    91c2:	04e68263          	beq	a3,a4,9206 <USBH_EnumHubPortDevice+0x14a>
C:/Repository/RISKYKVM/firmware/src/User/USB_Host/app_km.c:165
        *ptype = DEF_DEV_TYPE_UNKNOWN;
    91c6:	57fd                	li	a5,-1
    91c8:	00fb8023          	sb	a5,0(s7)
    91cc:	a021                	j	91d4 <USBH_EnumHubPortDevice+0x118>
C:/Repository/RISKYKVM/firmware/src/User/USB_Host/app_km.c:149
        *ptype = USB_DEV_CLASS_STORAGE;
    91ce:	47a1                	li	a5,8
    91d0:	00fb8023          	sb	a5,0(s7)
USBH_EnumHubPortDevice():
C:/Repository/RISKYKVM/firmware/src/User/USB_Host/app_km.c:1352
        s = USBFSH_SetUsbConfig( RootHubDev.Device[ hub_port ].bEp0MaxPks, cfg_val );
    91d4:	9a56                	add	s4,s4,s5
    91d6:	0a06                	slli	s4,s4,0x1
C:/Repository/RISKYKVM/firmware/src/User/USB_Host/app_km.c:1310
    Delay_Ms( 5 );
    91d8:	4429                	li	s0,10
C:/Repository/RISKYKVM/firmware/src/User/USB_Host/app_km.c:1352
        s = USBFSH_SetUsbConfig( RootHubDev.Device[ hub_port ].bEp0MaxPks, cfg_val );
    91da:	9952                	add	s2,s2,s4
    91dc:	00b94503          	lbu	a0,11(s2)
    91e0:	85a6                	mv	a1,s1
    91e2:	147d                	addi	s0,s0,-1
    91e4:	2c0010ef          	jal	ra,a4a4 <USBFSH_SetUsbConfig>
C:/Repository/RISKYKVM/firmware/src/User/USB_Host/app_km.c:1353
        if( s != ERR_SUCCESS )
    91e8:	0ff47413          	andi	s0,s0,255
    91ec:	dd19                	beqz	a0,910a <USBH_EnumHubPortDevice+0x4e>
C:/Repository/RISKYKVM/firmware/src/User/USB_Host/app_km.c:1356 (discriminator 3)
            if( enum_cnt >= 10 )
    91ee:	f47d                	bnez	s0,91dc <USBH_EnumHubPortDevice+0x120>
C:/Repository/RISKYKVM/firmware/src/User/USB_Host/app_km.c:1358
                return DEF_CFG_VALUE_SETFAIL;
    91f0:	04900513          	li	a0,73
    91f4:	bf19                	j	910a <USBH_EnumHubPortDevice+0x4e>
USBH_AnalyseType():
C:/Repository/RISKYKVM/firmware/src/User/USB_Host/app_km.c:153
        *ptype = USB_DEV_CLASS_PRINTER;
    91f6:	479d                	li	a5,7
    91f8:	00fb8023          	sb	a5,0(s7)
    91fc:	bfe1                	j	91d4 <USBH_EnumHubPortDevice+0x118>
C:/Repository/RISKYKVM/firmware/src/User/USB_Host/app_km.c:157
        *ptype = USB_DEV_CLASS_HID;
    91fe:	478d                	li	a5,3
    9200:	00fb8023          	sb	a5,0(s7)
    9204:	bfc1                	j	91d4 <USBH_EnumHubPortDevice+0x118>
C:/Repository/RISKYKVM/firmware/src/User/USB_Host/app_km.c:161
        *ptype = USB_DEV_CLASS_HUB;
    9206:	47a5                	li	a5,9
    9208:	00fb8023          	sb	a5,0(s7)
    920c:	b7e1                	j	91d4 <USBH_EnumHubPortDevice+0x118>

0000920e <KB_AnalyzeKeyValue>:
KB_AnalyzeKeyValue():
C:/Repository/RISKYKVM/firmware/src/User/USB_Host/app_km.c:1379
{
    920e:	715d                	addi	sp,sp,-80
    9210:	c2a6                	sw	s1,68(sp)
C:/Repository/RISKYKVM/firmware/src/User/USB_Host/app_km.c:1384
    value = HostCtl[ index ].Interface[ intf_num ].SetReport_Value;
    9212:	44400493          	li	s1,1092
    9216:	029507b3          	mul	a5,a0,s1
    921a:	00459713          	slli	a4,a1,0x4
    921e:	00b704b3          	add	s1,a4,a1
C:/Repository/RISKYKVM/firmware/src/User/USB_Host/app_km.c:1379
{
    9222:	dc52                	sw	s4,56(sp)
C:/Repository/RISKYKVM/firmware/src/User/USB_Host/app_km.c:1384
    value = HostCtl[ index ].Interface[ intf_num ].SetReport_Value;
    9224:	0492                	slli	s1,s1,0x4
    9226:	20000a37          	lui	s4,0x20000
    922a:	c43a                	sw	a4,8(sp)
    922c:	0d8a0713          	addi	a4,s4,216 # 200000d8 <HostCtl>
C:/Repository/RISKYKVM/firmware/src/User/USB_Host/app_km.c:1379
{
    9230:	d266                	sw	s9,36(sp)
    9232:	ce6e                	sw	s11,28(sp)
C:/Repository/RISKYKVM/firmware/src/User/USB_Host/app_km.c:1384
    value = HostCtl[ index ].Interface[ intf_num ].SetReport_Value;
    9234:	94be                	add	s1,s1,a5
C:/Repository/RISKYKVM/firmware/src/User/USB_Host/app_km.c:1379
{
    9236:	c686                	sw	ra,76(sp)
    9238:	c4a2                	sw	s0,72(sp)
    923a:	c0ca                	sw	s2,64(sp)
    923c:	de4e                	sw	s3,60(sp)
    923e:	da56                	sw	s5,52(sp)
    9240:	d85a                	sw	s6,48(sp)
    9242:	d65e                	sw	s7,44(sp)
    9244:	d462                	sw	s8,40(sp)
    9246:	d06a                	sw	s10,32(sp)
C:/Repository/RISKYKVM/firmware/src/User/USB_Host/app_km.c:1384
    value = HostCtl[ index ].Interface[ intf_num ].SetReport_Value;
    9248:	94ba                	add	s1,s1,a4
    924a:	0434cb83          	lbu	s7,67(s1)
C:/Repository/RISKYKVM/firmware/src/User/USB_Host/app_km.c:1386
    for( i = HostCtl[ index ].Interface[ intf_num ].LED_Usage_Min; i <= HostCtl[ index ].Interface[ intf_num ].LED_Usage_Max; i++ )
    924e:	0404c403          	lbu	s0,64(s1)
    9252:	0414c903          	lbu	s2,65(s1)
C:/Repository/RISKYKVM/firmware/src/User/USB_Host/app_km.c:1384
    value = HostCtl[ index ].Interface[ intf_num ].SetReport_Value;
    9256:	c23a                	sw	a4,4(sp)
    9258:	c65e                	sw	s7,12(sp)
C:/Repository/RISKYKVM/firmware/src/User/USB_Host/app_km.c:1379
{
    925a:	8caa                	mv	s9,a0
    925c:	8dae                	mv	s11,a1
C:/Repository/RISKYKVM/firmware/src/User/USB_Host/app_km.c:1386
    for( i = HostCtl[ index ].Interface[ intf_num ].LED_Usage_Min; i <= HostCtl[ index ].Interface[ intf_num ].LED_Usage_Max; i++ )
    925e:	0a896663          	bltu	s2,s0,930a <KB_AnalyzeKeyValue+0xfc>
    9262:	8ab2                	mv	s5,a2
    9264:	8b36                	mv	s6,a3
C:/Repository/RISKYKVM/firmware/src/User/USB_Host/app_km.c:1382
    uint8_t  bit_pos = 0x00;
    9266:	4a01                	li	s4,0
C:/Repository/RISKYKVM/firmware/src/User/USB_Host/app_km.c:1388
        if( i == 0x01 )
    9268:	4985                	li	s3,1
C:/Repository/RISKYKVM/firmware/src/User/USB_Host/app_km.c:1395
        else if( i == 0x02 )
    926a:	4c09                	li	s8,2
C:/Repository/RISKYKVM/firmware/src/User/USB_Host/app_km.c:1402
        else if( i == 0x03 )
    926c:	4d0d                	li	s10,3
C:/Repository/RISKYKVM/firmware/src/User/USB_Host/app_km.c:1388
        if( i == 0x01 )
    926e:	09340263          	beq	s0,s3,92f2 <KB_AnalyzeKeyValue+0xe4>
C:/Repository/RISKYKVM/firmware/src/User/USB_Host/app_km.c:1397
            if( memchr( pbuf, DEF_KEY_CAPS, len ) )
    9272:	865a                	mv	a2,s6
    9274:	03900593          	li	a1,57
C:/Repository/RISKYKVM/firmware/src/User/USB_Host/app_km.c:1395
        else if( i == 0x02 )
    9278:	07840063          	beq	s0,s8,92d8 <KB_AnalyzeKeyValue+0xca>
C:/Repository/RISKYKVM/firmware/src/User/USB_Host/app_km.c:1402
        else if( i == 0x03 )
    927c:	05a40c63          	beq	s0,s10,92d4 <KB_AnalyzeKeyValue+0xc6>
C:/Repository/RISKYKVM/firmware/src/User/USB_Host/app_km.c:1386 (discriminator 2)
    for( i = HostCtl[ index ].Interface[ intf_num ].LED_Usage_Min; i <= HostCtl[ index ].Interface[ intf_num ].LED_Usage_Max; i++ )
    9280:	0405                	addi	s0,s0,1
C:/Repository/RISKYKVM/firmware/src/User/USB_Host/app_km.c:1410 (discriminator 2)
        bit_pos++;
    9282:	001a0793          	addi	a5,s4,1
C:/Repository/RISKYKVM/firmware/src/User/USB_Host/app_km.c:1386 (discriminator 2)
    for( i = HostCtl[ index ].Interface[ intf_num ].LED_Usage_Min; i <= HostCtl[ index ].Interface[ intf_num ].LED_Usage_Max; i++ )
    9286:	0ff47413          	andi	s0,s0,255
C:/Repository/RISKYKVM/firmware/src/User/USB_Host/app_km.c:1410 (discriminator 2)
        bit_pos++;
    928a:	0ff7fa13          	andi	s4,a5,255
C:/Repository/RISKYKVM/firmware/src/User/USB_Host/app_km.c:1386 (discriminator 2)
    for( i = HostCtl[ index ].Interface[ intf_num ].LED_Usage_Min; i <= HostCtl[ index ].Interface[ intf_num ].LED_Usage_Max; i++ )
    928e:	fe8970e3          	bgeu	s2,s0,926e <KB_AnalyzeKeyValue+0x60>
    9292:	47b2                	lw	a5,12(sp)
    9294:	41778bb3          	sub	s7,a5,s7
    9298:	01703bb3          	snez	s7,s7
C:/Repository/RISKYKVM/firmware/src/User/USB_Host/app_km.c:1413
    if( value != HostCtl[ index ].Interface[ intf_num ].SetReport_Value )
    929c:	44400793          	li	a5,1092
    92a0:	02fc8cb3          	mul	s9,s9,a5
    92a4:	47a2                	lw	a5,8(sp)
    92a6:	01b789b3          	add	s3,a5,s11
    92aa:	4792                	lw	a5,4(sp)
    92ac:	0992                	slli	s3,s3,0x4
    92ae:	9cce                	add	s9,s9,s3
    92b0:	9cbe                	add	s9,s9,a5
    92b2:	057c8223          	sb	s7,68(s9)
C:/Repository/RISKYKVM/firmware/src/User/USB_Host/app_km.c:1421
}
    92b6:	40b6                	lw	ra,76(sp)
    92b8:	4426                	lw	s0,72(sp)
    92ba:	4496                	lw	s1,68(sp)
    92bc:	4906                	lw	s2,64(sp)
    92be:	59f2                	lw	s3,60(sp)
    92c0:	5a62                	lw	s4,56(sp)
    92c2:	5ad2                	lw	s5,52(sp)
    92c4:	5b42                	lw	s6,48(sp)
    92c6:	5bb2                	lw	s7,44(sp)
    92c8:	5c22                	lw	s8,40(sp)
    92ca:	5c92                	lw	s9,36(sp)
    92cc:	5d02                	lw	s10,32(sp)
    92ce:	4df2                	lw	s11,28(sp)
    92d0:	6161                	addi	sp,sp,80
    92d2:	8082                	ret
C:/Repository/RISKYKVM/firmware/src/User/USB_Host/app_km.c:1404
            if( memchr( pbuf, DEF_KEY_SCROLL, len ) )
    92d4:	04700593          	li	a1,71
    92d8:	8556                	mv	a0,s5
    92da:	5cc040ef          	jal	ra,d8a6 <memchr>
C:/Repository/RISKYKVM/firmware/src/User/USB_Host/app_km.c:1406
                HostCtl[ index ].Interface[ intf_num ].SetReport_Value ^= ( 1 << bit_pos );
    92de:	01499633          	sll	a2,s3,s4
    92e2:	01764633          	xor	a2,a2,s7
C:/Repository/RISKYKVM/firmware/src/User/USB_Host/app_km.c:1404
            if( memchr( pbuf, DEF_KEY_SCROLL, len ) )
    92e6:	dd49                	beqz	a0,9280 <KB_AnalyzeKeyValue+0x72>
C:/Repository/RISKYKVM/firmware/src/User/USB_Host/app_km.c:1406
                HostCtl[ index ].Interface[ intf_num ].SetReport_Value ^= ( 1 << bit_pos );
    92e8:	0ff67b93          	andi	s7,a2,255
    92ec:	057481a3          	sb	s7,67(s1)
    92f0:	bf41                	j	9280 <KB_AnalyzeKeyValue+0x72>
C:/Repository/RISKYKVM/firmware/src/User/USB_Host/app_km.c:1390
            if( memchr( pbuf, DEF_KEY_NUM, len ) )
    92f2:	865a                	mv	a2,s6
    92f4:	05300593          	li	a1,83
    92f8:	8556                	mv	a0,s5
    92fa:	5ac040ef          	jal	ra,d8a6 <memchr>
C:/Repository/RISKYKVM/firmware/src/User/USB_Host/app_km.c:1392
                HostCtl[ index ].Interface[ intf_num ].SetReport_Value ^= ( 1 << bit_pos );
    92fe:	01441633          	sll	a2,s0,s4
    9302:	01764633          	xor	a2,a2,s7
C:/Repository/RISKYKVM/firmware/src/User/USB_Host/app_km.c:1390
            if( memchr( pbuf, DEF_KEY_NUM, len ) )
    9306:	f16d                	bnez	a0,92e8 <KB_AnalyzeKeyValue+0xda>
    9308:	bfa5                	j	9280 <KB_AnalyzeKeyValue+0x72>
C:/Repository/RISKYKVM/firmware/src/User/USB_Host/app_km.c:1386
    for( i = HostCtl[ index ].Interface[ intf_num ].LED_Usage_Min; i <= HostCtl[ index ].Interface[ intf_num ].LED_Usage_Max; i++ )
    930a:	4b81                	li	s7,0
    930c:	bf41                	j	929c <KB_AnalyzeKeyValue+0x8e>

0000930e <USBH_MainDeal>:
USBH_MainDeal():
C:/Repository/RISKYKVM/firmware/src/User/USB_Host/app_km.c:1474
 *          obtain keyboard and mouse data at regular intervals.
 *
 * @return  none
 */
void USBH_MainDeal( void )
{
    930e:	7159                	addi	sp,sp,-112
    9310:	c6de                	sw	s7,76(sp)
C:/Repository/RISKYKVM/firmware/src/User/USB_Host/app_km.c:1485
    uint16_t len;
#if DEF_DEBUG_PRINTF
    uint16_t i;
#endif
    
    s = USBFSH_CheckRootHubPortStatus( RootHubDev.bStatus ); // Check USB device connection or disconnection
    9312:	20001bb7          	lui	s7,0x20001
    9316:	640bc503          	lbu	a0,1600(s7) # 20001640 <RootHubDev>
C:/Repository/RISKYKVM/firmware/src/User/USB_Host/app_km.c:1474
{
    931a:	de6e                	sw	s11,60(sp)
    931c:	d686                	sw	ra,108(sp)
    931e:	d4a2                	sw	s0,104(sp)
    9320:	d2a6                	sw	s1,100(sp)
    9322:	d0ca                	sw	s2,96(sp)
    9324:	cece                	sw	s3,92(sp)
    9326:	ccd2                	sw	s4,88(sp)
    9328:	cad6                	sw	s5,84(sp)
    932a:	c8da                	sw	s6,80(sp)
    932c:	c4e2                	sw	s8,72(sp)
    932e:	c2e6                	sw	s9,68(sp)
    9330:	c0ea                	sw	s10,64(sp)
C:/Repository/RISKYKVM/firmware/src/User/USB_Host/app_km.c:1485
    s = USBFSH_CheckRootHubPortStatus( RootHubDev.bStatus ); // Check USB device connection or disconnection
    9332:	7e6000ef          	jal	ra,9b18 <USBFSH_CheckRootHubPortStatus>
C:/Repository/RISKYKVM/firmware/src/User/USB_Host/app_km.c:1486
    if( s == ROOT_DEV_CONNECTED )
    9336:	4785                	li	a5,1
C:/Repository/RISKYKVM/firmware/src/User/USB_Host/app_km.c:1485
    s = USBFSH_CheckRootHubPortStatus( RootHubDev.bStatus ); // Check USB device connection or disconnection
    9338:	8daa                	mv	s11,a0
C:/Repository/RISKYKVM/firmware/src/User/USB_Host/app_km.c:1486
    if( s == ROOT_DEV_CONNECTED )
    933a:	08f50363          	beq	a0,a5,93c0 <USBH_MainDeal+0xb2>
C:/Repository/RISKYKVM/firmware/src/User/USB_Host/app_km.c:1569
            /* Enumeration failed */
            DUG_PRINTF( "Enum Fail with Error Code:%x\r\n",s );
            RootHubDev.bStatus = ROOT_DEV_FAILED;
        }
    }
    else if( s == ROOT_DEV_DISCONNECT )
    933e:	c131                	beqz	a0,9382 <USBH_MainDeal+0x74>
C:/Repository/RISKYKVM/firmware/src/User/USB_Host/app_km.c:1581
        memset( &HostCtl[ index ].InterfaceNum, 0, sizeof( HOST_CTL ) );
        GPIO_WriteBit(LED_GPIO_Port,LED_Pin, Bit_SET);
    }

    /* Get the data of the HID device connected to the USB host port */
    if( RootHubDev.bStatus >= ROOT_DEV_SUCCESS )
    9340:	640bc703          	lbu	a4,1600(s7)
    9344:	4789                	li	a5,2
    9346:	00e7ff63          	bgeu	a5,a4,9364 <USBH_MainDeal+0x56>
    934a:	640b8b13          	addi	s6,s7,1600
C:/Repository/RISKYKVM/firmware/src/User/USB_Host/app_km.c:1583
    {
        index = RootHubDev.DeviceIndex;
    934e:	005b4683          	lbu	a3,5(s6)
    9352:	001b4783          	lbu	a5,1(s6)
C:/Repository/RISKYKVM/firmware/src/User/USB_Host/app_km.c:1585

        if( RootHubDev.bType == USB_DEV_CLASS_HID )
    9356:	470d                	li	a4,3
C:/Repository/RISKYKVM/firmware/src/User/USB_Host/app_km.c:1583
        index = RootHubDev.DeviceIndex;
    9358:	cc36                	sw	a3,24(sp)
C:/Repository/RISKYKVM/firmware/src/User/USB_Host/app_km.c:1585
        if( RootHubDev.bType == USB_DEV_CLASS_HID )
    935a:	1ee78163          	beq	a5,a4,953c <USBH_MainDeal+0x22e>
C:/Repository/RISKYKVM/firmware/src/User/USB_Host/app_km.c:1690
                {
                    break;
                }
            }
        }
        else if( RootHubDev.bType == USB_DEV_CLASS_HUB )
    935e:	4725                	li	a4,9
    9360:	08e78663          	beq	a5,a4,93ec <USBH_MainDeal+0xde>
C:/Repository/RISKYKVM/firmware/src/User/USB_Host/app_km.c:1880
                   }
               }
           }
        }
    }
}
    9364:	50b6                	lw	ra,108(sp)
    9366:	5426                	lw	s0,104(sp)
    9368:	5496                	lw	s1,100(sp)
    936a:	5906                	lw	s2,96(sp)
    936c:	49f6                	lw	s3,92(sp)
    936e:	4a66                	lw	s4,88(sp)
    9370:	4ad6                	lw	s5,84(sp)
    9372:	4b46                	lw	s6,80(sp)
    9374:	4bb6                	lw	s7,76(sp)
    9376:	4c26                	lw	s8,72(sp)
    9378:	4c96                	lw	s9,68(sp)
    937a:	4d06                	lw	s10,64(sp)
    937c:	5df2                	lw	s11,60(sp)
    937e:	6165                	addi	sp,sp,112
    9380:	8082                	ret
C:/Repository/RISKYKVM/firmware/src/User/USB_Host/app_km.c:1574 (discriminator 3)
        index = RootHubDev.DeviceIndex;
    9382:	640b8793          	addi	a5,s7,1600
    9386:	0057c403          	lbu	s0,5(a5)
C:/Repository/RISKYKVM/firmware/src/User/USB_Host/app_km.c:1575 (discriminator 3)
        memset( &RootHubDev.bStatus, 0, sizeof( ROOT_HUB_DEVICE ) );
    938a:	467d                	li	a2,31
    938c:	4581                	li	a1,0
    938e:	640b8513          	addi	a0,s7,1600
    9392:	daffe0ef          	jal	ra,8140 <memset>
C:/Repository/RISKYKVM/firmware/src/User/USB_Host/app_km.c:1576 (discriminator 3)
        memset( &HostCtl[ index ].InterfaceNum, 0, sizeof( HOST_CTL ) );
    9396:	44400793          	li	a5,1092
    939a:	02f40433          	mul	s0,s0,a5
    939e:	20000537          	lui	a0,0x20000
    93a2:	0d850513          	addi	a0,a0,216 # 200000d8 <HostCtl>
    93a6:	44400613          	li	a2,1092
    93aa:	4581                	li	a1,0
    93ac:	9522                	add	a0,a0,s0
    93ae:	d93fe0ef          	jal	ra,8140 <memset>
C:/Repository/RISKYKVM/firmware/src/User/USB_Host/app_km.c:1577 (discriminator 3)
        GPIO_WriteBit(LED_GPIO_Port,LED_Pin, Bit_SET);
    93b2:	4605                	li	a2,1
    93b4:	6591                	lui	a1,0x4
    93b6:	40011537          	lui	a0,0x40011
    93ba:	19e040ef          	jal	ra,d558 <GPIO_WriteBit>
    93be:	b749                	j	9340 <USBH_MainDeal+0x32>
C:/Repository/RISKYKVM/firmware/src/User/USB_Host/app_km.c:1492 (discriminator 3)
        RootHubDev.DeviceIndex = DEF_USBFS_PORT_INDEX * DEF_ONE_USB_SUP_DEV_TOTAL;
    93c0:	640b8413          	addi	s0,s7,1600
C:/Repository/RISKYKVM/firmware/src/User/USB_Host/app_km.c:1491 (discriminator 3)
        RootHubDev.bStatus = ROOT_DEV_CONNECTED;
    93c4:	64ab8023          	sb	a0,1600(s7)
C:/Repository/RISKYKVM/firmware/src/User/USB_Host/app_km.c:1492 (discriminator 3)
        RootHubDev.DeviceIndex = DEF_USBFS_PORT_INDEX * DEF_ONE_USB_SUP_DEV_TOTAL;
    93c8:	000402a3          	sb	zero,5(s0)
C:/Repository/RISKYKVM/firmware/src/User/USB_Host/app_km.c:1494 (discriminator 3)
        s = USBH_EnumRootDevice( ); // Simply enumerate root device
    93cc:	9a4ff0ef          	jal	ra,8570 <USBH_EnumRootDevice>
    93d0:	8daa                	mv	s11,a0
C:/Repository/RISKYKVM/firmware/src/User/USB_Host/app_km.c:1495 (discriminator 3)
        if( s == ERR_SUCCESS )
    93d2:	14051e63          	bnez	a0,952e <USBH_MainDeal+0x220>
C:/Repository/RISKYKVM/firmware/src/User/USB_Host/app_km.c:1497
            if( RootHubDev.bType == USB_DEV_CLASS_HID ) // Further enumerate it if this device is a HID device
    93d6:	00144783          	lbu	a5,1(s0)
    93da:	470d                	li	a4,3
    93dc:	3ce78763          	beq	a5,a4,97aa <USBH_MainDeal+0x49c>
C:/Repository/RISKYKVM/firmware/src/User/USB_Host/app_km.c:1518
            else if( RootHubDev.bType == USB_DEV_CLASS_HUB )
    93e0:	46a5                	li	a3,9
    93e2:	5ed78663          	beq	a5,a3,99ce <USBH_MainDeal+0x6c0>
C:/Repository/RISKYKVM/firmware/src/User/USB_Host/app_km.c:1559 (discriminator 3)
                RootHubDev.bStatus = ROOT_DEV_SUCCESS;
    93e6:	64eb8023          	sb	a4,1600(s7)
C:/Repository/RISKYKVM/firmware/src/User/USB_Host/app_km.c:1585 (discriminator 3)
        if( RootHubDev.bType == USB_DEV_CLASS_HID )
    93ea:	bfad                	j	9364 <USBH_MainDeal+0x56>
C:/Repository/RISKYKVM/firmware/src/User/USB_Host/app_km.c:1693
           if( HostCtl[ index ].Interface[ 0 ].InEndpTimeCount[ 0 ] >= HostCtl[ index ].Interface[ 0 ].InEndpInterval[ 0 ] )
    93ec:	44400413          	li	s0,1092
    93f0:	02868433          	mul	s0,a3,s0
    93f4:	200004b7          	lui	s1,0x20000
    93f8:	0d848493          	addi	s1,s1,216 # 200000d8 <HostCtl>
    93fc:	00848933          	add	s2,s1,s0
    9400:	02494783          	lbu	a5,36(s2)
    9404:	02094703          	lbu	a4,32(s2)
    9408:	3ae7fe63          	bgeu	a5,a4,97c4 <USBH_MainDeal+0x4b6>
    940c:	006b4683          	lbu	a3,6(s6)
C:/Repository/RISKYKVM/firmware/src/User/USB_Host/app_km.c:1805 (discriminator 1)
           for( hub_port = 0; hub_port < RootHubDev.bPortNum; hub_port++ )
    9410:	4901                	li	s2,0
    9412:	daa9                	beqz	a3,9364 <USBH_MainDeal+0x56>
C:/Repository/RISKYKVM/firmware/src/User/USB_Host/app_km.c:1831
                                   s = USBFSH_GetEndpData( HostCtl[ index ].Interface[ intf_num ].InEndpAddr[ in_num ], \
    9414:	20001ab7          	lui	s5,0x20001
    9418:	a031                	j	9424 <USBH_MainDeal+0x116>
C:/Repository/RISKYKVM/firmware/src/User/USB_Host/app_km.c:1805 (discriminator 2)
           for( hub_port = 0; hub_port < RootHubDev.bPortNum; hub_port++ )
    941a:	0905                	addi	s2,s2,1
    941c:	0ff97913          	andi	s2,s2,255
    9420:	f4d972e3          	bgeu	s2,a3,9364 <USBH_MainDeal+0x56>
C:/Repository/RISKYKVM/firmware/src/User/USB_Host/app_km.c:1807
               if( RootHubDev.Device[ hub_port ].bStatus == ROOT_DEV_SUCCESS )
    9424:	00191413          	slli	s0,s2,0x1
    9428:	944a                	add	s0,s0,s2
    942a:	0406                	slli	s0,s0,0x1
    942c:	945a                	add	s0,s0,s6
    942e:	00744783          	lbu	a5,7(s0)
    9432:	470d                	li	a4,3
    9434:	fee793e3          	bne	a5,a4,941a <USBH_MainDeal+0x10c>
C:/Repository/RISKYKVM/firmware/src/User/USB_Host/app_km.c:1811
                   if( RootHubDev.Device[ hub_port ].bType == USB_DEV_CLASS_HID )
    9438:	00844703          	lbu	a4,8(s0)
    943c:	fcf71fe3          	bne	a4,a5,941a <USBH_MainDeal+0x10c>
C:/Repository/RISKYKVM/firmware/src/User/USB_Host/app_km.c:1809
                   index = RootHubDev.Device[ hub_port ].DeviceIndex;
    9440:	00c44783          	lbu	a5,12(s0)
C:/Repository/RISKYKVM/firmware/src/User/USB_Host/app_km.c:1813
                       for( intf_num = 0; intf_num < HostCtl[ index ].InterfaceNum; intf_num++ )
    9444:	44400713          	li	a4,1092
    9448:	02e78cb3          	mul	s9,a5,a4
C:/Repository/RISKYKVM/firmware/src/User/USB_Host/app_km.c:1809
                   index = RootHubDev.Device[ hub_port ].DeviceIndex;
    944c:	c83e                	sw	a5,16(sp)
C:/Repository/RISKYKVM/firmware/src/User/USB_Host/app_km.c:1813
                       for( intf_num = 0; intf_num < HostCtl[ index ].InterfaceNum; intf_num++ )
    944e:	01948d33          	add	s10,s1,s9
    9452:	000d4783          	lbu	a5,0(s10)
    9456:	d3f1                	beqz	a5,941a <USBH_MainDeal+0x10c>
    9458:	4a01                	li	s4,0
C:/Repository/RISKYKVM/firmware/src/User/USB_Host/app_km.c:1815
                           for( in_num = 0; in_num < HostCtl[ index ].Interface[ intf_num ].InEndpNum; in_num++ )
    945a:	c266                	sw	s9,4(sp)
C:/Repository/RISKYKVM/firmware/src/User/USB_Host/app_km.c:1813
                       for( intf_num = 0; intf_num < HostCtl[ index ].InterfaceNum; intf_num++ )
    945c:	c46a                	sw	s10,8(sp)
C:/Repository/RISKYKVM/firmware/src/User/USB_Host/app_km.c:1815
                           for( in_num = 0; in_num < HostCtl[ index ].Interface[ intf_num ].InEndpNum; in_num++ )
    945e:	004a1993          	slli	s3,s4,0x4
    9462:	4792                	lw	a5,4(sp)
    9464:	99d2                	add	s3,s3,s4
    9466:	00499713          	slli	a4,s3,0x4
    946a:	00f70833          	add	a6,a4,a5
    946e:	9826                	add	a6,a6,s1
    9470:	00a84583          	lbu	a1,10(a6)
    9474:	cdd9                	beqz	a1,9512 <USBH_MainDeal+0x204>
    9476:	01970bb3          	add	s7,a4,s9
C:/Repository/RISKYKVM/firmware/src/User/USB_Host/app_km.c:1837
                                    	FifoWrite(&HostCtl[ index ].Interface[ intf_num ].buffer, &Com_Buf, len);
    947a:	084b8c13          	addi	s8,s7,132
KB_SetReport():
C:/Repository/RISKYKVM/firmware/src/User/USB_Host/app_km.c:1458
        s = USBFSH_SendEndpData( HostCtl[ index ].Interface[ intf_num ].OutEndpAddr[ 0 ],
    947e:	03ab8b93          	addi	s7,s7,58
    9482:	017487b3          	add	a5,s1,s7
USBH_MainDeal():
C:/Repository/RISKYKVM/firmware/src/User/USB_Host/app_km.c:1831
                                   s = USBFSH_GetEndpData( HostCtl[ index ].Interface[ intf_num ].InEndpAddr[ in_num ], \
    9486:	01cc8993          	addi	s3,s9,28
C:/Repository/RISKYKVM/firmware/src/User/USB_Host/app_km.c:1837
                                    	FifoWrite(&HostCtl[ index ].Interface[ intf_num ].buffer, &Com_Buf, len);
    948a:	9c26                	add	s8,s8,s1
KB_SetReport():
C:/Repository/RISKYKVM/firmware/src/User/USB_Host/app_km.c:1458
        s = USBFSH_SendEndpData( HostCtl[ index ].Interface[ intf_num ].OutEndpAddr[ 0 ],
    948c:	c63e                	sw	a5,12(sp)
USBH_MainDeal():
C:/Repository/RISKYKVM/firmware/src/User/USB_Host/app_km.c:1815
                           for( in_num = 0; in_num < HostCtl[ index ].Interface[ intf_num ].InEndpNum; in_num++ )
    948e:	4d01                	li	s10,0
C:/Repository/RISKYKVM/firmware/src/User/USB_Host/app_km.c:1818
                               if( HostCtl[ index ].Interface[ intf_num ].InEndpTimeCount[ in_num ] >= HostCtl[ index ].Interface[ intf_num ].InEndpInterval[ in_num ] )
    9490:	8bc2                	mv	s7,a6
C:/Repository/RISKYKVM/firmware/src/User/USB_Host/app_km.c:1831
                                   s = USBFSH_GetEndpData( HostCtl[ index ].Interface[ intf_num ].InEndpAddr[ in_num ], \
    9492:	99ba                	add	s3,s3,a4
    9494:	a039                	j	94a2 <USBH_MainDeal+0x194>
C:/Repository/RISKYKVM/firmware/src/User/USB_Host/app_km.c:1815 (discriminator 2)
                           for( in_num = 0; in_num < HostCtl[ index ].Interface[ intf_num ].InEndpNum; in_num++ )
    9496:	001d0793          	addi	a5,s10,1
    949a:	0ff7fd13          	andi	s10,a5,255
    949e:	06bd7a63          	bgeu	s10,a1,9512 <USBH_MainDeal+0x204>
C:/Repository/RISKYKVM/firmware/src/User/USB_Host/app_km.c:1818
                               if( HostCtl[ index ].Interface[ intf_num ].InEndpTimeCount[ in_num ] >= HostCtl[ index ].Interface[ intf_num ].InEndpInterval[ in_num ] )
    94a2:	01ab8733          	add	a4,s7,s10
    94a6:	02474683          	lbu	a3,36(a4)
    94aa:	02074603          	lbu	a2,32(a4)
    94ae:	fec6e4e3          	bltu	a3,a2,9496 <USBH_MainDeal+0x188>
C:/Repository/RISKYKVM/firmware/src/User/USB_Host/app_km.c:1820
                                   HostCtl[ index ].Interface[ intf_num ].InEndpTimeCount[ in_num ] %= HostCtl[ index ].Interface[ intf_num ].InEndpInterval[ in_num ];
    94b2:	02c6f6b3          	remu	a3,a3,a2
C:/Repository/RISKYKVM/firmware/src/User/USB_Host/app_km.c:1823
                                   USBFSH_SetSelfAddr( RootHubDev.Device[ hub_port ].bAddress );
    94b6:	00944503          	lbu	a0,9(s0)
C:/Repository/RISKYKVM/firmware/src/User/USB_Host/app_km.c:1820
                                   HostCtl[ index ].Interface[ intf_num ].InEndpTimeCount[ in_num ] %= HostCtl[ index ].Interface[ intf_num ].InEndpInterval[ in_num ];
    94ba:	02d70223          	sb	a3,36(a4)
C:/Repository/RISKYKVM/firmware/src/User/USB_Host/app_km.c:1823
                                   USBFSH_SetSelfAddr( RootHubDev.Device[ hub_port ].bAddress );
    94be:	2d49                	jal	9b50 <USBFSH_SetSelfAddr>
C:/Repository/RISKYKVM/firmware/src/User/USB_Host/app_km.c:1824
                                   USBFSH_SetSelfSpeed( RootHubDev.Device[ hub_port ].bSpeed );
    94c0:	00a44503          	lbu	a0,10(s0)
    94c4:	2555                	jal	9b68 <USBFSH_SetSelfSpeed>
C:/Repository/RISKYKVM/firmware/src/User/USB_Host/app_km.c:1825
                                   if( RootHubDev.bSpeed != USB_LOW_SPEED )
    94c6:	003b4703          	lbu	a4,3(s6)
    94ca:	cb09                	beqz	a4,94dc <USBH_MainDeal+0x1ce>
C:/Repository/RISKYKVM/firmware/src/User/USB_Host/app_km.c:1827
                                       USBOTG_H_FS->HOST_CTRL &= ~USBFS_UH_LOW_SPEED;
    94cc:	500006b7          	lui	a3,0x50000
    94d0:	0016c703          	lbu	a4,1(a3) # 50000001 <_eusrstack+0x2fffb001>
    94d4:	0fb77713          	andi	a4,a4,251
    94d8:	00e680a3          	sb	a4,1(a3)
C:/Repository/RISKYKVM/firmware/src/User/USB_Host/app_km.c:1831
                                   s = USBFSH_GetEndpData( HostCtl[ index ].Interface[ intf_num ].InEndpAddr[ in_num ], \
    94dc:	01ab8733          	add	a4,s7,s10
    94e0:	00b74503          	lbu	a0,11(a4)
    94e4:	01a985b3          	add	a1,s3,s10
    94e8:	02a10693          	addi	a3,sp,42
    94ec:	660a8613          	addi	a2,s5,1632 # 20001660 <Com_Buf>
    94f0:	95a6                	add	a1,a1,s1
    94f2:	0e6010ef          	jal	ra,a5d8 <USBFSH_GetEndpData>
    94f6:	8daa                	mv	s11,a0
C:/Repository/RISKYKVM/firmware/src/User/USB_Host/app_km.c:1833
                                   if( s == ERR_SUCCESS )
    94f8:	22050c63          	beqz	a0,9730 <USBH_MainDeal+0x422>
C:/Repository/RISKYKVM/firmware/src/User/USB_Host/app_km.c:1863
                                   else if( s == ERR_USB_DISCON )
    94fc:	4759                	li	a4,22
    94fe:	02e50563          	beq	a0,a4,9528 <USBH_MainDeal+0x21a>
    9502:	00abc583          	lbu	a1,10(s7)
C:/Repository/RISKYKVM/firmware/src/User/USB_Host/app_km.c:1815
                           for( in_num = 0; in_num < HostCtl[ index ].Interface[ intf_num ].InEndpNum; in_num++ )
    9506:	001d0793          	addi	a5,s10,1
    950a:	0ff7fd13          	andi	s10,a5,255
    950e:	f8bd6ae3          	bltu	s10,a1,94a2 <USBH_MainDeal+0x194>
C:/Repository/RISKYKVM/firmware/src/User/USB_Host/app_km.c:1870
                           if( s == ERR_USB_DISCON )
    9512:	47d9                	li	a5,22
    9514:	00fd8a63          	beq	s11,a5,9528 <USBH_MainDeal+0x21a>
C:/Repository/RISKYKVM/firmware/src/User/USB_Host/app_km.c:1813 (discriminator 2)
                       for( intf_num = 0; intf_num < HostCtl[ index ].InterfaceNum; intf_num++ )
    9518:	47a2                	lw	a5,8(sp)
    951a:	0a05                	addi	s4,s4,1
    951c:	0ffa7a13          	andi	s4,s4,255
    9520:	0007c783          	lbu	a5,0(a5)
    9524:	f2fa6de3          	bltu	s4,a5,945e <USBH_MainDeal+0x150>
    9528:	006b4683          	lbu	a3,6(s6)
    952c:	b5fd                	j	941a <USBH_MainDeal+0x10c>
C:/Repository/RISKYKVM/firmware/src/User/USB_Host/app_km.c:1562
        else if( s != ERR_USB_DISCON )
    952e:	47d9                	li	a5,22
    9530:	28f50863          	beq	a0,a5,97c0 <USBH_MainDeal+0x4b2>
C:/Repository/RISKYKVM/firmware/src/User/USB_Host/app_km.c:1515 (discriminator 3)
                    RootHubDev.bStatus = ROOT_DEV_FAILED;
    9534:	4789                	li	a5,2
    9536:	64fb8023          	sb	a5,1600(s7)
    953a:	b52d                	j	9364 <USBH_MainDeal+0x56>
C:/Repository/RISKYKVM/firmware/src/User/USB_Host/app_km.c:1587
            for( intf_num = 0; intf_num < HostCtl[ index ].InterfaceNum; intf_num++ )
    953c:	44400c93          	li	s9,1092
    9540:	03968733          	mul	a4,a3,s9
    9544:	200004b7          	lui	s1,0x20000
    9548:	0d848493          	addi	s1,s1,216 # 200000d8 <HostCtl>
    954c:	00e486b3          	add	a3,s1,a4
    9550:	0006c783          	lbu	a5,0(a3)
    9554:	c63a                	sw	a4,12(sp)
    9556:	ce36                	sw	a3,28(sp)
    9558:	e00786e3          	beqz	a5,9364 <USBH_MainDeal+0x56>
C:/Repository/RISKYKVM/firmware/src/User/USB_Host/app_km.c:1597
                        s = USBFSH_GetEndpData( HostCtl[ index ].Interface[ intf_num ].InEndpAddr[ in_num ],
    955c:	01c70793          	addi	a5,a4,28
C:/Repository/RISKYKVM/firmware/src/User/USB_Host/app_km.c:1587
            for( intf_num = 0; intf_num < HostCtl[ index ].InterfaceNum; intf_num++ )
    9560:	4901                	li	s2,0
C:/Repository/RISKYKVM/firmware/src/User/USB_Host/app_km.c:1589
                for( in_num = 0; in_num < HostCtl[ index ].Interface[ intf_num ].InEndpNum; in_num++ )
    9562:	c43a                	sw	a4,8(sp)
C:/Repository/RISKYKVM/firmware/src/User/USB_Host/app_km.c:1597
                        s = USBFSH_GetEndpData( HostCtl[ index ].Interface[ intf_num ].InEndpAddr[ in_num ],
    9564:	c83e                	sw	a5,16(sp)
    9566:	200019b7          	lui	s3,0x20001
C:/Repository/RISKYKVM/firmware/src/User/USB_Host/app_km.c:1649
                            HostCtl[ index ].ErrorCount++;
    956a:	c236                	sw	a3,4(sp)
C:/Repository/RISKYKVM/firmware/src/User/USB_Host/app_km.c:1589
                for( in_num = 0; in_num < HostCtl[ index ].Interface[ intf_num ].InEndpNum; in_num++ )
    956c:	47a2                	lw	a5,8(sp)
    956e:	00491413          	slli	s0,s2,0x4
    9572:	944a                	add	s0,s0,s2
    9574:	0412                	slli	s0,s0,0x4
    9576:	00f408b3          	add	a7,s0,a5
    957a:	98a6                	add	a7,a7,s1
    957c:	00a8c783          	lbu	a5,10(a7)
    9580:	c7e1                	beqz	a5,9648 <USBH_MainDeal+0x33a>
    9582:	47b2                	lw	a5,12(sp)
KB_SetReport():
C:/Repository/RISKYKVM/firmware/src/User/USB_Host/app_km.c:1458
        s = USBFSH_SendEndpData( HostCtl[ index ].Interface[ intf_num ].OutEndpAddr[ 0 ],
    9584:	4d05                	li	s10,1
    9586:	00f40a33          	add	s4,s0,a5
USBH_MainDeal():
C:/Repository/RISKYKVM/firmware/src/User/USB_Host/app_km.c:1604
                        	FifoWrite(&HostCtl[ index ].Interface[ intf_num ].buffer, &Com_Buf, len);
    958a:	084a0a93          	addi	s5,s4,132
KB_SetReport():
C:/Repository/RISKYKVM/firmware/src/User/USB_Host/app_km.c:1458
        s = USBFSH_SendEndpData( HostCtl[ index ].Interface[ intf_num ].OutEndpAddr[ 0 ],
    958e:	03aa0a13          	addi	s4,s4,58
    9592:	014487b3          	add	a5,s1,s4
    9596:	ca3e                	sw	a5,20(sp)
USBH_MainDeal():
C:/Repository/RISKYKVM/firmware/src/User/USB_Host/app_km.c:1597
                        s = USBFSH_GetEndpData( HostCtl[ index ].Interface[ intf_num ].InEndpAddr[ in_num ],
    9598:	47c2                	lw	a5,16(sp)
C:/Repository/RISKYKVM/firmware/src/User/USB_Host/app_km.c:1604
                        	FifoWrite(&HostCtl[ index ].Interface[ intf_num ].buffer, &Com_Buf, len);
    959a:	9aa6                	add	s5,s5,s1
C:/Repository/RISKYKVM/firmware/src/User/USB_Host/app_km.c:1592
                    if( HostCtl[ index ].Interface[ intf_num ].InEndpTimeCount[ in_num ] >= HostCtl[ index ].Interface[ intf_num ].InEndpInterval[ in_num ] )
    959c:	8a46                	mv	s4,a7
C:/Repository/RISKYKVM/firmware/src/User/USB_Host/app_km.c:1597
                        s = USBFSH_GetEndpData( HostCtl[ index ].Interface[ intf_num ].InEndpAddr[ in_num ],
    959e:	943e                	add	s0,s0,a5
    95a0:	a809                	j	95b2 <USBH_MainDeal+0x2a4>
C:/Repository/RISKYKVM/firmware/src/User/USB_Host/app_km.c:1589 (discriminator 2)
                for( in_num = 0; in_num < HostCtl[ index ].Interface[ intf_num ].InEndpNum; in_num++ )
    95a2:	00aa4703          	lbu	a4,10(s4)
    95a6:	0aed7163          	bgeu	s10,a4,9648 <USBH_MainDeal+0x33a>
    95aa:	001d0793          	addi	a5,s10,1
    95ae:	0ff7fd13          	andi	s10,a5,255
    95b2:	fffd0593          	addi	a1,s10,-1
    95b6:	0ff5f593          	andi	a1,a1,255
C:/Repository/RISKYKVM/firmware/src/User/USB_Host/app_km.c:1592
                    if( HostCtl[ index ].Interface[ intf_num ].InEndpTimeCount[ in_num ] >= HostCtl[ index ].Interface[ intf_num ].InEndpInterval[ in_num ] )
    95ba:	00ba0c33          	add	s8,s4,a1
    95be:	024c4683          	lbu	a3,36(s8)
    95c2:	020c4803          	lbu	a6,32(s8)
    95c6:	fd06eee3          	bltu	a3,a6,95a2 <USBH_MainDeal+0x294>
C:/Repository/RISKYKVM/firmware/src/User/USB_Host/app_km.c:1594
                        HostCtl[ index ].Interface[ intf_num ].InEndpTimeCount[ in_num ] %= HostCtl[ index ].Interface[ intf_num ].InEndpInterval[ in_num ];
    95ca:	0306f833          	remu	a6,a3,a6
C:/Repository/RISKYKVM/firmware/src/User/USB_Host/app_km.c:1597
                        s = USBFSH_GetEndpData( HostCtl[ index ].Interface[ intf_num ].InEndpAddr[ in_num ],
    95ce:	00bc4503          	lbu	a0,11(s8)
    95d2:	95a2                	add	a1,a1,s0
    95d4:	02a10693          	addi	a3,sp,42
    95d8:	66098613          	addi	a2,s3,1632 # 20001660 <Com_Buf>
    95dc:	95a6                	add	a1,a1,s1
C:/Repository/RISKYKVM/firmware/src/User/USB_Host/app_km.c:1594
                        HostCtl[ index ].Interface[ intf_num ].InEndpTimeCount[ in_num ] %= HostCtl[ index ].Interface[ intf_num ].InEndpInterval[ in_num ];
    95de:	030c0223          	sb	a6,36(s8)
C:/Repository/RISKYKVM/firmware/src/User/USB_Host/app_km.c:1597
                        s = USBFSH_GetEndpData( HostCtl[ index ].Interface[ intf_num ].InEndpAddr[ in_num ],
    95e2:	7f7000ef          	jal	ra,a5d8 <USBFSH_GetEndpData>
    95e6:	8daa                	mv	s11,a0
C:/Repository/RISKYKVM/firmware/src/User/USB_Host/app_km.c:1599
                        if( s == ERR_SUCCESS )
    95e8:	c179                	beqz	a0,96ae <USBH_MainDeal+0x3a0>
C:/Repository/RISKYKVM/firmware/src/User/USB_Host/app_km.c:1635
                        else if( s == ERR_USB_DISCON )
    95ea:	4cd9                	li	s9,22
    95ec:	d7950ce3          	beq	a0,s9,9364 <USBH_MainDeal+0x56>
C:/Repository/RISKYKVM/firmware/src/User/USB_Host/app_km.c:1639
                        else if( s == ( USB_PID_STALL | ERR_USB_TRANSFER ) )
    95f0:	02e00613          	li	a2,46
    95f4:	fac517e3          	bne	a0,a2,95a2 <USBH_MainDeal+0x294>
C:/Repository/RISKYKVM/firmware/src/User/USB_Host/app_km.c:1645 (discriminator 3)
                            USBFSH_ClearEndpStall( RootHubDev.bEp0MaxPks, HostCtl[ index ].Interface[ intf_num ].InEndpAddr[ in_num ] | 0x80 );
    95f8:	00bc4583          	lbu	a1,11(s8)
    95fc:	004b4503          	lbu	a0,4(s6)
    9600:	0805e593          	ori	a1,a1,128
    9604:	73b000ef          	jal	ra,a53e <USBFSH_ClearEndpStall>
C:/Repository/RISKYKVM/firmware/src/User/USB_Host/app_km.c:1649 (discriminator 3)
                            HostCtl[ index ].ErrorCount++;
    9608:	4792                	lw	a5,4(sp)
C:/Repository/RISKYKVM/firmware/src/User/USB_Host/app_km.c:1646 (discriminator 3)
                            HostCtl[ index ].Interface[ intf_num ].InEndpTog[ in_num ] = 0x00;
    960a:	000c0e23          	sb	zero,28(s8)
C:/Repository/RISKYKVM/firmware/src/User/USB_Host/app_km.c:1650 (discriminator 3)
                            if( HostCtl[ index ].ErrorCount >= 10 )
    960e:	45a5                	li	a1,9
C:/Repository/RISKYKVM/firmware/src/User/USB_Host/app_km.c:1649 (discriminator 3)
                            HostCtl[ index ].ErrorCount++;
    9610:	0017c603          	lbu	a2,1(a5)
    9614:	0605                	addi	a2,a2,1
    9616:	0ff67613          	andi	a2,a2,255
    961a:	00c780a3          	sb	a2,1(a5)
C:/Repository/RISKYKVM/firmware/src/User/USB_Host/app_km.c:1650 (discriminator 3)
                            if( HostCtl[ index ].ErrorCount >= 10 )
    961e:	f8c5f2e3          	bgeu	a1,a2,95a2 <USBH_MainDeal+0x294>
C:/Repository/RISKYKVM/firmware/src/User/USB_Host/app_km.c:1653
                                memset( &RootHubDev.bStatus, 0, sizeof( struct _ROOT_HUB_DEVICE ) );
    9622:	467d                	li	a2,31
    9624:	4581                	li	a1,0
    9626:	640b8513          	addi	a0,s7,1600
    962a:	b17fe0ef          	jal	ra,8140 <memset>
C:/Repository/RISKYKVM/firmware/src/User/USB_Host/app_km.c:1654
                                s = USBH_EnumRootDevice( );
    962e:	f43fe0ef          	jal	ra,8570 <USBH_EnumRootDevice>
    9632:	8daa                	mv	s11,a0
C:/Repository/RISKYKVM/firmware/src/User/USB_Host/app_km.c:1655
                                if( s == ERR_SUCCESS )
    9634:	c515                	beqz	a0,9660 <USBH_MainDeal+0x352>
C:/Repository/RISKYKVM/firmware/src/User/USB_Host/app_km.c:1675
                                else if( s != ERR_USB_DISCON )
    9636:	0f9d8763          	beq	s11,s9,9724 <USBH_MainDeal+0x416>
C:/Repository/RISKYKVM/firmware/src/User/USB_Host/app_km.c:1677
                                    RootHubDev.bStatus = ROOT_DEV_FAILED;
    963a:	4709                	li	a4,2
    963c:	64eb8023          	sb	a4,1600(s7)
C:/Repository/RISKYKVM/firmware/src/User/USB_Host/app_km.c:1589
                for( in_num = 0; in_num < HostCtl[ index ].Interface[ intf_num ].InEndpNum; in_num++ )
    9640:	00aa4703          	lbu	a4,10(s4)
    9644:	f6ed63e3          	bltu	s10,a4,95aa <USBH_MainDeal+0x29c>
C:/Repository/RISKYKVM/firmware/src/User/USB_Host/app_km.c:1684
                if( s == ERR_USB_DISCON )
    9648:	47d9                	li	a5,22
    964a:	d0fd8de3          	beq	s11,a5,9364 <USBH_MainDeal+0x56>
C:/Repository/RISKYKVM/firmware/src/User/USB_Host/app_km.c:1587 (discriminator 2)
            for( intf_num = 0; intf_num < HostCtl[ index ].InterfaceNum; intf_num++ )
    964e:	4792                	lw	a5,4(sp)
    9650:	0905                	addi	s2,s2,1
    9652:	0ff97913          	andi	s2,s2,255
    9656:	0007c783          	lbu	a5,0(a5)
    965a:	f0f969e3          	bltu	s2,a5,956c <USBH_MainDeal+0x25e>
    965e:	b319                	j	9364 <USBH_MainDeal+0x56>
C:/Repository/RISKYKVM/firmware/src/User/USB_Host/app_km.c:1657
                                    USBFSH_ClearEndpStall( RootHubDev.bEp0MaxPks, HostCtl[ index ].Interface[ intf_num ].InEndpAddr[ in_num ] | 0x80 );
    9660:	00bc4583          	lbu	a1,11(s8)
    9664:	004b4503          	lbu	a0,4(s6)
    9668:	0805e593          	ori	a1,a1,128
    966c:	6d3000ef          	jal	ra,a53e <USBFSH_ClearEndpStall>
C:/Repository/RISKYKVM/firmware/src/User/USB_Host/app_km.c:1658
                                    HostCtl[ index ].ErrorCount = 0x00;
    9670:	4792                	lw	a5,4(sp)
C:/Repository/RISKYKVM/firmware/src/User/USB_Host/app_km.c:1663
                                    memset( &HostCtl[ index ].InterfaceNum, 0, sizeof( struct __HOST_CTL ) );
    9672:	4572                	lw	a0,28(sp)
C:/Repository/RISKYKVM/firmware/src/User/USB_Host/app_km.c:1660
                                    RootHubDev.bStatus = ROOT_DEV_CONNECTED;
    9674:	4705                	li	a4,1
C:/Repository/RISKYKVM/firmware/src/User/USB_Host/app_km.c:1663
                                    memset( &HostCtl[ index ].InterfaceNum, 0, sizeof( struct __HOST_CTL ) );
    9676:	44400613          	li	a2,1092
    967a:	4581                	li	a1,0
C:/Repository/RISKYKVM/firmware/src/User/USB_Host/app_km.c:1658
                                    HostCtl[ index ].ErrorCount = 0x00;
    967c:	000780a3          	sb	zero,1(a5)
C:/Repository/RISKYKVM/firmware/src/User/USB_Host/app_km.c:1660
                                    RootHubDev.bStatus = ROOT_DEV_CONNECTED;
    9680:	64eb8023          	sb	a4,1600(s7)
C:/Repository/RISKYKVM/firmware/src/User/USB_Host/app_km.c:1661
                                    RootHubDev.DeviceIndex = DEF_USBFS_PORT_INDEX * DEF_ONE_USB_SUP_DEV_TOTAL;
    9684:	000b02a3          	sb	zero,5(s6)
C:/Repository/RISKYKVM/firmware/src/User/USB_Host/app_km.c:1663
                                    memset( &HostCtl[ index ].InterfaceNum, 0, sizeof( struct __HOST_CTL ) );
    9688:	ab9fe0ef          	jal	ra,8140 <memset>
C:/Repository/RISKYKVM/firmware/src/User/USB_Host/app_km.c:1664
                                    s = USBH_EnumHidDevice( index, RootHubDev.bEp0MaxPks );
    968c:	004b4583          	lbu	a1,4(s6)
    9690:	4562                	lw	a0,24(sp)
    9692:	cc4ff0ef          	jal	ra,8b56 <USBH_EnumHidDevice>
    9696:	8daa                	mv	s11,a0
C:/Repository/RISKYKVM/firmware/src/User/USB_Host/app_km.c:1665
                                    if( s == ERR_SUCCESS )
    9698:	fd59                	bnez	a0,9636 <USBH_MainDeal+0x328>
C:/Repository/RISKYKVM/firmware/src/User/USB_Host/app_km.c:1667
                                        RootHubDev.bStatus = ROOT_DEV_SUCCESS; 
    969a:	470d                	li	a4,3
C:/Repository/RISKYKVM/firmware/src/User/USB_Host/app_km.c:1668
                                        GPIO_WriteBit(LED_GPIO_Port,LED_Pin, Bit_RESET);
    969c:	4601                	li	a2,0
    969e:	6591                	lui	a1,0x4
    96a0:	40011537          	lui	a0,0x40011
C:/Repository/RISKYKVM/firmware/src/User/USB_Host/app_km.c:1667
                                        RootHubDev.bStatus = ROOT_DEV_SUCCESS; 
    96a4:	64eb8023          	sb	a4,1600(s7)
C:/Repository/RISKYKVM/firmware/src/User/USB_Host/app_km.c:1668
                                        GPIO_WriteBit(LED_GPIO_Port,LED_Pin, Bit_RESET);
    96a8:	6b1030ef          	jal	ra,d558 <GPIO_WriteBit>
    96ac:	bddd                	j	95a2 <USBH_MainDeal+0x294>
C:/Repository/RISKYKVM/firmware/src/User/USB_Host/app_km.c:1603
                        	HostCtl[ index ].Interface[ intf_num ].HidRptLen = len;
    96ae:	02a15703          	lhu	a4,42(sp)
C:/Repository/RISKYKVM/firmware/src/User/USB_Host/app_km.c:1604
                        	FifoWrite(&HostCtl[ index ].Interface[ intf_num ].buffer, &Com_Buf, len);
    96b2:	66098593          	addi	a1,s3,1632
    96b6:	8556                	mv	a0,s5
    96b8:	863a                	mv	a2,a4
C:/Repository/RISKYKVM/firmware/src/User/USB_Host/app_km.c:1603
                        	HostCtl[ index ].Interface[ intf_num ].HidRptLen = len;
    96ba:	10ea0823          	sb	a4,272(s4)
C:/Repository/RISKYKVM/firmware/src/User/USB_Host/app_km.c:1604
                        	FifoWrite(&HostCtl[ index ].Interface[ intf_num ].buffer, &Com_Buf, len);
    96be:	6b4030ef          	jal	ra,cd72 <FifoWrite>
C:/Repository/RISKYKVM/firmware/src/User/USB_Host/app_km.c:1625
                            if( HostCtl[ index ].Interface[ intf_num ].Type == DEC_KEY )
    96c2:	004a4683          	lbu	a3,4(s4)
    96c6:	4705                	li	a4,1
    96c8:	ece69de3          	bne	a3,a4,95a2 <USBH_MainDeal+0x294>
C:/Repository/RISKYKVM/firmware/src/User/USB_Host/app_km.c:1627
                                KB_AnalyzeKeyValue( index, intf_num, Com_Buf, len );
    96cc:	02a15683          	lhu	a3,42(sp)
    96d0:	4562                	lw	a0,24(sp)
    96d2:	66098613          	addi	a2,s3,1632
    96d6:	85ca                	mv	a1,s2
    96d8:	3e1d                	jal	920e <KB_AnalyzeKeyValue>
C:/Repository/RISKYKVM/firmware/src/User/USB_Host/app_km.c:1629
                                if( HostCtl[ index ].Interface[ intf_num ].SetReport_Flag )
    96da:	044a4703          	lbu	a4,68(s4)
    96de:	ec0702e3          	beqz	a4,95a2 <USBH_MainDeal+0x294>
KB_SetReport():
C:/Repository/RISKYKVM/firmware/src/User/USB_Host/app_km.c:1439
    if( HostCtl[ index ].Interface[ intf_num ].IDFlag )
    96e2:	03ea4603          	lbu	a2,62(s4)
USBH_MainDeal():
C:/Repository/RISKYKVM/firmware/src/User/USB_Host/app_km.c:1631
                                    KB_SetReport( index, RootHubDev.bEp0MaxPks, intf_num );
    96e6:	004b4503          	lbu	a0,4(s6)
KB_SetReport():
C:/Repository/RISKYKVM/firmware/src/User/USB_Host/app_km.c:1439
    if( HostCtl[ index ].Interface[ intf_num ].IDFlag )
    96ea:	043a4703          	lbu	a4,67(s4)
C:/Repository/RISKYKVM/firmware/src/User/USB_Host/app_km.c:1448
        len = 1;
    96ee:	4685                	li	a3,1
C:/Repository/RISKYKVM/firmware/src/User/USB_Host/app_km.c:1439
    if( HostCtl[ index ].Interface[ intf_num ].IDFlag )
    96f0:	c611                	beqz	a2,96fc <USBH_MainDeal+0x3ee>
C:/Repository/RISKYKVM/firmware/src/User/USB_Host/app_km.c:1442
        dat[ 1 ] = HostCtl[ index ].Interface[ intf_num ].SetReport_Value;
    96f2:	02e104a3          	sb	a4,41(sp)
C:/Repository/RISKYKVM/firmware/src/User/USB_Host/app_km.c:1441
        dat[ 0 ] = HostCtl[ index ].Interface[ intf_num ].ReportID;
    96f6:	03fa4703          	lbu	a4,63(s4)
C:/Repository/RISKYKVM/firmware/src/User/USB_Host/app_km.c:1443
        len = 2;
    96fa:	4689                	li	a3,2
C:/Repository/RISKYKVM/firmware/src/User/USB_Host/app_km.c:1451
    if( HostCtl[ index ].Interface[ intf_num ].SetReport_Swi == 1 ) // Perform lighting operation through endpoint0
    96fc:	042a4603          	lbu	a2,66(s4)
    9700:	02e10423          	sb	a4,40(sp)
    9704:	02d11623          	sh	a3,44(sp)
    9708:	4705                	li	a4,1
    970a:	0ee60a63          	beq	a2,a4,97fe <USBH_MainDeal+0x4f0>
C:/Repository/RISKYKVM/firmware/src/User/USB_Host/app_km.c:1456
    else if( HostCtl[ index ].Interface[ intf_num ].SetReport_Swi == 0xFF )  // Perform lighting operation through other endpoint
    970e:	0ff00713          	li	a4,255
    9712:	e8e618e3          	bne	a2,a4,95a2 <USBH_MainDeal+0x294>
C:/Repository/RISKYKVM/firmware/src/User/USB_Host/app_km.c:1458
        s = USBFSH_SendEndpData( HostCtl[ index ].Interface[ intf_num ].OutEndpAddr[ 0 ],
    9716:	029a4503          	lbu	a0,41(s4)
    971a:	45d2                	lw	a1,20(sp)
    971c:	1030                	addi	a2,sp,40
    971e:	729000ef          	jal	ra,a646 <USBFSH_SendEndpData>
C:/Repository/RISKYKVM/firmware/src/User/USB_Host/app_km.c:1462
    return s;
    9722:	b541                	j	95a2 <USBH_MainDeal+0x294>
USBH_MainDeal():
C:/Repository/RISKYKVM/firmware/src/User/USB_Host/app_km.c:1589
                for( in_num = 0; in_num < HostCtl[ index ].Interface[ intf_num ].InEndpNum; in_num++ )
    9724:	00aa4703          	lbu	a4,10(s4)
    9728:	c2ed7ee3          	bgeu	s10,a4,9364 <USBH_MainDeal+0x56>
    972c:	4dd9                	li	s11,22
    972e:	bdb5                	j	95aa <USBH_MainDeal+0x29c>
C:/Repository/RISKYKVM/firmware/src/User/USB_Host/app_km.c:1836
                                    	HostCtl[ index ].Interface[ intf_num ].HidRptLen = len;
    9730:	02a15703          	lhu	a4,42(sp)
C:/Repository/RISKYKVM/firmware/src/User/USB_Host/app_km.c:1837
                                    	FifoWrite(&HostCtl[ index ].Interface[ intf_num ].buffer, &Com_Buf, len);
    9734:	660a8593          	addi	a1,s5,1632
    9738:	8562                	mv	a0,s8
    973a:	863a                	mv	a2,a4
C:/Repository/RISKYKVM/firmware/src/User/USB_Host/app_km.c:1836
                                    	HostCtl[ index ].Interface[ intf_num ].HidRptLen = len;
    973c:	10eb8823          	sb	a4,272(s7)
C:/Repository/RISKYKVM/firmware/src/User/USB_Host/app_km.c:1837
                                    	FifoWrite(&HostCtl[ index ].Interface[ intf_num ].buffer, &Com_Buf, len);
    9740:	632030ef          	jal	ra,cd72 <FifoWrite>
C:/Repository/RISKYKVM/firmware/src/User/USB_Host/app_km.c:1853
                                       if( HostCtl[ index ].Interface[ intf_num ].Type == DEC_KEY )
    9744:	004bc683          	lbu	a3,4(s7)
    9748:	4705                	li	a4,1
    974a:	dae69ce3          	bne	a3,a4,9502 <USBH_MainDeal+0x1f4>
C:/Repository/RISKYKVM/firmware/src/User/USB_Host/app_km.c:1855
                                           KB_AnalyzeKeyValue( index, intf_num, Com_Buf, len );
    974e:	02a15683          	lhu	a3,42(sp)
    9752:	4542                	lw	a0,16(sp)
    9754:	660a8613          	addi	a2,s5,1632
    9758:	85d2                	mv	a1,s4
    975a:	3c55                	jal	920e <KB_AnalyzeKeyValue>
C:/Repository/RISKYKVM/firmware/src/User/USB_Host/app_km.c:1857
                                           if( HostCtl[ index ].Interface[ intf_num ].SetReport_Flag )
    975c:	044bc703          	lbu	a4,68(s7)
    9760:	da0701e3          	beqz	a4,9502 <USBH_MainDeal+0x1f4>
KB_SetReport():
C:/Repository/RISKYKVM/firmware/src/User/USB_Host/app_km.c:1439
    if( HostCtl[ index ].Interface[ intf_num ].IDFlag )
    9764:	03ebc603          	lbu	a2,62(s7)
USBH_MainDeal():
C:/Repository/RISKYKVM/firmware/src/User/USB_Host/app_km.c:1859
                                               KB_SetReport( index, RootHubDev.Device[ hub_port ].bEp0MaxPks, intf_num );
    9768:	00b44503          	lbu	a0,11(s0)
KB_SetReport():
C:/Repository/RISKYKVM/firmware/src/User/USB_Host/app_km.c:1439
    if( HostCtl[ index ].Interface[ intf_num ].IDFlag )
    976c:	043bc703          	lbu	a4,67(s7)
C:/Repository/RISKYKVM/firmware/src/User/USB_Host/app_km.c:1448
        len = 1;
    9770:	4685                	li	a3,1
C:/Repository/RISKYKVM/firmware/src/User/USB_Host/app_km.c:1439
    if( HostCtl[ index ].Interface[ intf_num ].IDFlag )
    9772:	c611                	beqz	a2,977e <USBH_MainDeal+0x470>
C:/Repository/RISKYKVM/firmware/src/User/USB_Host/app_km.c:1442
        dat[ 1 ] = HostCtl[ index ].Interface[ intf_num ].SetReport_Value;
    9774:	02e104a3          	sb	a4,41(sp)
C:/Repository/RISKYKVM/firmware/src/User/USB_Host/app_km.c:1441
        dat[ 0 ] = HostCtl[ index ].Interface[ intf_num ].ReportID;
    9778:	03fbc703          	lbu	a4,63(s7)
C:/Repository/RISKYKVM/firmware/src/User/USB_Host/app_km.c:1443
        len = 2;
    977c:	4689                	li	a3,2
C:/Repository/RISKYKVM/firmware/src/User/USB_Host/app_km.c:1451
    if( HostCtl[ index ].Interface[ intf_num ].SetReport_Swi == 1 ) // Perform lighting operation through endpoint0
    977e:	042bc603          	lbu	a2,66(s7)
    9782:	02e10423          	sb	a4,40(sp)
    9786:	02d11623          	sh	a3,44(sp)
    978a:	4705                	li	a4,1
    978c:	24e60f63          	beq	a2,a4,99ea <USBH_MainDeal+0x6dc>
C:/Repository/RISKYKVM/firmware/src/User/USB_Host/app_km.c:1456
    else if( HostCtl[ index ].Interface[ intf_num ].SetReport_Swi == 0xFF )  // Perform lighting operation through other endpoint
    9790:	0ff00713          	li	a4,255
    9794:	d6e617e3          	bne	a2,a4,9502 <USBH_MainDeal+0x1f4>
C:/Repository/RISKYKVM/firmware/src/User/USB_Host/app_km.c:1458
        s = USBFSH_SendEndpData( HostCtl[ index ].Interface[ intf_num ].OutEndpAddr[ 0 ],
    9798:	45b2                	lw	a1,12(sp)
    979a:	029bc503          	lbu	a0,41(s7)
    979e:	1030                	addi	a2,sp,40
    97a0:	6a7000ef          	jal	ra,a646 <USBFSH_SendEndpData>
C:/Repository/RISKYKVM/firmware/src/User/USB_Host/app_km.c:1462
    return s;
    97a4:	00abc583          	lbu	a1,10(s7)
    97a8:	bbb9                	j	9506 <USBH_MainDeal+0x1f8>
USBH_MainDeal():
C:/Repository/RISKYKVM/firmware/src/User/USB_Host/app_km.c:1501 (discriminator 3)
                s = USBH_EnumHidDevice( RootHubDev.DeviceIndex, RootHubDev.bEp0MaxPks );
    97aa:	00444583          	lbu	a1,4(s0)
    97ae:	00544503          	lbu	a0,5(s0)
    97b2:	ba4ff0ef          	jal	ra,8b56 <USBH_EnumHidDevice>
C:/Repository/RISKYKVM/firmware/src/User/USB_Host/app_km.c:1503 (discriminator 3)
                if( s == ERR_SUCCESS )
    97b6:	22050063          	beqz	a0,99d6 <USBH_MainDeal+0x6c8>
C:/Repository/RISKYKVM/firmware/src/User/USB_Host/app_km.c:1511
                else if( s != ERR_USB_DISCON )
    97ba:	47d9                	li	a5,22
    97bc:	d6f51ce3          	bne	a0,a5,9534 <USBH_MainDeal+0x226>
C:/Repository/RISKYKVM/firmware/src/User/USB_Host/app_km.c:1474
{
    97c0:	4dd9                	li	s11,22
    97c2:	bebd                	j	9340 <USBH_MainDeal+0x32>
C:/Repository/RISKYKVM/firmware/src/User/USB_Host/app_km.c:1695
               HostCtl[ index ].Interface[ 0 ].InEndpTimeCount[ 0 ] %= HostCtl[ index ].Interface[ 0 ].InEndpInterval[ 0 ];
    97c4:	02e7f7b3          	remu	a5,a5,a4
C:/Repository/RISKYKVM/firmware/src/User/USB_Host/app_km.c:1698
               USBFSH_SetSelfAddr( RootHubDev.bAddress );
    97c8:	002b4503          	lbu	a0,2(s6)
C:/Repository/RISKYKVM/firmware/src/User/USB_Host/app_km.c:1702
               s = USBFSH_GetEndpData( HostCtl[ index ].Interface[ 0 ].InEndpAddr[ 0 ], &HostCtl[ index ].Interface[ 0 ].InEndpTog[ 0 ], Com_Buf, &len );
    97cc:	20001ab7          	lui	s5,0x20001
C:/Repository/RISKYKVM/firmware/src/User/USB_Host/app_km.c:1695
               HostCtl[ index ].Interface[ 0 ].InEndpTimeCount[ 0 ] %= HostCtl[ index ].Interface[ 0 ].InEndpInterval[ 0 ];
    97d0:	02f90223          	sb	a5,36(s2)
C:/Repository/RISKYKVM/firmware/src/User/USB_Host/app_km.c:1698
               USBFSH_SetSelfAddr( RootHubDev.bAddress );
    97d4:	2eb5                	jal	9b50 <USBFSH_SetSelfAddr>
C:/Repository/RISKYKVM/firmware/src/User/USB_Host/app_km.c:1699
               USBFSH_SetSelfSpeed( RootHubDev.bSpeed );
    97d6:	003b4503          	lbu	a0,3(s6)
    97da:	2679                	jal	9b68 <USBFSH_SetSelfSpeed>
C:/Repository/RISKYKVM/firmware/src/User/USB_Host/app_km.c:1702
               s = USBFSH_GetEndpData( HostCtl[ index ].Interface[ 0 ].InEndpAddr[ 0 ], &HostCtl[ index ].Interface[ 0 ].InEndpTog[ 0 ], Com_Buf, &len );
    97dc:	00b94503          	lbu	a0,11(s2)
    97e0:	01c40593          	addi	a1,s0,28
    97e4:	02a10693          	addi	a3,sp,42
    97e8:	660a8613          	addi	a2,s5,1632 # 20001660 <Com_Buf>
    97ec:	95a6                	add	a1,a1,s1
    97ee:	5eb000ef          	jal	ra,a5d8 <USBFSH_GetEndpData>
    97f2:	8d2a                	mv	s10,a0
C:/Repository/RISKYKVM/firmware/src/User/USB_Host/app_km.c:1703
               if( s == ERR_SUCCESS )
    97f4:	c919                	beqz	a0,980a <USBH_MainDeal+0x4fc>
    97f6:	006b4683          	lbu	a3,6(s6)
    97fa:	8daa                	mv	s11,a0
    97fc:	b911                	j	9410 <USBH_MainDeal+0x102>
KB_SetReport():
C:/Repository/RISKYKVM/firmware/src/User/USB_Host/app_km.c:1454
        s = HID_SetReport( ep0_size, intf_num, dat, &len );
    97fe:	1074                	addi	a3,sp,44
    9800:	1030                	addi	a2,sp,40
    9802:	85ca                	mv	a1,s2
    9804:	7e4010ef          	jal	ra,afe8 <HID_SetReport>
    9808:	bb69                	j	95a2 <USBH_MainDeal+0x294>
USBH_MainDeal():
C:/Repository/RISKYKVM/firmware/src/User/USB_Host/app_km.c:1705
                   hub_dat = Com_Buf[ 0 ];
    980a:	660ac703          	lbu	a4,1632(s5)
C:/Repository/RISKYKVM/firmware/src/User/USB_Host/app_km.c:1708
                   for( hub_port = 0; hub_port < RootHubDev.bPortNum; hub_port++ )
    980e:	006b4783          	lbu	a5,6(s6)
C:/Repository/RISKYKVM/firmware/src/User/USB_Host/app_km.c:1705
                   hub_dat = Com_Buf[ 0 ];
    9812:	02e103a3          	sb	a4,39(sp)
C:/Repository/RISKYKVM/firmware/src/User/USB_Host/app_km.c:1708
                   for( hub_port = 0; hub_port < RootHubDev.bPortNum; hub_port++ )
    9816:	b40787e3          	beqz	a5,9364 <USBH_MainDeal+0x56>
C:/Repository/RISKYKVM/firmware/src/User/USB_Host/app_km.c:1725
                       if( s == ERR_USB_CONNECT )
    981a:	49d5                	li	s3,21
C:/Repository/RISKYKVM/firmware/src/User/USB_Host/app_km.c:1758
                               if( RootHubDev.Device[ hub_port ].bType == USB_DEV_CLASS_HID )
    981c:	4b8d                	li	s7,3
C:/Repository/RISKYKVM/firmware/src/User/USB_Host/app_km.c:1749
                               USBOTG_H_FS->HOST_CTRL &= ~USBFS_UH_LOW_SPEED;
    981e:	50000c37          	lui	s8,0x50000
HUB_Port_PreEnum1():
C:/Repository/RISKYKVM/firmware/src/User/USB_Host/app_km.c:1123
                }while( ( buf[ 2 ] & 0x01 ) && ( retry < 10 ) );
    9822:	4a29                	li	s4,10
C:/Repository/RISKYKVM/firmware/src/User/USB_Host/app_km.c:1094
    if( ( *pbuf ) & ( 1 << hub_port ) )
    9824:	02714783          	lbu	a5,39(sp)
USBH_MainDeal():
C:/Repository/RISKYKVM/firmware/src/User/USB_Host/app_km.c:1711
                       s = HUB_Port_PreEnum1( ( hub_port + 1 ), &hub_dat );
    9828:	001d0413          	addi	s0,s10,1
    982c:	0ff47913          	andi	s2,s0,255
HUB_Port_PreEnum1():
C:/Repository/RISKYKVM/firmware/src/User/USB_Host/app_km.c:1094
    if( ( *pbuf ) & ( 1 << hub_port ) )
    9830:	4127d7b3          	sra	a5,a5,s2
    9834:	8b85                	andi	a5,a5,1
    9836:	cba9                	beqz	a5,9888 <USBH_MainDeal+0x57a>
C:/Repository/RISKYKVM/firmware/src/User/USB_Host/app_km.c:1096
        s = HUB_GetPortStatus( RootHubDev.bEp0MaxPks, hub_port, &buf[ 0 ] );
    9838:	004b4503          	lbu	a0,4(s6)
    983c:	1070                	addi	a2,sp,44
    983e:	85ca                	mv	a1,s2
    9840:	001010ef          	jal	ra,b040 <HUB_GetPortStatus>
    9844:	8daa                	mv	s11,a0
C:/Repository/RISKYKVM/firmware/src/User/USB_Host/app_km.c:1097
        if( s != ERR_SUCCESS )
    9846:	12051463          	bnez	a0,996e <USBH_MainDeal+0x660>
C:/Repository/RISKYKVM/firmware/src/User/USB_Host/app_km.c:1104
            if( buf[ 2 ] & 0x01 )
    984a:	02e14783          	lbu	a5,46(sp)
    984e:	8b85                	andi	a5,a5,1
    9850:	cf85                	beqz	a5,9888 <USBH_MainDeal+0x57a>
C:/Repository/RISKYKVM/firmware/src/User/USB_Host/app_km.c:1106
                s = HUB_ClearPortFeature( RootHubDev.bEp0MaxPks, hub_port, HUB_C_PORT_CONNECTION );
    9852:	004b4503          	lbu	a0,4(s6)
    9856:	4641                	li	a2,16
    9858:	85ca                	mv	a1,s2
    985a:	01b010ef          	jal	ra,b074 <HUB_ClearPortFeature>
    985e:	8daa                	mv	s11,a0
C:/Repository/RISKYKVM/firmware/src/User/USB_Host/app_km.c:1107
                if( s != ERR_SUCCESS )
    9860:	10051763          	bnez	a0,996e <USBH_MainDeal+0x660>
C:/Repository/RISKYKVM/firmware/src/User/USB_Host/app_km.c:1116
                    s = HUB_GetPortStatus( RootHubDev.bEp0MaxPks, hub_port, &buf[ 0 ] );
    9864:	004b4503          	lbu	a0,4(s6)
    9868:	1070                	addi	a2,sp,44
    986a:	85ca                	mv	a1,s2
    986c:	7d4010ef          	jal	ra,b040 <HUB_GetPortStatus>
C:/Repository/RISKYKVM/firmware/src/User/USB_Host/app_km.c:1122
                    retry++;
    9870:	0d85                	addi	s11,s11,1
C:/Repository/RISKYKVM/firmware/src/User/USB_Host/app_km.c:1117
                    if( s != ERR_SUCCESS )
    9872:	0e051d63          	bnez	a0,996c <USBH_MainDeal+0x65e>
C:/Repository/RISKYKVM/firmware/src/User/USB_Host/app_km.c:1123
                }while( ( buf[ 2 ] & 0x01 ) && ( retry < 10 ) );
    9876:	02e14783          	lbu	a5,46(sp)
C:/Repository/RISKYKVM/firmware/src/User/USB_Host/app_km.c:1122
                    retry++;
    987a:	0ffdfd93          	andi	s11,s11,255
C:/Repository/RISKYKVM/firmware/src/User/USB_Host/app_km.c:1123
                }while( ( buf[ 2 ] & 0x01 ) && ( retry < 10 ) );
    987e:	8b85                	andi	a5,a5,1
    9880:	16078d63          	beqz	a5,99fa <USBH_MainDeal+0x6ec>
    9884:	ff4d90e3          	bne	s11,s4,9864 <USBH_MainDeal+0x556>
USBH_MainDeal():
C:/Repository/RISKYKVM/firmware/src/User/USB_Host/app_km.c:1723
                       Delay_Ms( 100 );
    9888:	06400513          	li	a0,100
    988c:	7e1030ef          	jal	ra,d86c <Delay_Ms>
C:/Repository/RISKYKVM/firmware/src/User/USB_Host/app_km.c:1724
                       s = HUB_Port_PreEnum2( ( hub_port + 1 ), &hub_dat );
    9890:	02710593          	addi	a1,sp,39
    9894:	854a                	mv	a0,s2
    9896:	f62ff0ef          	jal	ra,8ff8 <HUB_Port_PreEnum2>
    989a:	8daa                	mv	s11,a0
C:/Repository/RISKYKVM/firmware/src/User/USB_Host/app_km.c:1728
                           RootHubDev.Device[ hub_port ].bStatus = ROOT_DEV_CONNECTED;
    989c:	001d1c93          	slli	s9,s10,0x1
C:/Repository/RISKYKVM/firmware/src/User/USB_Host/app_km.c:1725
                       if( s == ERR_USB_CONNECT )
    98a0:	03350a63          	beq	a0,s3,98d4 <USBH_MainDeal+0x5c6>
C:/Repository/RISKYKVM/firmware/src/User/USB_Host/app_km.c:1738
                       if( RootHubDev.Device[ hub_port ].bStatus == ROOT_DEV_CONNECTED )
    98a4:	01ac8733          	add	a4,s9,s10
C:/Repository/RISKYKVM/firmware/src/User/USB_Host/app_km.c:1734
                           hub_dat &= ~( 1 << ( hub_port + 1 ) );
    98a8:	02714603          	lbu	a2,39(sp)
    98ac:	4685                	li	a3,1
C:/Repository/RISKYKVM/firmware/src/User/USB_Host/app_km.c:1738
                       if( RootHubDev.Device[ hub_port ].bStatus == ROOT_DEV_CONNECTED )
    98ae:	0706                	slli	a4,a4,0x1
C:/Repository/RISKYKVM/firmware/src/User/USB_Host/app_km.c:1734
                           hub_dat &= ~( 1 << ( hub_port + 1 ) );
    98b0:	008697b3          	sll	a5,a3,s0
C:/Repository/RISKYKVM/firmware/src/User/USB_Host/app_km.c:1738
                       if( RootHubDev.Device[ hub_port ].bStatus == ROOT_DEV_CONNECTED )
    98b4:	975a                	add	a4,a4,s6
C:/Repository/RISKYKVM/firmware/src/User/USB_Host/app_km.c:1734
                           hub_dat &= ~( 1 << ( hub_port + 1 ) );
    98b6:	fff7c793          	not	a5,a5
C:/Repository/RISKYKVM/firmware/src/User/USB_Host/app_km.c:1738
                       if( RootHubDev.Device[ hub_port ].bStatus == ROOT_DEV_CONNECTED )
    98ba:	00774703          	lbu	a4,7(a4)
C:/Repository/RISKYKVM/firmware/src/User/USB_Host/app_km.c:1734
                           hub_dat &= ~( 1 << ( hub_port + 1 ) );
    98be:	8ff1                	and	a5,a5,a2
    98c0:	02f103a3          	sb	a5,39(sp)
C:/Repository/RISKYKVM/firmware/src/User/USB_Host/app_km.c:1738
                       if( RootHubDev.Device[ hub_port ].bStatus == ROOT_DEV_CONNECTED )
    98c4:	02d70463          	beq	a4,a3,98ec <USBH_MainDeal+0x5de>
C:/Repository/RISKYKVM/firmware/src/User/USB_Host/app_km.c:1708 (discriminator 1)
                   for( hub_port = 0; hub_port < RootHubDev.bPortNum; hub_port++ )
    98c8:	006b4683          	lbu	a3,6(s6)
    98cc:	8d4a                	mv	s10,s2
    98ce:	f4d96be3          	bltu	s2,a3,9824 <USBH_MainDeal+0x516>
    98d2:	be3d                	j	9410 <USBH_MainDeal+0x102>
C:/Repository/RISKYKVM/firmware/src/User/USB_Host/app_km.c:1728
                           RootHubDev.Device[ hub_port ].bStatus = ROOT_DEV_CONNECTED;
    98d4:	01ac87b3          	add	a5,s9,s10
    98d8:	0786                	slli	a5,a5,0x1
    98da:	97da                	add	a5,a5,s6
    98dc:	4705                	li	a4,1
    98de:	00e783a3          	sb	a4,7(a5)
C:/Repository/RISKYKVM/firmware/src/User/USB_Host/app_km.c:1729
                           RootHubDev.Device[ hub_port ].bEp0MaxPks = DEFAULT_ENDP0_SIZE;
    98e2:	4721                	li	a4,8
    98e4:	00e785a3          	sb	a4,11(a5)
C:/Repository/RISKYKVM/firmware/src/User/USB_Host/app_km.c:1730
                           RootHubDev.Device[ hub_port ].DeviceIndex = DEF_USBFS_PORT_INDEX * DEF_ONE_USB_SUP_DEV_TOTAL + hub_port + 1;
    98e8:	01278623          	sb	s2,12(a5)
HUB_CheckPortSpeed():
C:/Repository/RISKYKVM/firmware/src/User/USB_Host/app_km.c:1219
    s = HUB_GetPortStatus( RootHubDev.bEp0MaxPks, hub_port, pbuf );
    98ec:	004b4503          	lbu	a0,4(s6)
    98f0:	660a8613          	addi	a2,s5,1632
    98f4:	85ca                	mv	a1,s2
    98f6:	74a010ef          	jal	ra,b040 <HUB_GetPortStatus>
    98fa:	87aa                	mv	a5,a0
C:/Repository/RISKYKVM/firmware/src/User/USB_Host/app_km.c:1220
    if( s )
    98fc:	ed09                	bnez	a0,9916 <USBH_MainDeal+0x608>
C:/Repository/RISKYKVM/firmware/src/User/USB_Host/app_km.c:1225
    if( pbuf[ 1 ] & 0x02 )
    98fe:	660a8713          	addi	a4,s5,1632
    9902:	00174703          	lbu	a4,1(a4)
    9906:	00277693          	andi	a3,a4,2
    990a:	e691                	bnez	a3,9916 <USBH_MainDeal+0x608>
C:/Repository/RISKYKVM/firmware/src/User/USB_Host/app_km.c:1231
        if( pbuf[ 1 ] & 0x04 )
    990c:	00477793          	andi	a5,a4,4
C:/Repository/RISKYKVM/firmware/src/User/USB_Host/app_km.c:1237
            return USB_FULL_SPEED;
    9910:	00f037b3          	snez	a5,a5
    9914:	0785                	addi	a5,a5,1
USBH_MainDeal():
C:/Repository/RISKYKVM/firmware/src/User/USB_Host/app_km.c:1741
                           RootHubDev.Device[ hub_port ].bSpeed = HUB_CheckPortSpeed( ( hub_port + 1 ), Com_Buf );
    9916:	01ac8433          	add	s0,s9,s10
    991a:	0406                	slli	s0,s0,0x1
    991c:	945a                	add	s0,s0,s6
C:/Repository/RISKYKVM/firmware/src/User/USB_Host/app_km.c:1745
                           USBFSH_SetSelfAddr( RootHubDev.Device[ hub_port ].bAddress );
    991e:	00944503          	lbu	a0,9(s0)
C:/Repository/RISKYKVM/firmware/src/User/USB_Host/app_km.c:1741
                           RootHubDev.Device[ hub_port ].bSpeed = HUB_CheckPortSpeed( ( hub_port + 1 ), Com_Buf );
    9922:	00f40523          	sb	a5,10(s0)
C:/Repository/RISKYKVM/firmware/src/User/USB_Host/app_km.c:1745
                           USBFSH_SetSelfAddr( RootHubDev.Device[ hub_port ].bAddress );
    9926:	242d                	jal	9b50 <USBFSH_SetSelfAddr>
C:/Repository/RISKYKVM/firmware/src/User/USB_Host/app_km.c:1746
                           USBFSH_SetSelfSpeed( RootHubDev.Device[ hub_port ].bSpeed );
    9928:	00a44503          	lbu	a0,10(s0)
    992c:	2c35                	jal	9b68 <USBFSH_SetSelfSpeed>
C:/Repository/RISKYKVM/firmware/src/User/USB_Host/app_km.c:1747
                           if( RootHubDev.bSpeed != USB_LOW_SPEED )
    992e:	003b4783          	lbu	a5,3(s6)
    9932:	c799                	beqz	a5,9940 <USBH_MainDeal+0x632>
C:/Repository/RISKYKVM/firmware/src/User/USB_Host/app_km.c:1749
                               USBOTG_H_FS->HOST_CTRL &= ~USBFS_UH_LOW_SPEED;
    9934:	001c4783          	lbu	a5,1(s8) # 50000001 <_eusrstack+0x2fffb001>
    9938:	0fb7f793          	andi	a5,a5,251
    993c:	00fc00a3          	sb	a5,1(s8)
C:/Repository/RISKYKVM/firmware/src/User/USB_Host/app_km.c:1754 (discriminator 3)
                           s = USBH_EnumHubPortDevice( hub_port, &RootHubDev.Device[ hub_port ].bAddress, \
    9940:	01ac8433          	add	s0,s9,s10
    9944:	0406                	slli	s0,s0,0x1
    9946:	00840613          	addi	a2,s0,8
    994a:	00940593          	addi	a1,s0,9
    994e:	965a                	add	a2,a2,s6
    9950:	95da                	add	a1,a1,s6
    9952:	856a                	mv	a0,s10
    9954:	f68ff0ef          	jal	ra,90bc <USBH_EnumHubPortDevice>
    9958:	8daa                	mv	s11,a0
C:/Repository/RISKYKVM/firmware/src/User/USB_Host/app_km.c:1758 (discriminator 3)
                               if( RootHubDev.Device[ hub_port ].bType == USB_DEV_CLASS_HID )
    995a:	945a                	add	s0,s0,s6
C:/Repository/RISKYKVM/firmware/src/User/USB_Host/app_km.c:1756 (discriminator 3)
                           if( s == ERR_SUCCESS )
    995c:	e55d                	bnez	a0,9a0a <USBH_MainDeal+0x6fc>
C:/Repository/RISKYKVM/firmware/src/User/USB_Host/app_km.c:1758
                               if( RootHubDev.Device[ hub_port ].bType == USB_DEV_CLASS_HID )
    995e:	00844783          	lbu	a5,8(s0)
    9962:	0b778e63          	beq	a5,s7,9a1e <USBH_MainDeal+0x710>
C:/Repository/RISKYKVM/firmware/src/User/USB_Host/app_km.c:1790 (discriminator 3)
                                   RootHubDev.Device[ hub_port ].bStatus = ROOT_DEV_SUCCESS;
    9966:	017403a3          	sb	s7,7(s0)
    996a:	bfb9                	j	98c8 <USBH_MainDeal+0x5ba>
HUB_Port_PreEnum1():
C:/Repository/RISKYKVM/firmware/src/User/USB_Host/app_km.c:1116
                    s = HUB_GetPortStatus( RootHubDev.bEp0MaxPks, hub_port, &buf[ 0 ] );
    996c:	8daa                	mv	s11,a0
USBH_MainDeal():
C:/Repository/RISKYKVM/firmware/src/User/USB_Host/app_km.c:1712
                       if( s == ERR_USB_DISCON )
    996e:	47d9                	li	a5,22
    9970:	f0fd9ce3          	bne	s11,a5,9888 <USBH_MainDeal+0x57a>
C:/Repository/RISKYKVM/firmware/src/User/USB_Host/app_km.c:1717
                           memset( &HostCtl[ RootHubDev.Device[ hub_port ].DeviceIndex ], 0, sizeof( HOST_CTL ) );
    9974:	001d1793          	slli	a5,s10,0x1
    9978:	9d3e                	add	s10,s10,a5
    997a:	0d06                	slli	s10,s10,0x1
    997c:	01ab07b3          	add	a5,s6,s10
    9980:	00c7c503          	lbu	a0,12(a5)
    9984:	44400793          	li	a5,1092
C:/Repository/RISKYKVM/firmware/src/User/USB_Host/app_km.c:1714
                           hub_dat &= ~( 1 << ( hub_port + 1 ) );
    9988:	02714703          	lbu	a4,39(sp)
C:/Repository/RISKYKVM/firmware/src/User/USB_Host/app_km.c:1717
                           memset( &HostCtl[ RootHubDev.Device[ hub_port ].DeviceIndex ], 0, sizeof( HOST_CTL ) );
    998c:	02f50533          	mul	a0,a0,a5
C:/Repository/RISKYKVM/firmware/src/User/USB_Host/app_km.c:1714
                           hub_dat &= ~( 1 << ( hub_port + 1 ) );
    9990:	4785                	li	a5,1
    9992:	008797b3          	sll	a5,a5,s0
    9996:	fff7c793          	not	a5,a5
    999a:	8ff9                	and	a5,a5,a4
C:/Repository/RISKYKVM/firmware/src/User/USB_Host/app_km.c:1717
                           memset( &HostCtl[ RootHubDev.Device[ hub_port ].DeviceIndex ], 0, sizeof( HOST_CTL ) );
    999c:	44400613          	li	a2,1092
    99a0:	4581                	li	a1,0
C:/Repository/RISKYKVM/firmware/src/User/USB_Host/app_km.c:1714
                           hub_dat &= ~( 1 << ( hub_port + 1 ) );
    99a2:	02f103a3          	sb	a5,39(sp)
C:/Repository/RISKYKVM/firmware/src/User/USB_Host/app_km.c:1719
                           continue;
    99a6:	4dd9                	li	s11,22
C:/Repository/RISKYKVM/firmware/src/User/USB_Host/app_km.c:1717
                           memset( &HostCtl[ RootHubDev.Device[ hub_port ].DeviceIndex ], 0, sizeof( HOST_CTL ) );
    99a8:	9526                	add	a0,a0,s1
    99aa:	f96fe0ef          	jal	ra,8140 <memset>
C:/Repository/RISKYKVM/firmware/src/User/USB_Host/app_km.c:1718
                           memset( &RootHubDev.Device[ hub_port ].bStatus, 0, sizeof( HUB_DEVICE ) );
    99ae:	007d0793          	addi	a5,s10,7
    99b2:	97da                	add	a5,a5,s6
    99b4:	00078023          	sb	zero,0(a5)
    99b8:	000780a3          	sb	zero,1(a5)
    99bc:	00078123          	sb	zero,2(a5)
    99c0:	000781a3          	sb	zero,3(a5)
    99c4:	00078223          	sb	zero,4(a5)
    99c8:	000782a3          	sb	zero,5(a5)
C:/Repository/RISKYKVM/firmware/src/User/USB_Host/app_km.c:1719
                           continue;
    99cc:	bdf5                	j	98c8 <USBH_MainDeal+0x5ba>
C:/Repository/RISKYKVM/firmware/src/User/USB_Host/app_km.c:1522 (discriminator 3)
                s = USBH_EnumHubDevice( );
    99ce:	ceeff0ef          	jal	ra,8ebc <USBH_EnumHubDevice>
C:/Repository/RISKYKVM/firmware/src/User/USB_Host/app_km.c:1524 (discriminator 3)
                if( s == ERR_SUCCESS )
    99d2:	de0514e3          	bnez	a0,97ba <USBH_MainDeal+0x4ac>
C:/Repository/RISKYKVM/firmware/src/User/USB_Host/app_km.c:1508 (discriminator 3)
                    RootHubDev.bStatus = ROOT_DEV_SUCCESS;
    99d6:	478d                	li	a5,3
C:/Repository/RISKYKVM/firmware/src/User/USB_Host/app_km.c:1509 (discriminator 3)
                    GPIO_WriteBit(LED_GPIO_Port,LED_Pin, Bit_RESET);
    99d8:	4601                	li	a2,0
    99da:	6591                	lui	a1,0x4
    99dc:	40011537          	lui	a0,0x40011
C:/Repository/RISKYKVM/firmware/src/User/USB_Host/app_km.c:1508 (discriminator 3)
                    RootHubDev.bStatus = ROOT_DEV_SUCCESS;
    99e0:	64fb8023          	sb	a5,1600(s7)
C:/Repository/RISKYKVM/firmware/src/User/USB_Host/app_km.c:1509 (discriminator 3)
                    GPIO_WriteBit(LED_GPIO_Port,LED_Pin, Bit_RESET);
    99e4:	375030ef          	jal	ra,d558 <GPIO_WriteBit>
    99e8:	baa1                	j	9340 <USBH_MainDeal+0x32>
KB_SetReport():
C:/Repository/RISKYKVM/firmware/src/User/USB_Host/app_km.c:1454
        s = HID_SetReport( ep0_size, intf_num, dat, &len );
    99ea:	85d2                	mv	a1,s4
    99ec:	1074                	addi	a3,sp,44
    99ee:	1030                	addi	a2,sp,40
    99f0:	5f8010ef          	jal	ra,afe8 <HID_SetReport>
    99f4:	00abc583          	lbu	a1,10(s7)
    99f8:	b639                	j	9506 <USBH_MainDeal+0x1f8>
HUB_Port_PreEnum1():
C:/Repository/RISKYKVM/firmware/src/User/USB_Host/app_km.c:1125
                if( retry != 10 )
    99fa:	e94d87e3          	beq	s11,s4,9888 <USBH_MainDeal+0x57a>
C:/Repository/RISKYKVM/firmware/src/User/USB_Host/app_km.c:1127
                    if( !( buf[ 0 ] & 0x01 ) )
    99fe:	02c14783          	lbu	a5,44(sp)
    9a02:	8b85                	andi	a5,a5,1
    9a04:	e80792e3          	bnez	a5,9888 <USBH_MainDeal+0x57a>
    9a08:	b7b5                	j	9974 <USBH_MainDeal+0x666>
USBH_MainDeal():
C:/Repository/RISKYKVM/firmware/src/User/USB_Host/app_km.c:1795
                               RootHubDev.Device[ hub_port ].bStatus = ROOT_DEV_FAILED;
    9a0a:	4789                	li	a5,2
C:/Repository/RISKYKVM/firmware/src/User/USB_Host/app_km.c:1797
			       GPIO_WriteBit(LED_GPIO_Port,LED_Pin, Bit_SET);
    9a0c:	4605                	li	a2,1
    9a0e:	6591                	lui	a1,0x4
    9a10:	40011537          	lui	a0,0x40011
C:/Repository/RISKYKVM/firmware/src/User/USB_Host/app_km.c:1795
                               RootHubDev.Device[ hub_port ].bStatus = ROOT_DEV_FAILED;
    9a14:	00f403a3          	sb	a5,7(s0)
C:/Repository/RISKYKVM/firmware/src/User/USB_Host/app_km.c:1797
			       GPIO_WriteBit(LED_GPIO_Port,LED_Pin, Bit_SET);
    9a18:	341030ef          	jal	ra,d558 <GPIO_WriteBit>
    9a1c:	b575                	j	98c8 <USBH_MainDeal+0x5ba>
C:/Repository/RISKYKVM/firmware/src/User/USB_Host/app_km.c:1763 (discriminator 3)
                                   s = USBH_EnumHidDevice( RootHubDev.Device[ hub_port ].DeviceIndex, \
    9a1e:	00b44583          	lbu	a1,11(s0)
    9a22:	00c44503          	lbu	a0,12(s0)
    9a26:	930ff0ef          	jal	ra,8b56 <USBH_EnumHidDevice>
    9a2a:	8daa                	mv	s11,a0
C:/Repository/RISKYKVM/firmware/src/User/USB_Host/app_km.c:1765 (discriminator 3)
                                   if( s == ERR_SUCCESS )
    9a2c:	e8051ee3          	bnez	a0,98c8 <USBH_MainDeal+0x5ba>
C:/Repository/RISKYKVM/firmware/src/User/USB_Host/app_km.c:1768
					GPIO_WriteBit(LED_GPIO_Port,LED_Pin, Bit_RESET);                                       
    9a30:	4601                	li	a2,0
    9a32:	6591                	lui	a1,0x4
    9a34:	40011537          	lui	a0,0x40011
C:/Repository/RISKYKVM/firmware/src/User/USB_Host/app_km.c:1767
                                        RootHubDev.Device[ hub_port ].bStatus = ROOT_DEV_SUCCESS;
    9a38:	017403a3          	sb	s7,7(s0)
C:/Repository/RISKYKVM/firmware/src/User/USB_Host/app_km.c:1768
					GPIO_WriteBit(LED_GPIO_Port,LED_Pin, Bit_RESET);                                       
    9a3c:	31d030ef          	jal	ra,d558 <GPIO_WriteBit>
C:/Repository/RISKYKVM/firmware/src/User/USB_Host/app_km.c:1769
					DUG_PRINTF( "OK!\r\n" );
    9a40:	b561                	j	98c8 <USBH_MainDeal+0x5ba>

00009a42 <USBFS_RCC_Init>:
USBFS_RCC_Init():
C:/Repository/RISKYKVM/firmware/src/User/USB_Host/ch32v20x_usbfs_host.c:34
 *
 * @return  none
 */
void USBFS_RCC_Init( void )
{
    if( SystemCoreClock == 144000000 )
    9a42:	200007b7          	lui	a5,0x20000
    9a46:	0047a703          	lw	a4,4(a5) # 20000004 <SystemCoreClock>
C:/Repository/RISKYKVM/firmware/src/User/USB_Host/ch32v20x_usbfs_host.c:33
{
    9a4a:	1141                	addi	sp,sp,-16
C:/Repository/RISKYKVM/firmware/src/User/USB_Host/ch32v20x_usbfs_host.c:34
    if( SystemCoreClock == 144000000 )
    9a4c:	089547b7          	lui	a5,0x8954
C:/Repository/RISKYKVM/firmware/src/User/USB_Host/ch32v20x_usbfs_host.c:33
{
    9a50:	c606                	sw	ra,12(sp)
C:/Repository/RISKYKVM/firmware/src/User/USB_Host/ch32v20x_usbfs_host.c:34
    if( SystemCoreClock == 144000000 )
    9a52:	40078793          	addi	a5,a5,1024 # 8954400 <_data_lma+0x8946968>
    9a56:	02f70463          	beq	a4,a5,9a7e <USBFS_RCC_Init+0x3c>
C:/Repository/RISKYKVM/firmware/src/User/USB_Host/ch32v20x_usbfs_host.c:38
    {
        RCC_USBCLKConfig( RCC_USBCLKSource_PLLCLK_Div3 );
    }
    else if( SystemCoreClock == 96000000 )
    9a5a:	05b8e7b7          	lui	a5,0x5b8e
    9a5e:	80078793          	addi	a5,a5,-2048 # 5b8d800 <_data_lma+0x5b7fd68>
    9a62:	02f70763          	beq	a4,a5,9a90 <USBFS_RCC_Init+0x4e>
C:/Repository/RISKYKVM/firmware/src/User/USB_Host/ch32v20x_usbfs_host.c:42
    {
        RCC_USBCLKConfig( RCC_USBCLKSource_PLLCLK_Div2 );
    }
    else if( SystemCoreClock == 48000000 )
    9a66:	02dc77b7          	lui	a5,0x2dc7
    9a6a:	c0078793          	addi	a5,a5,-1024 # 2dc6c00 <_data_lma+0x2db9168>
    9a6e:	02f70a63          	beq	a4,a5,9aa2 <USBFS_RCC_Init+0x60>
C:/Repository/RISKYKVM/firmware/src/User/USB_Host/ch32v20x_usbfs_host.c:47
    {
        RCC_USBCLKConfig( RCC_USBCLKSource_PLLCLK_Div1 );
    }
    RCC_AHBPeriphClockCmd( RCC_AHBPeriph_OTG_FS, ENABLE );
}
    9a72:	40b2                	lw	ra,12(sp)
C:/Repository/RISKYKVM/firmware/src/User/USB_Host/ch32v20x_usbfs_host.c:46
    RCC_AHBPeriphClockCmd( RCC_AHBPeriph_OTG_FS, ENABLE );
    9a74:	4585                	li	a1,1
    9a76:	6505                	lui	a0,0x1
C:/Repository/RISKYKVM/firmware/src/User/USB_Host/ch32v20x_usbfs_host.c:47
}
    9a78:	0141                	addi	sp,sp,16
C:/Repository/RISKYKVM/firmware/src/User/USB_Host/ch32v20x_usbfs_host.c:46
    RCC_AHBPeriphClockCmd( RCC_AHBPeriph_OTG_FS, ENABLE );
    9a7a:	43d0306f          	j	d6b6 <RCC_AHBPeriphClockCmd>
C:/Repository/RISKYKVM/firmware/src/User/USB_Host/ch32v20x_usbfs_host.c:36
        RCC_USBCLKConfig( RCC_USBCLKSource_PLLCLK_Div3 );
    9a7e:	4509                	li	a0,2
    9a80:	41d030ef          	jal	ra,d69c <RCC_USBCLKConfig>
C:/Repository/RISKYKVM/firmware/src/User/USB_Host/ch32v20x_usbfs_host.c:47
}
    9a84:	40b2                	lw	ra,12(sp)
C:/Repository/RISKYKVM/firmware/src/User/USB_Host/ch32v20x_usbfs_host.c:46
    RCC_AHBPeriphClockCmd( RCC_AHBPeriph_OTG_FS, ENABLE );
    9a86:	4585                	li	a1,1
    9a88:	6505                	lui	a0,0x1
C:/Repository/RISKYKVM/firmware/src/User/USB_Host/ch32v20x_usbfs_host.c:47
}
    9a8a:	0141                	addi	sp,sp,16
C:/Repository/RISKYKVM/firmware/src/User/USB_Host/ch32v20x_usbfs_host.c:46
    RCC_AHBPeriphClockCmd( RCC_AHBPeriph_OTG_FS, ENABLE );
    9a8c:	42b0306f          	j	d6b6 <RCC_AHBPeriphClockCmd>
C:/Repository/RISKYKVM/firmware/src/User/USB_Host/ch32v20x_usbfs_host.c:40
        RCC_USBCLKConfig( RCC_USBCLKSource_PLLCLK_Div2 );
    9a90:	4505                	li	a0,1
    9a92:	40b030ef          	jal	ra,d69c <RCC_USBCLKConfig>
C:/Repository/RISKYKVM/firmware/src/User/USB_Host/ch32v20x_usbfs_host.c:47
}
    9a96:	40b2                	lw	ra,12(sp)
C:/Repository/RISKYKVM/firmware/src/User/USB_Host/ch32v20x_usbfs_host.c:46
    RCC_AHBPeriphClockCmd( RCC_AHBPeriph_OTG_FS, ENABLE );
    9a98:	4585                	li	a1,1
    9a9a:	6505                	lui	a0,0x1
C:/Repository/RISKYKVM/firmware/src/User/USB_Host/ch32v20x_usbfs_host.c:47
}
    9a9c:	0141                	addi	sp,sp,16
C:/Repository/RISKYKVM/firmware/src/User/USB_Host/ch32v20x_usbfs_host.c:46
    RCC_AHBPeriphClockCmd( RCC_AHBPeriph_OTG_FS, ENABLE );
    9a9e:	4190306f          	j	d6b6 <RCC_AHBPeriphClockCmd>
C:/Repository/RISKYKVM/firmware/src/User/USB_Host/ch32v20x_usbfs_host.c:44
        RCC_USBCLKConfig( RCC_USBCLKSource_PLLCLK_Div1 );
    9aa2:	4501                	li	a0,0
    9aa4:	3f9030ef          	jal	ra,d69c <RCC_USBCLKConfig>
C:/Repository/RISKYKVM/firmware/src/User/USB_Host/ch32v20x_usbfs_host.c:47
}
    9aa8:	40b2                	lw	ra,12(sp)
C:/Repository/RISKYKVM/firmware/src/User/USB_Host/ch32v20x_usbfs_host.c:46
    RCC_AHBPeriphClockCmd( RCC_AHBPeriph_OTG_FS, ENABLE );
    9aaa:	4585                	li	a1,1
    9aac:	6505                	lui	a0,0x1
C:/Repository/RISKYKVM/firmware/src/User/USB_Host/ch32v20x_usbfs_host.c:47
}
    9aae:	0141                	addi	sp,sp,16
C:/Repository/RISKYKVM/firmware/src/User/USB_Host/ch32v20x_usbfs_host.c:46
    RCC_AHBPeriphClockCmd( RCC_AHBPeriph_OTG_FS, ENABLE );
    9ab0:	4070306f          	j	d6b6 <RCC_AHBPeriphClockCmd>

00009ab4 <USBFS_Host_Init>:
USBFS_Host_Init():
C:/Repository/RISKYKVM/firmware/src/User/USB_Host/ch32v20x_usbfs_host.c:58
 * @param   sta - ENABLE or DISABLE
 *
 * @return  none
 */
void USBFS_Host_Init( FunctionalState sta )
{
    9ab4:	1141                	addi	sp,sp,-16
    9ab6:	c422                	sw	s0,8(sp)
    9ab8:	c606                	sw	ra,12(sp)
C:/Repository/RISKYKVM/firmware/src/User/USB_Host/ch32v20x_usbfs_host.c:59
    if( sta == ENABLE )
    9aba:	4785                	li	a5,1
C:/Repository/RISKYKVM/firmware/src/User/USB_Host/ch32v20x_usbfs_host.c:62
    {
        /* Reset USB module */
        USBOTG_H_FS->BASE_CTRL = USBFS_UC_RESET_SIE | USBFS_UC_CLR_ALL;
    9abc:	50000437          	lui	s0,0x50000
C:/Repository/RISKYKVM/firmware/src/User/USB_Host/ch32v20x_usbfs_host.c:59
    if( sta == ENABLE )
    9ac0:	00f50e63          	beq	a0,a5,9adc <USBFS_Host_Init+0x28>
C:/Repository/RISKYKVM/firmware/src/User/USB_Host/ch32v20x_usbfs_host.c:74
        USBOTG_H_FS->HOST_RX_DMA = (uint32_t)USBFS_RX_Buf;
        USBOTG_H_FS->HOST_TX_DMA = (uint32_t)USBFS_TX_Buf;
    }
    else
    {
        USBOTG_H_FS->BASE_CTRL = USBFS_UC_RESET_SIE | USBFS_UC_CLR_ALL;
    9ac4:	4799                	li	a5,6
    9ac6:	00f40023          	sb	a5,0(s0) # 50000000 <_eusrstack+0x2fffb000>
C:/Repository/RISKYKVM/firmware/src/User/USB_Host/ch32v20x_usbfs_host.c:75
        Delay_Us( 10 );
    9aca:	4529                	li	a0,10
    9acc:	567030ef          	jal	ra,d832 <Delay_Us>
C:/Repository/RISKYKVM/firmware/src/User/USB_Host/ch32v20x_usbfs_host.c:76
        USBOTG_H_FS->BASE_CTRL = 0;
    9ad0:	00040023          	sb	zero,0(s0)
C:/Repository/RISKYKVM/firmware/src/User/USB_Host/ch32v20x_usbfs_host.c:78
    }
}
    9ad4:	40b2                	lw	ra,12(sp)
    9ad6:	4422                	lw	s0,8(sp)
    9ad8:	0141                	addi	sp,sp,16
    9ada:	8082                	ret
C:/Repository/RISKYKVM/firmware/src/User/USB_Host/ch32v20x_usbfs_host.c:62
        USBOTG_H_FS->BASE_CTRL = USBFS_UC_RESET_SIE | USBFS_UC_CLR_ALL;
    9adc:	4799                	li	a5,6
    9ade:	00f40023          	sb	a5,0(s0)
C:/Repository/RISKYKVM/firmware/src/User/USB_Host/ch32v20x_usbfs_host.c:63
        Delay_Us( 10 );
    9ae2:	4529                	li	a0,10
    9ae4:	54f030ef          	jal	ra,d832 <Delay_Us>
C:/Repository/RISKYKVM/firmware/src/User/USB_Host/ch32v20x_usbfs_host.c:67
        USBOTG_H_FS->BASE_CTRL = USBFS_UC_HOST_MODE | USBFS_UC_INT_BUSY | USBFS_UC_DMA_EN;
    9ae8:	f8900793          	li	a5,-119
C:/Repository/RISKYKVM/firmware/src/User/USB_Host/ch32v20x_usbfs_host.c:64
        USBOTG_H_FS->BASE_CTRL = 0;
    9aec:	00040023          	sb	zero,0(s0)
C:/Repository/RISKYKVM/firmware/src/User/USB_Host/ch32v20x_usbfs_host.c:67
        USBOTG_H_FS->BASE_CTRL = USBFS_UC_HOST_MODE | USBFS_UC_INT_BUSY | USBFS_UC_DMA_EN;
    9af0:	00f40023          	sb	a5,0(s0)
C:/Repository/RISKYKVM/firmware/src/User/USB_Host/ch32v20x_usbfs_host.c:68
        USBOTG_H_FS->HOST_EP_MOD = USBFS_UH_EP_TX_EN | USBFS_UH_EP_RX_EN;
    9af4:	04800793          	li	a5,72
    9af8:	00f406a3          	sb	a5,13(s0)
C:/Repository/RISKYKVM/firmware/src/User/USB_Host/ch32v20x_usbfs_host.c:69
        USBOTG_H_FS->HOST_RX_DMA = (uint32_t)USBFS_RX_Buf;
    9afc:	200027b7          	lui	a5,0x20002
    9b00:	a6078793          	addi	a5,a5,-1440 # 20001a60 <USBFS_RX_Buf>
    9b04:	cc1c                	sw	a5,24(s0)
C:/Repository/RISKYKVM/firmware/src/User/USB_Host/ch32v20x_usbfs_host.c:70
        USBOTG_H_FS->HOST_TX_DMA = (uint32_t)USBFS_TX_Buf;
    9b06:	200027b7          	lui	a5,0x20002
    9b0a:	aa078793          	addi	a5,a5,-1376 # 20001aa0 <USBFS_TX_Buf>
    9b0e:	cc5c                	sw	a5,28(s0)
C:/Repository/RISKYKVM/firmware/src/User/USB_Host/ch32v20x_usbfs_host.c:78
}
    9b10:	40b2                	lw	ra,12(sp)
    9b12:	4422                	lw	s0,8(sp)
    9b14:	0141                	addi	sp,sp,16
    9b16:	8082                	ret

00009b18 <USBFSH_CheckRootHubPortStatus>:
USBFSH_CheckRootHubPortStatus():
C:/Repository/RISKYKVM/firmware/src/User/USB_Host/ch32v20x_usbfs_host.c:92
 *
 * @return  The current status of the port.
 */
uint8_t USBFSH_CheckRootHubPortStatus( uint8_t dev_sta )
{
    if( USBOTG_H_FS->INT_FG & USBFS_UIF_DETECT )// Check that there is a device connection or disconnection event on the port
    9b18:	50000737          	lui	a4,0x50000
    9b1c:	00674783          	lbu	a5,6(a4) # 50000006 <_eusrstack+0x2fffb006>
    9b20:	8b85                	andi	a5,a5,1
    9b22:	c785                	beqz	a5,9b4a <USBFSH_CheckRootHubPortStatus+0x32>
C:/Repository/RISKYKVM/firmware/src/User/USB_Host/ch32v20x_usbfs_host.c:94
    {
        USBOTG_H_FS->INT_FG = USBFS_UIF_DETECT; // Clear flag
    9b24:	4785                	li	a5,1
    9b26:	00f70323          	sb	a5,6(a4)
C:/Repository/RISKYKVM/firmware/src/User/USB_Host/ch32v20x_usbfs_host.c:95
        if( USBOTG_H_FS->MIS_ST & USBFS_UMS_DEV_ATTACH ) // Check that there is a device connection to the port
    9b2a:	00574783          	lbu	a5,5(a4)
C:/Repository/RISKYKVM/firmware/src/User/USB_Host/ch32v20x_usbfs_host.c:108
                return ROOT_DEV_FAILED;
            }
        }
        else // Check that there is no device connection to the port
        {
            return ROOT_DEV_DISCONNECT;
    9b2e:	4681                	li	a3,0
C:/Repository/RISKYKVM/firmware/src/User/USB_Host/ch32v20x_usbfs_host.c:95
        if( USBOTG_H_FS->MIS_ST & USBFS_UMS_DEV_ATTACH ) // Check that there is a device connection to the port
    9b30:	8b85                	andi	a5,a5,1
    9b32:	cb91                	beqz	a5,9b46 <USBFSH_CheckRootHubPortStatus+0x2e>
C:/Repository/RISKYKVM/firmware/src/User/USB_Host/ch32v20x_usbfs_host.c:99
                return ROOT_DEV_CONNECTED;
    9b34:	4685                	li	a3,1
C:/Repository/RISKYKVM/firmware/src/User/USB_Host/ch32v20x_usbfs_host.c:97
            if( ( dev_sta == ROOT_DEV_DISCONNECT ) || ( ( dev_sta != ROOT_DEV_FAILED ) && ( USBFSH_CheckRootHubPortEnable( ) == 0x00 ) ) )
    9b36:	c901                	beqz	a0,9b46 <USBFSH_CheckRootHubPortStatus+0x2e>
C:/Repository/RISKYKVM/firmware/src/User/USB_Host/ch32v20x_usbfs_host.c:97 (discriminator 1)
    9b38:	4789                	li	a5,2
    9b3a:	00f50863          	beq	a0,a5,9b4a <USBFSH_CheckRootHubPortStatus+0x32>
USBFSH_CheckRootHubPortEnable():
C:/Repository/RISKYKVM/firmware/src/User/USB_Host/ch32v20x_usbfs_host.c:127
 *
 * @return  The current enable status of the port.
 */
uint8_t USBFSH_CheckRootHubPortEnable( void )
{
    return ( USBOTG_H_FS->HOST_CTRL & USBFS_UH_PORT_EN );
    9b3e:	00174783          	lbu	a5,1(a4)
USBFSH_CheckRootHubPortStatus():
C:/Repository/RISKYKVM/firmware/src/User/USB_Host/ch32v20x_usbfs_host.c:97
            if( ( dev_sta == ROOT_DEV_DISCONNECT ) || ( ( dev_sta != ROOT_DEV_FAILED ) && ( USBFSH_CheckRootHubPortEnable( ) == 0x00 ) ) )
    9b42:	8b85                	andi	a5,a5,1
    9b44:	e399                	bnez	a5,9b4a <USBFSH_CheckRootHubPortStatus+0x32>
C:/Repository/RISKYKVM/firmware/src/User/USB_Host/ch32v20x_usbfs_host.c:115
}
    9b46:	8536                	mv	a0,a3
    9b48:	8082                	ret
C:/Repository/RISKYKVM/firmware/src/User/USB_Host/ch32v20x_usbfs_host.c:103
                return ROOT_DEV_FAILED;
    9b4a:	4689                	li	a3,2
C:/Repository/RISKYKVM/firmware/src/User/USB_Host/ch32v20x_usbfs_host.c:115
}
    9b4c:	8536                	mv	a0,a3
    9b4e:	8082                	ret

00009b50 <USBFSH_SetSelfAddr>:
USBFSH_SetSelfAddr():
C:/Repository/RISKYKVM/firmware/src/User/USB_Host/ch32v20x_usbfs_host.c:153
 *
 * @return  none
 */
void USBFSH_SetSelfAddr( uint8_t addr )
{
    USBOTG_H_FS->DEV_ADDR = ( USBOTG_H_FS->DEV_ADDR & USBFS_UDA_GP_BIT ) | ( addr & USBFS_USB_ADDR_MASK );
    9b50:	50000737          	lui	a4,0x50000
    9b54:	00374783          	lbu	a5,3(a4) # 50000003 <_eusrstack+0x2fffb003>
    9b58:	07f57513          	andi	a0,a0,127
    9b5c:	0807f793          	andi	a5,a5,128
    9b60:	8fc9                	or	a5,a5,a0
    9b62:	00f701a3          	sb	a5,3(a4)
C:/Repository/RISKYKVM/firmware/src/User/USB_Host/ch32v20x_usbfs_host.c:154
}
    9b66:	8082                	ret

00009b68 <USBFSH_SetSelfSpeed>:
USBFSH_SetSelfSpeed():
C:/Repository/RISKYKVM/firmware/src/User/USB_Host/ch32v20x_usbfs_host.c:167
 *
 * @return  none
 */
void USBFSH_SetSelfSpeed( uint8_t speed )
{
    if( speed == USB_FULL_SPEED )
    9b68:	4785                	li	a5,1
    9b6a:	02f50763          	beq	a0,a5,9b98 <USBFSH_SetSelfSpeed+0x30>
C:/Repository/RISKYKVM/firmware/src/User/USB_Host/ch32v20x_usbfs_host.c:175
        USBOTG_H_FS->HOST_CTRL &= ~USBFS_UH_LOW_SPEED;
        USBOTG_H_FS->HOST_SETUP &= ~USBFS_UH_PRE_PID_EN;
    }
    else
    {
        USBOTG_H_FS->BASE_CTRL |= USBFS_UC_LOW_SPEED;
    9b6e:	500007b7          	lui	a5,0x50000
    9b72:	0007c703          	lbu	a4,0(a5) # 50000000 <_eusrstack+0x2fffb000>
    9b76:	04076713          	ori	a4,a4,64
    9b7a:	00e78023          	sb	a4,0(a5)
C:/Repository/RISKYKVM/firmware/src/User/USB_Host/ch32v20x_usbfs_host.c:176
        USBOTG_H_FS->HOST_CTRL |= USBFS_UH_LOW_SPEED;
    9b7e:	0017c703          	lbu	a4,1(a5)
    9b82:	00476713          	ori	a4,a4,4
    9b86:	00e780a3          	sb	a4,1(a5)
C:/Repository/RISKYKVM/firmware/src/User/USB_Host/ch32v20x_usbfs_host.c:177
        USBOTG_H_FS->HOST_SETUP |= USBFS_UH_PRE_PID_EN;
    9b8a:	0367d703          	lhu	a4,54(a5)
    9b8e:	40076713          	ori	a4,a4,1024
    9b92:	02e79b23          	sh	a4,54(a5)
C:/Repository/RISKYKVM/firmware/src/User/USB_Host/ch32v20x_usbfs_host.c:179
    }
}
    9b96:	8082                	ret
C:/Repository/RISKYKVM/firmware/src/User/USB_Host/ch32v20x_usbfs_host.c:169
        USBOTG_H_FS->BASE_CTRL &= ~USBFS_UC_LOW_SPEED;
    9b98:	50000737          	lui	a4,0x50000
    9b9c:	00074783          	lbu	a5,0(a4) # 50000000 <_eusrstack+0x2fffb000>
    9ba0:	0bf7f793          	andi	a5,a5,191
    9ba4:	00f70023          	sb	a5,0(a4)
C:/Repository/RISKYKVM/firmware/src/User/USB_Host/ch32v20x_usbfs_host.c:170
        USBOTG_H_FS->HOST_CTRL &= ~USBFS_UH_LOW_SPEED;
    9ba8:	00174783          	lbu	a5,1(a4)
    9bac:	0fb7f793          	andi	a5,a5,251
    9bb0:	00f700a3          	sb	a5,1(a4)
C:/Repository/RISKYKVM/firmware/src/User/USB_Host/ch32v20x_usbfs_host.c:171
        USBOTG_H_FS->HOST_SETUP &= ~USBFS_UH_PRE_PID_EN;
    9bb4:	03675783          	lhu	a5,54(a4)
    9bb8:	07c2                	slli	a5,a5,0x10
    9bba:	83c1                	srli	a5,a5,0x10
    9bbc:	bff7f793          	andi	a5,a5,-1025
    9bc0:	07c2                	slli	a5,a5,0x10
    9bc2:	83c1                	srli	a5,a5,0x10
    9bc4:	02f71b23          	sh	a5,54(a4)
    9bc8:	8082                	ret

00009bca <USBFSH_ResetRootHubPort>:
USBFSH_ResetRootHubPort():
C:/Repository/RISKYKVM/firmware/src/User/USB_Host/ch32v20x_usbfs_host.c:194
 *               2 -> end reset
 *
 * @return  none
 */
void USBFSH_ResetRootHubPort( uint8_t mode )
{
    9bca:	1141                	addi	sp,sp,-16
USBFSH_SetSelfAddr():
C:/Repository/RISKYKVM/firmware/src/User/USB_Host/ch32v20x_usbfs_host.c:153
    USBOTG_H_FS->DEV_ADDR = ( USBOTG_H_FS->DEV_ADDR & USBFS_UDA_GP_BIT ) | ( addr & USBFS_USB_ADDR_MASK );
    9bcc:	500007b7          	lui	a5,0x50000
USBFSH_ResetRootHubPort():
C:/Repository/RISKYKVM/firmware/src/User/USB_Host/ch32v20x_usbfs_host.c:194
{
    9bd0:	c606                	sw	ra,12(sp)
USBFSH_SetSelfAddr():
C:/Repository/RISKYKVM/firmware/src/User/USB_Host/ch32v20x_usbfs_host.c:153
    USBOTG_H_FS->DEV_ADDR = ( USBOTG_H_FS->DEV_ADDR & USBFS_UDA_GP_BIT ) | ( addr & USBFS_USB_ADDR_MASK );
    9bd2:	0037c703          	lbu	a4,3(a5) # 50000003 <_eusrstack+0x2fffb003>
USBFSH_ResetRootHubPort():
C:/Repository/RISKYKVM/firmware/src/User/USB_Host/ch32v20x_usbfs_host.c:198
    USBFSH_SetSelfAddr( 0x00 );
    USBFSH_SetSelfSpeed( USB_FULL_SPEED );

    if( mode <= 1 )
    9bd6:	4685                	li	a3,1
USBFSH_SetSelfAddr():
C:/Repository/RISKYKVM/firmware/src/User/USB_Host/ch32v20x_usbfs_host.c:153
    USBOTG_H_FS->DEV_ADDR = ( USBOTG_H_FS->DEV_ADDR & USBFS_UDA_GP_BIT ) | ( addr & USBFS_USB_ADDR_MASK );
    9bd8:	08077713          	andi	a4,a4,128
    9bdc:	00e781a3          	sb	a4,3(a5)
USBFSH_SetSelfSpeed():
C:/Repository/RISKYKVM/firmware/src/User/USB_Host/ch32v20x_usbfs_host.c:169
        USBOTG_H_FS->BASE_CTRL &= ~USBFS_UC_LOW_SPEED;
    9be0:	0007c703          	lbu	a4,0(a5)
    9be4:	0bf77713          	andi	a4,a4,191
    9be8:	00e78023          	sb	a4,0(a5)
C:/Repository/RISKYKVM/firmware/src/User/USB_Host/ch32v20x_usbfs_host.c:170
        USBOTG_H_FS->HOST_CTRL &= ~USBFS_UH_LOW_SPEED;
    9bec:	0017c703          	lbu	a4,1(a5)
    9bf0:	0fb77713          	andi	a4,a4,251
    9bf4:	00e780a3          	sb	a4,1(a5)
C:/Repository/RISKYKVM/firmware/src/User/USB_Host/ch32v20x_usbfs_host.c:171
        USBOTG_H_FS->HOST_SETUP &= ~USBFS_UH_PRE_PID_EN;
    9bf8:	0367d703          	lhu	a4,54(a5)
    9bfc:	0742                	slli	a4,a4,0x10
    9bfe:	8341                	srli	a4,a4,0x10
    9c00:	bff77713          	andi	a4,a4,-1025
    9c04:	0742                	slli	a4,a4,0x10
    9c06:	8341                	srli	a4,a4,0x10
    9c08:	02e79b23          	sh	a4,54(a5)
USBFSH_ResetRootHubPort():
C:/Repository/RISKYKVM/firmware/src/User/USB_Host/ch32v20x_usbfs_host.c:198
    if( mode <= 1 )
    9c0c:	02a6fd63          	bgeu	a3,a0,9c46 <USBFSH_ResetRootHubPort+0x7c>
C:/Repository/RISKYKVM/firmware/src/User/USB_Host/ch32v20x_usbfs_host.c:208
    {
        Delay_Ms( DEF_BUS_RESET_TIME ); // Reset time from 10mS to 20mS
    }
    if( mode != 1 )
    {
        USBOTG_H_FS->HOST_CTRL &= ~USBFS_UH_BUS_RESET; // End reset
    9c10:	50000737          	lui	a4,0x50000
    9c14:	00174783          	lbu	a5,1(a4) # 50000001 <_eusrstack+0x2fffb001>
    9c18:	0fd7f793          	andi	a5,a5,253
    9c1c:	00f700a3          	sb	a5,1(a4)
C:/Repository/RISKYKVM/firmware/src/User/USB_Host/ch32v20x_usbfs_host.c:210
    }
    Delay_Ms( 2 );
    9c20:	4509                	li	a0,2
    9c22:	44b030ef          	jal	ra,d86c <Delay_Ms>
C:/Repository/RISKYKVM/firmware/src/User/USB_Host/ch32v20x_usbfs_host.c:212

    if( USBOTG_H_FS->INT_FG & USBFS_UIF_DETECT )
    9c26:	50000737          	lui	a4,0x50000
    9c2a:	00674783          	lbu	a5,6(a4) # 50000006 <_eusrstack+0x2fffb006>
    9c2e:	8b85                	andi	a5,a5,1
    9c30:	cb81                	beqz	a5,9c40 <USBFSH_ResetRootHubPort+0x76>
C:/Repository/RISKYKVM/firmware/src/User/USB_Host/ch32v20x_usbfs_host.c:214
    {
        if( USBOTG_H_FS->MIS_ST & USBFS_UMS_DEV_ATTACH )
    9c32:	00574783          	lbu	a5,5(a4)
    9c36:	8b85                	andi	a5,a5,1
    9c38:	c781                	beqz	a5,9c40 <USBFSH_ResetRootHubPort+0x76>
C:/Repository/RISKYKVM/firmware/src/User/USB_Host/ch32v20x_usbfs_host.c:216
        {
            USBOTG_H_FS->INT_FG = USBFS_UIF_DETECT;
    9c3a:	4785                	li	a5,1
    9c3c:	00f70323          	sb	a5,6(a4)
C:/Repository/RISKYKVM/firmware/src/User/USB_Host/ch32v20x_usbfs_host.c:219
        }
    }
}
    9c40:	40b2                	lw	ra,12(sp)
    9c42:	0141                	addi	sp,sp,16
    9c44:	8082                	ret
C:/Repository/RISKYKVM/firmware/src/User/USB_Host/ch32v20x_usbfs_host.c:200
        USBOTG_H_FS->HOST_CTRL |= USBFS_UH_BUS_RESET; // Start reset
    9c46:	0017c703          	lbu	a4,1(a5)
    9c4a:	00276713          	ori	a4,a4,2
    9c4e:	00e780a3          	sb	a4,1(a5)
C:/Repository/RISKYKVM/firmware/src/User/USB_Host/ch32v20x_usbfs_host.c:202
    if( mode == 0 )
    9c52:	f579                	bnez	a0,9c20 <USBFSH_ResetRootHubPort+0x56>
C:/Repository/RISKYKVM/firmware/src/User/USB_Host/ch32v20x_usbfs_host.c:204
        Delay_Ms( DEF_BUS_RESET_TIME ); // Reset time from 10mS to 20mS
    9c54:	452d                	li	a0,11
    9c56:	417030ef          	jal	ra,d86c <Delay_Ms>
C:/Repository/RISKYKVM/firmware/src/User/USB_Host/ch32v20x_usbfs_host.c:206
    if( mode != 1 )
    9c5a:	bf5d                	j	9c10 <USBFSH_ResetRootHubPort+0x46>

00009c5c <USBFSH_EnableRootHubPort>:
USBFSH_EnableRootHubPort():
C:/Repository/RISKYKVM/firmware/src/User/USB_Host/ch32v20x_usbfs_host.c:232
 *
 * @return  Operation result of the enabled port.
 */
uint8_t USBFSH_EnableRootHubPort( uint8_t *pspeed )
{
    if( USBOTG_H_FS->MIS_ST & USBFS_UMS_DEV_ATTACH )
    9c5c:	50000737          	lui	a4,0x50000
    9c60:	00574783          	lbu	a5,5(a4) # 50000005 <_eusrstack+0x2fffb005>
    9c64:	8b85                	andi	a5,a5,1
    9c66:	e399                	bnez	a5,9c6c <USBFSH_EnableRootHubPort+0x10>
C:/Repository/RISKYKVM/firmware/src/User/USB_Host/ch32v20x_usbfs_host.c:248
        USBOTG_H_FS->HOST_SETUP |= USBFS_UH_SOF_EN;

        return ERR_SUCCESS;
    }

    return ERR_USB_DISCON;
    9c68:	4559                	li	a0,22
C:/Repository/RISKYKVM/firmware/src/User/USB_Host/ch32v20x_usbfs_host.c:249
}
    9c6a:	8082                	ret
USBFSH_CheckRootHubPortEnable():
C:/Repository/RISKYKVM/firmware/src/User/USB_Host/ch32v20x_usbfs_host.c:127
    return ( USBOTG_H_FS->HOST_CTRL & USBFS_UH_PORT_EN );
    9c6c:	00174783          	lbu	a5,1(a4)
USBFSH_EnableRootHubPort():
C:/Repository/RISKYKVM/firmware/src/User/USB_Host/ch32v20x_usbfs_host.c:234
        if( USBFSH_CheckRootHubPortEnable( ) == 0x00 )
    9c70:	8b85                	andi	a5,a5,1
    9c72:	eb9d                	bnez	a5,9ca8 <USBFSH_EnableRootHubPort+0x4c>
USBFSH_CheckRootHubPortSpeed():
C:/Repository/RISKYKVM/firmware/src/User/USB_Host/ch32v20x_usbfs_host.c:139
    return ( USBOTG_H_FS->MIS_ST & USBFS_UMS_DM_LEVEL? USB_LOW_SPEED: USB_FULL_SPEED );
    9c74:	00574783          	lbu	a5,5(a4)
    9c78:	8b89                	andi	a5,a5,2
    9c7a:	0017b693          	seqz	a3,a5
    9c7e:	00d50023          	sb	a3,0(a0) # 1000 <__stack_size+0x800>
USBFSH_EnableRootHubPort():
C:/Repository/RISKYKVM/firmware/src/User/USB_Host/ch32v20x_usbfs_host.c:237
            if( *pspeed == USB_LOW_SPEED )
    9c82:	c39d                	beqz	a5,9ca8 <USBFSH_EnableRootHubPort+0x4c>
USBFSH_SetSelfSpeed():
C:/Repository/RISKYKVM/firmware/src/User/USB_Host/ch32v20x_usbfs_host.c:175
        USBOTG_H_FS->BASE_CTRL |= USBFS_UC_LOW_SPEED;
    9c84:	00074783          	lbu	a5,0(a4)
    9c88:	0407e793          	ori	a5,a5,64
    9c8c:	00f70023          	sb	a5,0(a4)
C:/Repository/RISKYKVM/firmware/src/User/USB_Host/ch32v20x_usbfs_host.c:176
        USBOTG_H_FS->HOST_CTRL |= USBFS_UH_LOW_SPEED;
    9c90:	00174783          	lbu	a5,1(a4)
    9c94:	0047e793          	ori	a5,a5,4
    9c98:	00f700a3          	sb	a5,1(a4)
C:/Repository/RISKYKVM/firmware/src/User/USB_Host/ch32v20x_usbfs_host.c:177
        USBOTG_H_FS->HOST_SETUP |= USBFS_UH_PRE_PID_EN;
    9c9c:	03675783          	lhu	a5,54(a4)
    9ca0:	4007e793          	ori	a5,a5,1024
    9ca4:	02f71b23          	sh	a5,54(a4)
USBFSH_EnableRootHubPort():
C:/Repository/RISKYKVM/firmware/src/User/USB_Host/ch32v20x_usbfs_host.c:242
        USBOTG_H_FS->HOST_CTRL |= USBFS_UH_PORT_EN;
    9ca8:	500007b7          	lui	a5,0x50000
    9cac:	0017c703          	lbu	a4,1(a5) # 50000001 <_eusrstack+0x2fffb001>
C:/Repository/RISKYKVM/firmware/src/User/USB_Host/ch32v20x_usbfs_host.c:245
        return ERR_SUCCESS;
    9cb0:	4501                	li	a0,0
C:/Repository/RISKYKVM/firmware/src/User/USB_Host/ch32v20x_usbfs_host.c:242
        USBOTG_H_FS->HOST_CTRL |= USBFS_UH_PORT_EN;
    9cb2:	00176713          	ori	a4,a4,1
    9cb6:	00e780a3          	sb	a4,1(a5)
C:/Repository/RISKYKVM/firmware/src/User/USB_Host/ch32v20x_usbfs_host.c:243
        USBOTG_H_FS->HOST_SETUP |= USBFS_UH_SOF_EN;
    9cba:	0367d703          	lhu	a4,54(a5)
    9cbe:	00476713          	ori	a4,a4,4
    9cc2:	02e79b23          	sh	a4,54(a5)
C:/Repository/RISKYKVM/firmware/src/User/USB_Host/ch32v20x_usbfs_host.c:245
        return ERR_SUCCESS;
    9cc6:	8082                	ret

00009cc8 <USBFSH_Transact>:
USBFSH_Transact():
C:/Repository/RISKYKVM/firmware/src/User/USB_Host/ch32v20x_usbfs_host.c:263
 *          timeout: Timeout time.
 *
 * @return  USB transfer result.
 */
uint8_t USBFSH_Transact( uint8_t endp_pid, uint8_t endp_tog, uint16_t timeout )
{
    9cc8:	7179                	addi	sp,sp,-48
    9cca:	d226                	sw	s1,36(sp)
    9ccc:	d04a                	sw	s2,32(sp)
    9cce:	ce4e                	sw	s3,28(sp)
    9cd0:	cc52                	sw	s4,24(sp)
    9cd2:	ca56                	sw	s5,20(sp)
    9cd4:	c85a                	sw	s6,16(sp)
    9cd6:	c65e                	sw	s7,12(sp)
    9cd8:	c462                	sw	s8,8(sp)
    9cda:	c266                	sw	s9,4(sp)
    9cdc:	c06a                	sw	s10,0(sp)
    9cde:	d606                	sw	ra,44(sp)
    9ce0:	d422                	sw	s0,40(sp)
C:/Repository/RISKYKVM/firmware/src/User/USB_Host/ch32v20x_usbfs_host.c:267
    uint8_t  r, trans_retry;
    uint16_t i;

    USBOTG_H_FS->HOST_TX_CTRL = USBOTG_H_FS->HOST_RX_CTRL = endp_tog;
    9ce2:	500007b7          	lui	a5,0x50000
    9ce6:	02b78da3          	sb	a1,59(a5) # 5000003b <_eusrstack+0x2fffb03b>
C:/Repository/RISKYKVM/firmware/src/User/USB_Host/ch32v20x_usbfs_host.c:299
            {
                if( timeout == 0 )
                {
                    return ( r | ERR_USB_TRANSFER );
                }
                if( timeout < 0xFFFF )
    9cea:	6cc1                	lui	s9,0x10
C:/Repository/RISKYKVM/firmware/src/User/USB_Host/ch32v20x_usbfs_host.c:263
{
    9cec:	8b2a                	mv	s6,a0
    9cee:	8ab2                	mv	s5,a2
C:/Repository/RISKYKVM/firmware/src/User/USB_Host/ch32v20x_usbfs_host.c:267
    USBOTG_H_FS->HOST_TX_CTRL = USBOTG_H_FS->HOST_RX_CTRL = endp_tog;
    9cf0:	02b78f23          	sb	a1,62(a5)
C:/Repository/RISKYKVM/firmware/src/User/USB_Host/ch32v20x_usbfs_host.c:305
                {
                    timeout--;
                }
                --trans_retry;
            }
            else switch ( endp_pid >> 4 )
    9cf4:	00455993          	srli	s3,a0,0x4
C:/Repository/RISKYKVM/firmware/src/User/USB_Host/ch32v20x_usbfs_host.c:268
    trans_retry = 0;
    9cf8:	4901                	li	s2,0
C:/Repository/RISKYKVM/firmware/src/User/USB_Host/ch32v20x_usbfs_host.c:271
        USBOTG_H_FS->HOST_EP_PID = endp_pid;       // Specify token PID and endpoint number
    9cfa:	500004b7          	lui	s1,0x50000
C:/Repository/RISKYKVM/firmware/src/User/USB_Host/ch32v20x_usbfs_host.c:272
        USBOTG_H_FS->INT_FG = USBFS_UIF_TRANSFER;  // Allow transfer
    9cfe:	4b89                	li	s7,2
C:/Repository/RISKYKVM/firmware/src/User/USB_Host/ch32v20x_usbfs_host.c:289
            if( r == USB_PID_STALL )
    9d00:	4c39                	li	s8,14
C:/Repository/RISKYKVM/firmware/src/User/USB_Host/ch32v20x_usbfs_host.c:293
            if( r == USB_PID_NAK )
    9d02:	4a29                	li	s4,10
C:/Repository/RISKYKVM/firmware/src/User/USB_Host/ch32v20x_usbfs_host.c:340
            {
                return ERR_USB_DISCON;  // USB device disconnect event
            }
            else
            {
                USBOTG_H_FS->INT_FG = USBFS_UIF_DETECT;
    9d04:	4d05                	li	s10,1
C:/Repository/RISKYKVM/firmware/src/User/USB_Host/ch32v20x_usbfs_host.c:299
                if( timeout < 0xFFFF )
    9d06:	1cfd                	addi	s9,s9,-1
C:/Repository/RISKYKVM/firmware/src/User/USB_Host/ch32v20x_usbfs_host.c:271
        USBOTG_H_FS->HOST_EP_PID = endp_pid;       // Specify token PID and endpoint number
    9d08:	03648c23          	sb	s6,56(s1) # 50000038 <_eusrstack+0x2fffb038>
C:/Repository/RISKYKVM/firmware/src/User/USB_Host/ch32v20x_usbfs_host.c:272
        USBOTG_H_FS->INT_FG = USBFS_UIF_TRANSFER;  // Allow transfer
    9d0c:	01748323          	sb	s7,6(s1)
    9d10:	3e800413          	li	s0,1000
    9d14:	a039                	j	9d22 <USBFSH_Transact+0x5a>
    9d16:	147d                	addi	s0,s0,-1
    9d18:	0442                	slli	s0,s0,0x10
    9d1a:	8041                	srli	s0,s0,0x10
C:/Repository/RISKYKVM/firmware/src/User/USB_Host/ch32v20x_usbfs_host.c:275 (discriminator 4)
            Delay_Us( 1 ); // Delay for USB transfer
    9d1c:	317030ef          	jal	ra,d832 <Delay_Us>
C:/Repository/RISKYKVM/firmware/src/User/USB_Host/ch32v20x_usbfs_host.c:273 (discriminator 4)
        for( i = DEF_WAIT_USB_TRANSFER_CNT; ( i != 0 ) && ( ( USBOTG_H_FS->INT_FG & USBFS_UIF_TRANSFER ) == 0 ); i-- )
    9d20:	c411                	beqz	s0,9d2c <USBFSH_Transact+0x64>
C:/Repository/RISKYKVM/firmware/src/User/USB_Host/ch32v20x_usbfs_host.c:273 (discriminator 3)
    9d22:	0064c783          	lbu	a5,6(s1)
C:/Repository/RISKYKVM/firmware/src/User/USB_Host/ch32v20x_usbfs_host.c:275 (discriminator 3)
            Delay_Us( 1 ); // Delay for USB transfer
    9d26:	4505                	li	a0,1
C:/Repository/RISKYKVM/firmware/src/User/USB_Host/ch32v20x_usbfs_host.c:273 (discriminator 3)
        for( i = DEF_WAIT_USB_TRANSFER_CNT; ( i != 0 ) && ( ( USBOTG_H_FS->INT_FG & USBFS_UIF_TRANSFER ) == 0 ); i-- )
    9d28:	8b89                	andi	a5,a5,2
    9d2a:	d7f5                	beqz	a5,9d16 <USBFSH_Transact+0x4e>
C:/Repository/RISKYKVM/firmware/src/User/USB_Host/ch32v20x_usbfs_host.c:277
        USBOTG_H_FS->HOST_EP_PID = 0x00;  // Stop USB transfer
    9d2c:	02048c23          	sb	zero,56(s1)
C:/Repository/RISKYKVM/firmware/src/User/USB_Host/ch32v20x_usbfs_host.c:278
        if( ( USBOTG_H_FS->INT_FG & USBFS_UIF_TRANSFER ) == 0 )
    9d30:	0064c783          	lbu	a5,6(s1)
    9d34:	8b89                	andi	a5,a5,2
    9d36:	cb8d                	beqz	a5,9d68 <USBFSH_Transact+0xa0>
C:/Repository/RISKYKVM/firmware/src/User/USB_Host/ch32v20x_usbfs_host.c:284
            if( USBOTG_H_FS->INT_ST & USBFS_UIS_TOG_OK )
    9d38:	0074c783          	lbu	a5,7(s1)
    9d3c:	0407f793          	andi	a5,a5,64
    9d40:	e7cd                	bnez	a5,9dea <USBFSH_Transact+0x122>
C:/Repository/RISKYKVM/firmware/src/User/USB_Host/ch32v20x_usbfs_host.c:288
            r = USBOTG_H_FS->INT_ST & USBFS_UIS_H_RES_MASK; // Response status of current USB transaction
    9d42:	0074c783          	lbu	a5,7(s1)
    9d46:	0ff7f793          	andi	a5,a5,255
    9d4a:	00f7f513          	andi	a0,a5,15
C:/Repository/RISKYKVM/firmware/src/User/USB_Host/ch32v20x_usbfs_host.c:289
            if( r == USB_PID_STALL )
    9d4e:	0b850063          	beq	a0,s8,9dee <USBFSH_Transact+0x126>
C:/Repository/RISKYKVM/firmware/src/User/USB_Host/ch32v20x_usbfs_host.c:293
            if( r == USB_PID_NAK )
    9d52:	05450f63          	beq	a0,s4,9db0 <USBFSH_Transact+0xe8>
C:/Repository/RISKYKVM/firmware/src/User/USB_Host/ch32v20x_usbfs_host.c:305
            else switch ( endp_pid >> 4 )
    9d56:	4725                	li	a4,9
    9d58:	02e98863          	beq	s3,a4,9d88 <USBFSH_Transact+0xc0>
    9d5c:	47b5                	li	a5,13
    9d5e:	02f98963          	beq	s3,a5,9d90 <USBFSH_Transact+0xc8>
    9d62:	4785                	li	a5,1
    9d64:	02f98663          	beq	s3,a5,9d90 <USBFSH_Transact+0xc8>
C:/Repository/RISKYKVM/firmware/src/User/USB_Host/ch32v20x_usbfs_host.c:325
                    return ERR_USB_UNKNOWN;
    9d68:	0fe00513          	li	a0,254
C:/Repository/RISKYKVM/firmware/src/User/USB_Host/ch32v20x_usbfs_host.c:346
            }
        }
    }while( ++trans_retry < 10 );

    return ERR_USB_TRANSFER; // Reply timeout
}
    9d6c:	50b2                	lw	ra,44(sp)
    9d6e:	5422                	lw	s0,40(sp)
    9d70:	5492                	lw	s1,36(sp)
    9d72:	5902                	lw	s2,32(sp)
    9d74:	49f2                	lw	s3,28(sp)
    9d76:	4a62                	lw	s4,24(sp)
    9d78:	4ad2                	lw	s5,20(sp)
    9d7a:	4b42                	lw	s6,16(sp)
    9d7c:	4bb2                	lw	s7,12(sp)
    9d7e:	4c22                	lw	s8,8(sp)
    9d80:	4c92                	lw	s9,4(sp)
    9d82:	4d02                	lw	s10,0(sp)
    9d84:	6145                	addi	sp,sp,48
    9d86:	8082                	ret
C:/Repository/RISKYKVM/firmware/src/User/USB_Host/ch32v20x_usbfs_host.c:315
                    if( ( r == USB_PID_DATA0 ) || ( r == USB_PID_DATA1 ) )
    9d88:	8b9d                	andi	a5,a5,7
    9d8a:	470d                	li	a4,3
    9d8c:	00e78363          	beq	a5,a4,9d92 <USBFSH_Transact+0xca>
C:/Repository/RISKYKVM/firmware/src/User/USB_Host/ch32v20x_usbfs_host.c:319
                    else if( r )
    9d90:	e135                	bnez	a0,9df4 <USBFSH_Transact+0x12c>
C:/Repository/RISKYKVM/firmware/src/User/USB_Host/ch32v20x_usbfs_host.c:328
        Delay_Us( 20 );
    9d92:	4551                	li	a0,20
    9d94:	29f030ef          	jal	ra,d832 <Delay_Us>
C:/Repository/RISKYKVM/firmware/src/User/USB_Host/ch32v20x_usbfs_host.c:330
        if( USBOTG_H_FS->INT_FG & USBFS_UIF_DETECT )
    9d98:	0064c783          	lbu	a5,6(s1)
    9d9c:	8b85                	andi	a5,a5,1
    9d9e:	eb9d                	bnez	a5,9dd4 <USBFSH_Transact+0x10c>
C:/Repository/RISKYKVM/firmware/src/User/USB_Host/ch32v20x_usbfs_host.c:343
    }while( ++trans_retry < 10 );
    9da0:	0905                	addi	s2,s2,1
    9da2:	0ff97913          	andi	s2,s2,255
    9da6:	f74911e3          	bne	s2,s4,9d08 <USBFSH_Transact+0x40>
C:/Repository/RISKYKVM/firmware/src/User/USB_Host/ch32v20x_usbfs_host.c:345
    return ERR_USB_TRANSFER; // Reply timeout
    9daa:	02000513          	li	a0,32
    9dae:	bf7d                	j	9d6c <USBFSH_Transact+0xa4>
C:/Repository/RISKYKVM/firmware/src/User/USB_Host/ch32v20x_usbfs_host.c:295
                if( timeout == 0 )
    9db0:	040a8563          	beqz	s5,9dfa <USBFSH_Transact+0x132>
C:/Repository/RISKYKVM/firmware/src/User/USB_Host/ch32v20x_usbfs_host.c:299
                if( timeout < 0xFFFF )
    9db4:	019a8663          	beq	s5,s9,9dc0 <USBFSH_Transact+0xf8>
C:/Repository/RISKYKVM/firmware/src/User/USB_Host/ch32v20x_usbfs_host.c:301
                    timeout--;
    9db8:	1afd                	addi	s5,s5,-1
    9dba:	0ac2                	slli	s5,s5,0x10
    9dbc:	010ada93          	srli	s5,s5,0x10
C:/Repository/RISKYKVM/firmware/src/User/USB_Host/ch32v20x_usbfs_host.c:328
        Delay_Us( 20 );
    9dc0:	4551                	li	a0,20
    9dc2:	271030ef          	jal	ra,d832 <Delay_Us>
C:/Repository/RISKYKVM/firmware/src/User/USB_Host/ch32v20x_usbfs_host.c:330
        if( USBOTG_H_FS->INT_FG & USBFS_UIF_DETECT )
    9dc6:	0064c783          	lbu	a5,6(s1)
    9dca:	8b85                	andi	a5,a5,1
    9dcc:	df95                	beqz	a5,9d08 <USBFSH_Transact+0x40>
C:/Repository/RISKYKVM/firmware/src/User/USB_Host/ch32v20x_usbfs_host.c:303
                --trans_retry;
    9dce:	197d                	addi	s2,s2,-1
    9dd0:	0ff97913          	andi	s2,s2,255
C:/Repository/RISKYKVM/firmware/src/User/USB_Host/ch32v20x_usbfs_host.c:332
            Delay_Us( 200 );
    9dd4:	0c800513          	li	a0,200
    9dd8:	25b030ef          	jal	ra,d832 <Delay_Us>
USBFSH_CheckRootHubPortEnable():
C:/Repository/RISKYKVM/firmware/src/User/USB_Host/ch32v20x_usbfs_host.c:127
    return ( USBOTG_H_FS->HOST_CTRL & USBFS_UH_PORT_EN );
    9ddc:	0014c783          	lbu	a5,1(s1)
USBFSH_Transact():
C:/Repository/RISKYKVM/firmware/src/User/USB_Host/ch32v20x_usbfs_host.c:334
            if( USBFSH_CheckRootHubPortEnable( ) == 0x00 )
    9de0:	8b85                	andi	a5,a5,1
    9de2:	cf99                	beqz	a5,9e00 <USBFSH_Transact+0x138>
C:/Repository/RISKYKVM/firmware/src/User/USB_Host/ch32v20x_usbfs_host.c:340
                USBOTG_H_FS->INT_FG = USBFS_UIF_DETECT;
    9de4:	01a48323          	sb	s10,6(s1)
    9de8:	bf65                	j	9da0 <USBFSH_Transact+0xd8>
C:/Repository/RISKYKVM/firmware/src/User/USB_Host/ch32v20x_usbfs_host.c:286
                return ERR_SUCCESS;
    9dea:	4501                	li	a0,0
    9dec:	b741                	j	9d6c <USBFSH_Transact+0xa4>
C:/Repository/RISKYKVM/firmware/src/User/USB_Host/ch32v20x_usbfs_host.c:291
                return ( r | ERR_USB_TRANSFER );
    9dee:	02e00513          	li	a0,46
    9df2:	bfad                	j	9d6c <USBFSH_Transact+0xa4>
C:/Repository/RISKYKVM/firmware/src/User/USB_Host/ch32v20x_usbfs_host.c:321
                        return ( r | ERR_USB_TRANSFER );
    9df4:	02056513          	ori	a0,a0,32
    9df8:	bf95                	j	9d6c <USBFSH_Transact+0xa4>
C:/Repository/RISKYKVM/firmware/src/User/USB_Host/ch32v20x_usbfs_host.c:297
                    return ( r | ERR_USB_TRANSFER );
    9dfa:	02a00513          	li	a0,42
    9dfe:	b7bd                	j	9d6c <USBFSH_Transact+0xa4>
C:/Repository/RISKYKVM/firmware/src/User/USB_Host/ch32v20x_usbfs_host.c:336
                return ERR_USB_DISCON;  // USB device disconnect event
    9e00:	4559                	li	a0,22
    9e02:	b7ad                	j	9d6c <USBFSH_Transact+0xa4>

00009e04 <USBFSH_CtrlTransfer.part.1>:
USBFSH_CtrlTransfer():
C:/Repository/RISKYKVM/firmware/src/User/USB_Host/ch32v20x_usbfs_host.c:359
 *          pbuf: Data buffer
 *          plen: Data length
 *
 * @return  USB control transfer result.
 */
uint8_t USBFSH_CtrlTransfer( uint8_t ep0_size, uint8_t *pbuf, uint16_t *plen )
    9e04:	7179                	addi	sp,sp,-48
C:/Repository/RISKYKVM/firmware/src/User/USB_Host/ch32v20x_usbfs_host.c:376
    if( s != ERR_SUCCESS )
    {
        return s;
    }
    USBOTG_H_FS->HOST_TX_CTRL = USBOTG_H_FS->HOST_RX_CTRL = USBFS_UH_T_TOG | USBFS_UH_R_TOG; // Default DATA1
    rem_len = pUSBFS_SetupRequest->wLength;
    9e06:	200026b7          	lui	a3,0x20002
C:/Repository/RISKYKVM/firmware/src/User/USB_Host/ch32v20x_usbfs_host.c:359
uint8_t USBFSH_CtrlTransfer( uint8_t ep0_size, uint8_t *pbuf, uint16_t *plen )
    9e0a:	d04a                	sw	s2,32(sp)
C:/Repository/RISKYKVM/firmware/src/User/USB_Host/ch32v20x_usbfs_host.c:376
    rem_len = pUSBFS_SetupRequest->wLength;
    9e0c:	aa068913          	addi	s2,a3,-1376 # 20001aa0 <USBFS_TX_Buf>
C:/Repository/RISKYKVM/firmware/src/User/USB_Host/ch32v20x_usbfs_host.c:359
uint8_t USBFSH_CtrlTransfer( uint8_t ep0_size, uint8_t *pbuf, uint16_t *plen )
    9e10:	c65e                	sw	s7,12(sp)
    9e12:	d606                	sw	ra,44(sp)
    9e14:	d422                	sw	s0,40(sp)
    9e16:	d226                	sw	s1,36(sp)
    9e18:	ce4e                	sw	s3,28(sp)
    9e1a:	cc52                	sw	s4,24(sp)
    9e1c:	ca56                	sw	s5,20(sp)
    9e1e:	c85a                	sw	s6,16(sp)
    9e20:	c462                	sw	s8,8(sp)
C:/Repository/RISKYKVM/firmware/src/User/USB_Host/ch32v20x_usbfs_host.c:375
    USBOTG_H_FS->HOST_TX_CTRL = USBOTG_H_FS->HOST_RX_CTRL = USBFS_UH_T_TOG | USBFS_UH_R_TOG; // Default DATA1
    9e22:	500007b7          	lui	a5,0x50000
    9e26:	4711                	li	a4,4
C:/Repository/RISKYKVM/firmware/src/User/USB_Host/ch32v20x_usbfs_host.c:376
    rem_len = pUSBFS_SetupRequest->wLength;
    9e28:	00695b83          	lhu	s7,6(s2)
C:/Repository/RISKYKVM/firmware/src/User/USB_Host/ch32v20x_usbfs_host.c:375
    USBOTG_H_FS->HOST_TX_CTRL = USBOTG_H_FS->HOST_RX_CTRL = USBFS_UH_T_TOG | USBFS_UH_R_TOG; // Default DATA1
    9e2c:	02e78da3          	sb	a4,59(a5) # 5000003b <_eusrstack+0x2fffb03b>
    9e30:	02e78f23          	sb	a4,62(a5)
C:/Repository/RISKYKVM/firmware/src/User/USB_Host/ch32v20x_usbfs_host.c:377
    if( rem_len && pbuf )
    9e34:	080b8f63          	beqz	s7,9ed2 <USBFSH_CtrlTransfer.part.1+0xce>
    9e38:	842e                	mv	s0,a1
    9e3a:	cdc1                	beqz	a1,9ed2 <USBFSH_CtrlTransfer.part.1+0xce>
C:/Repository/RISKYKVM/firmware/src/User/USB_Host/ch32v20x_usbfs_host.c:379
    {
        if( pUSBFS_SetupRequest->bRequestType & USB_REQ_TYP_IN )
    9e3c:	aa068783          	lb	a5,-1376(a3)
    9e40:	01051a93          	slli	s5,a0,0x10
    9e44:	89b2                	mv	s3,a2
    9e46:	010ada93          	srli	s5,s5,0x10
    9e4a:	0e07c363          	bltz	a5,9f30 <USBFSH_CtrlTransfer.part.1+0x12c>
C:/Repository/RISKYKVM/firmware/src/User/USB_Host/ch32v20x_usbfs_host.c:423
                for( tx_cnt = 0; tx_cnt != USBOTG_H_FS->HOST_TX_LEN; tx_cnt++ )
                {
                    USBFS_TX_Buf[ tx_cnt ] = *pbuf;
                    pbuf++;
                }
                s = USBFSH_Transact( USB_PID_OUT << 4 | 0x00, USBOTG_H_FS->HOST_TX_CTRL, DEF_CTRL_TRANS_TIMEOVER_CNT ); // OUT
    9e4e:	6a09                	lui	s4,0x2
C:/Repository/RISKYKVM/firmware/src/User/USB_Host/ch32v20x_usbfs_host.c:417
                USBOTG_H_FS->HOST_TX_LEN = ( rem_len >= ep0_size )? ep0_size : rem_len;
    9e50:	8b56                	mv	s6,s5
    9e52:	500004b7          	lui	s1,0x50000
C:/Repository/RISKYKVM/firmware/src/User/USB_Host/ch32v20x_usbfs_host.c:423
                s = USBFSH_Transact( USB_PID_OUT << 4 | 0x00, USBOTG_H_FS->HOST_TX_CTRL, DEF_CTRL_TRANS_TIMEOVER_CNT ); // OUT
    9e56:	710a0a13          	addi	s4,s4,1808 # 2710 <__stack_size+0x1f10>
C:/Repository/RISKYKVM/firmware/src/User/USB_Host/ch32v20x_usbfs_host.c:416
                Delay_Us( 100 );
    9e5a:	06400513          	li	a0,100
    9e5e:	1d5030ef          	jal	ra,d832 <Delay_Us>
C:/Repository/RISKYKVM/firmware/src/User/USB_Host/ch32v20x_usbfs_host.c:417
                USBOTG_H_FS->HOST_TX_LEN = ( rem_len >= ep0_size )? ep0_size : rem_len;
    9e62:	87da                	mv	a5,s6
    9e64:	015bf363          	bgeu	s7,s5,9e6a <USBFSH_CtrlTransfer.part.1+0x66>
    9e68:	87de                	mv	a5,s7
    9e6a:	02f49e23          	sh	a5,60(s1) # 5000003c <_eusrstack+0x2fffb03c>
C:/Repository/RISKYKVM/firmware/src/User/USB_Host/ch32v20x_usbfs_host.c:418
                for( tx_cnt = 0; tx_cnt != USBOTG_H_FS->HOST_TX_LEN; tx_cnt++ )
    9e6e:	03c4d783          	lhu	a5,60(s1)
    9e72:	07c2                	slli	a5,a5,0x10
    9e74:	83c1                	srli	a5,a5,0x10
    9e76:	c385                	beqz	a5,9e96 <USBFSH_CtrlTransfer.part.1+0x92>
    9e78:	4781                	li	a5,0
C:/Repository/RISKYKVM/firmware/src/User/USB_Host/ch32v20x_usbfs_host.c:420
                    USBFS_TX_Buf[ tx_cnt ] = *pbuf;
    9e7a:	00044683          	lbu	a3,0(s0)
    9e7e:	00f90733          	add	a4,s2,a5
C:/Repository/RISKYKVM/firmware/src/User/USB_Host/ch32v20x_usbfs_host.c:418
                for( tx_cnt = 0; tx_cnt != USBOTG_H_FS->HOST_TX_LEN; tx_cnt++ )
    9e82:	0785                	addi	a5,a5,1
C:/Repository/RISKYKVM/firmware/src/User/USB_Host/ch32v20x_usbfs_host.c:420
                    USBFS_TX_Buf[ tx_cnt ] = *pbuf;
    9e84:	00d70023          	sb	a3,0(a4)
C:/Repository/RISKYKVM/firmware/src/User/USB_Host/ch32v20x_usbfs_host.c:418
                for( tx_cnt = 0; tx_cnt != USBOTG_H_FS->HOST_TX_LEN; tx_cnt++ )
    9e88:	03c4d703          	lhu	a4,60(s1)
    9e8c:	07c2                	slli	a5,a5,0x10
    9e8e:	83c1                	srli	a5,a5,0x10
C:/Repository/RISKYKVM/firmware/src/User/USB_Host/ch32v20x_usbfs_host.c:421
                    pbuf++;
    9e90:	0405                	addi	s0,s0,1
C:/Repository/RISKYKVM/firmware/src/User/USB_Host/ch32v20x_usbfs_host.c:418
                for( tx_cnt = 0; tx_cnt != USBOTG_H_FS->HOST_TX_LEN; tx_cnt++ )
    9e92:	fee794e3          	bne	a5,a4,9e7a <USBFSH_CtrlTransfer.part.1+0x76>
C:/Repository/RISKYKVM/firmware/src/User/USB_Host/ch32v20x_usbfs_host.c:423
                s = USBFSH_Transact( USB_PID_OUT << 4 | 0x00, USBOTG_H_FS->HOST_TX_CTRL, DEF_CTRL_TRANS_TIMEOVER_CNT ); // OUT
    9e96:	03e4c583          	lbu	a1,62(s1)
    9e9a:	8652                	mv	a2,s4
    9e9c:	4541                	li	a0,16
    9e9e:	352d                	jal	9cc8 <USBFSH_Transact>
C:/Repository/RISKYKVM/firmware/src/User/USB_Host/ch32v20x_usbfs_host.c:424
                if( s != ERR_SUCCESS )
    9ea0:	ed25                	bnez	a0,9f18 <USBFSH_CtrlTransfer.part.1+0x114>
C:/Repository/RISKYKVM/firmware/src/User/USB_Host/ch32v20x_usbfs_host.c:428
                {
                    return s;
                }
                USBOTG_H_FS->HOST_TX_CTRL ^= USBFS_UH_T_TOG;
    9ea2:	03e4c783          	lbu	a5,62(s1)
    9ea6:	0047c793          	xori	a5,a5,4
    9eaa:	02f48f23          	sb	a5,62(s1)
C:/Repository/RISKYKVM/firmware/src/User/USB_Host/ch32v20x_usbfs_host.c:430

                rem_len -= USBOTG_H_FS->HOST_TX_LEN;
    9eae:	03c4d783          	lhu	a5,60(s1)
    9eb2:	40fb8bb3          	sub	s7,s7,a5
    9eb6:	0bc2                	slli	s7,s7,0x10
    9eb8:	010bdb93          	srli	s7,s7,0x10
C:/Repository/RISKYKVM/firmware/src/User/USB_Host/ch32v20x_usbfs_host.c:431
                if( plen )
    9ebc:	00098963          	beqz	s3,9ece <USBFSH_CtrlTransfer.part.1+0xca>
C:/Repository/RISKYKVM/firmware/src/User/USB_Host/ch32v20x_usbfs_host.c:433
                {
                    *plen += USBOTG_H_FS->HOST_TX_LEN; // The total length of the actual successful transmission and reception
    9ec0:	03c4d783          	lhu	a5,60(s1)
    9ec4:	0009d703          	lhu	a4,0(s3)
    9ec8:	97ba                	add	a5,a5,a4
    9eca:	00f99023          	sh	a5,0(s3)
C:/Repository/RISKYKVM/firmware/src/User/USB_Host/ch32v20x_usbfs_host.c:414
            while( rem_len )
    9ece:	f80b96e3          	bnez	s7,9e5a <USBFSH_CtrlTransfer.part.1+0x56>
C:/Repository/RISKYKVM/firmware/src/User/USB_Host/ch32v20x_usbfs_host.c:438
                }
            }
        }
    }
    Delay_Us( 100 );
    9ed2:	06400513          	li	a0,100
    9ed6:	15d030ef          	jal	ra,d832 <Delay_Us>
C:/Repository/RISKYKVM/firmware/src/User/USB_Host/ch32v20x_usbfs_host.c:439
    s = USBFSH_Transact( ( USBOTG_H_FS->HOST_TX_LEN )? ( USB_PID_IN << 4 | 0x00 ) : ( USB_PID_OUT << 4 | 0x00 ), USBFS_UH_R_TOG | USBFS_UH_T_TOG, DEF_CTRL_TRANS_TIMEOVER_CNT ); // STATUS stage
    9eda:	50000437          	lui	s0,0x50000
    9ede:	03c45783          	lhu	a5,60(s0) # 5000003c <_eusrstack+0x2fffb03c>
    9ee2:	6609                	lui	a2,0x2
    9ee4:	71060613          	addi	a2,a2,1808 # 2710 <__stack_size+0x1f10>
    9ee8:	01079513          	slli	a0,a5,0x10
    9eec:	8141                	srli	a0,a0,0x10
    9eee:	00a03533          	snez	a0,a0
    9ef2:	40a00533          	neg	a0,a0
    9ef6:	08057513          	andi	a0,a0,128
    9efa:	4591                	li	a1,4
    9efc:	0541                	addi	a0,a0,16
    9efe:	33e9                	jal	9cc8 <USBFSH_Transact>
C:/Repository/RISKYKVM/firmware/src/User/USB_Host/ch32v20x_usbfs_host.c:440
    if( s != ERR_SUCCESS )
    9f00:	ed01                	bnez	a0,9f18 <USBFSH_CtrlTransfer.part.1+0x114>
C:/Repository/RISKYKVM/firmware/src/User/USB_Host/ch32v20x_usbfs_host.c:444
    {
        return s;
    }
    if( USBOTG_H_FS->HOST_TX_LEN == 0 )
    9f02:	03c45783          	lhu	a5,60(s0)
    9f06:	07c2                	slli	a5,a5,0x10
    9f08:	83c1                	srli	a5,a5,0x10
    9f0a:	c799                	beqz	a5,9f18 <USBFSH_CtrlTransfer.part.1+0x114>
C:/Repository/RISKYKVM/firmware/src/User/USB_Host/ch32v20x_usbfs_host.c:448
    {
        return ERR_SUCCESS;
    }
    if( USBOTG_H_FS->RX_LEN == 0 )
    9f0c:	00845783          	lhu	a5,8(s0)
    9f10:	07c2                	slli	a5,a5,0x10
    9f12:	83c1                	srli	a5,a5,0x10
    9f14:	c391                	beqz	a5,9f18 <USBFSH_CtrlTransfer.part.1+0x114>
C:/Repository/RISKYKVM/firmware/src/User/USB_Host/ch32v20x_usbfs_host.c:452
    {
        return ERR_SUCCESS;
    }
    return ERR_USB_BUF_OVER;
    9f16:	455d                	li	a0,23
C:/Repository/RISKYKVM/firmware/src/User/USB_Host/ch32v20x_usbfs_host.c:453
}
    9f18:	50b2                	lw	ra,44(sp)
    9f1a:	5422                	lw	s0,40(sp)
    9f1c:	5492                	lw	s1,36(sp)
    9f1e:	5902                	lw	s2,32(sp)
    9f20:	49f2                	lw	s3,28(sp)
    9f22:	4a62                	lw	s4,24(sp)
    9f24:	4ad2                	lw	s5,20(sp)
    9f26:	4b42                	lw	s6,16(sp)
    9f28:	4bb2                	lw	s7,12(sp)
    9f2a:	4c22                	lw	s8,8(sp)
    9f2c:	6145                	addi	sp,sp,48
    9f2e:	8082                	ret
    9f30:	20002ab7          	lui	s5,0x20002
C:/Repository/RISKYKVM/firmware/src/User/USB_Host/ch32v20x_usbfs_host.c:385
                s = USBFSH_Transact( ( USB_PID_IN << 4 ) | 0x00, USBOTG_H_FS->HOST_RX_CTRL, DEF_CTRL_TRANS_TIMEOVER_CNT );  // IN
    9f34:	6909                	lui	s2,0x2
    9f36:	20002a37          	lui	s4,0x20002
    9f3a:	50000b37          	lui	s6,0x50000
    9f3e:	71090913          	addi	s2,s2,1808 # 2710 <__stack_size+0x1f10>
    9f42:	a60a8c13          	addi	s8,s5,-1440 # 20001a60 <USBFS_RX_Buf>
    9f46:	a64a0a13          	addi	s4,s4,-1436 # 20001a64 <USBFS_RX_Buf+0x4>
C:/Repository/RISKYKVM/firmware/src/User/USB_Host/ch32v20x_usbfs_host.c:404
                if( ( USBOTG_H_FS->RX_LEN == 0 ) || ( USBOTG_H_FS->RX_LEN & ( ep0_size - 1 ) ) )
    9f4a:	fff50493          	addi	s1,a0,-1
C:/Repository/RISKYKVM/firmware/src/User/USB_Host/ch32v20x_usbfs_host.c:384
                Delay_Us( 100 );
    9f4e:	06400513          	li	a0,100
    9f52:	0e1030ef          	jal	ra,d832 <Delay_Us>
C:/Repository/RISKYKVM/firmware/src/User/USB_Host/ch32v20x_usbfs_host.c:385
                s = USBFSH_Transact( ( USB_PID_IN << 4 ) | 0x00, USBOTG_H_FS->HOST_RX_CTRL, DEF_CTRL_TRANS_TIMEOVER_CNT );  // IN
    9f56:	03bb4583          	lbu	a1,59(s6) # 5000003b <_eusrstack+0x2fffb03b>
    9f5a:	864a                	mv	a2,s2
    9f5c:	09000513          	li	a0,144
    9f60:	33a5                	jal	9cc8 <USBFSH_Transact>
C:/Repository/RISKYKVM/firmware/src/User/USB_Host/ch32v20x_usbfs_host.c:386
                if( s != ERR_SUCCESS )
    9f62:	f95d                	bnez	a0,9f18 <USBFSH_CtrlTransfer.part.1+0x114>
C:/Repository/RISKYKVM/firmware/src/User/USB_Host/ch32v20x_usbfs_host.c:390
                USBOTG_H_FS->HOST_RX_CTRL ^= USBFS_UH_R_TOG;
    9f64:	03bb4783          	lbu	a5,59(s6)
    9f68:	0047c793          	xori	a5,a5,4
    9f6c:	02fb0da3          	sb	a5,59(s6)
C:/Repository/RISKYKVM/firmware/src/User/USB_Host/ch32v20x_usbfs_host.c:392
                rx_len = ( USBOTG_H_FS->RX_LEN < rem_len )? USBOTG_H_FS->RX_LEN : rem_len;
    9f70:	008b5783          	lhu	a5,8(s6)
    9f74:	1977f163          	bgeu	a5,s7,a0f6 <USBFSH_CtrlTransfer.part.1+0x2f2>
    9f78:	008b5603          	lhu	a2,8(s6)
    9f7c:	0642                	slli	a2,a2,0x10
    9f7e:	8241                	srli	a2,a2,0x10
    9f80:	40cb8bb3          	sub	s7,s7,a2
    9f84:	0bc2                	slli	s7,s7,0x10
    9f86:	010bdb93          	srli	s7,s7,0x10
C:/Repository/RISKYKVM/firmware/src/User/USB_Host/ch32v20x_usbfs_host.c:394
                if( plen )
    9f8a:	00098763          	beqz	s3,9f98 <USBFSH_CtrlTransfer.part.1+0x194>
C:/Repository/RISKYKVM/firmware/src/User/USB_Host/ch32v20x_usbfs_host.c:396
                    *plen += rx_len; // The total length of the actual successful transmission and reception
    9f8e:	0009d783          	lhu	a5,0(s3)
    9f92:	97b2                	add	a5,a5,a2
    9f94:	00f99023          	sh	a5,0(s3)
C:/Repository/RISKYKVM/firmware/src/User/USB_Host/ch32v20x_usbfs_host.c:398
                for( rx_cnt = 0; rx_cnt != rx_len; rx_cnt++ )
    9f98:	12060f63          	beqz	a2,a0d6 <USBFSH_CtrlTransfer.part.1+0x2d2>
    9f9c:	00440713          	addi	a4,s0,4
    9fa0:	00ec3733          	sltu	a4,s8,a4
    9fa4:	014436b3          	sltu	a3,s0,s4
    9fa8:	00174713          	xori	a4,a4,1
    9fac:	0016c693          	xori	a3,a3,1
    9fb0:	00347793          	andi	a5,s0,3
    9fb4:	8ed9                	or	a3,a3,a4
    9fb6:	0017b793          	seqz	a5,a5
    9fba:	fff60713          	addi	a4,a2,-1
    9fbe:	0742                	slli	a4,a4,0x10
    9fc0:	8ff5                	and	a5,a5,a3
    9fc2:	8341                	srli	a4,a4,0x10
    9fc4:	12078e63          	beqz	a5,a100 <USBFSH_CtrlTransfer.part.1+0x2fc>
    9fc8:	00873793          	sltiu	a5,a4,8
    9fcc:	12079a63          	bnez	a5,a100 <USBFSH_CtrlTransfer.part.1+0x2fc>
C:/Repository/RISKYKVM/firmware/src/User/USB_Host/ch32v20x_usbfs_host.c:400
                    *pbuf = USBFS_RX_Buf[ rx_cnt ];
    9fd0:	a60aa683          	lw	a3,-1440(s5)
    9fd4:	00265793          	srli	a5,a2,0x2
    9fd8:	07c2                	slli	a5,a5,0x10
    9fda:	c014                	sw	a3,0(s0)
    9fdc:	004c2583          	lw	a1,4(s8)
    9fe0:	83c1                	srli	a5,a5,0x10
    9fe2:	4689                	li	a3,2
    9fe4:	c04c                	sw	a1,4(s0)
C:/Repository/RISKYKVM/firmware/src/User/USB_Host/ch32v20x_usbfs_host.c:401
                    pbuf++;
    9fe6:	0ad78363          	beq	a5,a3,a08c <USBFSH_CtrlTransfer.part.1+0x288>
C:/Repository/RISKYKVM/firmware/src/User/USB_Host/ch32v20x_usbfs_host.c:400
                    *pbuf = USBFS_RX_Buf[ rx_cnt ];
    9fea:	008c2583          	lw	a1,8(s8)
    9fee:	468d                	li	a3,3
    9ff0:	c40c                	sw	a1,8(s0)
C:/Repository/RISKYKVM/firmware/src/User/USB_Host/ch32v20x_usbfs_host.c:401
                    pbuf++;
    9ff2:	08d78d63          	beq	a5,a3,a08c <USBFSH_CtrlTransfer.part.1+0x288>
C:/Repository/RISKYKVM/firmware/src/User/USB_Host/ch32v20x_usbfs_host.c:400
                    *pbuf = USBFS_RX_Buf[ rx_cnt ];
    9ff6:	00cc2583          	lw	a1,12(s8)
    9ffa:	4691                	li	a3,4
    9ffc:	c44c                	sw	a1,12(s0)
C:/Repository/RISKYKVM/firmware/src/User/USB_Host/ch32v20x_usbfs_host.c:401
                    pbuf++;
    9ffe:	08d78763          	beq	a5,a3,a08c <USBFSH_CtrlTransfer.part.1+0x288>
C:/Repository/RISKYKVM/firmware/src/User/USB_Host/ch32v20x_usbfs_host.c:400
                    *pbuf = USBFS_RX_Buf[ rx_cnt ];
    a002:	010c2583          	lw	a1,16(s8)
    a006:	4695                	li	a3,5
    a008:	c80c                	sw	a1,16(s0)
C:/Repository/RISKYKVM/firmware/src/User/USB_Host/ch32v20x_usbfs_host.c:401
                    pbuf++;
    a00a:	08d78163          	beq	a5,a3,a08c <USBFSH_CtrlTransfer.part.1+0x288>
C:/Repository/RISKYKVM/firmware/src/User/USB_Host/ch32v20x_usbfs_host.c:400
                    *pbuf = USBFS_RX_Buf[ rx_cnt ];
    a00e:	014c2583          	lw	a1,20(s8)
    a012:	4699                	li	a3,6
    a014:	c84c                	sw	a1,20(s0)
C:/Repository/RISKYKVM/firmware/src/User/USB_Host/ch32v20x_usbfs_host.c:401
                    pbuf++;
    a016:	06d78b63          	beq	a5,a3,a08c <USBFSH_CtrlTransfer.part.1+0x288>
C:/Repository/RISKYKVM/firmware/src/User/USB_Host/ch32v20x_usbfs_host.c:400
                    *pbuf = USBFS_RX_Buf[ rx_cnt ];
    a01a:	018c2583          	lw	a1,24(s8)
    a01e:	469d                	li	a3,7
    a020:	cc0c                	sw	a1,24(s0)
C:/Repository/RISKYKVM/firmware/src/User/USB_Host/ch32v20x_usbfs_host.c:401
                    pbuf++;
    a022:	06d78563          	beq	a5,a3,a08c <USBFSH_CtrlTransfer.part.1+0x288>
C:/Repository/RISKYKVM/firmware/src/User/USB_Host/ch32v20x_usbfs_host.c:400
                    *pbuf = USBFS_RX_Buf[ rx_cnt ];
    a026:	01cc2583          	lw	a1,28(s8)
    a02a:	46a1                	li	a3,8
    a02c:	cc4c                	sw	a1,28(s0)
C:/Repository/RISKYKVM/firmware/src/User/USB_Host/ch32v20x_usbfs_host.c:401
                    pbuf++;
    a02e:	04d78f63          	beq	a5,a3,a08c <USBFSH_CtrlTransfer.part.1+0x288>
C:/Repository/RISKYKVM/firmware/src/User/USB_Host/ch32v20x_usbfs_host.c:400
                    *pbuf = USBFS_RX_Buf[ rx_cnt ];
    a032:	020c2583          	lw	a1,32(s8)
    a036:	46a5                	li	a3,9
    a038:	d00c                	sw	a1,32(s0)
C:/Repository/RISKYKVM/firmware/src/User/USB_Host/ch32v20x_usbfs_host.c:401
                    pbuf++;
    a03a:	04d78963          	beq	a5,a3,a08c <USBFSH_CtrlTransfer.part.1+0x288>
C:/Repository/RISKYKVM/firmware/src/User/USB_Host/ch32v20x_usbfs_host.c:400
                    *pbuf = USBFS_RX_Buf[ rx_cnt ];
    a03e:	024c2583          	lw	a1,36(s8)
    a042:	46a9                	li	a3,10
    a044:	d04c                	sw	a1,36(s0)
C:/Repository/RISKYKVM/firmware/src/User/USB_Host/ch32v20x_usbfs_host.c:401
                    pbuf++;
    a046:	04d78363          	beq	a5,a3,a08c <USBFSH_CtrlTransfer.part.1+0x288>
C:/Repository/RISKYKVM/firmware/src/User/USB_Host/ch32v20x_usbfs_host.c:400
                    *pbuf = USBFS_RX_Buf[ rx_cnt ];
    a04a:	028c2583          	lw	a1,40(s8)
    a04e:	46ad                	li	a3,11
    a050:	d40c                	sw	a1,40(s0)
C:/Repository/RISKYKVM/firmware/src/User/USB_Host/ch32v20x_usbfs_host.c:401
                    pbuf++;
    a052:	02d78d63          	beq	a5,a3,a08c <USBFSH_CtrlTransfer.part.1+0x288>
C:/Repository/RISKYKVM/firmware/src/User/USB_Host/ch32v20x_usbfs_host.c:400
                    *pbuf = USBFS_RX_Buf[ rx_cnt ];
    a056:	02cc2583          	lw	a1,44(s8)
    a05a:	46b1                	li	a3,12
    a05c:	d44c                	sw	a1,44(s0)
C:/Repository/RISKYKVM/firmware/src/User/USB_Host/ch32v20x_usbfs_host.c:401
                    pbuf++;
    a05e:	02d78763          	beq	a5,a3,a08c <USBFSH_CtrlTransfer.part.1+0x288>
C:/Repository/RISKYKVM/firmware/src/User/USB_Host/ch32v20x_usbfs_host.c:400
                    *pbuf = USBFS_RX_Buf[ rx_cnt ];
    a062:	030c2583          	lw	a1,48(s8)
    a066:	46b5                	li	a3,13
    a068:	d80c                	sw	a1,48(s0)
C:/Repository/RISKYKVM/firmware/src/User/USB_Host/ch32v20x_usbfs_host.c:401
                    pbuf++;
    a06a:	02d78163          	beq	a5,a3,a08c <USBFSH_CtrlTransfer.part.1+0x288>
C:/Repository/RISKYKVM/firmware/src/User/USB_Host/ch32v20x_usbfs_host.c:400
                    *pbuf = USBFS_RX_Buf[ rx_cnt ];
    a06e:	034c2583          	lw	a1,52(s8)
    a072:	46b9                	li	a3,14
    a074:	d84c                	sw	a1,52(s0)
C:/Repository/RISKYKVM/firmware/src/User/USB_Host/ch32v20x_usbfs_host.c:401
                    pbuf++;
    a076:	00d78b63          	beq	a5,a3,a08c <USBFSH_CtrlTransfer.part.1+0x288>
C:/Repository/RISKYKVM/firmware/src/User/USB_Host/ch32v20x_usbfs_host.c:400
                    *pbuf = USBFS_RX_Buf[ rx_cnt ];
    a07a:	038c2583          	lw	a1,56(s8)
    a07e:	46bd                	li	a3,15
    a080:	dc0c                	sw	a1,56(s0)
C:/Repository/RISKYKVM/firmware/src/User/USB_Host/ch32v20x_usbfs_host.c:401
                    pbuf++;
    a082:	00d78563          	beq	a5,a3,a08c <USBFSH_CtrlTransfer.part.1+0x288>
C:/Repository/RISKYKVM/firmware/src/User/USB_Host/ch32v20x_usbfs_host.c:400
                    *pbuf = USBFS_RX_Buf[ rx_cnt ];
    a086:	03cc2783          	lw	a5,60(s8)
    a08a:	dc5c                	sw	a5,60(s0)
C:/Repository/RISKYKVM/firmware/src/User/USB_Host/ch32v20x_usbfs_host.c:401
                    pbuf++;
    a08c:	ffc67793          	andi	a5,a2,-4
    a090:	07c2                	slli	a5,a5,0x10
    a092:	83c1                	srli	a5,a5,0x10
    a094:	00f405b3          	add	a1,s0,a5
    a098:	0705                	addi	a4,a4,1
    a09a:	02c78d63          	beq	a5,a2,a0d4 <USBFSH_CtrlTransfer.part.1+0x2d0>
C:/Repository/RISKYKVM/firmware/src/User/USB_Host/ch32v20x_usbfs_host.c:400
                    *pbuf = USBFS_RX_Buf[ rx_cnt ];
    a09e:	018786b3          	add	a3,a5,s8
    a0a2:	0006c503          	lbu	a0,0(a3)
C:/Repository/RISKYKVM/firmware/src/User/USB_Host/ch32v20x_usbfs_host.c:398
                for( rx_cnt = 0; rx_cnt != rx_len; rx_cnt++ )
    a0a6:	00178693          	addi	a3,a5,1
    a0aa:	06c2                	slli	a3,a3,0x10
    a0ac:	82c1                	srli	a3,a3,0x10
C:/Repository/RISKYKVM/firmware/src/User/USB_Host/ch32v20x_usbfs_host.c:400
                    *pbuf = USBFS_RX_Buf[ rx_cnt ];
    a0ae:	00a58023          	sb	a0,0(a1) # 4000 <__stack_size+0x3800>
C:/Repository/RISKYKVM/firmware/src/User/USB_Host/ch32v20x_usbfs_host.c:398
                for( rx_cnt = 0; rx_cnt != rx_len; rx_cnt++ )
    a0b2:	02c68163          	beq	a3,a2,a0d4 <USBFSH_CtrlTransfer.part.1+0x2d0>
C:/Repository/RISKYKVM/firmware/src/User/USB_Host/ch32v20x_usbfs_host.c:400
                    *pbuf = USBFS_RX_Buf[ rx_cnt ];
    a0b6:	96e2                	add	a3,a3,s8
    a0b8:	0006c683          	lbu	a3,0(a3)
C:/Repository/RISKYKVM/firmware/src/User/USB_Host/ch32v20x_usbfs_host.c:398
                for( rx_cnt = 0; rx_cnt != rx_len; rx_cnt++ )
    a0bc:	0789                	addi	a5,a5,2
    a0be:	07c2                	slli	a5,a5,0x10
    a0c0:	83c1                	srli	a5,a5,0x10
C:/Repository/RISKYKVM/firmware/src/User/USB_Host/ch32v20x_usbfs_host.c:400
                    *pbuf = USBFS_RX_Buf[ rx_cnt ];
    a0c2:	00d580a3          	sb	a3,1(a1)
C:/Repository/RISKYKVM/firmware/src/User/USB_Host/ch32v20x_usbfs_host.c:398
                for( rx_cnt = 0; rx_cnt != rx_len; rx_cnt++ )
    a0c6:	00c78763          	beq	a5,a2,a0d4 <USBFSH_CtrlTransfer.part.1+0x2d0>
C:/Repository/RISKYKVM/firmware/src/User/USB_Host/ch32v20x_usbfs_host.c:400
                    *pbuf = USBFS_RX_Buf[ rx_cnt ];
    a0ca:	97e2                	add	a5,a5,s8
    a0cc:	0007c783          	lbu	a5,0(a5)
    a0d0:	00f58123          	sb	a5,2(a1)
C:/Repository/RISKYKVM/firmware/src/User/USB_Host/ch32v20x_usbfs_host.c:401
                    pbuf++;
    a0d4:	943a                	add	s0,s0,a4
C:/Repository/RISKYKVM/firmware/src/User/USB_Host/ch32v20x_usbfs_host.c:404
                if( ( USBOTG_H_FS->RX_LEN == 0 ) || ( USBOTG_H_FS->RX_LEN & ( ep0_size - 1 ) ) )
    a0d6:	008b5783          	lhu	a5,8(s6)
    a0da:	07c2                	slli	a5,a5,0x10
    a0dc:	83c1                	srli	a5,a5,0x10
    a0de:	c799                	beqz	a5,a0ec <USBFSH_CtrlTransfer.part.1+0x2e8>
    a0e0:	008b5783          	lhu	a5,8(s6)
    a0e4:	8fe5                	and	a5,a5,s1
    a0e6:	e399                	bnez	a5,a0ec <USBFSH_CtrlTransfer.part.1+0x2e8>
C:/Repository/RISKYKVM/firmware/src/User/USB_Host/ch32v20x_usbfs_host.c:382
            while( rem_len )
    a0e8:	e60b93e3          	bnez	s7,9f4e <USBFSH_CtrlTransfer.part.1+0x14a>
C:/Repository/RISKYKVM/firmware/src/User/USB_Host/ch32v20x_usbfs_host.c:409
            USBOTG_H_FS->HOST_TX_LEN = 0; // Status stage is OUT
    a0ec:	500007b7          	lui	a5,0x50000
    a0f0:	02079e23          	sh	zero,60(a5) # 5000003c <_eusrstack+0x2fffb03c>
    a0f4:	bbf9                	j	9ed2 <USBFSH_CtrlTransfer.part.1+0xce>
C:/Repository/RISKYKVM/firmware/src/User/USB_Host/ch32v20x_usbfs_host.c:394
                if( plen )
    a0f6:	865e                	mv	a2,s7
    a0f8:	4b81                	li	s7,0
    a0fa:	e8099ae3          	bnez	s3,9f8e <USBFSH_CtrlTransfer.part.1+0x18a>
    a0fe:	bd79                	j	9f9c <USBFSH_CtrlTransfer.part.1+0x198>
    a100:	0705                	addi	a4,a4,1
    a102:	86e2                	mv	a3,s8
    a104:	00e405b3          	add	a1,s0,a4
    a108:	87a2                	mv	a5,s0
C:/Repository/RISKYKVM/firmware/src/User/USB_Host/ch32v20x_usbfs_host.c:400
                    *pbuf = USBFS_RX_Buf[ rx_cnt ];
    a10a:	0006c603          	lbu	a2,0(a3)
C:/Repository/RISKYKVM/firmware/src/User/USB_Host/ch32v20x_usbfs_host.c:401
                    pbuf++;
    a10e:	0785                	addi	a5,a5,1
    a110:	0685                	addi	a3,a3,1
C:/Repository/RISKYKVM/firmware/src/User/USB_Host/ch32v20x_usbfs_host.c:400
                    *pbuf = USBFS_RX_Buf[ rx_cnt ];
    a112:	fec78fa3          	sb	a2,-1(a5)
C:/Repository/RISKYKVM/firmware/src/User/USB_Host/ch32v20x_usbfs_host.c:398
                for( rx_cnt = 0; rx_cnt != rx_len; rx_cnt++ )
    a116:	feb79ae3          	bne	a5,a1,a10a <USBFSH_CtrlTransfer.part.1+0x306>
    a11a:	bf6d                	j	a0d4 <USBFSH_CtrlTransfer.part.1+0x2d0>

0000a11c <USBFSH_CtrlTransfer>:
C:/Repository/RISKYKVM/firmware/src/User/USB_Host/ch32v20x_usbfs_host.c:360
{
    a11c:	1141                	addi	sp,sp,-16
    a11e:	c422                	sw	s0,8(sp)
    a120:	c226                	sw	s1,4(sp)
    a122:	8432                	mv	s0,a2
    a124:	84aa                	mv	s1,a0
C:/Repository/RISKYKVM/firmware/src/User/USB_Host/ch32v20x_usbfs_host.c:364
    Delay_Us( 100 );
    a126:	06400513          	li	a0,100
C:/Repository/RISKYKVM/firmware/src/User/USB_Host/ch32v20x_usbfs_host.c:360
{
    a12a:	c04a                	sw	s2,0(sp)
    a12c:	c606                	sw	ra,12(sp)
    a12e:	892e                	mv	s2,a1
C:/Repository/RISKYKVM/firmware/src/User/USB_Host/ch32v20x_usbfs_host.c:364
    Delay_Us( 100 );
    a130:	702030ef          	jal	ra,d832 <Delay_Us>
C:/Repository/RISKYKVM/firmware/src/User/USB_Host/ch32v20x_usbfs_host.c:365
    if( plen )
    a134:	c019                	beqz	s0,a13a <USBFSH_CtrlTransfer+0x1e>
C:/Repository/RISKYKVM/firmware/src/User/USB_Host/ch32v20x_usbfs_host.c:367
        *plen = 0;
    a136:	00041023          	sh	zero,0(s0)
C:/Repository/RISKYKVM/firmware/src/User/USB_Host/ch32v20x_usbfs_host.c:369
    USBOTG_H_FS->HOST_TX_LEN = sizeof( USB_SETUP_REQ );
    a13a:	500007b7          	lui	a5,0x50000
    a13e:	4721                	li	a4,8
C:/Repository/RISKYKVM/firmware/src/User/USB_Host/ch32v20x_usbfs_host.c:370
    s = USBFSH_Transact( ( USB_PID_SETUP << 4 ) | 0x00, 0x00, DEF_CTRL_TRANS_TIMEOVER_CNT );  // SETUP stage
    a140:	6609                	lui	a2,0x2
C:/Repository/RISKYKVM/firmware/src/User/USB_Host/ch32v20x_usbfs_host.c:369
    USBOTG_H_FS->HOST_TX_LEN = sizeof( USB_SETUP_REQ );
    a142:	02e79e23          	sh	a4,60(a5) # 5000003c <_eusrstack+0x2fffb03c>
C:/Repository/RISKYKVM/firmware/src/User/USB_Host/ch32v20x_usbfs_host.c:370
    s = USBFSH_Transact( ( USB_PID_SETUP << 4 ) | 0x00, 0x00, DEF_CTRL_TRANS_TIMEOVER_CNT );  // SETUP stage
    a146:	71060613          	addi	a2,a2,1808 # 2710 <__stack_size+0x1f10>
    a14a:	4581                	li	a1,0
    a14c:	0d000513          	li	a0,208
    a150:	3ea5                	jal	9cc8 <USBFSH_Transact>
C:/Repository/RISKYKVM/firmware/src/User/USB_Host/ch32v20x_usbfs_host.c:371
    if( s != ERR_SUCCESS )
    a152:	e911                	bnez	a0,a166 <USBFSH_CtrlTransfer+0x4a>
    a154:	8622                	mv	a2,s0
C:/Repository/RISKYKVM/firmware/src/User/USB_Host/ch32v20x_usbfs_host.c:453
}
    a156:	4422                	lw	s0,8(sp)
    a158:	40b2                	lw	ra,12(sp)
    a15a:	85ca                	mv	a1,s2
    a15c:	8526                	mv	a0,s1
    a15e:	4902                	lw	s2,0(sp)
    a160:	4492                	lw	s1,4(sp)
    a162:	0141                	addi	sp,sp,16
    a164:	b145                	j	9e04 <USBFSH_CtrlTransfer.part.1>
    a166:	40b2                	lw	ra,12(sp)
    a168:	4422                	lw	s0,8(sp)
    a16a:	4492                	lw	s1,4(sp)
    a16c:	4902                	lw	s2,0(sp)
    a16e:	0141                	addi	sp,sp,16
    a170:	8082                	ret

0000a172 <USBFSH_GetDeviceDescr>:
USBFSH_GetDeviceDescr():
C:/Repository/RISKYKVM/firmware/src/User/USB_Host/ch32v20x_usbfs_host.c:466
 *          pbuf: Data buffer
 *
 * @return  The result of getting the device descriptor.
 */
uint8_t USBFSH_GetDeviceDescr( uint8_t *pep0_size, uint8_t *pbuf )
{
    a172:	7179                	addi	sp,sp,-48
    a174:	d422                	sw	s0,40(sp)
C:/Repository/RISKYKVM/firmware/src/User/USB_Host/ch32v20x_usbfs_host.c:471
    uint8_t  s;
    uint16_t len;

    *pep0_size = DEFAULT_ENDP0_SIZE;
    memcpy( pUSBFS_SetupRequest, SetupGetDevDesc, sizeof( USB_SETUP_REQ ) );
    a176:	81818413          	addi	s0,gp,-2024 # 20000018 <SetupGetDevDesc>
    a17a:	4010                	lw	a2,0(s0)
C:/Repository/RISKYKVM/firmware/src/User/USB_Host/ch32v20x_usbfs_host.c:466
{
    a17c:	d226                	sw	s1,36(sp)
    a17e:	d04a                	sw	s2,32(sp)
    a180:	d606                	sw	ra,44(sp)
    a182:	ce4e                	sw	s3,28(sp)
C:/Repository/RISKYKVM/firmware/src/User/USB_Host/ch32v20x_usbfs_host.c:471
    memcpy( pUSBFS_SetupRequest, SetupGetDevDesc, sizeof( USB_SETUP_REQ ) );
    a184:	4054                	lw	a3,4(s0)
C:/Repository/RISKYKVM/firmware/src/User/USB_Host/ch32v20x_usbfs_host.c:470
    *pep0_size = DEFAULT_ENDP0_SIZE;
    a186:	4721                	li	a4,8
    a188:	00e50023          	sb	a4,0(a0)
C:/Repository/RISKYKVM/firmware/src/User/USB_Host/ch32v20x_usbfs_host.c:471
    memcpy( pUSBFS_SetupRequest, SetupGetDevDesc, sizeof( USB_SETUP_REQ ) );
    a18c:	200027b7          	lui	a5,0x20002
    a190:	aac7a023          	sw	a2,-1376(a5) # 20001aa0 <USBFS_TX_Buf>
    a194:	aa078713          	addi	a4,a5,-1376
    a198:	c354                	sw	a3,4(a4)
C:/Repository/RISKYKVM/firmware/src/User/USB_Host/ch32v20x_usbfs_host.c:466
{
    a19a:	84aa                	mv	s1,a0
USBFSH_CtrlTransfer():
C:/Repository/RISKYKVM/firmware/src/User/USB_Host/ch32v20x_usbfs_host.c:364
    Delay_Us( 100 );
    a19c:	06400513          	li	a0,100
USBFSH_GetDeviceDescr():
C:/Repository/RISKYKVM/firmware/src/User/USB_Host/ch32v20x_usbfs_host.c:466
{
    a1a0:	892e                	mv	s2,a1
C:/Repository/RISKYKVM/firmware/src/User/USB_Host/ch32v20x_usbfs_host.c:472
    s = USBFSH_CtrlTransfer( *pep0_size, pbuf, &len );
    a1a2:	0004c983          	lbu	s3,0(s1)
USBFSH_CtrlTransfer():
C:/Repository/RISKYKVM/firmware/src/User/USB_Host/ch32v20x_usbfs_host.c:364
    Delay_Us( 100 );
    a1a6:	68c030ef          	jal	ra,d832 <Delay_Us>
C:/Repository/RISKYKVM/firmware/src/User/USB_Host/ch32v20x_usbfs_host.c:369
    USBOTG_H_FS->HOST_TX_LEN = sizeof( USB_SETUP_REQ );
    a1aa:	500007b7          	lui	a5,0x50000
C:/Repository/RISKYKVM/firmware/src/User/USB_Host/ch32v20x_usbfs_host.c:367
        *plen = 0;
    a1ae:	00011723          	sh	zero,14(sp)
C:/Repository/RISKYKVM/firmware/src/User/USB_Host/ch32v20x_usbfs_host.c:369
    USBOTG_H_FS->HOST_TX_LEN = sizeof( USB_SETUP_REQ );
    a1b2:	4721                	li	a4,8
C:/Repository/RISKYKVM/firmware/src/User/USB_Host/ch32v20x_usbfs_host.c:370
    s = USBFSH_Transact( ( USB_PID_SETUP << 4 ) | 0x00, 0x00, DEF_CTRL_TRANS_TIMEOVER_CNT );  // SETUP stage
    a1b4:	6609                	lui	a2,0x2
C:/Repository/RISKYKVM/firmware/src/User/USB_Host/ch32v20x_usbfs_host.c:369
    USBOTG_H_FS->HOST_TX_LEN = sizeof( USB_SETUP_REQ );
    a1b6:	02e79e23          	sh	a4,60(a5) # 5000003c <_eusrstack+0x2fffb03c>
C:/Repository/RISKYKVM/firmware/src/User/USB_Host/ch32v20x_usbfs_host.c:370
    s = USBFSH_Transact( ( USB_PID_SETUP << 4 ) | 0x00, 0x00, DEF_CTRL_TRANS_TIMEOVER_CNT );  // SETUP stage
    a1ba:	71060613          	addi	a2,a2,1808 # 2710 <__stack_size+0x1f10>
    a1be:	4581                	li	a1,0
    a1c0:	0d000513          	li	a0,208
    a1c4:	3611                	jal	9cc8 <USBFSH_Transact>
C:/Repository/RISKYKVM/firmware/src/User/USB_Host/ch32v20x_usbfs_host.c:371
    if( s != ERR_SUCCESS )
    a1c6:	e10d                	bnez	a0,a1e8 <USBFSH_GetDeviceDescr+0x76>
    a1c8:	00e10613          	addi	a2,sp,14
    a1cc:	85ca                	mv	a1,s2
    a1ce:	854e                	mv	a0,s3
    a1d0:	3915                	jal	9e04 <USBFSH_CtrlTransfer.part.1>
USBFSH_GetDeviceDescr():
C:/Repository/RISKYKVM/firmware/src/User/USB_Host/ch32v20x_usbfs_host.c:473
    if( s != ERR_SUCCESS )
    a1d2:	e919                	bnez	a0,a1e8 <USBFSH_GetDeviceDescr+0x76>
C:/Repository/RISKYKVM/firmware/src/User/USB_Host/ch32v20x_usbfs_host.c:478
    {
        return s;
    }

    *pep0_size = ( (PUSB_DEV_DESCR)pbuf )->bMaxPacketSize0;
    a1d4:	00794683          	lbu	a3,7(s2)
C:/Repository/RISKYKVM/firmware/src/User/USB_Host/ch32v20x_usbfs_host.c:479
    if( len < ( (PUSB_SETUP_REQ)SetupGetDevDesc )->wLength )
    a1d8:	00645703          	lhu	a4,6(s0)
    a1dc:	00e15783          	lhu	a5,14(sp)
C:/Repository/RISKYKVM/firmware/src/User/USB_Host/ch32v20x_usbfs_host.c:478
    *pep0_size = ( (PUSB_DEV_DESCR)pbuf )->bMaxPacketSize0;
    a1e0:	00d48023          	sb	a3,0(s1)
C:/Repository/RISKYKVM/firmware/src/User/USB_Host/ch32v20x_usbfs_host.c:479
    if( len < ( (PUSB_SETUP_REQ)SetupGetDevDesc )->wLength )
    a1e4:	00e7e963          	bltu	a5,a4,a1f6 <USBFSH_GetDeviceDescr+0x84>
C:/Repository/RISKYKVM/firmware/src/User/USB_Host/ch32v20x_usbfs_host.c:484
    {
        return ERR_USB_BUF_OVER;
    }
    return ERR_SUCCESS;
}
    a1e8:	50b2                	lw	ra,44(sp)
    a1ea:	5422                	lw	s0,40(sp)
    a1ec:	5492                	lw	s1,36(sp)
    a1ee:	5902                	lw	s2,32(sp)
    a1f0:	49f2                	lw	s3,28(sp)
    a1f2:	6145                	addi	sp,sp,48
    a1f4:	8082                	ret
    a1f6:	50b2                	lw	ra,44(sp)
    a1f8:	5422                	lw	s0,40(sp)
    a1fa:	5492                	lw	s1,36(sp)
    a1fc:	5902                	lw	s2,32(sp)
    a1fe:	49f2                	lw	s3,28(sp)
C:/Repository/RISKYKVM/firmware/src/User/USB_Host/ch32v20x_usbfs_host.c:481
        return ERR_USB_BUF_OVER;
    a200:	455d                	li	a0,23
C:/Repository/RISKYKVM/firmware/src/User/USB_Host/ch32v20x_usbfs_host.c:484
}
    a202:	6145                	addi	sp,sp,48
    a204:	8082                	ret

0000a206 <USBFSH_GetConfigDescr>:
USBFSH_GetConfigDescr():
C:/Repository/RISKYKVM/firmware/src/User/USB_Host/ch32v20x_usbfs_host.c:499
 *          pcfg_len: The length of the device configuration descriptor
 *
 * @return  The result of getting the configuration descriptor.
 */
uint8_t USBFSH_GetConfigDescr( uint8_t ep0_size, uint8_t *pbuf, uint16_t buf_len, uint16_t *pcfg_len )
{
    a206:	1101                	addi	sp,sp,-32
    a208:	cc22                	sw	s0,24(sp)
C:/Repository/RISKYKVM/firmware/src/User/USB_Host/ch32v20x_usbfs_host.c:502
    uint8_t  s;
    
    memcpy( pUSBFS_SetupRequest, SetupGetCfgDesc, sizeof( USB_SETUP_REQ ) );
    a20a:	81018413          	addi	s0,gp,-2032 # 20000010 <SetupGetCfgDesc>
    a20e:	4018                	lw	a4,0(s0)
    a210:	405c                	lw	a5,4(s0)
C:/Repository/RISKYKVM/firmware/src/User/USB_Host/ch32v20x_usbfs_host.c:499
{
    a212:	c84a                	sw	s2,16(sp)
C:/Repository/RISKYKVM/firmware/src/User/USB_Host/ch32v20x_usbfs_host.c:502
    memcpy( pUSBFS_SetupRequest, SetupGetCfgDesc, sizeof( USB_SETUP_REQ ) );
    a214:	20002937          	lui	s2,0x20002
C:/Repository/RISKYKVM/firmware/src/User/USB_Host/ch32v20x_usbfs_host.c:499
{
    a218:	ca26                	sw	s1,20(sp)
    a21a:	c452                	sw	s4,8(sp)
    a21c:	c256                	sw	s5,4(sp)
    a21e:	84b6                	mv	s1,a3
    a220:	8aaa                	mv	s5,a0
C:/Repository/RISKYKVM/firmware/src/User/USB_Host/ch32v20x_usbfs_host.c:502
    memcpy( pUSBFS_SetupRequest, SetupGetCfgDesc, sizeof( USB_SETUP_REQ ) );
    a222:	aa090a13          	addi	s4,s2,-1376 # 20001aa0 <USBFS_TX_Buf>
    a226:	aae92023          	sw	a4,-1376(s2)
USBFSH_CtrlTransfer():
C:/Repository/RISKYKVM/firmware/src/User/USB_Host/ch32v20x_usbfs_host.c:364
    Delay_Us( 100 );
    a22a:	06400513          	li	a0,100
USBFSH_GetConfigDescr():
C:/Repository/RISKYKVM/firmware/src/User/USB_Host/ch32v20x_usbfs_host.c:499
{
    a22e:	c64e                	sw	s3,12(sp)
    a230:	c05a                	sw	s6,0(sp)
    a232:	ce06                	sw	ra,28(sp)
    a234:	89ae                	mv	s3,a1
    a236:	8b32                	mv	s6,a2
C:/Repository/RISKYKVM/firmware/src/User/USB_Host/ch32v20x_usbfs_host.c:502
    memcpy( pUSBFS_SetupRequest, SetupGetCfgDesc, sizeof( USB_SETUP_REQ ) );
    a238:	00fa2223          	sw	a5,4(s4)
USBFSH_CtrlTransfer():
C:/Repository/RISKYKVM/firmware/src/User/USB_Host/ch32v20x_usbfs_host.c:364
    Delay_Us( 100 );
    a23c:	5f6030ef          	jal	ra,d832 <Delay_Us>
C:/Repository/RISKYKVM/firmware/src/User/USB_Host/ch32v20x_usbfs_host.c:365
    if( plen )
    a240:	c099                	beqz	s1,a246 <USBFSH_GetConfigDescr+0x40>
C:/Repository/RISKYKVM/firmware/src/User/USB_Host/ch32v20x_usbfs_host.c:367
        *plen = 0;
    a242:	00049023          	sh	zero,0(s1)
C:/Repository/RISKYKVM/firmware/src/User/USB_Host/ch32v20x_usbfs_host.c:369
    USBOTG_H_FS->HOST_TX_LEN = sizeof( USB_SETUP_REQ );
    a246:	500007b7          	lui	a5,0x50000
    a24a:	4721                	li	a4,8
C:/Repository/RISKYKVM/firmware/src/User/USB_Host/ch32v20x_usbfs_host.c:370
    s = USBFSH_Transact( ( USB_PID_SETUP << 4 ) | 0x00, 0x00, DEF_CTRL_TRANS_TIMEOVER_CNT );  // SETUP stage
    a24c:	6609                	lui	a2,0x2
C:/Repository/RISKYKVM/firmware/src/User/USB_Host/ch32v20x_usbfs_host.c:369
    USBOTG_H_FS->HOST_TX_LEN = sizeof( USB_SETUP_REQ );
    a24e:	02e79e23          	sh	a4,60(a5) # 5000003c <_eusrstack+0x2fffb03c>
C:/Repository/RISKYKVM/firmware/src/User/USB_Host/ch32v20x_usbfs_host.c:370
    s = USBFSH_Transact( ( USB_PID_SETUP << 4 ) | 0x00, 0x00, DEF_CTRL_TRANS_TIMEOVER_CNT );  // SETUP stage
    a252:	71060613          	addi	a2,a2,1808 # 2710 <__stack_size+0x1f10>
    a256:	4581                	li	a1,0
    a258:	0d000513          	li	a0,208
    a25c:	34b5                	jal	9cc8 <USBFSH_Transact>
C:/Repository/RISKYKVM/firmware/src/User/USB_Host/ch32v20x_usbfs_host.c:371
    if( s != ERR_SUCCESS )
    a25e:	e159                	bnez	a0,a2e4 <USBFSH_GetConfigDescr+0xde>
    a260:	8626                	mv	a2,s1
    a262:	85ce                	mv	a1,s3
    a264:	8556                	mv	a0,s5
    a266:	3e79                	jal	9e04 <USBFSH_CtrlTransfer.part.1>
USBFSH_GetConfigDescr():
C:/Repository/RISKYKVM/firmware/src/User/USB_Host/ch32v20x_usbfs_host.c:504
    s = USBFSH_CtrlTransfer( ep0_size, pbuf, pcfg_len );
    if( s != ERR_SUCCESS )
    a268:	ed35                	bnez	a0,a2e4 <USBFSH_GetConfigDescr+0xde>
C:/Repository/RISKYKVM/firmware/src/User/USB_Host/ch32v20x_usbfs_host.c:508
    {
        return s;
    }
    if( *pcfg_len < ( (PUSB_SETUP_REQ)SetupGetCfgDesc )->wLength )
    a26a:	0004d703          	lhu	a4,0(s1)
    a26e:	00645783          	lhu	a5,6(s0)
    a272:	06f76863          	bltu	a4,a5,a2e2 <USBFSH_GetConfigDescr+0xdc>
C:/Repository/RISKYKVM/firmware/src/User/USB_Host/ch32v20x_usbfs_host.c:513
    {
        return ERR_USB_BUF_OVER;
    }

    *pcfg_len = ( (PUSB_CFG_DESCR)pbuf )->wTotalLength;
    a276:	0039c783          	lbu	a5,3(s3)
    a27a:	0029c703          	lbu	a4,2(s3)
    a27e:	07a2                	slli	a5,a5,0x8
    a280:	8fd9                	or	a5,a5,a4
    a282:	873e                	mv	a4,a5
    a284:	06fb6a63          	bltu	s6,a5,a2f8 <USBFSH_GetConfigDescr+0xf2>
C:/Repository/RISKYKVM/firmware/src/User/USB_Host/ch32v20x_usbfs_host.c:518
    if( *pcfg_len > buf_len  )
    {
        *pcfg_len = buf_len;
    }
    memcpy( pUSBFS_SetupRequest, SetupGetCfgDesc, sizeof( USB_SETUP_REQ ) );
    a288:	4014                	lw	a3,0(s0)
    a28a:	405c                	lw	a5,4(s0)
    a28c:	00e49023          	sh	a4,0(s1)
    a290:	aad92023          	sw	a3,-1376(s2)
    a294:	00fa2223          	sw	a5,4(s4)
C:/Repository/RISKYKVM/firmware/src/User/USB_Host/ch32v20x_usbfs_host.c:519
    pUSBFS_SetupRequest->wLength = *pcfg_len;
    a298:	0004d783          	lhu	a5,0(s1)
USBFSH_CtrlTransfer():
C:/Repository/RISKYKVM/firmware/src/User/USB_Host/ch32v20x_usbfs_host.c:364
    Delay_Us( 100 );
    a29c:	06400513          	li	a0,100
USBFSH_GetConfigDescr():
C:/Repository/RISKYKVM/firmware/src/User/USB_Host/ch32v20x_usbfs_host.c:519
    pUSBFS_SetupRequest->wLength = *pcfg_len;
    a2a0:	00fa1323          	sh	a5,6(s4)
USBFSH_CtrlTransfer():
C:/Repository/RISKYKVM/firmware/src/User/USB_Host/ch32v20x_usbfs_host.c:364
    Delay_Us( 100 );
    a2a4:	58e030ef          	jal	ra,d832 <Delay_Us>
C:/Repository/RISKYKVM/firmware/src/User/USB_Host/ch32v20x_usbfs_host.c:369
    USBOTG_H_FS->HOST_TX_LEN = sizeof( USB_SETUP_REQ );
    a2a8:	500007b7          	lui	a5,0x50000
C:/Repository/RISKYKVM/firmware/src/User/USB_Host/ch32v20x_usbfs_host.c:367
        *plen = 0;
    a2ac:	00049023          	sh	zero,0(s1)
C:/Repository/RISKYKVM/firmware/src/User/USB_Host/ch32v20x_usbfs_host.c:369
    USBOTG_H_FS->HOST_TX_LEN = sizeof( USB_SETUP_REQ );
    a2b0:	4721                	li	a4,8
C:/Repository/RISKYKVM/firmware/src/User/USB_Host/ch32v20x_usbfs_host.c:370
    s = USBFSH_Transact( ( USB_PID_SETUP << 4 ) | 0x00, 0x00, DEF_CTRL_TRANS_TIMEOVER_CNT );  // SETUP stage
    a2b2:	6609                	lui	a2,0x2
C:/Repository/RISKYKVM/firmware/src/User/USB_Host/ch32v20x_usbfs_host.c:369
    USBOTG_H_FS->HOST_TX_LEN = sizeof( USB_SETUP_REQ );
    a2b4:	02e79e23          	sh	a4,60(a5) # 5000003c <_eusrstack+0x2fffb03c>
C:/Repository/RISKYKVM/firmware/src/User/USB_Host/ch32v20x_usbfs_host.c:370
    s = USBFSH_Transact( ( USB_PID_SETUP << 4 ) | 0x00, 0x00, DEF_CTRL_TRANS_TIMEOVER_CNT );  // SETUP stage
    a2b8:	71060613          	addi	a2,a2,1808 # 2710 <__stack_size+0x1f10>
    a2bc:	4581                	li	a1,0
    a2be:	0d000513          	li	a0,208
    a2c2:	a07ff0ef          	jal	ra,9cc8 <USBFSH_Transact>
C:/Repository/RISKYKVM/firmware/src/User/USB_Host/ch32v20x_usbfs_host.c:371
    if( s != ERR_SUCCESS )
    a2c6:	ed19                	bnez	a0,a2e4 <USBFSH_GetConfigDescr+0xde>
USBFSH_GetConfigDescr():
C:/Repository/RISKYKVM/firmware/src/User/USB_Host/ch32v20x_usbfs_host.c:522
    s = USBFSH_CtrlTransfer( ep0_size, pbuf, pcfg_len );
    return s;
}
    a2c8:	4462                	lw	s0,24(sp)
    a2ca:	40f2                	lw	ra,28(sp)
    a2cc:	4942                	lw	s2,16(sp)
    a2ce:	4a22                	lw	s4,8(sp)
    a2d0:	4b02                	lw	s6,0(sp)
USBFSH_CtrlTransfer():
C:/Repository/RISKYKVM/firmware/src/User/USB_Host/ch32v20x_usbfs_host.c:522
    a2d2:	8626                	mv	a2,s1
    a2d4:	85ce                	mv	a1,s3
USBFSH_GetConfigDescr():
C:/Repository/RISKYKVM/firmware/src/User/USB_Host/ch32v20x_usbfs_host.c:522
    a2d6:	44d2                	lw	s1,20(sp)
    a2d8:	49b2                	lw	s3,12(sp)
USBFSH_CtrlTransfer():
C:/Repository/RISKYKVM/firmware/src/User/USB_Host/ch32v20x_usbfs_host.c:522
    a2da:	8556                	mv	a0,s5
USBFSH_GetConfigDescr():
C:/Repository/RISKYKVM/firmware/src/User/USB_Host/ch32v20x_usbfs_host.c:522
    a2dc:	4a92                	lw	s5,4(sp)
    a2de:	6105                	addi	sp,sp,32
USBFSH_CtrlTransfer():
C:/Repository/RISKYKVM/firmware/src/User/USB_Host/ch32v20x_usbfs_host.c:522
    a2e0:	b615                	j	9e04 <USBFSH_CtrlTransfer.part.1>
USBFSH_GetConfigDescr():
C:/Repository/RISKYKVM/firmware/src/User/USB_Host/ch32v20x_usbfs_host.c:510
        return ERR_USB_BUF_OVER;
    a2e2:	455d                	li	a0,23
C:/Repository/RISKYKVM/firmware/src/User/USB_Host/ch32v20x_usbfs_host.c:522
}
    a2e4:	40f2                	lw	ra,28(sp)
    a2e6:	4462                	lw	s0,24(sp)
    a2e8:	44d2                	lw	s1,20(sp)
    a2ea:	4942                	lw	s2,16(sp)
    a2ec:	49b2                	lw	s3,12(sp)
    a2ee:	4a22                	lw	s4,8(sp)
    a2f0:	4a92                	lw	s5,4(sp)
    a2f2:	4b02                	lw	s6,0(sp)
    a2f4:	6105                	addi	sp,sp,32
    a2f6:	8082                	ret
    a2f8:	875a                	mv	a4,s6
    a2fa:	b779                	j	a288 <USBFSH_GetConfigDescr+0x82>

0000a2fc <USBFSH_GetStrDescr>:
USBFSH_GetStrDescr():
C:/Repository/RISKYKVM/firmware/src/User/USB_Host/ch32v20x_usbfs_host.c:536
 *          pbuf: Data buffer
 *
 * @return  The result of getting the string descriptor.
 */
uint8_t USBFSH_GetStrDescr( uint8_t ep0_size, uint8_t str_num, uint8_t *pbuf )
{
    a2fc:	7139                	addi	sp,sp,-64
C:/Repository/RISKYKVM/firmware/src/User/USB_Host/ch32v20x_usbfs_host.c:541
    uint8_t  s;
    uint16_t len;

    /* Get the string descriptor of the first 4 bytes */
    memcpy( pUSBFS_SetupRequest, SetupGetStrDesc, sizeof( USB_SETUP_REQ ) );
    a2fe:	82018793          	addi	a5,gp,-2016 # 20000020 <SetupGetStrDesc>
C:/Repository/RISKYKVM/firmware/src/User/USB_Host/ch32v20x_usbfs_host.c:536
{
    a302:	ce5e                	sw	s7,28(sp)
C:/Repository/RISKYKVM/firmware/src/User/USB_Host/ch32v20x_usbfs_host.c:541
    memcpy( pUSBFS_SetupRequest, SetupGetStrDesc, sizeof( USB_SETUP_REQ ) );
    a304:	0007ab83          	lw	s7,0(a5)
C:/Repository/RISKYKVM/firmware/src/User/USB_Host/ch32v20x_usbfs_host.c:536
{
    a308:	d05a                	sw	s6,32(sp)
C:/Repository/RISKYKVM/firmware/src/User/USB_Host/ch32v20x_usbfs_host.c:541
    memcpy( pUSBFS_SetupRequest, SetupGetStrDesc, sizeof( USB_SETUP_REQ ) );
    a30a:	0047ab03          	lw	s6,4(a5)
C:/Repository/RISKYKVM/firmware/src/User/USB_Host/ch32v20x_usbfs_host.c:536
{
    a30e:	da26                	sw	s1,52(sp)
C:/Repository/RISKYKVM/firmware/src/User/USB_Host/ch32v20x_usbfs_host.c:541
    memcpy( pUSBFS_SetupRequest, SetupGetStrDesc, sizeof( USB_SETUP_REQ ) );
    a310:	200024b7          	lui	s1,0x20002
C:/Repository/RISKYKVM/firmware/src/User/USB_Host/ch32v20x_usbfs_host.c:536
{
    a314:	dc22                	sw	s0,56(sp)
    a316:	d256                	sw	s5,36(sp)
    a318:	ca66                	sw	s9,20(sp)
C:/Repository/RISKYKVM/firmware/src/User/USB_Host/ch32v20x_usbfs_host.c:542
    pUSBFS_SetupRequest->wValue = ( (uint16_t)USB_DESCR_TYP_STRING << 8 ) | str_num;
    a31a:	3005ea93          	ori	s5,a1,768
C:/Repository/RISKYKVM/firmware/src/User/USB_Host/ch32v20x_usbfs_host.c:541
    memcpy( pUSBFS_SetupRequest, SetupGetStrDesc, sizeof( USB_SETUP_REQ ) );
    a31e:	ab74a023          	sw	s7,-1376(s1) # 20001aa0 <USBFS_TX_Buf>
    a322:	aa048413          	addi	s0,s1,-1376
C:/Repository/RISKYKVM/firmware/src/User/USB_Host/ch32v20x_usbfs_host.c:536
{
    a326:	8caa                	mv	s9,a0
USBFSH_CtrlTransfer():
C:/Repository/RISKYKVM/firmware/src/User/USB_Host/ch32v20x_usbfs_host.c:364
    Delay_Us( 100 );
    a328:	06400513          	li	a0,100
USBFSH_GetStrDescr():
C:/Repository/RISKYKVM/firmware/src/User/USB_Host/ch32v20x_usbfs_host.c:536
{
    a32c:	d84a                	sw	s2,48(sp)
    a32e:	d64e                	sw	s3,44(sp)
    a330:	d452                	sw	s4,40(sp)
    a332:	cc62                	sw	s8,24(sp)
    a334:	de06                	sw	ra,60(sp)
    a336:	8c32                	mv	s8,a2
C:/Repository/RISKYKVM/firmware/src/User/USB_Host/ch32v20x_usbfs_host.c:541
    memcpy( pUSBFS_SetupRequest, SetupGetStrDesc, sizeof( USB_SETUP_REQ ) );
    a338:	01642223          	sw	s6,4(s0)
C:/Repository/RISKYKVM/firmware/src/User/USB_Host/ch32v20x_usbfs_host.c:542
    pUSBFS_SetupRequest->wValue = ( (uint16_t)USB_DESCR_TYP_STRING << 8 ) | str_num;
    a33c:	01541123          	sh	s5,2(s0)
USBFSH_CtrlTransfer():
C:/Repository/RISKYKVM/firmware/src/User/USB_Host/ch32v20x_usbfs_host.c:369
    USBOTG_H_FS->HOST_TX_LEN = sizeof( USB_SETUP_REQ );
    a340:	500009b7          	lui	s3,0x50000
C:/Repository/RISKYKVM/firmware/src/User/USB_Host/ch32v20x_usbfs_host.c:364
    Delay_Us( 100 );
    a344:	4ee030ef          	jal	ra,d832 <Delay_Us>
C:/Repository/RISKYKVM/firmware/src/User/USB_Host/ch32v20x_usbfs_host.c:369
    USBOTG_H_FS->HOST_TX_LEN = sizeof( USB_SETUP_REQ );
    a348:	4a21                	li	s4,8
C:/Repository/RISKYKVM/firmware/src/User/USB_Host/ch32v20x_usbfs_host.c:367
        *plen = 0;
    a34a:	00011723          	sh	zero,14(sp)
C:/Repository/RISKYKVM/firmware/src/User/USB_Host/ch32v20x_usbfs_host.c:370
    s = USBFSH_Transact( ( USB_PID_SETUP << 4 ) | 0x00, 0x00, DEF_CTRL_TRANS_TIMEOVER_CNT );  // SETUP stage
    a34e:	6909                	lui	s2,0x2
C:/Repository/RISKYKVM/firmware/src/User/USB_Host/ch32v20x_usbfs_host.c:369
    USBOTG_H_FS->HOST_TX_LEN = sizeof( USB_SETUP_REQ );
    a350:	03499e23          	sh	s4,60(s3) # 5000003c <_eusrstack+0x2fffb03c>
C:/Repository/RISKYKVM/firmware/src/User/USB_Host/ch32v20x_usbfs_host.c:370
    s = USBFSH_Transact( ( USB_PID_SETUP << 4 ) | 0x00, 0x00, DEF_CTRL_TRANS_TIMEOVER_CNT );  // SETUP stage
    a354:	71090613          	addi	a2,s2,1808 # 2710 <__stack_size+0x1f10>
    a358:	4581                	li	a1,0
    a35a:	0d000513          	li	a0,208
    a35e:	96bff0ef          	jal	ra,9cc8 <USBFSH_Transact>
C:/Repository/RISKYKVM/firmware/src/User/USB_Host/ch32v20x_usbfs_host.c:371
    if( s != ERR_SUCCESS )
    a362:	e921                	bnez	a0,a3b2 <USBFSH_GetStrDescr+0xb6>
    a364:	00e10613          	addi	a2,sp,14
    a368:	85e2                	mv	a1,s8
    a36a:	8566                	mv	a0,s9
    a36c:	3c61                	jal	9e04 <USBFSH_CtrlTransfer.part.1>
USBFSH_GetStrDescr():
C:/Repository/RISKYKVM/firmware/src/User/USB_Host/ch32v20x_usbfs_host.c:544
    s = USBFSH_CtrlTransfer( ep0_size, pbuf, &len );
    if( s != ERR_SUCCESS )
    a36e:	e131                	bnez	a0,a3b2 <USBFSH_GetStrDescr+0xb6>
C:/Repository/RISKYKVM/firmware/src/User/USB_Host/ch32v20x_usbfs_host.c:550
    {
        return s;
    }

    /* Get the complete string descriptor */
    len = pbuf[ 0 ];
    a370:	000c4783          	lbu	a5,0(s8)
C:/Repository/RISKYKVM/firmware/src/User/USB_Host/ch32v20x_usbfs_host.c:551
    memcpy( pUSBFS_SetupRequest, SetupGetStrDesc, sizeof( USB_SETUP_REQ ) );
    a374:	ab74a023          	sw	s7,-1376(s1)
USBFSH_CtrlTransfer():
C:/Repository/RISKYKVM/firmware/src/User/USB_Host/ch32v20x_usbfs_host.c:364
    Delay_Us( 100 );
    a378:	06400513          	li	a0,100
USBFSH_GetStrDescr():
C:/Repository/RISKYKVM/firmware/src/User/USB_Host/ch32v20x_usbfs_host.c:551
    memcpy( pUSBFS_SetupRequest, SetupGetStrDesc, sizeof( USB_SETUP_REQ ) );
    a37c:	01642223          	sw	s6,4(s0)
C:/Repository/RISKYKVM/firmware/src/User/USB_Host/ch32v20x_usbfs_host.c:550
    len = pbuf[ 0 ];
    a380:	00f11723          	sh	a5,14(sp)
C:/Repository/RISKYKVM/firmware/src/User/USB_Host/ch32v20x_usbfs_host.c:552
    pUSBFS_SetupRequest->wValue = ( (uint16_t)USB_DESCR_TYP_STRING << 8 ) | str_num;
    a384:	01541123          	sh	s5,2(s0)
C:/Repository/RISKYKVM/firmware/src/User/USB_Host/ch32v20x_usbfs_host.c:553
    pUSBFS_SetupRequest->wLength = len;
    a388:	00f41323          	sh	a5,6(s0)
USBFSH_CtrlTransfer():
C:/Repository/RISKYKVM/firmware/src/User/USB_Host/ch32v20x_usbfs_host.c:364
    Delay_Us( 100 );
    a38c:	4a6030ef          	jal	ra,d832 <Delay_Us>
C:/Repository/RISKYKVM/firmware/src/User/USB_Host/ch32v20x_usbfs_host.c:367
        *plen = 0;
    a390:	00011723          	sh	zero,14(sp)
C:/Repository/RISKYKVM/firmware/src/User/USB_Host/ch32v20x_usbfs_host.c:369
    USBOTG_H_FS->HOST_TX_LEN = sizeof( USB_SETUP_REQ );
    a394:	03499e23          	sh	s4,60(s3)
C:/Repository/RISKYKVM/firmware/src/User/USB_Host/ch32v20x_usbfs_host.c:370
    s = USBFSH_Transact( ( USB_PID_SETUP << 4 ) | 0x00, 0x00, DEF_CTRL_TRANS_TIMEOVER_CNT );  // SETUP stage
    a398:	71090613          	addi	a2,s2,1808
    a39c:	4581                	li	a1,0
    a39e:	0d000513          	li	a0,208
    a3a2:	927ff0ef          	jal	ra,9cc8 <USBFSH_Transact>
C:/Repository/RISKYKVM/firmware/src/User/USB_Host/ch32v20x_usbfs_host.c:371
    if( s != ERR_SUCCESS )
    a3a6:	e511                	bnez	a0,a3b2 <USBFSH_GetStrDescr+0xb6>
    a3a8:	00e10613          	addi	a2,sp,14
    a3ac:	85e2                	mv	a1,s8
    a3ae:	8566                	mv	a0,s9
    a3b0:	3c91                	jal	9e04 <USBFSH_CtrlTransfer.part.1>
USBFSH_GetStrDescr():
C:/Repository/RISKYKVM/firmware/src/User/USB_Host/ch32v20x_usbfs_host.c:560
    if( s != ERR_SUCCESS )
    {
        return s;
    }
    return ERR_SUCCESS;
}
    a3b2:	50f2                	lw	ra,60(sp)
    a3b4:	5462                	lw	s0,56(sp)
    a3b6:	54d2                	lw	s1,52(sp)
    a3b8:	5942                	lw	s2,48(sp)
    a3ba:	59b2                	lw	s3,44(sp)
    a3bc:	5a22                	lw	s4,40(sp)
    a3be:	5a92                	lw	s5,36(sp)
    a3c0:	5b02                	lw	s6,32(sp)
    a3c2:	4bf2                	lw	s7,28(sp)
    a3c4:	4c62                	lw	s8,24(sp)
    a3c6:	4cd2                	lw	s9,20(sp)
    a3c8:	6121                	addi	sp,sp,64
    a3ca:	8082                	ret

0000a3cc <USBFSH_SetUsbAddress>:
USBFSH_SetUsbAddress():
C:/Repository/RISKYKVM/firmware/src/User/USB_Host/ch32v20x_usbfs_host.c:576
 */
uint8_t USBFSH_SetUsbAddress( uint8_t ep0_size, uint8_t addr )
{
    uint8_t  s;

    memcpy( pUSBFS_SetupRequest, SetupSetAddr, sizeof( USB_SETUP_REQ ) );
    a3cc:	82818793          	addi	a5,gp,-2008 # 20000028 <SetupSetAddr>
    a3d0:	4390                	lw	a2,0(a5)
    a3d2:	43d4                	lw	a3,4(a5)
C:/Repository/RISKYKVM/firmware/src/User/USB_Host/ch32v20x_usbfs_host.c:573
{
    a3d4:	1101                	addi	sp,sp,-32
C:/Repository/RISKYKVM/firmware/src/User/USB_Host/ch32v20x_usbfs_host.c:576
    memcpy( pUSBFS_SetupRequest, SetupSetAddr, sizeof( USB_SETUP_REQ ) );
    a3d6:	20002737          	lui	a4,0x20002
    a3da:	aa070793          	addi	a5,a4,-1376 # 20001aa0 <USBFS_TX_Buf>
    a3de:	aac72023          	sw	a2,-1376(a4)
C:/Repository/RISKYKVM/firmware/src/User/USB_Host/ch32v20x_usbfs_host.c:573
{
    a3e2:	ce06                	sw	ra,28(sp)
    a3e4:	cc22                	sw	s0,24(sp)
    a3e6:	ca26                	sw	s1,20(sp)
    a3e8:	c84a                	sw	s2,16(sp)
    a3ea:	c64e                	sw	s3,12(sp)
C:/Repository/RISKYKVM/firmware/src/User/USB_Host/ch32v20x_usbfs_host.c:576
    memcpy( pUSBFS_SetupRequest, SetupSetAddr, sizeof( USB_SETUP_REQ ) );
    a3ec:	c3d4                	sw	a3,4(a5)
C:/Repository/RISKYKVM/firmware/src/User/USB_Host/ch32v20x_usbfs_host.c:577
    pUSBFS_SetupRequest->wValue = (uint16_t)addr;
    a3ee:	00b79123          	sh	a1,2(a5)
USBFSH_CtrlTransfer():
C:/Repository/RISKYKVM/firmware/src/User/USB_Host/ch32v20x_usbfs_host.c:364
    Delay_Us( 100 );
    a3f2:	06400513          	li	a0,100
USBFSH_SetUsbAddress():
C:/Repository/RISKYKVM/firmware/src/User/USB_Host/ch32v20x_usbfs_host.c:573
{
    a3f6:	892e                	mv	s2,a1
USBFSH_CtrlTransfer():
C:/Repository/RISKYKVM/firmware/src/User/USB_Host/ch32v20x_usbfs_host.c:364
    Delay_Us( 100 );
    a3f8:	43a030ef          	jal	ra,d832 <Delay_Us>
C:/Repository/RISKYKVM/firmware/src/User/USB_Host/ch32v20x_usbfs_host.c:369
    USBOTG_H_FS->HOST_TX_LEN = sizeof( USB_SETUP_REQ );
    a3fc:	47a1                	li	a5,8
    a3fe:	50000437          	lui	s0,0x50000
C:/Repository/RISKYKVM/firmware/src/User/USB_Host/ch32v20x_usbfs_host.c:370
    s = USBFSH_Transact( ( USB_PID_SETUP << 4 ) | 0x00, 0x00, DEF_CTRL_TRANS_TIMEOVER_CNT );  // SETUP stage
    a402:	6989                	lui	s3,0x2
C:/Repository/RISKYKVM/firmware/src/User/USB_Host/ch32v20x_usbfs_host.c:369
    USBOTG_H_FS->HOST_TX_LEN = sizeof( USB_SETUP_REQ );
    a404:	02f41e23          	sh	a5,60(s0) # 5000003c <_eusrstack+0x2fffb03c>
C:/Repository/RISKYKVM/firmware/src/User/USB_Host/ch32v20x_usbfs_host.c:370
    s = USBFSH_Transact( ( USB_PID_SETUP << 4 ) | 0x00, 0x00, DEF_CTRL_TRANS_TIMEOVER_CNT );  // SETUP stage
    a408:	71098613          	addi	a2,s3,1808 # 2710 <__stack_size+0x1f10>
    a40c:	4581                	li	a1,0
    a40e:	0d000513          	li	a0,208
    a412:	8b7ff0ef          	jal	ra,9cc8 <USBFSH_Transact>
    a416:	84aa                	mv	s1,a0
C:/Repository/RISKYKVM/firmware/src/User/USB_Host/ch32v20x_usbfs_host.c:371
    if( s != ERR_SUCCESS )
    a418:	e539                	bnez	a0,a466 <USBFSH_SetUsbAddress+0x9a>
C:/Repository/RISKYKVM/firmware/src/User/USB_Host/ch32v20x_usbfs_host.c:375
    USBOTG_H_FS->HOST_TX_CTRL = USBOTG_H_FS->HOST_RX_CTRL = USBFS_UH_T_TOG | USBFS_UH_R_TOG; // Default DATA1
    a41a:	4791                	li	a5,4
    a41c:	02f40da3          	sb	a5,59(s0)
C:/Repository/RISKYKVM/firmware/src/User/USB_Host/ch32v20x_usbfs_host.c:438
    Delay_Us( 100 );
    a420:	06400513          	li	a0,100
C:/Repository/RISKYKVM/firmware/src/User/USB_Host/ch32v20x_usbfs_host.c:375
    USBOTG_H_FS->HOST_TX_CTRL = USBOTG_H_FS->HOST_RX_CTRL = USBFS_UH_T_TOG | USBFS_UH_R_TOG; // Default DATA1
    a424:	02f40f23          	sb	a5,62(s0)
C:/Repository/RISKYKVM/firmware/src/User/USB_Host/ch32v20x_usbfs_host.c:438
    Delay_Us( 100 );
    a428:	40a030ef          	jal	ra,d832 <Delay_Us>
C:/Repository/RISKYKVM/firmware/src/User/USB_Host/ch32v20x_usbfs_host.c:439
    s = USBFSH_Transact( ( USBOTG_H_FS->HOST_TX_LEN )? ( USB_PID_IN << 4 | 0x00 ) : ( USB_PID_OUT << 4 | 0x00 ), USBFS_UH_R_TOG | USBFS_UH_T_TOG, DEF_CTRL_TRANS_TIMEOVER_CNT ); // STATUS stage
    a42c:	03c45503          	lhu	a0,60(s0)
    a430:	71098613          	addi	a2,s3,1808
    a434:	4591                	li	a1,4
    a436:	0542                	slli	a0,a0,0x10
    a438:	8141                	srli	a0,a0,0x10
    a43a:	00a03533          	snez	a0,a0
    a43e:	40a00533          	neg	a0,a0
    a442:	08057513          	andi	a0,a0,128
    a446:	0541                	addi	a0,a0,16
    a448:	881ff0ef          	jal	ra,9cc8 <USBFSH_Transact>
    a44c:	84aa                	mv	s1,a0
C:/Repository/RISKYKVM/firmware/src/User/USB_Host/ch32v20x_usbfs_host.c:440
    if( s != ERR_SUCCESS )
    a44e:	ed01                	bnez	a0,a466 <USBFSH_SetUsbAddress+0x9a>
C:/Repository/RISKYKVM/firmware/src/User/USB_Host/ch32v20x_usbfs_host.c:444
    if( USBOTG_H_FS->HOST_TX_LEN == 0 )
    a450:	03c45783          	lhu	a5,60(s0)
    a454:	07c2                	slli	a5,a5,0x10
    a456:	83c1                	srli	a5,a5,0x10
    a458:	cf99                	beqz	a5,a476 <USBFSH_SetUsbAddress+0xaa>
C:/Repository/RISKYKVM/firmware/src/User/USB_Host/ch32v20x_usbfs_host.c:448
    if( USBOTG_H_FS->RX_LEN == 0 )
    a45a:	00845783          	lhu	a5,8(s0)
    a45e:	07c2                	slli	a5,a5,0x10
    a460:	83c1                	srli	a5,a5,0x10
    a462:	cb91                	beqz	a5,a476 <USBFSH_SetUsbAddress+0xaa>
C:/Repository/RISKYKVM/firmware/src/User/USB_Host/ch32v20x_usbfs_host.c:452
    return ERR_USB_BUF_OVER;
    a464:	44dd                	li	s1,23
USBFSH_SetUsbAddress():
C:/Repository/RISKYKVM/firmware/src/User/USB_Host/ch32v20x_usbfs_host.c:586
        return s;
    }
    USBFSH_SetSelfAddr( addr );
    Delay_Ms( DEF_BUS_RESET_TIME >> 1 ); // Wait for the USB device to complete its operation.
    return ERR_SUCCESS;
}
    a466:	40f2                	lw	ra,28(sp)
    a468:	4462                	lw	s0,24(sp)
    a46a:	8526                	mv	a0,s1
    a46c:	4942                	lw	s2,16(sp)
    a46e:	44d2                	lw	s1,20(sp)
    a470:	49b2                	lw	s3,12(sp)
    a472:	6105                	addi	sp,sp,32
    a474:	8082                	ret
USBFSH_SetSelfAddr():
C:/Repository/RISKYKVM/firmware/src/User/USB_Host/ch32v20x_usbfs_host.c:153
    USBOTG_H_FS->DEV_ADDR = ( USBOTG_H_FS->DEV_ADDR & USBFS_UDA_GP_BIT ) | ( addr & USBFS_USB_ADDR_MASK );
    a476:	50000737          	lui	a4,0x50000
    a47a:	00374783          	lbu	a5,3(a4) # 50000003 <_eusrstack+0x2fffb003>
    a47e:	07f97913          	andi	s2,s2,127
USBFSH_SetUsbAddress():
C:/Repository/RISKYKVM/firmware/src/User/USB_Host/ch32v20x_usbfs_host.c:584
    Delay_Ms( DEF_BUS_RESET_TIME >> 1 ); // Wait for the USB device to complete its operation.
    a482:	4515                	li	a0,5
USBFSH_SetSelfAddr():
C:/Repository/RISKYKVM/firmware/src/User/USB_Host/ch32v20x_usbfs_host.c:153
    USBOTG_H_FS->DEV_ADDR = ( USBOTG_H_FS->DEV_ADDR & USBFS_UDA_GP_BIT ) | ( addr & USBFS_USB_ADDR_MASK );
    a484:	0807f793          	andi	a5,a5,128
    a488:	0127e933          	or	s2,a5,s2
    a48c:	012701a3          	sb	s2,3(a4)
USBFSH_SetUsbAddress():
C:/Repository/RISKYKVM/firmware/src/User/USB_Host/ch32v20x_usbfs_host.c:584
    Delay_Ms( DEF_BUS_RESET_TIME >> 1 ); // Wait for the USB device to complete its operation.
    a490:	3dc030ef          	jal	ra,d86c <Delay_Ms>
C:/Repository/RISKYKVM/firmware/src/User/USB_Host/ch32v20x_usbfs_host.c:586
}
    a494:	40f2                	lw	ra,28(sp)
    a496:	4462                	lw	s0,24(sp)
    a498:	8526                	mv	a0,s1
    a49a:	4942                	lw	s2,16(sp)
    a49c:	44d2                	lw	s1,20(sp)
    a49e:	49b2                	lw	s3,12(sp)
    a4a0:	6105                	addi	sp,sp,32
    a4a2:	8082                	ret

0000a4a4 <USBFSH_SetUsbConfig>:
USBFSH_SetUsbConfig():
C:/Repository/RISKYKVM/firmware/src/User/USB_Host/ch32v20x_usbfs_host.c:600
 *
 * @return  The result of setting device configuration.
 */
uint8_t USBFSH_SetUsbConfig( uint8_t ep0_size, uint8_t cfg_val )
{
    memcpy( pUSBFS_SetupRequest, SetupSetConfig, sizeof( USB_SETUP_REQ ) );
    a4a4:	83018793          	addi	a5,gp,-2000 # 20000030 <SetupSetConfig>
    a4a8:	4390                	lw	a2,0(a5)
    a4aa:	43d4                	lw	a3,4(a5)
C:/Repository/RISKYKVM/firmware/src/User/USB_Host/ch32v20x_usbfs_host.c:599
{
    a4ac:	1141                	addi	sp,sp,-16
C:/Repository/RISKYKVM/firmware/src/User/USB_Host/ch32v20x_usbfs_host.c:600
    memcpy( pUSBFS_SetupRequest, SetupSetConfig, sizeof( USB_SETUP_REQ ) );
    a4ae:	20002737          	lui	a4,0x20002
C:/Repository/RISKYKVM/firmware/src/User/USB_Host/ch32v20x_usbfs_host.c:599
{
    a4b2:	c422                	sw	s0,8(sp)
    a4b4:	c226                	sw	s1,4(sp)
    a4b6:	c606                	sw	ra,12(sp)
C:/Repository/RISKYKVM/firmware/src/User/USB_Host/ch32v20x_usbfs_host.c:600
    memcpy( pUSBFS_SetupRequest, SetupSetConfig, sizeof( USB_SETUP_REQ ) );
    a4b8:	aa070793          	addi	a5,a4,-1376 # 20001aa0 <USBFS_TX_Buf>
    a4bc:	aac72023          	sw	a2,-1376(a4)
C:/Repository/RISKYKVM/firmware/src/User/USB_Host/ch32v20x_usbfs_host.c:601
    pUSBFS_SetupRequest->wValue = (uint16_t)cfg_val;
    a4c0:	00b79123          	sh	a1,2(a5)
USBFSH_CtrlTransfer():
C:/Repository/RISKYKVM/firmware/src/User/USB_Host/ch32v20x_usbfs_host.c:364
    Delay_Us( 100 );
    a4c4:	06400513          	li	a0,100
USBFSH_SetUsbConfig():
C:/Repository/RISKYKVM/firmware/src/User/USB_Host/ch32v20x_usbfs_host.c:600
    memcpy( pUSBFS_SetupRequest, SetupSetConfig, sizeof( USB_SETUP_REQ ) );
    a4c8:	c3d4                	sw	a3,4(a5)
USBFSH_CtrlTransfer():
C:/Repository/RISKYKVM/firmware/src/User/USB_Host/ch32v20x_usbfs_host.c:364
    Delay_Us( 100 );
    a4ca:	368030ef          	jal	ra,d832 <Delay_Us>
C:/Repository/RISKYKVM/firmware/src/User/USB_Host/ch32v20x_usbfs_host.c:369
    USBOTG_H_FS->HOST_TX_LEN = sizeof( USB_SETUP_REQ );
    a4ce:	50000437          	lui	s0,0x50000
C:/Repository/RISKYKVM/firmware/src/User/USB_Host/ch32v20x_usbfs_host.c:370
    s = USBFSH_Transact( ( USB_PID_SETUP << 4 ) | 0x00, 0x00, DEF_CTRL_TRANS_TIMEOVER_CNT );  // SETUP stage
    a4d2:	6489                	lui	s1,0x2
C:/Repository/RISKYKVM/firmware/src/User/USB_Host/ch32v20x_usbfs_host.c:369
    USBOTG_H_FS->HOST_TX_LEN = sizeof( USB_SETUP_REQ );
    a4d4:	47a1                	li	a5,8
    a4d6:	02f41e23          	sh	a5,60(s0) # 5000003c <_eusrstack+0x2fffb03c>
C:/Repository/RISKYKVM/firmware/src/User/USB_Host/ch32v20x_usbfs_host.c:370
    s = USBFSH_Transact( ( USB_PID_SETUP << 4 ) | 0x00, 0x00, DEF_CTRL_TRANS_TIMEOVER_CNT );  // SETUP stage
    a4da:	71048613          	addi	a2,s1,1808 # 2710 <__stack_size+0x1f10>
    a4de:	4581                	li	a1,0
    a4e0:	0d000513          	li	a0,208
    a4e4:	fe4ff0ef          	jal	ra,9cc8 <USBFSH_Transact>
C:/Repository/RISKYKVM/firmware/src/User/USB_Host/ch32v20x_usbfs_host.c:371
    if( s != ERR_SUCCESS )
    a4e8:	e531                	bnez	a0,a534 <USBFSH_SetUsbConfig+0x90>
C:/Repository/RISKYKVM/firmware/src/User/USB_Host/ch32v20x_usbfs_host.c:375
    USBOTG_H_FS->HOST_TX_CTRL = USBOTG_H_FS->HOST_RX_CTRL = USBFS_UH_T_TOG | USBFS_UH_R_TOG; // Default DATA1
    a4ea:	4791                	li	a5,4
    a4ec:	02f40da3          	sb	a5,59(s0)
C:/Repository/RISKYKVM/firmware/src/User/USB_Host/ch32v20x_usbfs_host.c:438
    Delay_Us( 100 );
    a4f0:	06400513          	li	a0,100
C:/Repository/RISKYKVM/firmware/src/User/USB_Host/ch32v20x_usbfs_host.c:375
    USBOTG_H_FS->HOST_TX_CTRL = USBOTG_H_FS->HOST_RX_CTRL = USBFS_UH_T_TOG | USBFS_UH_R_TOG; // Default DATA1
    a4f4:	02f40f23          	sb	a5,62(s0)
C:/Repository/RISKYKVM/firmware/src/User/USB_Host/ch32v20x_usbfs_host.c:438
    Delay_Us( 100 );
    a4f8:	33a030ef          	jal	ra,d832 <Delay_Us>
C:/Repository/RISKYKVM/firmware/src/User/USB_Host/ch32v20x_usbfs_host.c:439
    s = USBFSH_Transact( ( USBOTG_H_FS->HOST_TX_LEN )? ( USB_PID_IN << 4 | 0x00 ) : ( USB_PID_OUT << 4 | 0x00 ), USBFS_UH_R_TOG | USBFS_UH_T_TOG, DEF_CTRL_TRANS_TIMEOVER_CNT ); // STATUS stage
    a4fc:	03c45503          	lhu	a0,60(s0)
    a500:	71048613          	addi	a2,s1,1808
    a504:	4591                	li	a1,4
    a506:	0542                	slli	a0,a0,0x10
    a508:	8141                	srli	a0,a0,0x10
    a50a:	00a03533          	snez	a0,a0
    a50e:	40a00533          	neg	a0,a0
    a512:	08057513          	andi	a0,a0,128
    a516:	0541                	addi	a0,a0,16
    a518:	fb0ff0ef          	jal	ra,9cc8 <USBFSH_Transact>
C:/Repository/RISKYKVM/firmware/src/User/USB_Host/ch32v20x_usbfs_host.c:440
    if( s != ERR_SUCCESS )
    a51c:	ed01                	bnez	a0,a534 <USBFSH_SetUsbConfig+0x90>
C:/Repository/RISKYKVM/firmware/src/User/USB_Host/ch32v20x_usbfs_host.c:444
    if( USBOTG_H_FS->HOST_TX_LEN == 0 )
    a51e:	03c45783          	lhu	a5,60(s0)
    a522:	07c2                	slli	a5,a5,0x10
    a524:	83c1                	srli	a5,a5,0x10
    a526:	c799                	beqz	a5,a534 <USBFSH_SetUsbConfig+0x90>
C:/Repository/RISKYKVM/firmware/src/User/USB_Host/ch32v20x_usbfs_host.c:448
    if( USBOTG_H_FS->RX_LEN == 0 )
    a528:	00845783          	lhu	a5,8(s0)
    a52c:	07c2                	slli	a5,a5,0x10
    a52e:	83c1                	srli	a5,a5,0x10
    a530:	c391                	beqz	a5,a534 <USBFSH_SetUsbConfig+0x90>
C:/Repository/RISKYKVM/firmware/src/User/USB_Host/ch32v20x_usbfs_host.c:452
    return ERR_USB_BUF_OVER;
    a532:	455d                	li	a0,23
USBFSH_SetUsbConfig():
C:/Repository/RISKYKVM/firmware/src/User/USB_Host/ch32v20x_usbfs_host.c:603
    return USBFSH_CtrlTransfer( ep0_size, NULL, NULL );
}
    a534:	40b2                	lw	ra,12(sp)
    a536:	4422                	lw	s0,8(sp)
    a538:	4492                	lw	s1,4(sp)
    a53a:	0141                	addi	sp,sp,16
    a53c:	8082                	ret

0000a53e <USBFSH_ClearEndpStall>:
USBFSH_ClearEndpStall():
C:/Repository/RISKYKVM/firmware/src/User/USB_Host/ch32v20x_usbfs_host.c:617
 *
 * @return  The result of clearing endpoint stall.
 */
uint8_t USBFSH_ClearEndpStall( uint8_t ep0_size, uint8_t endp_num )
{
    memcpy( pUSBFS_SetupRequest, SetupClearEndpStall, sizeof( USB_SETUP_REQ ) );
    a53e:	80818793          	addi	a5,gp,-2040 # 20000008 <SetupClearEndpStall>
    a542:	43d0                	lw	a2,4(a5)
C:/Repository/RISKYKVM/firmware/src/User/USB_Host/ch32v20x_usbfs_host.c:616
{
    a544:	1141                	addi	sp,sp,-16
C:/Repository/RISKYKVM/firmware/src/User/USB_Host/ch32v20x_usbfs_host.c:617
    memcpy( pUSBFS_SetupRequest, SetupClearEndpStall, sizeof( USB_SETUP_REQ ) );
    a546:	20002737          	lui	a4,0x20002
C:/Repository/RISKYKVM/firmware/src/User/USB_Host/ch32v20x_usbfs_host.c:616
{
    a54a:	c422                	sw	s0,8(sp)
    a54c:	c226                	sw	s1,4(sp)
    a54e:	c606                	sw	ra,12(sp)
C:/Repository/RISKYKVM/firmware/src/User/USB_Host/ch32v20x_usbfs_host.c:617
    memcpy( pUSBFS_SetupRequest, SetupClearEndpStall, sizeof( USB_SETUP_REQ ) );
    a550:	4394                	lw	a3,0(a5)
    a552:	aa070793          	addi	a5,a4,-1376 # 20001aa0 <USBFS_TX_Buf>
    a556:	c3d0                	sw	a2,4(a5)
C:/Repository/RISKYKVM/firmware/src/User/USB_Host/ch32v20x_usbfs_host.c:618
    pUSBFS_SetupRequest->wIndex = (uint16_t)endp_num;
    a558:	00b79223          	sh	a1,4(a5)
USBFSH_CtrlTransfer():
C:/Repository/RISKYKVM/firmware/src/User/USB_Host/ch32v20x_usbfs_host.c:364
    Delay_Us( 100 );
    a55c:	06400513          	li	a0,100
USBFSH_ClearEndpStall():
C:/Repository/RISKYKVM/firmware/src/User/USB_Host/ch32v20x_usbfs_host.c:617
    memcpy( pUSBFS_SetupRequest, SetupClearEndpStall, sizeof( USB_SETUP_REQ ) );
    a560:	aad72023          	sw	a3,-1376(a4)
USBFSH_CtrlTransfer():
C:/Repository/RISKYKVM/firmware/src/User/USB_Host/ch32v20x_usbfs_host.c:364
    Delay_Us( 100 );
    a564:	2ce030ef          	jal	ra,d832 <Delay_Us>
C:/Repository/RISKYKVM/firmware/src/User/USB_Host/ch32v20x_usbfs_host.c:369
    USBOTG_H_FS->HOST_TX_LEN = sizeof( USB_SETUP_REQ );
    a568:	50000437          	lui	s0,0x50000
C:/Repository/RISKYKVM/firmware/src/User/USB_Host/ch32v20x_usbfs_host.c:370
    s = USBFSH_Transact( ( USB_PID_SETUP << 4 ) | 0x00, 0x00, DEF_CTRL_TRANS_TIMEOVER_CNT );  // SETUP stage
    a56c:	6489                	lui	s1,0x2
C:/Repository/RISKYKVM/firmware/src/User/USB_Host/ch32v20x_usbfs_host.c:369
    USBOTG_H_FS->HOST_TX_LEN = sizeof( USB_SETUP_REQ );
    a56e:	47a1                	li	a5,8
    a570:	02f41e23          	sh	a5,60(s0) # 5000003c <_eusrstack+0x2fffb03c>
C:/Repository/RISKYKVM/firmware/src/User/USB_Host/ch32v20x_usbfs_host.c:370
    s = USBFSH_Transact( ( USB_PID_SETUP << 4 ) | 0x00, 0x00, DEF_CTRL_TRANS_TIMEOVER_CNT );  // SETUP stage
    a574:	71048613          	addi	a2,s1,1808 # 2710 <__stack_size+0x1f10>
    a578:	4581                	li	a1,0
    a57a:	0d000513          	li	a0,208
    a57e:	f4aff0ef          	jal	ra,9cc8 <USBFSH_Transact>
C:/Repository/RISKYKVM/firmware/src/User/USB_Host/ch32v20x_usbfs_host.c:371
    if( s != ERR_SUCCESS )
    a582:	e531                	bnez	a0,a5ce <USBFSH_ClearEndpStall+0x90>
C:/Repository/RISKYKVM/firmware/src/User/USB_Host/ch32v20x_usbfs_host.c:375
    USBOTG_H_FS->HOST_TX_CTRL = USBOTG_H_FS->HOST_RX_CTRL = USBFS_UH_T_TOG | USBFS_UH_R_TOG; // Default DATA1
    a584:	4791                	li	a5,4
    a586:	02f40da3          	sb	a5,59(s0)
C:/Repository/RISKYKVM/firmware/src/User/USB_Host/ch32v20x_usbfs_host.c:438
    Delay_Us( 100 );
    a58a:	06400513          	li	a0,100
C:/Repository/RISKYKVM/firmware/src/User/USB_Host/ch32v20x_usbfs_host.c:375
    USBOTG_H_FS->HOST_TX_CTRL = USBOTG_H_FS->HOST_RX_CTRL = USBFS_UH_T_TOG | USBFS_UH_R_TOG; // Default DATA1
    a58e:	02f40f23          	sb	a5,62(s0)
C:/Repository/RISKYKVM/firmware/src/User/USB_Host/ch32v20x_usbfs_host.c:438
    Delay_Us( 100 );
    a592:	2a0030ef          	jal	ra,d832 <Delay_Us>
C:/Repository/RISKYKVM/firmware/src/User/USB_Host/ch32v20x_usbfs_host.c:439
    s = USBFSH_Transact( ( USBOTG_H_FS->HOST_TX_LEN )? ( USB_PID_IN << 4 | 0x00 ) : ( USB_PID_OUT << 4 | 0x00 ), USBFS_UH_R_TOG | USBFS_UH_T_TOG, DEF_CTRL_TRANS_TIMEOVER_CNT ); // STATUS stage
    a596:	03c45503          	lhu	a0,60(s0)
    a59a:	71048613          	addi	a2,s1,1808
    a59e:	4591                	li	a1,4
    a5a0:	0542                	slli	a0,a0,0x10
    a5a2:	8141                	srli	a0,a0,0x10
    a5a4:	00a03533          	snez	a0,a0
    a5a8:	40a00533          	neg	a0,a0
    a5ac:	08057513          	andi	a0,a0,128
    a5b0:	0541                	addi	a0,a0,16
    a5b2:	f16ff0ef          	jal	ra,9cc8 <USBFSH_Transact>
C:/Repository/RISKYKVM/firmware/src/User/USB_Host/ch32v20x_usbfs_host.c:440
    if( s != ERR_SUCCESS )
    a5b6:	ed01                	bnez	a0,a5ce <USBFSH_ClearEndpStall+0x90>
C:/Repository/RISKYKVM/firmware/src/User/USB_Host/ch32v20x_usbfs_host.c:444
    if( USBOTG_H_FS->HOST_TX_LEN == 0 )
    a5b8:	03c45783          	lhu	a5,60(s0)
    a5bc:	07c2                	slli	a5,a5,0x10
    a5be:	83c1                	srli	a5,a5,0x10
    a5c0:	c799                	beqz	a5,a5ce <USBFSH_ClearEndpStall+0x90>
C:/Repository/RISKYKVM/firmware/src/User/USB_Host/ch32v20x_usbfs_host.c:448
    if( USBOTG_H_FS->RX_LEN == 0 )
    a5c2:	00845783          	lhu	a5,8(s0)
    a5c6:	07c2                	slli	a5,a5,0x10
    a5c8:	83c1                	srli	a5,a5,0x10
    a5ca:	c391                	beqz	a5,a5ce <USBFSH_ClearEndpStall+0x90>
C:/Repository/RISKYKVM/firmware/src/User/USB_Host/ch32v20x_usbfs_host.c:452
    return ERR_USB_BUF_OVER;
    a5cc:	455d                	li	a0,23
USBFSH_ClearEndpStall():
C:/Repository/RISKYKVM/firmware/src/User/USB_Host/ch32v20x_usbfs_host.c:620
    return USBFSH_CtrlTransfer( ep0_size, NULL, NULL );
}
    a5ce:	40b2                	lw	ra,12(sp)
    a5d0:	4422                	lw	s0,8(sp)
    a5d2:	4492                	lw	s1,4(sp)
    a5d4:	0141                	addi	sp,sp,16
    a5d6:	8082                	ret

0000a5d8 <USBFSH_GetEndpData>:
USBFSH_GetEndpData():
C:/Repository/RISKYKVM/firmware/src/User/USB_Host/ch32v20x_usbfs_host.c:635
 *          plen: Data length
 *
 * @return  The result of getting data.
 */
uint8_t USBFSH_GetEndpData( uint8_t endp_num, uint8_t *pendp_tog, uint8_t *pbuf, uint16_t *plen )
{
    a5d8:	1101                	addi	sp,sp,-32
    a5da:	cc22                	sw	s0,24(sp)
    a5dc:	ca26                	sw	s1,20(sp)
    a5de:	c84a                	sw	s2,16(sp)
    a5e0:	c64e                	sw	s3,12(sp)
    a5e2:	ce06                	sw	ra,28(sp)
    a5e4:	84ae                	mv	s1,a1
C:/Repository/RISKYKVM/firmware/src/User/USB_Host/ch32v20x_usbfs_host.c:638
    uint8_t  s;
    
    s = USBFSH_Transact( ( USB_PID_IN << 4 ) | endp_num, *pendp_tog, 0 );
    a5e6:	0005c583          	lbu	a1,0(a1)
C:/Repository/RISKYKVM/firmware/src/User/USB_Host/ch32v20x_usbfs_host.c:635
{
    a5ea:	8932                	mv	s2,a2
C:/Repository/RISKYKVM/firmware/src/User/USB_Host/ch32v20x_usbfs_host.c:638
    s = USBFSH_Transact( ( USB_PID_IN << 4 ) | endp_num, *pendp_tog, 0 );
    a5ec:	09056513          	ori	a0,a0,144
    a5f0:	4601                	li	a2,0
C:/Repository/RISKYKVM/firmware/src/User/USB_Host/ch32v20x_usbfs_host.c:635
{
    a5f2:	89b6                	mv	s3,a3
C:/Repository/RISKYKVM/firmware/src/User/USB_Host/ch32v20x_usbfs_host.c:638
    s = USBFSH_Transact( ( USB_PID_IN << 4 ) | endp_num, *pendp_tog, 0 );
    a5f4:	ed4ff0ef          	jal	ra,9cc8 <USBFSH_Transact>
    a5f8:	842a                	mv	s0,a0
C:/Repository/RISKYKVM/firmware/src/User/USB_Host/ch32v20x_usbfs_host.c:639
    if( s == ERR_SUCCESS )
    a5fa:	c909                	beqz	a0,a60c <USBFSH_GetEndpData+0x34>
C:/Repository/RISKYKVM/firmware/src/User/USB_Host/ch32v20x_usbfs_host.c:648

        *pendp_tog  ^= USBFS_UH_R_TOG;
    }
    
    return s;
}
    a5fc:	8522                	mv	a0,s0
    a5fe:	40f2                	lw	ra,28(sp)
    a600:	4462                	lw	s0,24(sp)
    a602:	44d2                	lw	s1,20(sp)
    a604:	4942                	lw	s2,16(sp)
    a606:	49b2                	lw	s3,12(sp)
    a608:	6105                	addi	sp,sp,32
    a60a:	8082                	ret
C:/Repository/RISKYKVM/firmware/src/User/USB_Host/ch32v20x_usbfs_host.c:641
        *plen = USBOTG_H_FS->RX_LEN;
    a60c:	500007b7          	lui	a5,0x50000
    a610:	0087d603          	lhu	a2,8(a5) # 50000008 <_eusrstack+0x2fffb008>
C:/Repository/RISKYKVM/firmware/src/User/USB_Host/ch32v20x_usbfs_host.c:642
        memcpy( pbuf, USBFS_RX_Buf, *plen );
    a614:	200025b7          	lui	a1,0x20002
    a618:	854a                	mv	a0,s2
C:/Repository/RISKYKVM/firmware/src/User/USB_Host/ch32v20x_usbfs_host.c:641
        *plen = USBOTG_H_FS->RX_LEN;
    a61a:	0642                	slli	a2,a2,0x10
    a61c:	8241                	srli	a2,a2,0x10
    a61e:	00c99023          	sh	a2,0(s3)
C:/Repository/RISKYKVM/firmware/src/User/USB_Host/ch32v20x_usbfs_host.c:642
        memcpy( pbuf, USBFS_RX_Buf, *plen );
    a622:	a6058593          	addi	a1,a1,-1440 # 20001a60 <USBFS_RX_Buf>
    a626:	29a030ef          	jal	ra,d8c0 <memcpy>
C:/Repository/RISKYKVM/firmware/src/User/USB_Host/ch32v20x_usbfs_host.c:644
        *pendp_tog  ^= USBFS_UH_R_TOG;
    a62a:	0004c783          	lbu	a5,0(s1)
C:/Repository/RISKYKVM/firmware/src/User/USB_Host/ch32v20x_usbfs_host.c:648
}
    a62e:	8522                	mv	a0,s0
C:/Repository/RISKYKVM/firmware/src/User/USB_Host/ch32v20x_usbfs_host.c:644
        *pendp_tog  ^= USBFS_UH_R_TOG;
    a630:	0047c793          	xori	a5,a5,4
    a634:	00f48023          	sb	a5,0(s1)
C:/Repository/RISKYKVM/firmware/src/User/USB_Host/ch32v20x_usbfs_host.c:648
}
    a638:	40f2                	lw	ra,28(sp)
    a63a:	4462                	lw	s0,24(sp)
    a63c:	44d2                	lw	s1,20(sp)
    a63e:	4942                	lw	s2,16(sp)
    a640:	49b2                	lw	s3,12(sp)
    a642:	6105                	addi	sp,sp,32
    a644:	8082                	ret

0000a646 <USBFSH_SendEndpData>:
USBFSH_SendEndpData():
C:/Repository/RISKYKVM/firmware/src/User/USB_Host/ch32v20x_usbfs_host.c:663
 *          len: Data length
 *
 * @return  The result of sending data.
 */
uint8_t USBFSH_SendEndpData( uint8_t endp_num, uint8_t *pendp_tog, uint8_t *pbuf, uint16_t len )
{
    a646:	1141                	addi	sp,sp,-16
    a648:	87b2                	mv	a5,a2
    a64a:	c04a                	sw	s2,0(sp)
    a64c:	892a                	mv	s2,a0
C:/Repository/RISKYKVM/firmware/src/User/USB_Host/ch32v20x_usbfs_host.c:666
    uint8_t  s;
    
    memcpy( USBFS_TX_Buf, pbuf, len );
    a64e:	20002537          	lui	a0,0x20002
C:/Repository/RISKYKVM/firmware/src/User/USB_Host/ch32v20x_usbfs_host.c:663
{
    a652:	c422                	sw	s0,8(sp)
C:/Repository/RISKYKVM/firmware/src/User/USB_Host/ch32v20x_usbfs_host.c:666
    memcpy( USBFS_TX_Buf, pbuf, len );
    a654:	8636                	mv	a2,a3
C:/Repository/RISKYKVM/firmware/src/User/USB_Host/ch32v20x_usbfs_host.c:663
{
    a656:	842e                	mv	s0,a1
C:/Repository/RISKYKVM/firmware/src/User/USB_Host/ch32v20x_usbfs_host.c:666
    memcpy( USBFS_TX_Buf, pbuf, len );
    a658:	aa050513          	addi	a0,a0,-1376 # 20001aa0 <USBFS_TX_Buf>
    a65c:	85be                	mv	a1,a5
C:/Repository/RISKYKVM/firmware/src/User/USB_Host/ch32v20x_usbfs_host.c:663
{
    a65e:	c226                	sw	s1,4(sp)
    a660:	c606                	sw	ra,12(sp)
    a662:	84b6                	mv	s1,a3
C:/Repository/RISKYKVM/firmware/src/User/USB_Host/ch32v20x_usbfs_host.c:666
    memcpy( USBFS_TX_Buf, pbuf, len );
    a664:	25c030ef          	jal	ra,d8c0 <memcpy>
C:/Repository/RISKYKVM/firmware/src/User/USB_Host/ch32v20x_usbfs_host.c:667
    USBOTG_H_FS->HOST_TX_LEN = len;
    a668:	500007b7          	lui	a5,0x50000
    a66c:	02979e23          	sh	s1,60(a5) # 5000003c <_eusrstack+0x2fffb03c>
C:/Repository/RISKYKVM/firmware/src/User/USB_Host/ch32v20x_usbfs_host.c:668
    s = USBFSH_Transact( ( USB_PID_OUT << 4 ) | endp_num, *pendp_tog, 0 );
    a670:	00044583          	lbu	a1,0(s0)
    a674:	4601                	li	a2,0
    a676:	01096513          	ori	a0,s2,16
    a67a:	e4eff0ef          	jal	ra,9cc8 <USBFSH_Transact>
C:/Repository/RISKYKVM/firmware/src/User/USB_Host/ch32v20x_usbfs_host.c:669
    if( s == ERR_SUCCESS )
    a67e:	e519                	bnez	a0,a68c <USBFSH_SendEndpData+0x46>
C:/Repository/RISKYKVM/firmware/src/User/USB_Host/ch32v20x_usbfs_host.c:671
    {
        *pendp_tog ^= USBFS_UH_T_TOG;
    a680:	00044783          	lbu	a5,0(s0)
    a684:	0047c793          	xori	a5,a5,4
    a688:	00f40023          	sb	a5,0(s0)
C:/Repository/RISKYKVM/firmware/src/User/USB_Host/ch32v20x_usbfs_host.c:675
    }

    return s;
}
    a68c:	40b2                	lw	ra,12(sp)
    a68e:	4422                	lw	s0,8(sp)
    a690:	4492                	lw	s1,4(sp)
    a692:	4902                	lw	s2,0(sp)
    a694:	0141                	addi	sp,sp,16
    a696:	8082                	ret

0000a698 <GetGamepadInfo>:
GamepadDecode():
C:/Repository/RISKYKVM/firmware/src/User/USB_Host/usb_gamepad.c:50

USB_Status GamepadDecode(Interface *Itf)
{


	  if (Itf->HidRptLen == 0U)
    a698:	10c54603          	lbu	a2,268(a0)
    a69c:	e219                	bnez	a2,a6a2 <GetGamepadInfo+0xa>
GetGamepadInfo():
C:/Repository/RISKYKVM/firmware/src/User/USB_Host/usb_gamepad.c:40
		return NULL;
    a69e:	4501                	li	a0,0
C:/Repository/RISKYKVM/firmware/src/User/USB_Host/usb_gamepad.c:42
}
    a6a0:	8082                	ret
C:/Repository/RISKYKVM/firmware/src/User/USB_Host/usb_gamepad.c:31
{
    a6a2:	711d                	addi	sp,sp,-96
    a6a4:	caa6                	sw	s1,84(sp)
    a6a6:	cca2                	sw	s0,88(sp)
GamepadDecode():
C:/Repository/RISKYKVM/firmware/src/User/USB_Host/usb_gamepad.c:55
	  {
	    return USB_FAIL;
	  }

	  if (FifoRead(&Itf->buffer, &gamepad_report_data, Itf->HidRptLen) !=0)
    a6a8:	88818593          	addi	a1,gp,-1912 # 20000088 <gamepad_report_data>
    a6ac:	842a                	mv	s0,a0
    a6ae:	08050513          	addi	a0,a0,128
GetGamepadInfo():
C:/Repository/RISKYKVM/firmware/src/User/USB_Host/usb_gamepad.c:31
{
    a6b2:	c8ca                	sw	s2,80(sp)
    a6b4:	ce86                	sw	ra,92(sp)
    a6b6:	c6ce                	sw	s3,76(sp)
    a6b8:	c4d2                	sw	s4,72(sp)
    a6ba:	c2d6                	sw	s5,68(sp)
GamepadDecode():
C:/Repository/RISKYKVM/firmware/src/User/USB_Host/usb_gamepad.c:55
	  if (FifoRead(&Itf->buffer, &gamepad_report_data, Itf->HidRptLen) !=0)
    a6bc:	88818913          	addi	s2,gp,-1912 # 20000088 <gamepad_report_data>
    a6c0:	648020ef          	jal	ra,cd08 <FifoRead>
    a6c4:	e919                	bnez	a0,a6da <GetGamepadInfo+0x42>
GetGamepadInfo():
C:/Repository/RISKYKVM/firmware/src/User/USB_Host/usb_gamepad.c:40
		return NULL;
    a6c6:	4501                	li	a0,0
C:/Repository/RISKYKVM/firmware/src/User/USB_Host/usb_gamepad.c:42
}
    a6c8:	40f6                	lw	ra,92(sp)
    a6ca:	4466                	lw	s0,88(sp)
    a6cc:	44d6                	lw	s1,84(sp)
    a6ce:	4946                	lw	s2,80(sp)
    a6d0:	49b6                	lw	s3,76(sp)
    a6d2:	4a26                	lw	s4,72(sp)
    a6d4:	4a96                	lw	s5,68(sp)
    a6d6:	6125                	addi	sp,sp,96
    a6d8:	8082                	ret
GamepadDecode():
C:/Repository/RISKYKVM/firmware/src/User/USB_Host/usb_gamepad.c:67
		int16_t a[2];
		uint8_t i;



		hid_report_t conf = Itf->HIDRptDesc;
    a6da:	04240593          	addi	a1,s0,66
    a6de:	03e00613          	li	a2,62
    a6e2:	850a                	mv	a0,sp
    a6e4:	1dc030ef          	jal	ra,d8c0 <memcpy>
C:/Repository/RISKYKVM/firmware/src/User/USB_Host/usb_gamepad.c:71
				//HID_Handle->HID_Desc.RptDesc;

		// skip report id if present
		uint8_t *p = gamepad_report_data+(conf.report_id?1:0);
    a6e8:	04344783          	lbu	a5,67(s0)
    a6ec:	00190413          	addi	s0,s2,1
    a6f0:	e399                	bnez	a5,a6f6 <GetGamepadInfo+0x5e>
    a6f2:	88818413          	addi	s0,gp,-1912 # 20000088 <gamepad_report_data>
C:/Repository/RISKYKVM/firmware/src/User/USB_Host/usb_gamepad.c:79
		//process axis
		// two axes ...
				for(i=0;i<2;i++) {
					// if logical minimum is > logical maximum then logical minimum
					// is signed. This means that the value itself is also signed
					int is_signed = conf.joystick_mouse.axis[i].logical.min >
    a6f6:	00c15903          	lhu	s2,12(sp)
C:/Repository/RISKYKVM/firmware/src/User/USB_Host/usb_gamepad.c:80
					conf.joystick_mouse.axis[i].logical.max;
    a6fa:	00e15a03          	lhu	s4,14(sp)
C:/Repository/RISKYKVM/firmware/src/User/USB_Host/usb_gamepad.c:81
					a[i] = collect_bits(p, conf.joystick_mouse.axis[i].offset,
    a6fe:	00a14603          	lbu	a2,10(sp)
    a702:	00815583          	lhu	a1,8(sp)
    a706:	012a36b3          	sltu	a3,s4,s2
    a70a:	8522                	mv	a0,s0
    a70c:	6ec020ef          	jal	ra,cdf8 <collect_bits>
C:/Repository/RISKYKVM/firmware/src/User/USB_Host/usb_gamepad.c:79
					int is_signed = conf.joystick_mouse.axis[i].logical.min >
    a710:	01415483          	lhu	s1,20(sp)
C:/Repository/RISKYKVM/firmware/src/User/USB_Host/usb_gamepad.c:80
					conf.joystick_mouse.axis[i].logical.max;
    a714:	01615983          	lhu	s3,22(sp)
C:/Repository/RISKYKVM/firmware/src/User/USB_Host/usb_gamepad.c:81
					a[i] = collect_bits(p, conf.joystick_mouse.axis[i].offset,
    a718:	01214603          	lbu	a2,18(sp)
    a71c:	01015583          	lhu	a1,16(sp)
    a720:	8aaa                	mv	s5,a0
    a722:	0099b6b3          	sltu	a3,s3,s1
    a726:	8522                	mv	a0,s0
    a728:	6d0020ef          	jal	ra,cdf8 <collect_bits>
C:/Repository/RISKYKVM/firmware/src/User/USB_Host/usb_gamepad.c:87
								conf.joystick_mouse.axis[i].size, is_signed);
				}

		//process 4 first buttons
		for(i=0;i<4;i++)
			if(p[conf.joystick_mouse.button[i].byte_offset] &
    a72c:	01814683          	lbu	a3,24(sp)
    a730:	01a14783          	lbu	a5,26(sp)
    a734:	01914603          	lbu	a2,25(sp)
    a738:	96a2                	add	a3,a3,s0
    a73a:	97a2                	add	a5,a5,s0
    a73c:	0006c703          	lbu	a4,0(a3)
    a740:	0007c783          	lbu	a5,0(a5)
    a744:	01b14683          	lbu	a3,27(sp)
    a748:	8f71                	and	a4,a4,a2
C:/Repository/RISKYKVM/firmware/src/User/USB_Host/usb_gamepad.c:81
					a[i] = collect_bits(p, conf.joystick_mouse.axis[i].offset,
    a74a:	010a9813          	slli	a6,s5,0x10
    a74e:	01051593          	slli	a1,a0,0x10
C:/Repository/RISKYKVM/firmware/src/User/USB_Host/usb_gamepad.c:87
			if(p[conf.joystick_mouse.button[i].byte_offset] &
    a752:	8ff5                	and	a5,a5,a3
C:/Repository/RISKYKVM/firmware/src/User/USB_Host/usb_gamepad.c:81
					a[i] = collect_bits(p, conf.joystick_mouse.axis[i].offset,
    a754:	41085813          	srai	a6,a6,0x10
    a758:	85c1                	srai	a1,a1,0x10
C:/Repository/RISKYKVM/firmware/src/User/USB_Host/usb_gamepad.c:60
		uint8_t btn = 0;
    a75a:	00e03733          	snez	a4,a4
C:/Repository/RISKYKVM/firmware/src/User/USB_Host/usb_gamepad.c:87
			if(p[conf.joystick_mouse.button[i].byte_offset] &
    a75e:	c399                	beqz	a5,a764 <GetGamepadInfo+0xcc>
C:/Repository/RISKYKVM/firmware/src/User/USB_Host/usb_gamepad.c:88
			 conf.joystick_mouse.button[i].bitmask) btn |= (1<<i);
    a760:	00276713          	ori	a4,a4,2
C:/Repository/RISKYKVM/firmware/src/User/USB_Host/usb_gamepad.c:87
			if(p[conf.joystick_mouse.button[i].byte_offset] &
    a764:	01c14683          	lbu	a3,28(sp)
    a768:	01d14603          	lbu	a2,29(sp)
    a76c:	96a2                	add	a3,a3,s0
    a76e:	0006c783          	lbu	a5,0(a3)
    a772:	8ff1                	and	a5,a5,a2
    a774:	c399                	beqz	a5,a77a <GetGamepadInfo+0xe2>
C:/Repository/RISKYKVM/firmware/src/User/USB_Host/usb_gamepad.c:88
			 conf.joystick_mouse.button[i].bitmask) btn |= (1<<i);
    a776:	00476713          	ori	a4,a4,4
C:/Repository/RISKYKVM/firmware/src/User/USB_Host/usb_gamepad.c:87
			if(p[conf.joystick_mouse.button[i].byte_offset] &
    a77a:	01e14683          	lbu	a3,30(sp)
    a77e:	01f14603          	lbu	a2,31(sp)
    a782:	96a2                	add	a3,a3,s0
    a784:	0006c783          	lbu	a5,0(a3)
    a788:	8ff1                	and	a5,a5,a2
    a78a:	c399                	beqz	a5,a790 <GetGamepadInfo+0xf8>
C:/Repository/RISKYKVM/firmware/src/User/USB_Host/usb_gamepad.c:88
			 conf.joystick_mouse.button[i].bitmask) btn |= (1<<i);
    a78c:	00876713          	ori	a4,a4,8
C:/Repository/RISKYKVM/firmware/src/User/USB_Host/usb_gamepad.c:92

		// ... and the eight extra buttons
		for(i=4;i<12;i++)
			if(p[conf.joystick_mouse.button[i].byte_offset] &
    a790:	02014603          	lbu	a2,32(sp)
    a794:	02214683          	lbu	a3,34(sp)
    a798:	02114883          	lbu	a7,33(sp)
    a79c:	9622                	add	a2,a2,s0
    a79e:	96a2                	add	a3,a3,s0
    a7a0:	00064783          	lbu	a5,0(a2)
    a7a4:	0006c683          	lbu	a3,0(a3)
    a7a8:	02314603          	lbu	a2,35(sp)
    a7ac:	0117f7b3          	and	a5,a5,a7
C:/Repository/RISKYKVM/firmware/src/User/USB_Host/usb_gamepad.c:61
		uint8_t btn_extra = 0;
    a7b0:	00f037b3          	snez	a5,a5
C:/Repository/RISKYKVM/firmware/src/User/USB_Host/usb_gamepad.c:92
			if(p[conf.joystick_mouse.button[i].byte_offset] &
    a7b4:	8ef1                	and	a3,a3,a2
    a7b6:	c299                	beqz	a3,a7bc <GetGamepadInfo+0x124>
C:/Repository/RISKYKVM/firmware/src/User/USB_Host/usb_gamepad.c:93
			 conf.joystick_mouse.button[i].bitmask) btn_extra |= (1<<(i-4));
    a7b8:	0027e793          	ori	a5,a5,2
C:/Repository/RISKYKVM/firmware/src/User/USB_Host/usb_gamepad.c:92
			if(p[conf.joystick_mouse.button[i].byte_offset] &
    a7bc:	02414603          	lbu	a2,36(sp)
    a7c0:	02514883          	lbu	a7,37(sp)
    a7c4:	9622                	add	a2,a2,s0
    a7c6:	00064683          	lbu	a3,0(a2)
    a7ca:	0116f6b3          	and	a3,a3,a7
    a7ce:	c299                	beqz	a3,a7d4 <GetGamepadInfo+0x13c>
C:/Repository/RISKYKVM/firmware/src/User/USB_Host/usb_gamepad.c:93
			 conf.joystick_mouse.button[i].bitmask) btn_extra |= (1<<(i-4));
    a7d0:	0047e793          	ori	a5,a5,4
C:/Repository/RISKYKVM/firmware/src/User/USB_Host/usb_gamepad.c:92
			if(p[conf.joystick_mouse.button[i].byte_offset] &
    a7d4:	02614603          	lbu	a2,38(sp)
    a7d8:	02714883          	lbu	a7,39(sp)
    a7dc:	9622                	add	a2,a2,s0
    a7de:	00064683          	lbu	a3,0(a2)
    a7e2:	0116f6b3          	and	a3,a3,a7
    a7e6:	c299                	beqz	a3,a7ec <GetGamepadInfo+0x154>
C:/Repository/RISKYKVM/firmware/src/User/USB_Host/usb_gamepad.c:93
			 conf.joystick_mouse.button[i].bitmask) btn_extra |= (1<<(i-4));
    a7e8:	0087e793          	ori	a5,a5,8
C:/Repository/RISKYKVM/firmware/src/User/USB_Host/usb_gamepad.c:92
			if(p[conf.joystick_mouse.button[i].byte_offset] &
    a7ec:	02814603          	lbu	a2,40(sp)
    a7f0:	02914883          	lbu	a7,41(sp)
    a7f4:	9622                	add	a2,a2,s0
    a7f6:	00064683          	lbu	a3,0(a2)
    a7fa:	0116f6b3          	and	a3,a3,a7
    a7fe:	c299                	beqz	a3,a804 <GetGamepadInfo+0x16c>
C:/Repository/RISKYKVM/firmware/src/User/USB_Host/usb_gamepad.c:93
			 conf.joystick_mouse.button[i].bitmask) btn_extra |= (1<<(i-4));
    a800:	0107e793          	ori	a5,a5,16
C:/Repository/RISKYKVM/firmware/src/User/USB_Host/usb_gamepad.c:92
			if(p[conf.joystick_mouse.button[i].byte_offset] &
    a804:	02a14603          	lbu	a2,42(sp)
    a808:	02b14883          	lbu	a7,43(sp)
    a80c:	9622                	add	a2,a2,s0
    a80e:	00064683          	lbu	a3,0(a2)
    a812:	0116f6b3          	and	a3,a3,a7
    a816:	c299                	beqz	a3,a81c <GetGamepadInfo+0x184>
C:/Repository/RISKYKVM/firmware/src/User/USB_Host/usb_gamepad.c:93
			 conf.joystick_mouse.button[i].bitmask) btn_extra |= (1<<(i-4));
    a818:	0207e793          	ori	a5,a5,32
C:/Repository/RISKYKVM/firmware/src/User/USB_Host/usb_gamepad.c:92
			if(p[conf.joystick_mouse.button[i].byte_offset] &
    a81c:	02c14603          	lbu	a2,44(sp)
    a820:	02d14883          	lbu	a7,45(sp)
    a824:	9622                	add	a2,a2,s0
    a826:	00064683          	lbu	a3,0(a2)
    a82a:	0116f6b3          	and	a3,a3,a7
    a82e:	c299                	beqz	a3,a834 <GetGamepadInfo+0x19c>
C:/Repository/RISKYKVM/firmware/src/User/USB_Host/usb_gamepad.c:93
			 conf.joystick_mouse.button[i].bitmask) btn_extra |= (1<<(i-4));
    a830:	0407e793          	ori	a5,a5,64
C:/Repository/RISKYKVM/firmware/src/User/USB_Host/usb_gamepad.c:92
			if(p[conf.joystick_mouse.button[i].byte_offset] &
    a834:	02e14683          	lbu	a3,46(sp)
    a838:	02f14603          	lbu	a2,47(sp)
    a83c:	9436                	add	s0,s0,a3
    a83e:	00044683          	lbu	a3,0(s0)
    a842:	8ef1                	and	a3,a3,a2
    a844:	c299                	beqz	a3,a84a <GetGamepadInfo+0x1b2>
C:/Repository/RISKYKVM/firmware/src/User/USB_Host/usb_gamepad.c:93
			 conf.joystick_mouse.button[i].bitmask) btn_extra |= (1<<(i-4));
    a846:	0807e793          	ori	a5,a5,128
C:/Repository/RISKYKVM/firmware/src/User/USB_Host/usb_gamepad.c:99



	for(i=0;i<2;i++) {

		int hrange = (conf.joystick_mouse.axis[i].logical.max - abs(conf.joystick_mouse.axis[i].logical.min)) / 2;
    a84a:	412a08b3          	sub	a7,s4,s2
C:/Repository/RISKYKVM/firmware/src/User/USB_Host/usb_gamepad.c:100
		int dead = hrange/63;
    a84e:	07e00613          	li	a2,126
C:/Repository/RISKYKVM/firmware/src/User/USB_Host/usb_gamepad.c:99
		int hrange = (conf.joystick_mouse.axis[i].logical.max - abs(conf.joystick_mouse.axis[i].logical.min)) / 2;
    a852:	86ca                	mv	a3,s2
C:/Repository/RISKYKVM/firmware/src/User/USB_Host/usb_gamepad.c:100
		int dead = hrange/63;
    a854:	02c8c633          	div	a2,a7,a2
C:/Repository/RISKYKVM/firmware/src/User/USB_Host/usb_gamepad.c:102

		if (a[i] < conf.joystick_mouse.axis[i].logical.min) a[i] = conf.joystick_mouse.axis[i].logical.min;
    a858:	01284563          	blt	a6,s2,a862 <GetGamepadInfo+0x1ca>
C:/Repository/RISKYKVM/firmware/src/User/USB_Host/usb_gamepad.c:103
		else if (a[i] > conf.joystick_mouse.axis[i].logical.max) a[i] = conf.joystick_mouse.axis[i].logical.max;
    a85c:	8956                	mv	s2,s5
    a85e:	130a4d63          	blt	s4,a6,a998 <GetGamepadInfo+0x300>
C:/Repository/RISKYKVM/firmware/src/User/USB_Host/usb_gamepad.c:105

		a[i] = a[i] - (abs(conf.joystick_mouse.axis[i].logical.min) + conf.joystick_mouse.axis[i].logical.max) / 2;
    a862:	9a36                	add	s4,s4,a3
    a864:	01fa5693          	srli	a3,s4,0x1f
    a868:	9a36                	add	s4,s4,a3
    a86a:	401a5a13          	srai	s4,s4,0x1
    a86e:	41490933          	sub	s2,s2,s4
    a872:	0942                	slli	s2,s2,0x10
    a874:	01095913          	srli	s2,s2,0x10
C:/Repository/RISKYKVM/firmware/src/User/USB_Host/usb_gamepad.c:108

		hrange -= dead;
		if (a[i] < -dead) a[i] += dead;
    a878:	01091693          	slli	a3,s2,0x10
    a87c:	86c1                	srai	a3,a3,0x10
    a87e:	40c00833          	neg	a6,a2
    a882:	0b06d563          	bge	a3,a6,a92c <GetGamepadInfo+0x294>
    a886:	9932                	add	s2,s2,a2
    a888:	0942                	slli	s2,s2,0x10
    a88a:	41095913          	srai	s2,s2,0x10
C:/Repository/RISKYKVM/firmware/src/User/USB_Host/usb_gamepad.c:99
		int hrange = (conf.joystick_mouse.axis[i].logical.max - abs(conf.joystick_mouse.axis[i].logical.min)) / 2;
    a88e:	01f8d693          	srli	a3,a7,0x1f
    a892:	96c6                	add	a3,a3,a7
    a894:	8685                	srai	a3,a3,0x1
C:/Repository/RISKYKVM/firmware/src/User/USB_Host/usb_gamepad.c:112
		else if (a[i] > dead) a[i] -= dead;
		else a[i] = 0;

		a[i] = (a[i] * 127) / hrange;
    a896:	00791813          	slli	a6,s2,0x7
    a89a:	41280933          	sub	s2,a6,s2
C:/Repository/RISKYKVM/firmware/src/User/USB_Host/usb_gamepad.c:107
		hrange -= dead;
    a89e:	40c68633          	sub	a2,a3,a2
C:/Repository/RISKYKVM/firmware/src/User/USB_Host/usb_gamepad.c:114

		if (a[i] < -127) a[i] = -127;
    a8a2:	f8100893          	li	a7,-127
    a8a6:	4801                	li	a6,0
C:/Repository/RISKYKVM/firmware/src/User/USB_Host/usb_gamepad.c:112
		a[i] = (a[i] * 127) / hrange;
    a8a8:	02c94633          	div	a2,s2,a2
    a8ac:	01061693          	slli	a3,a2,0x10
    a8b0:	86c1                	srai	a3,a3,0x10
C:/Repository/RISKYKVM/firmware/src/User/USB_Host/usb_gamepad.c:114
		if (a[i] < -127) a[i] = -127;
    a8b2:	1116d063          	bge	a3,a7,a9b2 <GetGamepadInfo+0x31a>
C:/Repository/RISKYKVM/firmware/src/User/USB_Host/usb_gamepad.c:99
		int hrange = (conf.joystick_mouse.axis[i].logical.max - abs(conf.joystick_mouse.axis[i].logical.min)) / 2;
    a8b6:	409988b3          	sub	a7,s3,s1
C:/Repository/RISKYKVM/firmware/src/User/USB_Host/usb_gamepad.c:100
		int dead = hrange/63;
    a8ba:	07e00613          	li	a2,126
C:/Repository/RISKYKVM/firmware/src/User/USB_Host/usb_gamepad.c:99
		int hrange = (conf.joystick_mouse.axis[i].logical.max - abs(conf.joystick_mouse.axis[i].logical.min)) / 2;
    a8be:	86a6                	mv	a3,s1
C:/Repository/RISKYKVM/firmware/src/User/USB_Host/usb_gamepad.c:100
		int dead = hrange/63;
    a8c0:	02c8c633          	div	a2,a7,a2
C:/Repository/RISKYKVM/firmware/src/User/USB_Host/usb_gamepad.c:102
		if (a[i] < conf.joystick_mouse.axis[i].logical.min) a[i] = conf.joystick_mouse.axis[i].logical.min;
    a8c4:	0095c563          	blt	a1,s1,a8ce <GetGamepadInfo+0x236>
C:/Repository/RISKYKVM/firmware/src/User/USB_Host/usb_gamepad.c:103
		else if (a[i] > conf.joystick_mouse.axis[i].logical.max) a[i] = conf.joystick_mouse.axis[i].logical.max;
    a8c8:	84aa                	mv	s1,a0
    a8ca:	0cb9c563          	blt	s3,a1,a994 <GetGamepadInfo+0x2fc>
C:/Repository/RISKYKVM/firmware/src/User/USB_Host/usb_gamepad.c:105
		a[i] = a[i] - (abs(conf.joystick_mouse.axis[i].logical.min) + conf.joystick_mouse.axis[i].logical.max) / 2;
    a8ce:	99b6                	add	s3,s3,a3
    a8d0:	01f9d693          	srli	a3,s3,0x1f
    a8d4:	99b6                	add	s3,s3,a3
    a8d6:	4019d993          	srai	s3,s3,0x1
    a8da:	413484b3          	sub	s1,s1,s3
    a8de:	04c2                	slli	s1,s1,0x10
    a8e0:	80c1                	srli	s1,s1,0x10
C:/Repository/RISKYKVM/firmware/src/User/USB_Host/usb_gamepad.c:108
		if (a[i] < -dead) a[i] += dead;
    a8e2:	01049693          	slli	a3,s1,0x10
    a8e6:	86c1                	srai	a3,a3,0x10
    a8e8:	40c005b3          	neg	a1,a2
    a8ec:	04b6da63          	bge	a3,a1,a940 <GetGamepadInfo+0x2a8>
    a8f0:	94b2                	add	s1,s1,a2
    a8f2:	04c2                	slli	s1,s1,0x10
    a8f4:	84c1                	srai	s1,s1,0x10
C:/Repository/RISKYKVM/firmware/src/User/USB_Host/usb_gamepad.c:99
		int hrange = (conf.joystick_mouse.axis[i].logical.max - abs(conf.joystick_mouse.axis[i].logical.min)) / 2;
    a8f6:	01f8d693          	srli	a3,a7,0x1f
    a8fa:	96c6                	add	a3,a3,a7
    a8fc:	8685                	srai	a3,a3,0x1
C:/Repository/RISKYKVM/firmware/src/User/USB_Host/usb_gamepad.c:112
		a[i] = (a[i] * 127) / hrange;
    a8fe:	00749593          	slli	a1,s1,0x7
    a902:	409584b3          	sub	s1,a1,s1
C:/Repository/RISKYKVM/firmware/src/User/USB_Host/usb_gamepad.c:107
		hrange -= dead;
    a906:	40c68633          	sub	a2,a3,a2
C:/Repository/RISKYKVM/firmware/src/User/USB_Host/usb_gamepad.c:114
		if (a[i] < -127) a[i] = -127;
    a90a:	f8100593          	li	a1,-127
C:/Repository/RISKYKVM/firmware/src/User/USB_Host/usb_gamepad.c:112
		a[i] = (a[i] * 127) / hrange;
    a90e:	02c4c633          	div	a2,s1,a2
    a912:	01061693          	slli	a3,a2,0x10
    a916:	86c1                	srai	a3,a3,0x10
C:/Repository/RISKYKVM/firmware/src/User/USB_Host/usb_gamepad.c:114
		if (a[i] < -127) a[i] = -127;
    a918:	08b6d263          	bge	a3,a1,a99c <GetGamepadInfo+0x304>
C:/Repository/RISKYKVM/firmware/src/User/USB_Host/usb_gamepad.c:120
		else if (a[i] > 127) a[i] = 127;

		a[i]=a[i]+127; // mist wants a value in the range [0..255]
	}

				if(a[0] < JOYSTICK_AXIS_TRIGGER_MIN) jmap |= JOY_LEFT;
    a91c:	03f00693          	li	a3,63
    a920:	0706c863          	blt	a3,a6,a990 <GetGamepadInfo+0x2f8>
    a924:	4609                	li	a2,2
C:/Repository/RISKYKVM/firmware/src/User/USB_Host/usb_gamepad.c:122
				if(a[0] > JOYSTICK_AXIS_TRIGGER_MAX) jmap |= JOY_RIGHT;
				if(a[1] < JOYSTICK_AXIS_TRIGGER_MIN) jmap |= JOY_UP;
    a926:	00866613          	ori	a2,a2,8
C:/Repository/RISKYKVM/firmware/src/User/USB_Host/usb_gamepad.c:123
				if(a[1] > JOYSTICK_AXIS_TRIGGER_MAX) jmap |= JOY_DOWN;
    a92a:	a091                	j	a96e <GetGamepadInfo+0x2d6>
C:/Repository/RISKYKVM/firmware/src/User/USB_Host/usb_gamepad.c:109
		else if (a[i] > dead) a[i] -= dead;
    a92c:	07f00813          	li	a6,127
    a930:	f8d653e3          	bge	a2,a3,a8b6 <GetGamepadInfo+0x21e>
    a934:	40c90933          	sub	s2,s2,a2
    a938:	0942                	slli	s2,s2,0x10
    a93a:	41095913          	srai	s2,s2,0x10
    a93e:	bf81                	j	a88e <GetGamepadInfo+0x1f6>
    a940:	04d64463          	blt	a2,a3,a988 <GetGamepadInfo+0x2f0>
C:/Repository/RISKYKVM/firmware/src/User/USB_Host/usb_gamepad.c:120
				if(a[0] < JOYSTICK_AXIS_TRIGGER_MIN) jmap |= JOY_LEFT;
    a944:	03f00693          	li	a3,63
    a948:	4609                	li	a2,2
    a94a:	0306d263          	bge	a3,a6,a96e <GetGamepadInfo+0x2d6>
    a94e:	07f00693          	li	a3,127
C:/Repository/RISKYKVM/firmware/src/User/USB_Host/usb_gamepad.c:121
				if(a[0] > JOYSTICK_AXIS_TRIGGER_MAX) jmap |= JOY_RIGHT;
    a952:	0c182813          	slti	a6,a6,193
C:/Repository/RISKYKVM/firmware/src/User/USB_Host/usb_gamepad.c:59
		uint8_t jmap = 0;
    a956:	00184613          	xori	a2,a6,1
C:/Repository/RISKYKVM/firmware/src/User/USB_Host/usb_gamepad.c:122
				if(a[1] < JOYSTICK_AXIS_TRIGGER_MIN) jmap |= JOY_UP;
    a95a:	03f00593          	li	a1,63
    a95e:	fcd5d4e3          	bge	a1,a3,a926 <GetGamepadInfo+0x28e>
C:/Repository/RISKYKVM/firmware/src/User/USB_Host/usb_gamepad.c:123
				if(a[1] > JOYSTICK_AXIS_TRIGGER_MAX) jmap |= JOY_DOWN;
    a962:	0c000593          	li	a1,192
    a966:	00d5d463          	bge	a1,a3,a96e <GetGamepadInfo+0x2d6>
    a96a:	00466613          	ori	a2,a2,4
C:/Repository/RISKYKVM/firmware/src/User/USB_Host/usb_gamepad.c:126
				jmap |= btn << JOY_BTN_SHIFT;      // add buttons

				gamepad_info.gamepad_data = jmap;
    a96e:	20002537          	lui	a0,0x20002
C:/Repository/RISKYKVM/firmware/src/User/USB_Host/usb_gamepad.c:124
				jmap |= btn << JOY_BTN_SHIFT;      // add buttons
    a972:	0712                	slli	a4,a4,0x4
C:/Repository/RISKYKVM/firmware/src/User/USB_Host/usb_gamepad.c:127
				gamepad_info.gamepad_extraBtn = btn_extra;
    a974:	ae050693          	addi	a3,a0,-1312 # 20001ae0 <gamepad_info>
C:/Repository/RISKYKVM/firmware/src/User/USB_Host/usb_gamepad.c:124
				jmap |= btn << JOY_BTN_SHIFT;      // add buttons
    a978:	8f51                	or	a4,a4,a2
C:/Repository/RISKYKVM/firmware/src/User/USB_Host/usb_gamepad.c:126
				gamepad_info.gamepad_data = jmap;
    a97a:	aee50023          	sb	a4,-1312(a0)
C:/Repository/RISKYKVM/firmware/src/User/USB_Host/usb_gamepad.c:127
				gamepad_info.gamepad_extraBtn = btn_extra;
    a97e:	00f680a3          	sb	a5,1(a3)
GetGamepadInfo():
C:/Repository/RISKYKVM/firmware/src/User/USB_Host/usb_gamepad.c:36
		return &gamepad_info;
    a982:	ae050513          	addi	a0,a0,-1312
    a986:	b389                	j	a6c8 <GetGamepadInfo+0x30>
GamepadDecode():
C:/Repository/RISKYKVM/firmware/src/User/USB_Host/usb_gamepad.c:109
		else if (a[i] > dead) a[i] -= dead;
    a988:	8c91                	sub	s1,s1,a2
    a98a:	04c2                	slli	s1,s1,0x10
    a98c:	84c1                	srai	s1,s1,0x10
    a98e:	b7a5                	j	a8f6 <GetGamepadInfo+0x25e>
C:/Repository/RISKYKVM/firmware/src/User/USB_Host/usb_gamepad.c:120
				if(a[0] < JOYSTICK_AXIS_TRIGGER_MIN) jmap |= JOY_LEFT;
    a990:	4681                	li	a3,0
    a992:	b7c1                	j	a952 <GetGamepadInfo+0x2ba>
C:/Repository/RISKYKVM/firmware/src/User/USB_Host/usb_gamepad.c:99
		int hrange = (conf.joystick_mouse.axis[i].logical.max - abs(conf.joystick_mouse.axis[i].logical.min)) / 2;
    a994:	84ce                	mv	s1,s3
    a996:	bf25                	j	a8ce <GetGamepadInfo+0x236>
    a998:	8952                	mv	s2,s4
    a99a:	b5e1                	j	a862 <GetGamepadInfo+0x1ca>
C:/Repository/RISKYKVM/firmware/src/User/USB_Host/usb_gamepad.c:115
		else if (a[i] > 127) a[i] = 127;
    a99c:	07f00593          	li	a1,127
    a9a0:	02d5d863          	bge	a1,a3,a9d0 <GetGamepadInfo+0x338>
C:/Repository/RISKYKVM/firmware/src/User/USB_Host/usb_gamepad.c:120
				if(a[0] < JOYSTICK_AXIS_TRIGGER_MIN) jmap |= JOY_LEFT;
    a9a4:	03f00693          	li	a3,63
    a9a8:	0306d263          	bge	a3,a6,a9cc <GetGamepadInfo+0x334>
    a9ac:	0fe00693          	li	a3,254
    a9b0:	b74d                	j	a952 <GetGamepadInfo+0x2ba>
C:/Repository/RISKYKVM/firmware/src/User/USB_Host/usb_gamepad.c:115
		else if (a[i] > 127) a[i] = 127;
    a9b2:	07f00893          	li	a7,127
    a9b6:	0fe00813          	li	a6,254
    a9ba:	eed8cee3          	blt	a7,a3,a8b6 <GetGamepadInfo+0x21e>
    a9be:	07f60613          	addi	a2,a2,127
    a9c2:	01061813          	slli	a6,a2,0x10
    a9c6:	41085813          	srai	a6,a6,0x10
    a9ca:	b5f5                	j	a8b6 <GetGamepadInfo+0x21e>
C:/Repository/RISKYKVM/firmware/src/User/USB_Host/usb_gamepad.c:120
				if(a[0] < JOYSTICK_AXIS_TRIGGER_MIN) jmap |= JOY_LEFT;
    a9cc:	4609                	li	a2,2
    a9ce:	bf71                	j	a96a <GetGamepadInfo+0x2d2>
    a9d0:	07f60613          	addi	a2,a2,127
    a9d4:	01061693          	slli	a3,a2,0x10
    a9d8:	03f00593          	li	a1,63
    a9dc:	86c1                	srai	a3,a3,0x10
    a9de:	4609                	li	a2,2
    a9e0:	f705dde3          	bge	a1,a6,a95a <GetGamepadInfo+0x2c2>
    a9e4:	b7bd                	j	a952 <GetGamepadInfo+0x2ba>

0000a9e6 <parse_report_descriptor>:
parse_report_descriptor():
C:/Repository/RISKYKVM/firmware/src/User/USB_Host/usb_hid_reportparser.c:96
  uint8_t btns = 0;
  int8_t hat = -1;
  int8_t wheel = -1;


  while(rep_size) {
    a9e6:	5c058263          	beqz	a1,afaa <parse_report_descriptor+0x5c4>
C:/Repository/RISKYKVM/firmware/src/User/USB_Host/usb_hid_reportparser.c:72
int parse_report_descriptor(uint8_t *rep, uint16_t rep_size,hid_report_t *conf) {
    a9ea:	715d                	addi	sp,sp,-80
C:/Repository/RISKYKVM/firmware/src/User/USB_Host/usb_hid_reportparser.c:93
  int8_t wheel = -1;
    a9ec:	57fd                	li	a5,-1
C:/Repository/RISKYKVM/firmware/src/User/USB_Host/usb_hid_reportparser.c:72
int parse_report_descriptor(uint8_t *rep, uint16_t rep_size,hid_report_t *conf) {
    a9ee:	c6a2                	sw	s0,76(sp)
    a9f0:	c4a6                	sw	s1,72(sp)
    a9f2:	6439                	lui	s0,0xe
    a9f4:	64b9                	lui	s1,0xe
    a9f6:	c2ca                	sw	s2,68(sp)
    a9f8:	c0ce                	sw	s3,64(sp)
    a9fa:	de52                	sw	s4,60(sp)
    a9fc:	dc56                	sw	s5,56(sp)
    a9fe:	da5a                	sw	s6,52(sp)
    aa00:	d85e                	sw	s7,48(sp)
    aa02:	d662                	sw	s8,44(sp)
    aa04:	d466                	sw	s9,40(sp)
    aa06:	d26a                	sw	s10,36(sp)
    aa08:	d06e                	sw	s11,32(sp)
C:/Repository/RISKYKVM/firmware/src/User/USB_Host/usb_hid_reportparser.c:90
  int8_t axis[2] = { -1, -1};
    aa0a:	5d7d                	li	s10,-1
    aa0c:	5c7d                	li	s8,-1
C:/Repository/RISKYKVM/firmware/src/User/USB_Host/usb_hid_reportparser.c:93
  int8_t wheel = -1;
    aa0e:	ce3e                	sw	a5,28(sp)
C:/Repository/RISKYKVM/firmware/src/User/USB_Host/usb_hid_reportparser.c:92
  int8_t hat = -1;
    aa10:	c63e                	sw	a5,12(sp)
C:/Repository/RISKYKVM/firmware/src/User/USB_Host/usb_hid_reportparser.c:91
  uint8_t btns = 0;
    aa12:	c402                	sw	zero,8(sp)
C:/Repository/RISKYKVM/firmware/src/User/USB_Host/usb_hid_reportparser.c:87
  uint8_t report_complete = 0;
    aa14:	c202                	sw	zero,4(sp)
C:/Repository/RISKYKVM/firmware/src/User/USB_Host/usb_hid_reportparser.c:83
  uint16_t logical_minimum=0, logical_maximum=0;
    aa16:	ca02                	sw	zero,20(sp)
    aa18:	cc02                	sw	zero,24(sp)
C:/Repository/RISKYKVM/firmware/src/User/USB_Host/usb_hid_reportparser.c:82
  uint16_t bit_count = 0, usage_count = 0;
    aa1a:	4801                	li	a6,0
    aa1c:	4281                	li	t0,0
C:/Repository/RISKYKVM/firmware/src/User/USB_Host/usb_hid_reportparser.c:81
  uint8_t report_size = 0, report_count = 0;
    aa1e:	c802                	sw	zero,16(sp)
    aa20:	4c81                	li	s9,0
C:/Repository/RISKYKVM/firmware/src/User/USB_Host/usb_hid_reportparser.c:77
  uint8_t collection_depth = 0;
    aa22:	4e81                	li	t4,0
C:/Repository/RISKYKVM/firmware/src/User/USB_Host/usb_hid_reportparser.c:76
  int8_t generic_desktop = -1;   // depth at which first gen_desk was found
    aa24:	597d                	li	s2,-1
C:/Repository/RISKYKVM/firmware/src/User/USB_Host/usb_hid_reportparser.c:75
  uint8_t skip_collection = 0;
    aa26:	4301                	li	t1,0
C:/Repository/RISKYKVM/firmware/src/User/USB_Host/usb_hid_reportparser.c:74
  int8_t phys_log_collection = 0;
    aa28:	4b01                	li	s6,0
C:/Repository/RISKYKVM/firmware/src/User/USB_Host/usb_hid_reportparser.c:73
  int8_t app_collection = 0;
    aa2a:	4b81                	li	s7,0
C:/Repository/RISKYKVM/firmware/src/User/USB_Host/usb_hid_reportparser.c:113
     if(size) {      // size 1/2/3
       value = *rep++;
       rep_size--;
     }

     if(size > 1) {  // size 2/3
    aa2c:	4e05                	li	t3,1
C:/Repository/RISKYKVM/firmware/src/User/USB_Host/usb_hid_reportparser.c:118
       value = (value & 0xff) + ((uint32_t)(*rep++)<<8);
       rep_size--;
     }

     if(size > 2) {  // size 3
    aa2e:	4f8d                	li	t6,3
    aa30:	4a25                	li	s4,9
    aa32:	97840413          	addi	s0,s0,-1672 # d978 <memcpy+0xb8>
    aa36:	4a91                	li	s5,4
    aa38:	9a048493          	addi	s1,s1,-1632 # d9a0 <memcpy+0xe0>
report_is_usable():
C:/Repository/RISKYKVM/firmware/src/User/USB_Host/usb_hid_reportparser.c:60
      ((conf->type == REPORT_TYPE_MOUSE)    && ((report_complete & MOUSE_COMPLETE) == MOUSE_COMPLETE)) ||
    aa3c:	4f09                	li	t5,2
parse_report_descriptor():
C:/Repository/RISKYKVM/firmware/src/User/USB_Host/usb_hid_reportparser.c:162
           	    if((conf->type == REPORT_TYPE_JOYSTICK) ||
           	       (conf->type == REPORT_TYPE_MOUSE)) {
           	      // scan for up to four buttons
           	      uint8_t b;
           	      for(b=0;b<12;b++) {
           		if(report_count > b) {
    aa3e:	43a9                	li	t2,10
C:/Repository/RISKYKVM/firmware/src/User/USB_Host/usb_hid_reportparser.c:136
       				if(tag == 12) {
    aa40:	49b1                	li	s3,12
C:/Repository/RISKYKVM/firmware/src/User/USB_Host/usb_hid_reportparser.c:98
    uint8_t tag = ((item_t*)rep)->bTag;
    aa42:	00054783          	lbu	a5,0(a0)
C:/Repository/RISKYKVM/firmware/src/User/USB_Host/usb_hid_reportparser.c:99
    uint8_t type = ((item_t*)rep)->bType;
    aa46:	0027d713          	srli	a4,a5,0x2
C:/Repository/RISKYKVM/firmware/src/User/USB_Host/usb_hid_reportparser.c:100
    uint8_t size = ((item_t*)rep)->bSize;
    aa4a:	0037f893          	andi	a7,a5,3
C:/Repository/RISKYKVM/firmware/src/User/USB_Host/usb_hid_reportparser.c:99
    uint8_t type = ((item_t*)rep)->bType;
    aa4e:	8b0d                	andi	a4,a4,3
C:/Repository/RISKYKVM/firmware/src/User/USB_Host/usb_hid_reportparser.c:98
    uint8_t tag = ((item_t*)rep)->bTag;
    aa50:	8391                	srli	a5,a5,0x4
C:/Repository/RISKYKVM/firmware/src/User/USB_Host/usb_hid_reportparser.c:108
     if(size) {      // size 1/2/3
    aa52:	04089763          	bnez	a7,aaa0 <parse_report_descriptor+0xba>
C:/Repository/RISKYKVM/firmware/src/User/USB_Host/usb_hid_reportparser.c:103
    rep_size--;   // one byte consumed
    aa56:	15fd                	addi	a1,a1,-1
    aa58:	05c2                	slli	a1,a1,0x10
C:/Repository/RISKYKVM/firmware/src/User/USB_Host/usb_hid_reportparser.c:102
    rep++;
    aa5a:	0505                	addi	a0,a0,1
C:/Repository/RISKYKVM/firmware/src/User/USB_Host/usb_hid_reportparser.c:103
    rep_size--;   // one byte consumed
    aa5c:	81c1                	srli	a1,a1,0x10
C:/Repository/RISKYKVM/firmware/src/User/USB_Host/usb_hid_reportparser.c:107
    uint32_t value = 0;
    aa5e:	4681                	li	a3,0
C:/Repository/RISKYKVM/firmware/src/User/USB_Host/usb_hid_reportparser.c:127
           if(skip_collection) {
    aa60:	06030a63          	beqz	t1,aad4 <parse_report_descriptor+0xee>
C:/Repository/RISKYKVM/firmware/src/User/USB_Host/usb_hid_reportparser.c:128
             if(!type) {  // main item
    aa64:	ef11                	bnez	a4,aa80 <parse_report_descriptor+0x9a>
C:/Repository/RISKYKVM/firmware/src/User/USB_Host/usb_hid_reportparser.c:130
       				if(tag == 10) {
    aa66:	0a778c63          	beq	a5,t2,ab1e <parse_report_descriptor+0x138>
C:/Repository/RISKYKVM/firmware/src/User/USB_Host/usb_hid_reportparser.c:136
       				if(tag == 12) {
    aa6a:	01379b63          	bne	a5,s3,aa80 <parse_report_descriptor+0x9a>
C:/Repository/RISKYKVM/firmware/src/User/USB_Host/usb_hid_reportparser.c:138
       					collection_depth--;
    aa6e:	1efd                	addi	t4,t4,-1
C:/Repository/RISKYKVM/firmware/src/User/USB_Host/usb_hid_reportparser.c:137
       					skip_collection--;
    aa70:	137d                	addi	t1,t1,-1
C:/Repository/RISKYKVM/firmware/src/User/USB_Host/usb_hid_reportparser.c:138
       					collection_depth--;
    aa72:	0ffefe93          	andi	t4,t4,255
C:/Repository/RISKYKVM/firmware/src/User/USB_Host/usb_hid_reportparser.c:137
       					skip_collection--;
    aa76:	0ff37313          	andi	t1,t1,255
C:/Repository/RISKYKVM/firmware/src/User/USB_Host/usb_hid_reportparser.c:141
       					if(generic_desktop > collection_depth)
    aa7a:	012ed363          	bge	t4,s2,aa80 <parse_report_descriptor+0x9a>
C:/Repository/RISKYKVM/firmware/src/User/USB_Host/usb_hid_reportparser.c:142
       						generic_desktop = -1;
    aa7e:	597d                	li	s2,-1
C:/Repository/RISKYKVM/firmware/src/User/USB_Host/usb_hid_reportparser.c:96
  while(rep_size) {
    aa80:	f1e9                	bnez	a1,aa42 <parse_report_descriptor+0x5c>
C:/Repository/RISKYKVM/firmware/src/User/USB_Host/usb_hid_reportparser.c:279
           	    return 0;
           	  }
           	  break;

           	default:
           	  return 0;
    aa82:	4501                	li	a0,0
C:/Repository/RISKYKVM/firmware/src/User/USB_Host/usb_hid_reportparser.c:428
               }
             }

             // if we get here then no usable setup was found
             return 0;
           }
    aa84:	4436                	lw	s0,76(sp)
    aa86:	44a6                	lw	s1,72(sp)
    aa88:	4916                	lw	s2,68(sp)
    aa8a:	4986                	lw	s3,64(sp)
    aa8c:	5a72                	lw	s4,60(sp)
    aa8e:	5ae2                	lw	s5,56(sp)
    aa90:	5b52                	lw	s6,52(sp)
    aa92:	5bc2                	lw	s7,48(sp)
    aa94:	5c32                	lw	s8,44(sp)
    aa96:	5ca2                	lw	s9,40(sp)
    aa98:	5d12                	lw	s10,36(sp)
    aa9a:	5d82                	lw	s11,32(sp)
    aa9c:	6161                	addi	sp,sp,80
    aa9e:	8082                	ret
C:/Repository/RISKYKVM/firmware/src/User/USB_Host/usb_hid_reportparser.c:109
       value = *rep++;
    aaa0:	00154683          	lbu	a3,1(a0)
C:/Repository/RISKYKVM/firmware/src/User/USB_Host/usb_hid_reportparser.c:113
     if(size > 1) {  // size 2/3
    aaa4:	51c88563          	beq	a7,t3,afae <parse_report_descriptor+0x5c8>
C:/Repository/RISKYKVM/firmware/src/User/USB_Host/usb_hid_reportparser.c:114
       value = (value & 0xff) + ((uint32_t)(*rep++)<<8);
    aaa8:	00254d83          	lbu	s11,2(a0)
    aaac:	0da2                	slli	s11,s11,0x8
    aaae:	96ee                	add	a3,a3,s11
C:/Repository/RISKYKVM/firmware/src/User/USB_Host/usb_hid_reportparser.c:118
     if(size > 2) {  // size 3
    aab0:	07f89263          	bne	a7,t6,ab14 <parse_report_descriptor+0x12e>
C:/Repository/RISKYKVM/firmware/src/User/USB_Host/usb_hid_reportparser.c:120
       value |= ((uint32_t)(*rep++)<<16);
    aab4:	00354883          	lbu	a7,3(a0)
C:/Repository/RISKYKVM/firmware/src/User/USB_Host/usb_hid_reportparser.c:121
       value |= ((uint32_t)(*rep++)<<24);
    aab8:	00454d83          	lbu	s11,4(a0)
C:/Repository/RISKYKVM/firmware/src/User/USB_Host/usb_hid_reportparser.c:122
       rep_size-=2;
    aabc:	15ed                	addi	a1,a1,-5
C:/Repository/RISKYKVM/firmware/src/User/USB_Host/usb_hid_reportparser.c:120
       value |= ((uint32_t)(*rep++)<<16);
    aabe:	08c2                	slli	a7,a7,0x10
C:/Repository/RISKYKVM/firmware/src/User/USB_Host/usb_hid_reportparser.c:121
       value |= ((uint32_t)(*rep++)<<24);
    aac0:	0de2                	slli	s11,s11,0x18
    aac2:	01b8e8b3          	or	a7,a7,s11
C:/Repository/RISKYKVM/firmware/src/User/USB_Host/usb_hid_reportparser.c:122
       rep_size-=2;
    aac6:	05c2                	slli	a1,a1,0x10
C:/Repository/RISKYKVM/firmware/src/User/USB_Host/usb_hid_reportparser.c:121
       value |= ((uint32_t)(*rep++)<<24);
    aac8:	0116e6b3          	or	a3,a3,a7
C:/Repository/RISKYKVM/firmware/src/User/USB_Host/usb_hid_reportparser.c:122
       rep_size-=2;
    aacc:	81c1                	srli	a1,a1,0x10
C:/Repository/RISKYKVM/firmware/src/User/USB_Host/usb_hid_reportparser.c:121
       value |= ((uint32_t)(*rep++)<<24);
    aace:	0515                	addi	a0,a0,5
C:/Repository/RISKYKVM/firmware/src/User/USB_Host/usb_hid_reportparser.c:127
           if(skip_collection) {
    aad0:	f8031ae3          	bnez	t1,aa64 <parse_report_descriptor+0x7e>
C:/Repository/RISKYKVM/firmware/src/User/USB_Host/usb_hid_reportparser.c:149
                 switch(type) {
    aad4:	03c70263          	beq	a4,t3,aaf8 <parse_report_descriptor+0x112>
    aad8:	c715                	beqz	a4,ab04 <parse_report_descriptor+0x11e>
    aada:	fbe713e3          	bne	a4,t5,aa80 <parse_report_descriptor+0x9a>
C:/Repository/RISKYKVM/firmware/src/User/USB_Host/usb_hid_reportparser.c:343
           	switch(tag) {
    aade:	1bc78663          	beq	a5,t3,ac8a <parse_report_descriptor+0x2a4>
    aae2:	16078a63          	beqz	a5,ac56 <parse_report_descriptor+0x270>
    aae6:	f9e79de3          	bne	a5,t5,aa80 <parse_report_descriptor+0x9a>
C:/Repository/RISKYKVM/firmware/src/User/USB_Host/usb_hid_reportparser.c:409
           	  usage_count += value;
    aaea:	96c2                	add	a3,a3,a6
    aaec:	01069813          	slli	a6,a3,0x10
    aaf0:	01085813          	srli	a6,a6,0x10
C:/Repository/RISKYKVM/firmware/src/User/USB_Host/usb_hid_reportparser.c:96
  while(rep_size) {
    aaf4:	f5b9                	bnez	a1,aa42 <parse_report_descriptor+0x5c>
    aaf6:	b771                	j	aa82 <parse_report_descriptor+0x9c>
C:/Repository/RISKYKVM/firmware/src/User/USB_Host/usb_hid_reportparser.c:286
           	switch(tag) {
    aaf8:	f8fa65e3          	bltu	s4,a5,aa82 <parse_report_descriptor+0x9c>
    aafc:	078a                	slli	a5,a5,0x2
    aafe:	97a2                	add	a5,a5,s0
    ab00:	439c                	lw	a5,0(a5)
    ab02:	8782                	jr	a5
C:/Repository/RISKYKVM/firmware/src/User/USB_Host/usb_hid_reportparser.c:153
           	switch(tag) {
    ab04:	07a1                	addi	a5,a5,8
    ab06:	8bbd                	andi	a5,a5,15
    ab08:	f6faede3          	bltu	s5,a5,aa82 <parse_report_descriptor+0x9c>
    ab0c:	078a                	slli	a5,a5,0x2
    ab0e:	97a6                	add	a5,a5,s1
    ab10:	439c                	lw	a5,0(a5)
    ab12:	8782                	jr	a5
C:/Repository/RISKYKVM/firmware/src/User/USB_Host/usb_hid_reportparser.c:115
       rep_size--;
    ab14:	15f5                	addi	a1,a1,-3
    ab16:	05c2                	slli	a1,a1,0x10
C:/Repository/RISKYKVM/firmware/src/User/USB_Host/usb_hid_reportparser.c:114
       value = (value & 0xff) + ((uint32_t)(*rep++)<<8);
    ab18:	050d                	addi	a0,a0,3
C:/Repository/RISKYKVM/firmware/src/User/USB_Host/usb_hid_reportparser.c:115
       rep_size--;
    ab1a:	81c1                	srli	a1,a1,0x10
    ab1c:	b791                	j	aa60 <parse_report_descriptor+0x7a>
C:/Repository/RISKYKVM/firmware/src/User/USB_Host/usb_hid_reportparser.c:131
       					skip_collection++;
    ab1e:	0305                	addi	t1,t1,1
C:/Repository/RISKYKVM/firmware/src/User/USB_Host/usb_hid_reportparser.c:132
       					collection_depth++;
    ab20:	0e85                	addi	t4,t4,1
C:/Repository/RISKYKVM/firmware/src/User/USB_Host/usb_hid_reportparser.c:131
       					skip_collection++;
    ab22:	0ff37313          	andi	t1,t1,255
C:/Repository/RISKYKVM/firmware/src/User/USB_Host/usb_hid_reportparser.c:132
       					collection_depth++;
    ab26:	0ffefe93          	andi	t4,t4,255
C:/Repository/RISKYKVM/firmware/src/User/USB_Host/usb_hid_reportparser.c:96
  while(rep_size) {
    ab2a:	fd81                	bnez	a1,aa42 <parse_report_descriptor+0x5c>
    ab2c:	bf99                	j	aa82 <parse_report_descriptor+0x9c>
C:/Repository/RISKYKVM/firmware/src/User/USB_Host/usb_hid_reportparser.c:236
           	  collection_depth++;
    ab2e:	0e85                	addi	t4,t4,1
    ab30:	0ffefe93          	andi	t4,t4,255
C:/Repository/RISKYKVM/firmware/src/User/USB_Host/usb_hid_reportparser.c:239
           	  if(value == 1) {	   // app collection
    ab34:	3fc68163          	beq	a3,t3,af16 <parse_report_descriptor+0x530>
C:/Repository/RISKYKVM/firmware/src/User/USB_Host/usb_hid_reportparser.c:241
           	  } else if(value == 0) {  // physical collection
    ab38:	38068d63          	beqz	a3,aed2 <parse_report_descriptor+0x4ec>
C:/Repository/RISKYKVM/firmware/src/User/USB_Host/usb_hid_reportparser.c:244
           	  } else if(value == 2) {  // logical collection
    ab3c:	39e68b63          	beq	a3,t5,aed2 <parse_report_descriptor+0x4ec>
C:/Repository/RISKYKVM/firmware/src/User/USB_Host/usb_hid_reportparser.c:237
           	  usage_count = 0;
    ab40:	4801                	li	a6,0
C:/Repository/RISKYKVM/firmware/src/User/USB_Host/usb_hid_reportparser.c:247
           	    skip_collection++;
    ab42:	4305                	li	t1,1
C:/Repository/RISKYKVM/firmware/src/User/USB_Host/usb_hid_reportparser.c:96
  while(rep_size) {
    ab44:	ee059fe3          	bnez	a1,aa42 <parse_report_descriptor+0x5c>
    ab48:	bf2d                	j	aa82 <parse_report_descriptor+0x9c>
C:/Repository/RISKYKVM/firmware/src/User/USB_Host/usb_hid_reportparser.c:156
           	  if(btns) {
    ab4a:	47a2                	lw	a5,8(sp)
    ab4c:	18079663          	bnez	a5,acd8 <parse_report_descriptor+0x2f2>
C:/Repository/RISKYKVM/firmware/src/User/USB_Host/usb_hid_reportparser.c:181 (discriminator 1)
           	    if(axis[c] >= 0) {
    ab50:	010c9793          	slli	a5,s9,0x10
    ab54:	83c1                	srli	a5,a5,0x10
    ab56:	3c0c4863          	bltz	s8,af26 <parse_report_descriptor+0x540>
C:/Repository/RISKYKVM/firmware/src/User/USB_Host/usb_hid_reportparser.c:184
           	      if((conf->type == REPORT_TYPE_JOYSTICK) || (conf->type == REPORT_TYPE_MOUSE)) {
    ab5a:	00064703          	lbu	a4,0(a2)
    ab5e:	8b05                	andi	a4,a4,1
    ab60:	30071563          	bnez	a4,ae6a <parse_report_descriptor+0x484>
C:/Repository/RISKYKVM/firmware/src/User/USB_Host/usb_hid_reportparser.c:181
           	    if(axis[c] >= 0) {
    ab64:	340d4763          	bltz	s10,aeb2 <parse_report_descriptor+0x4cc>
C:/Repository/RISKYKVM/firmware/src/User/USB_Host/usb_hid_reportparser.c:207
           	  if (wheel >=0){
    ab68:	46f2                	lw	a3,28(sp)
    ab6a:	0206c663          	bltz	a3,ab96 <parse_report_descriptor+0x1b0>
C:/Repository/RISKYKVM/firmware/src/User/USB_Host/usb_hid_reportparser.c:209
           	     if(conf->type == REPORT_TYPE_MOUSE) {
    ab6e:	00064703          	lbu	a4,0(a2)
    ab72:	8b0d                	andi	a4,a4,3
    ab74:	03c71163          	bne	a4,t3,ab96 <parse_report_descriptor+0x1b0>
C:/Repository/RISKYKVM/firmware/src/User/USB_Host/usb_hid_reportparser.c:208
           	     uint16_t cnt = bit_count + report_size * wheel;
    ab78:	02d78733          	mul	a4,a5,a3
C:/Repository/RISKYKVM/firmware/src/User/USB_Host/usb_hid_reportparser.c:211
           	         conf->joystick_mouse.wheel.logical.min = logical_minimum;
    ab7c:	46e2                	lw	a3,24(sp)
C:/Repository/RISKYKVM/firmware/src/User/USB_Host/usb_hid_reportparser.c:213
           	         conf->joystick_mouse.wheel.size = report_size;
    ab7e:	03960b23          	sb	s9,54(a2)
C:/Repository/RISKYKVM/firmware/src/User/USB_Host/usb_hid_reportparser.c:211
           	         conf->joystick_mouse.wheel.logical.min = logical_minimum;
    ab82:	02d61c23          	sh	a3,56(a2)
C:/Repository/RISKYKVM/firmware/src/User/USB_Host/usb_hid_reportparser.c:212
           	         conf->joystick_mouse.wheel.logical.max = logical_maximum;
    ab86:	46d2                	lw	a3,20(sp)
    ab88:	02d61d23          	sh	a3,58(a2)
C:/Repository/RISKYKVM/firmware/src/User/USB_Host/usb_hid_reportparser.c:214
           	         wheel = -1;
    ab8c:	56fd                	li	a3,-1
C:/Repository/RISKYKVM/firmware/src/User/USB_Host/usb_hid_reportparser.c:208
           	     uint16_t cnt = bit_count + report_size * wheel;
    ab8e:	9716                	add	a4,a4,t0
C:/Repository/RISKYKVM/firmware/src/User/USB_Host/usb_hid_reportparser.c:214
           	         wheel = -1;
    ab90:	ce36                	sw	a3,28(sp)
C:/Repository/RISKYKVM/firmware/src/User/USB_Host/usb_hid_reportparser.c:210
           	         conf->joystick_mouse.wheel.offset = cnt;
    ab92:	02e61a23          	sh	a4,52(a2)
C:/Repository/RISKYKVM/firmware/src/User/USB_Host/usb_hid_reportparser.c:222
           	  bit_count += report_count * report_size;
    ab96:	4742                	lw	a4,16(sp)
C:/Repository/RISKYKVM/firmware/src/User/USB_Host/usb_hid_reportparser.c:224
           	  btns = 0;
    ab98:	c402                	sw	zero,8(sp)
C:/Repository/RISKYKVM/firmware/src/User/USB_Host/usb_hid_reportparser.c:225
           	  axis[0] = axis[1] = -1;
    ab9a:	5d7d                	li	s10,-1
C:/Repository/RISKYKVM/firmware/src/User/USB_Host/usb_hid_reportparser.c:222
           	  bit_count += report_count * report_size;
    ab9c:	02e787b3          	mul	a5,a5,a4
C:/Repository/RISKYKVM/firmware/src/User/USB_Host/usb_hid_reportparser.c:226
           	  hat = -1;
    aba0:	577d                	li	a4,-1
    aba2:	c63a                	sw	a4,12(sp)
C:/Repository/RISKYKVM/firmware/src/User/USB_Host/usb_hid_reportparser.c:225
           	  axis[0] = axis[1] = -1;
    aba4:	5c7d                	li	s8,-1
C:/Repository/RISKYKVM/firmware/src/User/USB_Host/usb_hid_reportparser.c:223
           	  usage_count = 0;
    aba6:	4801                	li	a6,0
C:/Repository/RISKYKVM/firmware/src/User/USB_Host/usb_hid_reportparser.c:222
           	  bit_count += report_count * report_size;
    aba8:	92be                	add	t0,t0,a5
    abaa:	02c2                	slli	t0,t0,0x10
    abac:	0102d293          	srli	t0,t0,0x10
C:/Repository/RISKYKVM/firmware/src/User/USB_Host/usb_hid_reportparser.c:96
  while(rep_size) {
    abb0:	e80599e3          	bnez	a1,aa42 <parse_report_descriptor+0x5c>
    abb4:	b5f9                	j	aa82 <parse_report_descriptor+0x9c>
C:/Repository/RISKYKVM/firmware/src/User/USB_Host/usb_hid_reportparser.c:252
           	  collection_depth--;
    abb6:	1efd                	addi	t4,t4,-1
    abb8:	0ffefe93          	andi	t4,t4,255
C:/Repository/RISKYKVM/firmware/src/User/USB_Host/usb_hid_reportparser.c:255
           	  if(generic_desktop > collection_depth)
    abbc:	012ed363          	bge	t4,s2,abc2 <parse_report_descriptor+0x1dc>
C:/Repository/RISKYKVM/firmware/src/User/USB_Host/usb_hid_reportparser.c:256
           	    generic_desktop = -1;
    abc0:	597d                	li	s2,-1
C:/Repository/RISKYKVM/firmware/src/User/USB_Host/usb_hid_reportparser.c:258
           	  if(phys_log_collection) {
    abc2:	100b1463          	bnez	s6,acca <parse_report_descriptor+0x2e4>
C:/Repository/RISKYKVM/firmware/src/User/USB_Host/usb_hid_reportparser.c:261
           	  } else if(app_collection) {
    abc6:	ea0b8ee3          	beqz	s7,aa82 <parse_report_descriptor+0x9c>
report_is_usable():
C:/Repository/RISKYKVM/firmware/src/User/USB_Host/usb_hid_reportparser.c:59
  if( ((conf->type == REPORT_TYPE_JOYSTICK) && ((report_complete & JOYSTICK_COMPLETE) == JOYSTICK_COMPLETE)) ||
    abca:	00064783          	lbu	a5,0(a2)
C:/Repository/RISKYKVM/firmware/src/User/USB_Host/usb_hid_reportparser.c:56
  conf->report_size = bit_count/8;
    abce:	0032d293          	srli	t0,t0,0x3
parse_report_descriptor():
C:/Repository/RISKYKVM/firmware/src/User/USB_Host/usb_hid_reportparser.c:263
           	    app_collection--;
    abd2:	1bfd                	addi	s7,s7,-1
    abd4:	0be2                	slli	s7,s7,0x18
report_is_usable():
C:/Repository/RISKYKVM/firmware/src/User/USB_Host/usb_hid_reportparser.c:56
  conf->report_size = bit_count/8;
    abd6:	00560123          	sb	t0,2(a2)
C:/Repository/RISKYKVM/firmware/src/User/USB_Host/usb_hid_reportparser.c:59
  if( ((conf->type == REPORT_TYPE_JOYSTICK) && ((report_complete & JOYSTICK_COMPLETE) == JOYSTICK_COMPLETE)) ||
    abda:	8b8d                	andi	a5,a5,3
parse_report_descriptor():
C:/Repository/RISKYKVM/firmware/src/User/USB_Host/usb_hid_reportparser.c:263
           	    app_collection--;
    abdc:	418bdb93          	srai	s7,s7,0x18
report_is_usable():
C:/Repository/RISKYKVM/firmware/src/User/USB_Host/usb_hid_reportparser.c:59
  if( ((conf->type == REPORT_TYPE_JOYSTICK) && ((report_complete & JOYSTICK_COMPLETE) == JOYSTICK_COMPLETE)) ||
    abe0:	39f78363          	beq	a5,t6,af66 <parse_report_descriptor+0x580>
    abe4:	33c79563          	bne	a5,t3,af0e <parse_report_descriptor+0x528>
C:/Repository/RISKYKVM/firmware/src/User/USB_Host/usb_hid_reportparser.c:60
      ((conf->type == REPORT_TYPE_MOUSE)    && ((report_complete & MOUSE_COMPLETE) == MOUSE_COMPLETE)) ||
    abe8:	4792                	lw	a5,4(sp)
    abea:	473d                	li	a4,15
    abec:	32e78363          	beq	a5,a4,af12 <parse_report_descriptor+0x52c>
parse_report_descriptor():
C:/Repository/RISKYKVM/firmware/src/User/USB_Host/usb_hid_reportparser.c:270
           	      report_complete = 0;
    abf0:	c202                	sw	zero,4(sp)
C:/Repository/RISKYKVM/firmware/src/User/USB_Host/usb_hid_reportparser.c:269
           	      bit_count = 0;
    abf2:	4281                	li	t0,0
C:/Repository/RISKYKVM/firmware/src/User/USB_Host/usb_hid_reportparser.c:96
  while(rep_size) {
    abf4:	e40597e3          	bnez	a1,aa42 <parse_report_descriptor+0x5c>
    abf8:	b569                	j	aa82 <parse_report_descriptor+0x9c>
C:/Repository/RISKYKVM/firmware/src/User/USB_Host/usb_hid_reportparser.c:332
           		report_count = value;
    abfa:	0ff6f793          	andi	a5,a3,255
    abfe:	c83e                	sw	a5,16(sp)
C:/Repository/RISKYKVM/firmware/src/User/USB_Host/usb_hid_reportparser.c:96
  while(rep_size) {
    ac00:	e40591e3          	bnez	a1,aa42 <parse_report_descriptor+0x5c>
    ac04:	bdbd                	j	aa82 <parse_report_descriptor+0x9c>
C:/Repository/RISKYKVM/firmware/src/User/USB_Host/usb_hid_reportparser.c:308
           	  logical_maximum = value;
    ac06:	01069793          	slli	a5,a3,0x10
    ac0a:	83c1                	srli	a5,a5,0x10
    ac0c:	ca3e                	sw	a5,20(sp)
C:/Repository/RISKYKVM/firmware/src/User/USB_Host/usb_hid_reportparser.c:96
  while(rep_size) {
    ac0e:	e2059ae3          	bnez	a1,aa42 <parse_report_descriptor+0x5c>
    ac12:	bd85                	j	aa82 <parse_report_descriptor+0x9c>
C:/Repository/RISKYKVM/firmware/src/User/USB_Host/usb_hid_reportparser.c:328
           	  conf->report_id = value;
    ac14:	00d600a3          	sb	a3,1(a2)
C:/Repository/RISKYKVM/firmware/src/User/USB_Host/usb_hid_reportparser.c:96
  while(rep_size) {
    ac18:	e20595e3          	bnez	a1,aa42 <parse_report_descriptor+0x5c>
    ac1c:	b59d                	j	aa82 <parse_report_descriptor+0x9c>
C:/Repository/RISKYKVM/firmware/src/User/USB_Host/usb_hid_reportparser.c:304
           	  logical_minimum = value;
    ac1e:	01069793          	slli	a5,a3,0x10
    ac22:	83c1                	srli	a5,a5,0x10
    ac24:	cc3e                	sw	a5,24(sp)
C:/Repository/RISKYKVM/firmware/src/User/USB_Host/usb_hid_reportparser.c:96
  while(rep_size) {
    ac26:	e0059ee3          	bnez	a1,aa42 <parse_report_descriptor+0x5c>
    ac2a:	bda1                	j	aa82 <parse_report_descriptor+0x9c>
C:/Repository/RISKYKVM/firmware/src/User/USB_Host/usb_hid_reportparser.c:290
           	  } else if(value == USAGE_PAGE_GAMING) {
    ac2c:	ffb68793          	addi	a5,a3,-5
    ac30:	471d                	li	a4,7
    ac32:	2af77863          	bgeu	a4,a5,aee2 <parse_report_descriptor+0x4fc>
C:/Repository/RISKYKVM/firmware/src/User/USB_Host/usb_hid_reportparser.c:295
           	  } else if(value == USAGE_PAGE_GENERIC_DESKTOP) {
    ac36:	e5c695e3          	bne	a3,t3,aa80 <parse_report_descriptor+0x9a>
C:/Repository/RISKYKVM/firmware/src/User/USB_Host/usb_hid_reportparser.c:296
           	    if(generic_desktop < 0)
    ac3a:	e40953e3          	bgez	s2,aa80 <parse_report_descriptor+0x9a>
C:/Repository/RISKYKVM/firmware/src/User/USB_Host/usb_hid_reportparser.c:297
           	      generic_desktop = collection_depth;
    ac3e:	018e9913          	slli	s2,t4,0x18
    ac42:	41895913          	srai	s2,s2,0x18
C:/Repository/RISKYKVM/firmware/src/User/USB_Host/usb_hid_reportparser.c:96
  while(rep_size) {
    ac46:	de059ee3          	bnez	a1,aa42 <parse_report_descriptor+0x5c>
    ac4a:	bd25                	j	aa82 <parse_report_descriptor+0x9c>
C:/Repository/RISKYKVM/firmware/src/User/USB_Host/usb_hid_reportparser.c:324
           	  report_size = value;
    ac4c:	0ff6fc93          	andi	s9,a3,255
C:/Repository/RISKYKVM/firmware/src/User/USB_Host/usb_hid_reportparser.c:96
  while(rep_size) {
    ac50:	de0599e3          	bnez	a1,aa42 <parse_report_descriptor+0x5c>
    ac54:	b53d                	j	aa82 <parse_report_descriptor+0x9c>
C:/Repository/RISKYKVM/firmware/src/User/USB_Host/usb_hid_reportparser.c:347
           	  if( !collection_depth && (value == USAGE_KEYBOARD)) {
    ac56:	040e9463          	bnez	t4,ac9e <parse_report_descriptor+0x2b8>
C:/Repository/RISKYKVM/firmware/src/User/USB_Host/usb_hid_reportparser.c:347 (discriminator 1)
    ac5a:	4799                	li	a5,6
    ac5c:	2af68163          	beq	a3,a5,aefe <parse_report_descriptor+0x518>
C:/Repository/RISKYKVM/firmware/src/User/USB_Host/usb_hid_reportparser.c:352 (discriminator 1)
           	  else if(!collection_depth && (value == USAGE_MOUSE)) {
    ac60:	2fe68b63          	beq	a3,t5,af56 <parse_report_descriptor+0x570>
C:/Repository/RISKYKVM/firmware/src/User/USB_Host/usb_hid_reportparser.c:358 (discriminator 1)
           		    ((value == USAGE_GAMEPAD) || (value == USAGE_JOYSTICK))) {
    ac64:	ffc68793          	addi	a5,a3,-4
C:/Repository/RISKYKVM/firmware/src/User/USB_Host/usb_hid_reportparser.c:357 (discriminator 1)
           	  else if(!collection_depth &&
    ac68:	02fe6b63          	bltu	t3,a5,ac9e <parse_report_descriptor+0x2b8>
C:/Repository/RISKYKVM/firmware/src/User/USB_Host/usb_hid_reportparser.c:359
           	    conf->type = REPORT_TYPE_JOYSTICK;
    ac6c:	00064783          	lbu	a5,0(a2)
    ac70:	0037e793          	ori	a5,a5,3
    ac74:	00f60023          	sb	a5,0(a2)
C:/Repository/RISKYKVM/firmware/src/User/USB_Host/usb_hid_reportparser.c:399
           	  usage_count++;
    ac78:	00180693          	addi	a3,a6,1
    ac7c:	01069813          	slli	a6,a3,0x10
    ac80:	01085813          	srli	a6,a6,0x10
C:/Repository/RISKYKVM/firmware/src/User/USB_Host/usb_hid_reportparser.c:96
  while(rep_size) {
    ac84:	da059fe3          	bnez	a1,aa42 <parse_report_descriptor+0x5c>
    ac88:	bbed                	j	aa82 <parse_report_descriptor+0x9c>
C:/Repository/RISKYKVM/firmware/src/User/USB_Host/usb_hid_reportparser.c:404
           	  usage_count -= (value-1);
    ac8a:	0805                	addi	a6,a6,1
    ac8c:	40d806b3          	sub	a3,a6,a3
    ac90:	01069813          	slli	a6,a3,0x10
    ac94:	01085813          	srli	a6,a6,0x10
C:/Repository/RISKYKVM/firmware/src/User/USB_Host/usb_hid_reportparser.c:96
  while(rep_size) {
    ac98:	da0595e3          	bnez	a1,aa42 <parse_report_descriptor+0x5c>
    ac9c:	b3dd                	j	aa82 <parse_report_descriptor+0x9c>
C:/Repository/RISKYKVM/firmware/src/User/USB_Host/usb_hid_reportparser.c:362
           	  else if(value == USAGE_POINTER && app_collection) {
    ac9e:	fdc68de3          	beq	a3,t3,ac78 <parse_report_descriptor+0x292>
C:/Repository/RISKYKVM/firmware/src/User/USB_Host/usb_hid_reportparser.c:366
           	  else if((value == USAGE_X || value == USAGE_Y) && app_collection) {
    aca2:	fd068793          	addi	a5,a3,-48
    aca6:	28fe7863          	bgeu	t3,a5,af36 <parse_report_descriptor+0x550>
C:/Repository/RISKYKVM/firmware/src/User/USB_Host/usb_hid_reportparser.c:381
           	  else if((value == USAGE_HAT) && app_collection) {
    acaa:	03900793          	li	a5,57
    acae:	2cf69963          	bne	a3,a5,af80 <parse_report_descriptor+0x59a>
C:/Repository/RISKYKVM/firmware/src/User/USB_Host/usb_hid_reportparser.c:381 (discriminator 1)
    acb2:	fc0b83e3          	beqz	s7,ac78 <parse_report_descriptor+0x292>
C:/Repository/RISKYKVM/firmware/src/User/USB_Host/usb_hid_reportparser.c:384
           	    if(conf->type == REPORT_TYPE_JOYSTICK) {
    acb6:	00064783          	lbu	a5,0(a2)
    acba:	8b8d                	andi	a5,a5,3
    acbc:	fbf79ee3          	bne	a5,t6,ac78 <parse_report_descriptor+0x292>
C:/Repository/RISKYKVM/firmware/src/User/USB_Host/usb_hid_reportparser.c:386
           	      hat = usage_count;
    acc0:	01881793          	slli	a5,a6,0x18
    acc4:	87e1                	srai	a5,a5,0x18
    acc6:	c63e                	sw	a5,12(sp)
    acc8:	bf45                	j	ac78 <parse_report_descriptor+0x292>
C:/Repository/RISKYKVM/firmware/src/User/USB_Host/usb_hid_reportparser.c:260
           	    phys_log_collection--;
    acca:	1b7d                	addi	s6,s6,-1
    accc:	0b62                	slli	s6,s6,0x18
    acce:	418b5b13          	srai	s6,s6,0x18
C:/Repository/RISKYKVM/firmware/src/User/USB_Host/usb_hid_reportparser.c:96
  while(rep_size) {
    acd2:	d60598e3          	bnez	a1,aa42 <parse_report_descriptor+0x5c>
    acd6:	b375                	j	aa82 <parse_report_descriptor+0x9c>
C:/Repository/RISKYKVM/firmware/src/User/USB_Host/usb_hid_reportparser.c:157
           	    if((conf->type == REPORT_TYPE_JOYSTICK) ||
    acd8:	00064783          	lbu	a5,0(a2)
    acdc:	8b85                	andi	a5,a5,1
    acde:	e60789e3          	beqz	a5,ab50 <parse_report_descriptor+0x16a>
C:/Repository/RISKYKVM/firmware/src/User/USB_Host/usb_hid_reportparser.c:162 (discriminator 1)
           		if(report_count > b) {
    ace2:	4842                	lw	a6,16(sp)
    ace4:	28080763          	beqz	a6,af72 <parse_report_descriptor+0x58c>
C:/Repository/RISKYKVM/firmware/src/User/USB_Host/usb_hid_reportparser.c:168
           					conf->joystick_mouse.button_count = report_count * report_size;
    ace8:	039807b3          	mul	a5,a6,s9
C:/Repository/RISKYKVM/firmware/src/User/USB_Host/usb_hid_reportparser.c:166
           		  conf->joystick_mouse.button[b].bitmask = 1 << (this_bit%8);
    acec:	0072f713          	andi	a4,t0,7
C:/Repository/RISKYKVM/firmware/src/User/USB_Host/usb_hid_reportparser.c:165
           		  conf->joystick_mouse.button[b].byte_offset = this_bit/8;
    acf0:	0032d693          	srli	a3,t0,0x3
C:/Repository/RISKYKVM/firmware/src/User/USB_Host/usb_hid_reportparser.c:166
           		  conf->joystick_mouse.button[b].bitmask = 1 << (this_bit%8);
    acf4:	00ee1733          	sll	a4,t3,a4
C:/Repository/RISKYKVM/firmware/src/User/USB_Host/usb_hid_reportparser.c:165
           		  conf->joystick_mouse.button[b].byte_offset = this_bit/8;
    acf8:	00d60c23          	sb	a3,24(a2)
C:/Repository/RISKYKVM/firmware/src/User/USB_Host/usb_hid_reportparser.c:166
           		  conf->joystick_mouse.button[b].bitmask = 1 << (this_bit%8);
    acfc:	00e60ca3          	sb	a4,25(a2)
C:/Repository/RISKYKVM/firmware/src/User/USB_Host/usb_hid_reportparser.c:168
           					conf->joystick_mouse.button_count = report_count * report_size;
    ad00:	02f60e23          	sb	a5,60(a2)
C:/Repository/RISKYKVM/firmware/src/User/USB_Host/usb_hid_reportparser.c:162
           		if(report_count > b) {
    ad04:	27c80963          	beq	a6,t3,af76 <parse_report_descriptor+0x590>
C:/Repository/RISKYKVM/firmware/src/User/USB_Host/usb_hid_reportparser.c:163
           		  uint16_t this_bit = bit_count+b;
    ad08:	00128793          	addi	a5,t0,1
    ad0c:	07c2                	slli	a5,a5,0x10
    ad0e:	83c1                	srli	a5,a5,0x10
C:/Repository/RISKYKVM/firmware/src/User/USB_Host/usb_hid_reportparser.c:166
           		  conf->joystick_mouse.button[b].bitmask = 1 << (this_bit%8);
    ad10:	0077f713          	andi	a4,a5,7
    ad14:	00ee1733          	sll	a4,t3,a4
C:/Repository/RISKYKVM/firmware/src/User/USB_Host/usb_hid_reportparser.c:165
           		  conf->joystick_mouse.button[b].byte_offset = this_bit/8;
    ad18:	838d                	srli	a5,a5,0x3
    ad1a:	00f60d23          	sb	a5,26(a2)
C:/Repository/RISKYKVM/firmware/src/User/USB_Host/usb_hid_reportparser.c:166
           		  conf->joystick_mouse.button[b].bitmask = 1 << (this_bit%8);
    ad1e:	00e60da3          	sb	a4,27(a2)
C:/Repository/RISKYKVM/firmware/src/User/USB_Host/usb_hid_reportparser.c:162
           		if(report_count > b) {
    ad22:	13e80b63          	beq	a6,t5,ae58 <parse_report_descriptor+0x472>
C:/Repository/RISKYKVM/firmware/src/User/USB_Host/usb_hid_reportparser.c:163
           		  uint16_t this_bit = bit_count+b;
    ad26:	00228793          	addi	a5,t0,2
    ad2a:	07c2                	slli	a5,a5,0x10
    ad2c:	83c1                	srli	a5,a5,0x10
C:/Repository/RISKYKVM/firmware/src/User/USB_Host/usb_hid_reportparser.c:166
           		  conf->joystick_mouse.button[b].bitmask = 1 << (this_bit%8);
    ad2e:	0077f713          	andi	a4,a5,7
    ad32:	00ee1733          	sll	a4,t3,a4
C:/Repository/RISKYKVM/firmware/src/User/USB_Host/usb_hid_reportparser.c:165
           		  conf->joystick_mouse.button[b].byte_offset = this_bit/8;
    ad36:	838d                	srli	a5,a5,0x3
    ad38:	00f60e23          	sb	a5,28(a2)
C:/Repository/RISKYKVM/firmware/src/User/USB_Host/usb_hid_reportparser.c:166
           		  conf->joystick_mouse.button[b].bitmask = 1 << (this_bit%8);
    ad3c:	00e60ea3          	sb	a4,29(a2)
C:/Repository/RISKYKVM/firmware/src/User/USB_Host/usb_hid_reportparser.c:162
           		if(report_count > b) {
    ad40:	11f80c63          	beq	a6,t6,ae58 <parse_report_descriptor+0x472>
C:/Repository/RISKYKVM/firmware/src/User/USB_Host/usb_hid_reportparser.c:163
           		  uint16_t this_bit = bit_count+b;
    ad44:	00328793          	addi	a5,t0,3
    ad48:	07c2                	slli	a5,a5,0x10
    ad4a:	83c1                	srli	a5,a5,0x10
C:/Repository/RISKYKVM/firmware/src/User/USB_Host/usb_hid_reportparser.c:166
           		  conf->joystick_mouse.button[b].bitmask = 1 << (this_bit%8);
    ad4c:	0077f713          	andi	a4,a5,7
    ad50:	00ee1733          	sll	a4,t3,a4
C:/Repository/RISKYKVM/firmware/src/User/USB_Host/usb_hid_reportparser.c:165
           		  conf->joystick_mouse.button[b].byte_offset = this_bit/8;
    ad54:	838d                	srli	a5,a5,0x3
    ad56:	00f60f23          	sb	a5,30(a2)
C:/Repository/RISKYKVM/firmware/src/User/USB_Host/usb_hid_reportparser.c:166
           		  conf->joystick_mouse.button[b].bitmask = 1 << (this_bit%8);
    ad5a:	00e60fa3          	sb	a4,31(a2)
C:/Repository/RISKYKVM/firmware/src/User/USB_Host/usb_hid_reportparser.c:162
           		if(report_count > b) {
    ad5e:	0f580d63          	beq	a6,s5,ae58 <parse_report_descriptor+0x472>
C:/Repository/RISKYKVM/firmware/src/User/USB_Host/usb_hid_reportparser.c:163
           		  uint16_t this_bit = bit_count+b;
    ad62:	00428793          	addi	a5,t0,4
    ad66:	07c2                	slli	a5,a5,0x10
    ad68:	83c1                	srli	a5,a5,0x10
C:/Repository/RISKYKVM/firmware/src/User/USB_Host/usb_hid_reportparser.c:166
           		  conf->joystick_mouse.button[b].bitmask = 1 << (this_bit%8);
    ad6a:	0077f713          	andi	a4,a5,7
    ad6e:	00ee1733          	sll	a4,t3,a4
C:/Repository/RISKYKVM/firmware/src/User/USB_Host/usb_hid_reportparser.c:165
           		  conf->joystick_mouse.button[b].byte_offset = this_bit/8;
    ad72:	838d                	srli	a5,a5,0x3
    ad74:	02f60023          	sb	a5,32(a2)
C:/Repository/RISKYKVM/firmware/src/User/USB_Host/usb_hid_reportparser.c:166
           		  conf->joystick_mouse.button[b].bitmask = 1 << (this_bit%8);
    ad78:	02e600a3          	sb	a4,33(a2)
C:/Repository/RISKYKVM/firmware/src/User/USB_Host/usb_hid_reportparser.c:162
           		if(report_count > b) {
    ad7c:	4795                	li	a5,5
    ad7e:	0cf80d63          	beq	a6,a5,ae58 <parse_report_descriptor+0x472>
C:/Repository/RISKYKVM/firmware/src/User/USB_Host/usb_hid_reportparser.c:163
           		  uint16_t this_bit = bit_count+b;
    ad82:	00528793          	addi	a5,t0,5
    ad86:	07c2                	slli	a5,a5,0x10
    ad88:	83c1                	srli	a5,a5,0x10
C:/Repository/RISKYKVM/firmware/src/User/USB_Host/usb_hid_reportparser.c:166
           		  conf->joystick_mouse.button[b].bitmask = 1 << (this_bit%8);
    ad8a:	0077f713          	andi	a4,a5,7
    ad8e:	00ee1733          	sll	a4,t3,a4
C:/Repository/RISKYKVM/firmware/src/User/USB_Host/usb_hid_reportparser.c:165
           		  conf->joystick_mouse.button[b].byte_offset = this_bit/8;
    ad92:	838d                	srli	a5,a5,0x3
    ad94:	02f60123          	sb	a5,34(a2)
C:/Repository/RISKYKVM/firmware/src/User/USB_Host/usb_hid_reportparser.c:166
           		  conf->joystick_mouse.button[b].bitmask = 1 << (this_bit%8);
    ad98:	02e601a3          	sb	a4,35(a2)
C:/Repository/RISKYKVM/firmware/src/User/USB_Host/usb_hid_reportparser.c:162
           		if(report_count > b) {
    ad9c:	4799                	li	a5,6
    ad9e:	0af80d63          	beq	a6,a5,ae58 <parse_report_descriptor+0x472>
C:/Repository/RISKYKVM/firmware/src/User/USB_Host/usb_hid_reportparser.c:163
           		  uint16_t this_bit = bit_count+b;
    ada2:	00628793          	addi	a5,t0,6
    ada6:	07c2                	slli	a5,a5,0x10
    ada8:	83c1                	srli	a5,a5,0x10
C:/Repository/RISKYKVM/firmware/src/User/USB_Host/usb_hid_reportparser.c:166
           		  conf->joystick_mouse.button[b].bitmask = 1 << (this_bit%8);
    adaa:	0077f713          	andi	a4,a5,7
    adae:	00ee1733          	sll	a4,t3,a4
C:/Repository/RISKYKVM/firmware/src/User/USB_Host/usb_hid_reportparser.c:165
           		  conf->joystick_mouse.button[b].byte_offset = this_bit/8;
    adb2:	838d                	srli	a5,a5,0x3
    adb4:	02f60223          	sb	a5,36(a2)
C:/Repository/RISKYKVM/firmware/src/User/USB_Host/usb_hid_reportparser.c:166
           		  conf->joystick_mouse.button[b].bitmask = 1 << (this_bit%8);
    adb8:	02e602a3          	sb	a4,37(a2)
C:/Repository/RISKYKVM/firmware/src/User/USB_Host/usb_hid_reportparser.c:162
           		if(report_count > b) {
    adbc:	479d                	li	a5,7
    adbe:	08f80d63          	beq	a6,a5,ae58 <parse_report_descriptor+0x472>
C:/Repository/RISKYKVM/firmware/src/User/USB_Host/usb_hid_reportparser.c:163
           		  uint16_t this_bit = bit_count+b;
    adc2:	00728793          	addi	a5,t0,7
    adc6:	07c2                	slli	a5,a5,0x10
    adc8:	83c1                	srli	a5,a5,0x10
C:/Repository/RISKYKVM/firmware/src/User/USB_Host/usb_hid_reportparser.c:166
           		  conf->joystick_mouse.button[b].bitmask = 1 << (this_bit%8);
    adca:	0077f713          	andi	a4,a5,7
    adce:	00ee1733          	sll	a4,t3,a4
C:/Repository/RISKYKVM/firmware/src/User/USB_Host/usb_hid_reportparser.c:165
           		  conf->joystick_mouse.button[b].byte_offset = this_bit/8;
    add2:	838d                	srli	a5,a5,0x3
    add4:	02f60323          	sb	a5,38(a2)
C:/Repository/RISKYKVM/firmware/src/User/USB_Host/usb_hid_reportparser.c:166
           		  conf->joystick_mouse.button[b].bitmask = 1 << (this_bit%8);
    add8:	02e603a3          	sb	a4,39(a2)
C:/Repository/RISKYKVM/firmware/src/User/USB_Host/usb_hid_reportparser.c:162
           		if(report_count > b) {
    addc:	47a1                	li	a5,8
    adde:	06f80d63          	beq	a6,a5,ae58 <parse_report_descriptor+0x472>
C:/Repository/RISKYKVM/firmware/src/User/USB_Host/usb_hid_reportparser.c:163
           		  uint16_t this_bit = bit_count+b;
    ade2:	00828793          	addi	a5,t0,8
    ade6:	07c2                	slli	a5,a5,0x10
    ade8:	83c1                	srli	a5,a5,0x10
C:/Repository/RISKYKVM/firmware/src/User/USB_Host/usb_hid_reportparser.c:166
           		  conf->joystick_mouse.button[b].bitmask = 1 << (this_bit%8);
    adea:	0077f713          	andi	a4,a5,7
    adee:	00ee1733          	sll	a4,t3,a4
C:/Repository/RISKYKVM/firmware/src/User/USB_Host/usb_hid_reportparser.c:165
           		  conf->joystick_mouse.button[b].byte_offset = this_bit/8;
    adf2:	838d                	srli	a5,a5,0x3
    adf4:	02f60423          	sb	a5,40(a2)
C:/Repository/RISKYKVM/firmware/src/User/USB_Host/usb_hid_reportparser.c:166
           		  conf->joystick_mouse.button[b].bitmask = 1 << (this_bit%8);
    adf8:	02e604a3          	sb	a4,41(a2)
C:/Repository/RISKYKVM/firmware/src/User/USB_Host/usb_hid_reportparser.c:162
           		if(report_count > b) {
    adfc:	05480e63          	beq	a6,s4,ae58 <parse_report_descriptor+0x472>
C:/Repository/RISKYKVM/firmware/src/User/USB_Host/usb_hid_reportparser.c:163
           		  uint16_t this_bit = bit_count+b;
    ae00:	00928793          	addi	a5,t0,9
    ae04:	07c2                	slli	a5,a5,0x10
    ae06:	83c1                	srli	a5,a5,0x10
C:/Repository/RISKYKVM/firmware/src/User/USB_Host/usb_hid_reportparser.c:166
           		  conf->joystick_mouse.button[b].bitmask = 1 << (this_bit%8);
    ae08:	0077f713          	andi	a4,a5,7
    ae0c:	00ee1733          	sll	a4,t3,a4
C:/Repository/RISKYKVM/firmware/src/User/USB_Host/usb_hid_reportparser.c:165
           		  conf->joystick_mouse.button[b].byte_offset = this_bit/8;
    ae10:	838d                	srli	a5,a5,0x3
    ae12:	02f60523          	sb	a5,42(a2)
C:/Repository/RISKYKVM/firmware/src/User/USB_Host/usb_hid_reportparser.c:166
           		  conf->joystick_mouse.button[b].bitmask = 1 << (this_bit%8);
    ae16:	02e605a3          	sb	a4,43(a2)
C:/Repository/RISKYKVM/firmware/src/User/USB_Host/usb_hid_reportparser.c:162
           		if(report_count > b) {
    ae1a:	02780f63          	beq	a6,t2,ae58 <parse_report_descriptor+0x472>
C:/Repository/RISKYKVM/firmware/src/User/USB_Host/usb_hid_reportparser.c:163
           		  uint16_t this_bit = bit_count+b;
    ae1e:	00a28793          	addi	a5,t0,10
    ae22:	07c2                	slli	a5,a5,0x10
    ae24:	83c1                	srli	a5,a5,0x10
C:/Repository/RISKYKVM/firmware/src/User/USB_Host/usb_hid_reportparser.c:166
           		  conf->joystick_mouse.button[b].bitmask = 1 << (this_bit%8);
    ae26:	0077f713          	andi	a4,a5,7
    ae2a:	00ee1733          	sll	a4,t3,a4
C:/Repository/RISKYKVM/firmware/src/User/USB_Host/usb_hid_reportparser.c:165
           		  conf->joystick_mouse.button[b].byte_offset = this_bit/8;
    ae2e:	838d                	srli	a5,a5,0x3
    ae30:	02f60623          	sb	a5,44(a2)
C:/Repository/RISKYKVM/firmware/src/User/USB_Host/usb_hid_reportparser.c:166
           		  conf->joystick_mouse.button[b].bitmask = 1 << (this_bit%8);
    ae34:	02e606a3          	sb	a4,45(a2)
C:/Repository/RISKYKVM/firmware/src/User/USB_Host/usb_hid_reportparser.c:162
           		if(report_count > b) {
    ae38:	47ad                	li	a5,11
    ae3a:	00f80f63          	beq	a6,a5,ae58 <parse_report_descriptor+0x472>
C:/Repository/RISKYKVM/firmware/src/User/USB_Host/usb_hid_reportparser.c:163
           		  uint16_t this_bit = bit_count+b;
    ae3e:	00b28793          	addi	a5,t0,11
    ae42:	07c2                	slli	a5,a5,0x10
    ae44:	83c1                	srli	a5,a5,0x10
C:/Repository/RISKYKVM/firmware/src/User/USB_Host/usb_hid_reportparser.c:166
           		  conf->joystick_mouse.button[b].bitmask = 1 << (this_bit%8);
    ae46:	0077f713          	andi	a4,a5,7
    ae4a:	00ee1733          	sll	a4,t3,a4
C:/Repository/RISKYKVM/firmware/src/User/USB_Host/usb_hid_reportparser.c:165
           		  conf->joystick_mouse.button[b].byte_offset = this_bit/8;
    ae4e:	838d                	srli	a5,a5,0x3
    ae50:	02f60723          	sb	a5,46(a2)
C:/Repository/RISKYKVM/firmware/src/User/USB_Host/usb_hid_reportparser.c:166
           		  conf->joystick_mouse.button[b].bitmask = 1 << (this_bit%8);
    ae54:	02e607a3          	sb	a4,47(a2)
C:/Repository/RISKYKVM/firmware/src/User/USB_Host/usb_hid_reportparser.c:174 (discriminator 1)
           	      if(report_count > 1) report_complete |= JOY_MOUSE_REQ_BTN_1;
    ae58:	4792                	lw	a5,4(sp)
    ae5a:	00c7e793          	ori	a5,a5,12
    ae5e:	c23e                	sw	a5,4(sp)
C:/Repository/RISKYKVM/firmware/src/User/USB_Host/usb_hid_reportparser.c:181 (discriminator 1)
           	    if(axis[c] >= 0) {
    ae60:	010c9793          	slli	a5,s9,0x10
    ae64:	83c1                	srli	a5,a5,0x10
    ae66:	0c0c4063          	bltz	s8,af26 <parse_report_descriptor+0x540>
C:/Repository/RISKYKVM/firmware/src/User/USB_Host/usb_hid_reportparser.c:182
           	      uint16_t cnt = bit_count + report_size * axis[c];
    ae6a:	03878733          	mul	a4,a5,s8
C:/Repository/RISKYKVM/firmware/src/User/USB_Host/usb_hid_reportparser.c:188
           		conf->joystick_mouse.axis[c].logical.min = logical_minimum;
    ae6e:	46e2                	lw	a3,24(sp)
C:/Repository/RISKYKVM/firmware/src/User/USB_Host/usb_hid_reportparser.c:190
           		conf->joystick_mouse.axis[c].size = report_size;
    ae70:	01960523          	sb	s9,10(a2)
C:/Repository/RISKYKVM/firmware/src/User/USB_Host/usb_hid_reportparser.c:188
           		conf->joystick_mouse.axis[c].logical.min = logical_minimum;
    ae74:	00d61623          	sh	a3,12(a2)
C:/Repository/RISKYKVM/firmware/src/User/USB_Host/usb_hid_reportparser.c:189
           		conf->joystick_mouse.axis[c].logical.max = logical_maximum;
    ae78:	46d2                	lw	a3,20(sp)
    ae7a:	00d61723          	sh	a3,14(a2)
C:/Repository/RISKYKVM/firmware/src/User/USB_Host/usb_hid_reportparser.c:191
           		if(c==0) report_complete |= JOY_MOUSE_REQ_AXIS_X;
    ae7e:	4692                	lw	a3,4(sp)
C:/Repository/RISKYKVM/firmware/src/User/USB_Host/usb_hid_reportparser.c:182
           	      uint16_t cnt = bit_count + report_size * axis[c];
    ae80:	9716                	add	a4,a4,t0
C:/Repository/RISKYKVM/firmware/src/User/USB_Host/usb_hid_reportparser.c:186
           		conf->joystick_mouse.axis[c].offset = cnt;
    ae82:	00e61423          	sh	a4,8(a2)
C:/Repository/RISKYKVM/firmware/src/User/USB_Host/usb_hid_reportparser.c:191
           		if(c==0) report_complete |= JOY_MOUSE_REQ_AXIS_X;
    ae86:	0016e693          	ori	a3,a3,1
    ae8a:	c236                	sw	a3,4(sp)
C:/Repository/RISKYKVM/firmware/src/User/USB_Host/usb_hid_reportparser.c:181
           	    if(axis[c] >= 0) {
    ae8c:	020d4363          	bltz	s10,aeb2 <parse_report_descriptor+0x4cc>
C:/Repository/RISKYKVM/firmware/src/User/USB_Host/usb_hid_reportparser.c:182
           	      uint16_t cnt = bit_count + report_size * axis[c];
    ae90:	03a78733          	mul	a4,a5,s10
C:/Repository/RISKYKVM/firmware/src/User/USB_Host/usb_hid_reportparser.c:188
           		conf->joystick_mouse.axis[c].logical.min = logical_minimum;
    ae94:	46e2                	lw	a3,24(sp)
C:/Repository/RISKYKVM/firmware/src/User/USB_Host/usb_hid_reportparser.c:190
           		conf->joystick_mouse.axis[c].size = report_size;
    ae96:	01960923          	sb	s9,18(a2)
C:/Repository/RISKYKVM/firmware/src/User/USB_Host/usb_hid_reportparser.c:188
           		conf->joystick_mouse.axis[c].logical.min = logical_minimum;
    ae9a:	00d61a23          	sh	a3,20(a2)
C:/Repository/RISKYKVM/firmware/src/User/USB_Host/usb_hid_reportparser.c:189
           		conf->joystick_mouse.axis[c].logical.max = logical_maximum;
    ae9e:	46d2                	lw	a3,20(sp)
    aea0:	00d61b23          	sh	a3,22(a2)
C:/Repository/RISKYKVM/firmware/src/User/USB_Host/usb_hid_reportparser.c:192
           		if(c==1) report_complete |= JOY_MOUSE_REQ_AXIS_Y;
    aea4:	4692                	lw	a3,4(sp)
C:/Repository/RISKYKVM/firmware/src/User/USB_Host/usb_hid_reportparser.c:182
           	      uint16_t cnt = bit_count + report_size * axis[c];
    aea6:	9716                	add	a4,a4,t0
C:/Repository/RISKYKVM/firmware/src/User/USB_Host/usb_hid_reportparser.c:186
           		conf->joystick_mouse.axis[c].offset = cnt;
    aea8:	00e61823          	sh	a4,16(a2)
C:/Repository/RISKYKVM/firmware/src/User/USB_Host/usb_hid_reportparser.c:192
           		if(c==1) report_complete |= JOY_MOUSE_REQ_AXIS_Y;
    aeac:	0026e693          	ori	a3,a3,2
    aeb0:	c236                	sw	a3,4(sp)
C:/Repository/RISKYKVM/firmware/src/User/USB_Host/usb_hid_reportparser.c:198
           	  if(hat >= 0) {
    aeb2:	46b2                	lw	a3,12(sp)
    aeb4:	ca06cae3          	bltz	a3,ab68 <parse_report_descriptor+0x182>
C:/Repository/RISKYKVM/firmware/src/User/USB_Host/usb_hid_reportparser.c:200
           	    if(conf->type == REPORT_TYPE_JOYSTICK) {
    aeb8:	00064703          	lbu	a4,0(a2)
    aebc:	8b0d                	andi	a4,a4,3
    aebe:	cbf715e3          	bne	a4,t6,ab68 <parse_report_descriptor+0x182>
C:/Repository/RISKYKVM/firmware/src/User/USB_Host/usb_hid_reportparser.c:199
           	    uint16_t cnt = bit_count + report_size * hat;
    aec2:	02d78733          	mul	a4,a5,a3
C:/Repository/RISKYKVM/firmware/src/User/USB_Host/usb_hid_reportparser.c:202
           	      conf->joystick_mouse.hat.size = report_size;
    aec6:	03960923          	sb	s9,50(a2)
C:/Repository/RISKYKVM/firmware/src/User/USB_Host/usb_hid_reportparser.c:199
           	    uint16_t cnt = bit_count + report_size * hat;
    aeca:	9716                	add	a4,a4,t0
C:/Repository/RISKYKVM/firmware/src/User/USB_Host/usb_hid_reportparser.c:201
           	      conf->joystick_mouse.hat.offset = cnt;
    aecc:	02e61823          	sh	a4,48(a2)
C:/Repository/RISKYKVM/firmware/src/User/USB_Host/usb_hid_reportparser.c:207
           	  if (wheel >=0){
    aed0:	b1d9                	j	ab96 <parse_report_descriptor+0x1b0>
C:/Repository/RISKYKVM/firmware/src/User/USB_Host/usb_hid_reportparser.c:245
           	    phys_log_collection++;
    aed2:	0b05                	addi	s6,s6,1
    aed4:	0b62                	slli	s6,s6,0x18
    aed6:	418b5b13          	srai	s6,s6,0x18
C:/Repository/RISKYKVM/firmware/src/User/USB_Host/usb_hid_reportparser.c:237
           	  usage_count = 0;
    aeda:	4801                	li	a6,0
C:/Repository/RISKYKVM/firmware/src/User/USB_Host/usb_hid_reportparser.c:96
  while(rep_size) {
    aedc:	b60593e3          	bnez	a1,aa42 <parse_report_descriptor+0x5c>
    aee0:	b64d                	j	aa82 <parse_report_descriptor+0x9c>
C:/Repository/RISKYKVM/firmware/src/User/USB_Host/usb_hid_reportparser.c:290
           	  } else if(value == USAGE_PAGE_GAMING) {
    aee2:	08d00713          	li	a4,141
    aee6:	00f757b3          	srl	a5,a4,a5
    aeea:	8b85                	andi	a5,a5,1
    aeec:	b8079ae3          	bnez	a5,aa80 <parse_report_descriptor+0x9a>
C:/Repository/RISKYKVM/firmware/src/User/USB_Host/usb_hid_reportparser.c:293
           	  } else if(value == USAGE_PAGE_BUTTON) {
    aef0:	b94698e3          	bne	a3,s4,aa80 <parse_report_descriptor+0x9a>
C:/Repository/RISKYKVM/firmware/src/User/USB_Host/usb_hid_reportparser.c:294
           	    btns = 1;
    aef4:	4785                	li	a5,1
    aef6:	c43e                	sw	a5,8(sp)
C:/Repository/RISKYKVM/firmware/src/User/USB_Host/usb_hid_reportparser.c:96
  while(rep_size) {
    aef8:	b40595e3          	bnez	a1,aa42 <parse_report_descriptor+0x5c>
    aefc:	b659                	j	aa82 <parse_report_descriptor+0x9c>
C:/Repository/RISKYKVM/firmware/src/User/USB_Host/usb_hid_reportparser.c:349
           	    conf->type = REPORT_TYPE_KEYBOARD;
    aefe:	00064783          	lbu	a5,0(a2)
    af02:	9bf1                	andi	a5,a5,-4
    af04:	0027e793          	ori	a5,a5,2
    af08:	00f60023          	sb	a5,0(a2)
    af0c:	b3b5                	j	ac78 <parse_report_descriptor+0x292>
report_is_usable():
C:/Repository/RISKYKVM/firmware/src/User/USB_Host/usb_hid_reportparser.c:60
      ((conf->type == REPORT_TYPE_MOUSE)    && ((report_complete & MOUSE_COMPLETE) == MOUSE_COMPLETE)) ||
    af0e:	cfe791e3          	bne	a5,t5,abf0 <parse_report_descriptor+0x20a>
parse_report_descriptor():
C:/Repository/RISKYKVM/firmware/src/User/USB_Host/usb_hid_reportparser.c:266
           	      return 1;
    af12:	4505                	li	a0,1
    af14:	be85                	j	aa84 <parse_report_descriptor+0x9e>
C:/Repository/RISKYKVM/firmware/src/User/USB_Host/usb_hid_reportparser.c:240
           	    app_collection++;
    af16:	0b85                	addi	s7,s7,1
    af18:	0be2                	slli	s7,s7,0x18
    af1a:	418bdb93          	srai	s7,s7,0x18
C:/Repository/RISKYKVM/firmware/src/User/USB_Host/usb_hid_reportparser.c:237
           	  usage_count = 0;
    af1e:	4801                	li	a6,0
C:/Repository/RISKYKVM/firmware/src/User/USB_Host/usb_hid_reportparser.c:96
  while(rep_size) {
    af20:	b20591e3          	bnez	a1,aa42 <parse_report_descriptor+0x5c>
    af24:	beb9                	j	aa82 <parse_report_descriptor+0x9c>
C:/Repository/RISKYKVM/firmware/src/User/USB_Host/usb_hid_reportparser.c:181
           	    if(axis[c] >= 0) {
    af26:	f80d46e3          	bltz	s10,aeb2 <parse_report_descriptor+0x4cc>
C:/Repository/RISKYKVM/firmware/src/User/USB_Host/usb_hid_reportparser.c:184
           	      if((conf->type == REPORT_TYPE_JOYSTICK) || (conf->type == REPORT_TYPE_MOUSE)) {
    af2a:	00064703          	lbu	a4,0(a2)
    af2e:	8b05                	andi	a4,a4,1
    af30:	c2070ce3          	beqz	a4,ab68 <parse_report_descriptor+0x182>
    af34:	bfb1                	j	ae90 <parse_report_descriptor+0x4aa>
C:/Repository/RISKYKVM/firmware/src/User/USB_Host/usb_hid_reportparser.c:366 (discriminator 1)
           	  else if((value == USAGE_X || value == USAGE_Y) && app_collection) {
    af36:	d40b81e3          	beqz	s7,ac78 <parse_report_descriptor+0x292>
C:/Repository/RISKYKVM/firmware/src/User/USB_Host/usb_hid_reportparser.c:371
           	    if((conf->type == REPORT_TYPE_JOYSTICK) || (conf->type == REPORT_TYPE_MOUSE)) {
    af3a:	00064783          	lbu	a5,0(a2)
    af3e:	8b85                	andi	a5,a5,1
    af40:	d2078ce3          	beqz	a5,ac78 <parse_report_descriptor+0x292>
C:/Repository/RISKYKVM/firmware/src/User/USB_Host/usb_hid_reportparser.c:372
           	      if(value == USAGE_X) {
    af44:	03000793          	li	a5,48
    af48:	04f68c63          	beq	a3,a5,afa0 <parse_report_descriptor+0x5ba>
C:/Repository/RISKYKVM/firmware/src/User/USB_Host/usb_hid_reportparser.c:376
           		axis[1] = usage_count;
    af4c:	01881d13          	slli	s10,a6,0x18
    af50:	418d5d13          	srai	s10,s10,0x18
    af54:	b315                	j	ac78 <parse_report_descriptor+0x292>
C:/Repository/RISKYKVM/firmware/src/User/USB_Host/usb_hid_reportparser.c:354
           	    conf->type = REPORT_TYPE_MOUSE;
    af56:	00064783          	lbu	a5,0(a2)
    af5a:	9bf1                	andi	a5,a5,-4
    af5c:	0017e793          	ori	a5,a5,1
    af60:	00f60023          	sb	a5,0(a2)
    af64:	bb11                	j	ac78 <parse_report_descriptor+0x292>
report_is_usable():
C:/Repository/RISKYKVM/firmware/src/User/USB_Host/usb_hid_reportparser.c:59
  if( ((conf->type == REPORT_TYPE_JOYSTICK) && ((report_complete & JOYSTICK_COMPLETE) == JOYSTICK_COMPLETE)) ||
    af66:	4792                	lw	a5,4(sp)
    af68:	471d                	li	a4,7
    af6a:	8b9d                	andi	a5,a5,7
    af6c:	c8e792e3          	bne	a5,a4,abf0 <parse_report_descriptor+0x20a>
    af70:	b74d                	j	af12 <parse_report_descriptor+0x52c>
parse_report_descriptor():
C:/Repository/RISKYKVM/firmware/src/User/USB_Host/usb_hid_reportparser.c:168
           					conf->joystick_mouse.button_count = report_count * report_size;
    af72:	02060e23          	sb	zero,60(a2)
C:/Repository/RISKYKVM/firmware/src/User/USB_Host/usb_hid_reportparser.c:173
           	      report_complete |= JOY_MOUSE_REQ_BTN_0;
    af76:	4792                	lw	a5,4(sp)
    af78:	0047e793          	ori	a5,a5,4
    af7c:	c23e                	sw	a5,4(sp)
C:/Repository/RISKYKVM/firmware/src/User/USB_Host/usb_hid_reportparser.c:174
           	      if(report_count > 1) report_complete |= JOY_MOUSE_REQ_BTN_1;
    af7e:	bec9                	j	ab50 <parse_report_descriptor+0x16a>
C:/Repository/RISKYKVM/firmware/src/User/USB_Host/usb_hid_reportparser.c:390
           	  else if((value== USAGE_WHEEL) && app_collection) {
    af80:	03800793          	li	a5,56
    af84:	cef69ae3          	bne	a3,a5,ac78 <parse_report_descriptor+0x292>
C:/Repository/RISKYKVM/firmware/src/User/USB_Host/usb_hid_reportparser.c:390 (discriminator 1)
    af88:	ce0b88e3          	beqz	s7,ac78 <parse_report_descriptor+0x292>
C:/Repository/RISKYKVM/firmware/src/User/USB_Host/usb_hid_reportparser.c:392
           	                if(conf->type == REPORT_TYPE_MOUSE) {
    af8c:	00064783          	lbu	a5,0(a2)
    af90:	8b8d                	andi	a5,a5,3
    af92:	cfc793e3          	bne	a5,t3,ac78 <parse_report_descriptor+0x292>
C:/Repository/RISKYKVM/firmware/src/User/USB_Host/usb_hid_reportparser.c:394
           	                  wheel = usage_count;
    af96:	01881793          	slli	a5,a6,0x18
    af9a:	87e1                	srai	a5,a5,0x18
    af9c:	ce3e                	sw	a5,28(sp)
    af9e:	b9e9                	j	ac78 <parse_report_descriptor+0x292>
C:/Repository/RISKYKVM/firmware/src/User/USB_Host/usb_hid_reportparser.c:373
           		axis[0] = usage_count;
    afa0:	01881c13          	slli	s8,a6,0x18
    afa4:	418c5c13          	srai	s8,s8,0x18
C:/Repository/RISKYKVM/firmware/src/User/USB_Host/usb_hid_reportparser.c:375
           	      if(value == USAGE_Y) {
    afa8:	b9c1                	j	ac78 <parse_report_descriptor+0x292>
C:/Repository/RISKYKVM/firmware/src/User/USB_Host/usb_hid_reportparser.c:427
             return 0;
    afaa:	4501                	li	a0,0
C:/Repository/RISKYKVM/firmware/src/User/USB_Host/usb_hid_reportparser.c:428
           }
    afac:	8082                	ret
C:/Repository/RISKYKVM/firmware/src/User/USB_Host/usb_hid_reportparser.c:110
       rep_size--;
    afae:	15f9                	addi	a1,a1,-2
    afb0:	05c2                	slli	a1,a1,0x10
C:/Repository/RISKYKVM/firmware/src/User/USB_Host/usb_hid_reportparser.c:109
       value = *rep++;
    afb2:	0509                	addi	a0,a0,2
C:/Repository/RISKYKVM/firmware/src/User/USB_Host/usb_hid_reportparser.c:110
       rep_size--;
    afb4:	81c1                	srli	a1,a1,0x10
    afb6:	b46d                	j	aa60 <parse_report_descriptor+0x7a>

0000afb8 <HID_GetHidDesr>:
HID_GetHidDesr():
C:/Repository/RISKYKVM/firmware/src/User/USB_Host/usb_host_hid.c:31
 *
 * @return  none
 */
uint8_t HID_GetHidDesr( uint8_t ep0_size, uint8_t intf_num, uint8_t *pbuf, uint16_t *plen )
{
    memcpy( pUSBFS_SetupRequest, SetupGetHidDes, sizeof( USB_SETUP_REQ ) );
    afb8:	83818793          	addi	a5,gp,-1992 # 20000038 <SetupGetHidDes>
    afbc:	0047a883          	lw	a7,4(a5)
    afc0:	20002737          	lui	a4,0x20002
    afc4:	0007a803          	lw	a6,0(a5)
    afc8:	aa070793          	addi	a5,a4,-1376 # 20001aa0 <USBFS_TX_Buf>
    afcc:	0117a223          	sw	a7,4(a5)
C:/Repository/RISKYKVM/firmware/src/User/USB_Host/usb_host_hid.c:32
    pUSBFS_SetupRequest->wIndex = (uint16_t)intf_num;
    afd0:	00b79223          	sh	a1,4(a5)
C:/Repository/RISKYKVM/firmware/src/User/USB_Host/usb_host_hid.c:31
    memcpy( pUSBFS_SetupRequest, SetupGetHidDes, sizeof( USB_SETUP_REQ ) );
    afd4:	ab072023          	sw	a6,-1376(a4)
C:/Repository/RISKYKVM/firmware/src/User/USB_Host/usb_host_hid.c:33
    pUSBFS_SetupRequest->wLength = *plen;
    afd8:	0006d703          	lhu	a4,0(a3)
C:/Repository/RISKYKVM/firmware/src/User/USB_Host/usb_host_hid.c:34
    return USBFSH_CtrlTransfer( ep0_size, pbuf, plen );
    afdc:	85b2                	mv	a1,a2
    afde:	8636                	mv	a2,a3
C:/Repository/RISKYKVM/firmware/src/User/USB_Host/usb_host_hid.c:33
    pUSBFS_SetupRequest->wLength = *plen;
    afe0:	00e79323          	sh	a4,6(a5)
C:/Repository/RISKYKVM/firmware/src/User/USB_Host/usb_host_hid.c:34
    return USBFSH_CtrlTransfer( ep0_size, pbuf, plen );
    afe4:	938ff06f          	j	a11c <USBFSH_CtrlTransfer>

0000afe8 <HID_SetReport>:
HID_SetReport():
C:/Repository/RISKYKVM/firmware/src/User/USB_Host/usb_host_hid.c:50
 *
 * @return  none
 */
uint8_t HID_SetReport( uint8_t ep0_size, uint8_t intf_num, uint8_t *pbuf, uint16_t *plen )
{
    memcpy( pUSBFS_SetupRequest, SetupSetReport, sizeof( USB_SETUP_REQ ) );
    afe8:	84018793          	addi	a5,gp,-1984 # 20000040 <SetupSetReport>
    afec:	0047a303          	lw	t1,4(a5)
    aff0:	20002737          	lui	a4,0x20002
    aff4:	aa070813          	addi	a6,a4,-1376 # 20001aa0 <USBFS_TX_Buf>
    aff8:	439c                	lw	a5,0(a5)
C:/Repository/RISKYKVM/firmware/src/User/USB_Host/usb_host_hid.c:49
{
    affa:	88b2                	mv	a7,a2
C:/Repository/RISKYKVM/firmware/src/User/USB_Host/usb_host_hid.c:50
    memcpy( pUSBFS_SetupRequest, SetupSetReport, sizeof( USB_SETUP_REQ ) );
    affc:	00682223          	sw	t1,4(a6)
C:/Repository/RISKYKVM/firmware/src/User/USB_Host/usb_host_hid.c:51
    pUSBFS_SetupRequest->wIndex = (uint16_t)intf_num;
    b000:	00b81223          	sh	a1,4(a6)
C:/Repository/RISKYKVM/firmware/src/User/USB_Host/usb_host_hid.c:52
    return USBFSH_CtrlTransfer( ep0_size, pbuf, plen );
    b004:	8636                	mv	a2,a3
    b006:	85c6                	mv	a1,a7
C:/Repository/RISKYKVM/firmware/src/User/USB_Host/usb_host_hid.c:50
    memcpy( pUSBFS_SetupRequest, SetupSetReport, sizeof( USB_SETUP_REQ ) );
    b008:	aaf72023          	sw	a5,-1376(a4)
C:/Repository/RISKYKVM/firmware/src/User/USB_Host/usb_host_hid.c:52
    return USBFSH_CtrlTransfer( ep0_size, pbuf, plen );
    b00c:	910ff06f          	j	a11c <USBFSH_CtrlTransfer>

0000b010 <HID_SetIdle>:
HID_SetIdle():
C:/Repository/RISKYKVM/firmware/src/User/USB_Host/usb_host_hid.c:67
 *
 * @return  none
 */
uint8_t HID_SetIdle( uint8_t ep0_size, uint8_t intf_num, uint8_t duration, uint8_t reportid )
{
    memcpy( pUSBFS_SetupRequest, SetupSetidle, sizeof( USB_SETUP_REQ ) );
    b010:	84818793          	addi	a5,gp,-1976 # 20000048 <SetupSetidle>
    b014:	0047a883          	lw	a7,4(a5)
    b018:	20002737          	lui	a4,0x20002
    b01c:	0007a803          	lw	a6,0(a5)
    b020:	aa070793          	addi	a5,a4,-1376 # 20001aa0 <USBFS_TX_Buf>
C:/Repository/RISKYKVM/firmware/src/User/USB_Host/usb_host_hid.c:68
    pUSBFS_SetupRequest->wValue = ( (uint16_t)duration << 8 ) | reportid;
    b024:	0622                	slli	a2,a2,0x8
C:/Repository/RISKYKVM/firmware/src/User/USB_Host/usb_host_hid.c:67
    memcpy( pUSBFS_SetupRequest, SetupSetidle, sizeof( USB_SETUP_REQ ) );
    b026:	0117a223          	sw	a7,4(a5)
    b02a:	ab072023          	sw	a6,-1376(a4)
C:/Repository/RISKYKVM/firmware/src/User/USB_Host/usb_host_hid.c:68
    pUSBFS_SetupRequest->wValue = ( (uint16_t)duration << 8 ) | reportid;
    b02e:	8ed1                	or	a3,a3,a2
C:/Repository/RISKYKVM/firmware/src/User/USB_Host/usb_host_hid.c:69
    pUSBFS_SetupRequest->wIndex = (uint16_t)intf_num;
    b030:	00b79223          	sh	a1,4(a5)
C:/Repository/RISKYKVM/firmware/src/User/USB_Host/usb_host_hid.c:70
    return USBFSH_CtrlTransfer( ep0_size, NULL, NULL );
    b034:	4601                	li	a2,0
    b036:	4581                	li	a1,0
C:/Repository/RISKYKVM/firmware/src/User/USB_Host/usb_host_hid.c:68
    pUSBFS_SetupRequest->wValue = ( (uint16_t)duration << 8 ) | reportid;
    b038:	00d79123          	sh	a3,2(a5)
C:/Repository/RISKYKVM/firmware/src/User/USB_Host/usb_host_hid.c:70
    return USBFSH_CtrlTransfer( ep0_size, NULL, NULL );
    b03c:	8e0ff06f          	j	a11c <USBFSH_CtrlTransfer>

0000b040 <HUB_GetPortStatus>:
HUB_GetPortStatus():
C:/Repository/RISKYKVM/firmware/src/User/USB_Host/usb_host_hub.c:31
 */
uint8_t HUB_GetPortStatus( uint8_t hub_ep0_size, uint8_t hub_port, uint8_t *pbuf )
{
    uint16_t len;
   
    memcpy( pUSBFS_SetupRequest, GetPortStatus, sizeof( USB_SETUP_REQ ) );
    b040:	86018793          	addi	a5,gp,-1952 # 20000060 <GetPortStatus>
    b044:	0047a883          	lw	a7,4(a5)
C:/Repository/RISKYKVM/firmware/src/User/USB_Host/usb_host_hub.c:28
{
    b048:	1101                	addi	sp,sp,-32
C:/Repository/RISKYKVM/firmware/src/User/USB_Host/usb_host_hub.c:31
    memcpy( pUSBFS_SetupRequest, GetPortStatus, sizeof( USB_SETUP_REQ ) );
    b04a:	20002737          	lui	a4,0x20002
C:/Repository/RISKYKVM/firmware/src/User/USB_Host/usb_host_hub.c:28
{
    b04e:	ce06                	sw	ra,28(sp)
C:/Repository/RISKYKVM/firmware/src/User/USB_Host/usb_host_hub.c:31
    memcpy( pUSBFS_SetupRequest, GetPortStatus, sizeof( USB_SETUP_REQ ) );
    b050:	aa070693          	addi	a3,a4,-1376 # 20001aa0 <USBFS_TX_Buf>
    b054:	439c                	lw	a5,0(a5)
C:/Repository/RISKYKVM/firmware/src/User/USB_Host/usb_host_hub.c:28
{
    b056:	8832                	mv	a6,a2
C:/Repository/RISKYKVM/firmware/src/User/USB_Host/usb_host_hub.c:31
    memcpy( pUSBFS_SetupRequest, GetPortStatus, sizeof( USB_SETUP_REQ ) );
    b058:	0116a223          	sw	a7,4(a3)
C:/Repository/RISKYKVM/firmware/src/User/USB_Host/usb_host_hub.c:32
    pUSBFS_SetupRequest->wIndex = (uint16_t)hub_port;
    b05c:	00b69223          	sh	a1,4(a3)
C:/Repository/RISKYKVM/firmware/src/User/USB_Host/usb_host_hub.c:33
    return USBFSH_CtrlTransfer( hub_ep0_size, pbuf, &len );
    b060:	00e10613          	addi	a2,sp,14
    b064:	85c2                	mv	a1,a6
C:/Repository/RISKYKVM/firmware/src/User/USB_Host/usb_host_hub.c:31
    memcpy( pUSBFS_SetupRequest, GetPortStatus, sizeof( USB_SETUP_REQ ) );
    b066:	aaf72023          	sw	a5,-1376(a4)
C:/Repository/RISKYKVM/firmware/src/User/USB_Host/usb_host_hub.c:33
    return USBFSH_CtrlTransfer( hub_ep0_size, pbuf, &len );
    b06a:	8b2ff0ef          	jal	ra,a11c <USBFSH_CtrlTransfer>
C:/Repository/RISKYKVM/firmware/src/User/USB_Host/usb_host_hub.c:34
}
    b06e:	40f2                	lw	ra,28(sp)
    b070:	6105                	addi	sp,sp,32
    b072:	8082                	ret

0000b074 <HUB_ClearPortFeature>:
HUB_ClearPortFeature():
C:/Repository/RISKYKVM/firmware/src/User/USB_Host/usb_host_hub.c:47
 *
 * @return  none
 */
uint8_t HUB_ClearPortFeature( uint8_t hub_ep0_size, uint8_t hub_port, uint8_t selector )
{
    memcpy( pUSBFS_SetupRequest, ClearPortFeature, sizeof( USB_SETUP_REQ ) );
    b074:	85018793          	addi	a5,gp,-1968 # 20000050 <ClearPortFeature>
    b078:	0007a803          	lw	a6,0(a5)
    b07c:	43d4                	lw	a3,4(a5)
    b07e:	20002737          	lui	a4,0x20002
    b082:	aa070793          	addi	a5,a4,-1376 # 20001aa0 <USBFS_TX_Buf>
    b086:	ab072023          	sw	a6,-1376(a4)
    b08a:	c3d4                	sw	a3,4(a5)
C:/Repository/RISKYKVM/firmware/src/User/USB_Host/usb_host_hub.c:48
    pUSBFS_SetupRequest->wValue = (uint16_t)selector;
    b08c:	00c79123          	sh	a2,2(a5)
C:/Repository/RISKYKVM/firmware/src/User/USB_Host/usb_host_hub.c:49
    pUSBFS_SetupRequest->wIndex = (uint16_t)hub_port;
    b090:	00b79223          	sh	a1,4(a5)
C:/Repository/RISKYKVM/firmware/src/User/USB_Host/usb_host_hub.c:50
    return USBFSH_CtrlTransfer( hub_ep0_size, NULL, NULL );
    b094:	4601                	li	a2,0
    b096:	4581                	li	a1,0
    b098:	884ff06f          	j	a11c <USBFSH_CtrlTransfer>

0000b09c <HUB_SetPortFeature>:
HUB_SetPortFeature():
C:/Repository/RISKYKVM/firmware/src/User/USB_Host/usb_host_hub.c:64
 *
 * @return  none
 */
uint8_t HUB_SetPortFeature( uint8_t hub_ep0_size, uint8_t hub_port, uint8_t selector )
{
    memcpy( pUSBFS_SetupRequest, SetPortFeature, sizeof( USB_SETUP_REQ ) );
    b09c:	86818793          	addi	a5,gp,-1944 # 20000068 <SetPortFeature>
    b0a0:	0007a803          	lw	a6,0(a5)
    b0a4:	43d4                	lw	a3,4(a5)
    b0a6:	20002737          	lui	a4,0x20002
    b0aa:	aa070793          	addi	a5,a4,-1376 # 20001aa0 <USBFS_TX_Buf>
    b0ae:	ab072023          	sw	a6,-1376(a4)
    b0b2:	c3d4                	sw	a3,4(a5)
C:/Repository/RISKYKVM/firmware/src/User/USB_Host/usb_host_hub.c:65
    pUSBFS_SetupRequest->wValue = (uint16_t)selector;
    b0b4:	00c79123          	sh	a2,2(a5)
C:/Repository/RISKYKVM/firmware/src/User/USB_Host/usb_host_hub.c:66
    pUSBFS_SetupRequest->wIndex = (uint16_t)hub_port;
    b0b8:	00b79223          	sh	a1,4(a5)
C:/Repository/RISKYKVM/firmware/src/User/USB_Host/usb_host_hub.c:67
    return USBFSH_CtrlTransfer( hub_ep0_size, NULL, NULL );
    b0bc:	4601                	li	a2,0
    b0be:	4581                	li	a1,0
    b0c0:	85cff06f          	j	a11c <USBFSH_CtrlTransfer>

0000b0c4 <HUB_GetClassDevDescr>:
HUB_GetClassDevDescr():
C:/Repository/RISKYKVM/firmware/src/User/USB_Host/usb_host_hub.c:83
 */
uint8_t HUB_GetClassDevDescr( uint8_t hub_ep0_size, uint8_t *pbuf, uint16_t *plen )
{
    uint8_t s;
    
    memcpy( pUSBFS_SetupRequest, GetHubDescr, sizeof( USB_SETUP_REQ ) );
    b0c4:	85818793          	addi	a5,gp,-1960 # 20000058 <GetHubDescr>
    b0c8:	4394                	lw	a3,0(a5)
    b0ca:	43d8                	lw	a4,4(a5)
C:/Repository/RISKYKVM/firmware/src/User/USB_Host/usb_host_hub.c:80
{
    b0cc:	1101                	addi	sp,sp,-32
C:/Repository/RISKYKVM/firmware/src/User/USB_Host/usb_host_hub.c:83
    memcpy( pUSBFS_SetupRequest, GetHubDescr, sizeof( USB_SETUP_REQ ) );
    b0ce:	200027b7          	lui	a5,0x20002
C:/Repository/RISKYKVM/firmware/src/User/USB_Host/usb_host_hub.c:80
{
    b0d2:	cc22                	sw	s0,24(sp)
C:/Repository/RISKYKVM/firmware/src/User/USB_Host/usb_host_hub.c:83
    memcpy( pUSBFS_SetupRequest, GetHubDescr, sizeof( USB_SETUP_REQ ) );
    b0d4:	aad7a023          	sw	a3,-1376(a5) # 20001aa0 <USBFS_TX_Buf>
    b0d8:	aa078413          	addi	s0,a5,-1376
C:/Repository/RISKYKVM/firmware/src/User/USB_Host/usb_host_hub.c:80
{
    b0dc:	ca26                	sw	s1,20(sp)
    b0de:	c84a                	sw	s2,16(sp)
    b0e0:	c64e                	sw	s3,12(sp)
    b0e2:	ce06                	sw	ra,28(sp)
    b0e4:	89aa                	mv	s3,a0
    b0e6:	892e                	mv	s2,a1
    b0e8:	84b2                	mv	s1,a2
C:/Repository/RISKYKVM/firmware/src/User/USB_Host/usb_host_hub.c:83
    memcpy( pUSBFS_SetupRequest, GetHubDescr, sizeof( USB_SETUP_REQ ) );
    b0ea:	c058                	sw	a4,4(s0)
C:/Repository/RISKYKVM/firmware/src/User/USB_Host/usb_host_hub.c:84
    s = USBFSH_CtrlTransfer( hub_ep0_size, pbuf, plen );
    b0ec:	830ff0ef          	jal	ra,a11c <USBFSH_CtrlTransfer>
C:/Repository/RISKYKVM/firmware/src/User/USB_Host/usb_host_hub.c:85
    if( s != ERR_SUCCESS )
    b0f0:	c901                	beqz	a0,b100 <HUB_GetClassDevDescr+0x3c>
C:/Repository/RISKYKVM/firmware/src/User/USB_Host/usb_host_hub.c:96
        pUSBFS_SetupRequest->wLength = *plen = (uint16_t)pbuf[ 0 ];
        s = USBFSH_CtrlTransfer( hub_ep0_size, pbuf, plen );
    }

    return s;
}
    b0f2:	40f2                	lw	ra,28(sp)
    b0f4:	4462                	lw	s0,24(sp)
    b0f6:	44d2                	lw	s1,20(sp)
    b0f8:	4942                	lw	s2,16(sp)
    b0fa:	49b2                	lw	s3,12(sp)
    b0fc:	6105                	addi	sp,sp,32
    b0fe:	8082                	ret
C:/Repository/RISKYKVM/firmware/src/User/USB_Host/usb_host_hub.c:91
        pUSBFS_SetupRequest->wLength = *plen = (uint16_t)pbuf[ 0 ];
    b100:	00094783          	lbu	a5,0(s2)
C:/Repository/RISKYKVM/firmware/src/User/USB_Host/usb_host_hub.c:96
}
    b104:	40f2                	lw	ra,28(sp)
C:/Repository/RISKYKVM/firmware/src/User/USB_Host/usb_host_hub.c:92
        s = USBFSH_CtrlTransfer( hub_ep0_size, pbuf, plen );
    b106:	8626                	mv	a2,s1
C:/Repository/RISKYKVM/firmware/src/User/USB_Host/usb_host_hub.c:91
        pUSBFS_SetupRequest->wLength = *plen = (uint16_t)pbuf[ 0 ];
    b108:	00f49023          	sh	a5,0(s1)
    b10c:	00f41323          	sh	a5,6(s0)
C:/Repository/RISKYKVM/firmware/src/User/USB_Host/usb_host_hub.c:96
}
    b110:	4462                	lw	s0,24(sp)
    b112:	44d2                	lw	s1,20(sp)
C:/Repository/RISKYKVM/firmware/src/User/USB_Host/usb_host_hub.c:92
        s = USBFSH_CtrlTransfer( hub_ep0_size, pbuf, plen );
    b114:	85ca                	mv	a1,s2
    b116:	854e                	mv	a0,s3
C:/Repository/RISKYKVM/firmware/src/User/USB_Host/usb_host_hub.c:96
}
    b118:	4942                	lw	s2,16(sp)
    b11a:	49b2                	lw	s3,12(sp)
    b11c:	6105                	addi	sp,sp,32
C:/Repository/RISKYKVM/firmware/src/User/USB_Host/usb_host_hub.c:92
        s = USBFSH_CtrlTransfer( hub_ep0_size, pbuf, plen );
    b11e:	ffffe06f          	j	a11c <USBFSH_CtrlTransfer>

0000b122 <USBH_HID_GetKeyboardInfo>:
USBH_HID_KeyboardDecode():
C:/Repository/RISKYKVM/firmware/src/User/USB_Host/usb_keyboard.c:25

static USB_Status USBH_HID_KeyboardDecode(Interface *Itf)
{
	uint32_t x;

	if (Itf->HidRptLen == 0U)
    b122:	10c54603          	lbu	a2,268(a0)
    b126:	e219                	bnez	a2,b12c <USBH_HID_GetKeyboardInfo+0xa>
USBH_HID_GetKeyboardInfo():
C:/Repository/RISKYKVM/firmware/src/User/USB_Host/usb_keyboard.c:17
    return NULL;
    b128:	4501                	li	a0,0
C:/Repository/RISKYKVM/firmware/src/User/USB_Host/usb_keyboard.c:19
}
    b12a:	8082                	ret
C:/Repository/RISKYKVM/firmware/src/User/USB_Host/usb_keyboard.c:10
{
    b12c:	1141                	addi	sp,sp,-16
    b12e:	c422                	sw	s0,8(sp)
USBH_HID_KeyboardDecode():
C:/Repository/RISKYKVM/firmware/src/User/USB_Host/usb_keyboard.c:31
	{
	    return USB_FAIL;
	}


	if (FifoRead(&Itf->buffer, &keybd_report_data, Itf->HidRptLen) !=0)
    b130:	20002437          	lui	s0,0x20002
    b134:	ae440593          	addi	a1,s0,-1308 # 20001ae4 <keybd_report_data>
    b138:	08050513          	addi	a0,a0,128
USBH_HID_GetKeyboardInfo():
C:/Repository/RISKYKVM/firmware/src/User/USB_Host/usb_keyboard.c:10
{
    b13c:	c606                	sw	ra,12(sp)
    b13e:	c226                	sw	s1,4(sp)
    b140:	c04a                	sw	s2,0(sp)
USBH_HID_KeyboardDecode():
C:/Repository/RISKYKVM/firmware/src/User/USB_Host/usb_keyboard.c:31
	if (FifoRead(&Itf->buffer, &keybd_report_data, Itf->HidRptLen) !=0)
    b142:	3c7010ef          	jal	ra,cd08 <FifoRead>
    b146:	e901                	bnez	a0,b156 <USBH_HID_GetKeyboardInfo+0x34>
USBH_HID_GetKeyboardInfo():
C:/Repository/RISKYKVM/firmware/src/User/USB_Host/usb_keyboard.c:19
}
    b148:	40b2                	lw	ra,12(sp)
    b14a:	4422                	lw	s0,8(sp)
    b14c:	4492                	lw	s1,4(sp)
    b14e:	4902                	lw	s2,0(sp)
C:/Repository/RISKYKVM/firmware/src/User/USB_Host/usb_keyboard.c:17
    return NULL;
    b150:	4501                	li	a0,0
C:/Repository/RISKYKVM/firmware/src/User/USB_Host/usb_keyboard.c:19
}
    b152:	0141                	addi	sp,sp,16
    b154:	8082                	ret
USBH_HID_KeyboardDecode():
C:/Repository/RISKYKVM/firmware/src/User/USB_Host/usb_keyboard.c:33
    {
	    if(keybd_report_data[0]   &   0b00000001) { keybd_info.lctrl  = 1;} else {keybd_info.lctrl    = 0;}
    b156:	ae444783          	lbu	a5,-1308(s0)
    b15a:	200026b7          	lui	a3,0x20002
    b15e:	ae668713          	addi	a4,a3,-1306 # 20001ae6 <keybd_report_data+0x2>
    b162:	ae66c483          	lbu	s1,-1306(a3)
    b166:	00174403          	lbu	s0,1(a4)
    b16a:	00274383          	lbu	t2,2(a4)
    b16e:	00374283          	lbu	t0,3(a4)
    b172:	00474f83          	lbu	t6,4(a4)
    b176:	00574f03          	lbu	t5,5(a4)
    b17a:	20002537          	lui	a0,0x20002
    b17e:	20002eb7          	lui	t4,0x20002
C:/Repository/RISKYKVM/firmware/src/User/USB_Host/usb_keyboard.c:34
	    if(keybd_report_data[0]   &   0b00000010) { keybd_info.lshift = 1;} else {keybd_info.lshift   = 0;}
    b182:	0017de13          	srli	t3,a5,0x1
C:/Repository/RISKYKVM/firmware/src/User/USB_Host/usb_keyboard.c:35
	    if(keybd_report_data[0]   &   0b00000100) { keybd_info.lalt   = 1;} else {keybd_info.lalt     = 0;}
    b186:	0027d313          	srli	t1,a5,0x2
C:/Repository/RISKYKVM/firmware/src/User/USB_Host/usb_keyboard.c:36
	    if(keybd_report_data[0]   &   0b00001000) { keybd_info.lgui   = 1;} else {keybd_info.lgui     = 0;}
    b18a:	0037d893          	srli	a7,a5,0x3
C:/Repository/RISKYKVM/firmware/src/User/USB_Host/usb_keyboard.c:37
	    if(keybd_report_data[0]   &   0b00010000) { keybd_info.rctrl  = 1;} else {keybd_info.rctrl    = 0;}
    b18e:	0047d813          	srli	a6,a5,0x4
C:/Repository/RISKYKVM/firmware/src/User/USB_Host/usb_keyboard.c:38
	    if(keybd_report_data[0]   &   0b00100000) { keybd_info.rshift = 1;} else {keybd_info.rshift   = 0;}
    b192:	0057d593          	srli	a1,a5,0x5
C:/Repository/RISKYKVM/firmware/src/User/USB_Host/usb_keyboard.c:39
	    if(keybd_report_data[0]   &   0b01000000) { keybd_info.ralt   = 1;} else {keybd_info.ralt     = 0;}
    b196:	0067d613          	srli	a2,a5,0x6
    b19a:	af450713          	addi	a4,a0,-1292 # 20001af4 <keybd_info>
    b19e:	ae9e8e23          	sb	s1,-1284(t4) # 20001afc <keybd_info+0x8>
    b1a2:	afce8693          	addi	a3,t4,-1284
    b1a6:	0017f913          	andi	s2,a5,1
C:/Repository/RISKYKVM/firmware/src/User/USB_Host/usb_keyboard.c:34
	    if(keybd_report_data[0]   &   0b00000010) { keybd_info.lshift = 1;} else {keybd_info.lshift   = 0;}
    b1aa:	001e7e13          	andi	t3,t3,1
C:/Repository/RISKYKVM/firmware/src/User/USB_Host/usb_keyboard.c:35
	    if(keybd_report_data[0]   &   0b00000100) { keybd_info.lalt   = 1;} else {keybd_info.lalt     = 0;}
    b1ae:	00137313          	andi	t1,t1,1
C:/Repository/RISKYKVM/firmware/src/User/USB_Host/usb_keyboard.c:36
	    if(keybd_report_data[0]   &   0b00001000) { keybd_info.lgui   = 1;} else {keybd_info.lgui     = 0;}
    b1b2:	0018f893          	andi	a7,a7,1
C:/Repository/RISKYKVM/firmware/src/User/USB_Host/usb_keyboard.c:37
	    if(keybd_report_data[0]   &   0b00010000) { keybd_info.rctrl  = 1;} else {keybd_info.rctrl    = 0;}
    b1b6:	00187813          	andi	a6,a6,1
C:/Repository/RISKYKVM/firmware/src/User/USB_Host/usb_keyboard.c:38
	    if(keybd_report_data[0]   &   0b00100000) { keybd_info.rshift = 1;} else {keybd_info.rshift   = 0;}
    b1ba:	8985                	andi	a1,a1,1
C:/Repository/RISKYKVM/firmware/src/User/USB_Host/usb_keyboard.c:39
	    if(keybd_report_data[0]   &   0b01000000) { keybd_info.ralt   = 1;} else {keybd_info.ralt     = 0;}
    b1bc:	8a05                	andi	a2,a2,1
C:/Repository/RISKYKVM/firmware/src/User/USB_Host/usb_keyboard.c:40
	    if(keybd_report_data[0]   &   0b10000000) { keybd_info.rgui   = 1;} else {keybd_info.rgui     = 0;}
    b1be:	839d                	srli	a5,a5,0x7
    b1c0:	01c700a3          	sb	t3,1(a4)
    b1c4:	00670123          	sb	t1,2(a4)
    b1c8:	011701a3          	sb	a7,3(a4)
    b1cc:	01070223          	sb	a6,4(a4)
    b1d0:	00b702a3          	sb	a1,5(a4)
    b1d4:	00c70323          	sb	a2,6(a4)
    b1d8:	00f703a3          	sb	a5,7(a4)
    b1dc:	008680a3          	sb	s0,1(a3)
    b1e0:	00768123          	sb	t2,2(a3)
    b1e4:	005681a3          	sb	t0,3(a3)
    b1e8:	01f68223          	sb	t6,4(a3)
    b1ec:	01e682a3          	sb	t5,5(a3)
USBH_HID_GetKeyboardInfo():
C:/Repository/RISKYKVM/firmware/src/User/USB_Host/usb_keyboard.c:19
}
    b1f0:	40b2                	lw	ra,12(sp)
    b1f2:	4422                	lw	s0,8(sp)
    b1f4:	af250a23          	sb	s2,-1292(a0)
    b1f8:	4492                	lw	s1,4(sp)
    b1fa:	4902                	lw	s2,0(sp)
C:/Repository/RISKYKVM/firmware/src/User/USB_Host/usb_keyboard.c:13
    return &keybd_info;
    b1fc:	af450513          	addi	a0,a0,-1292
C:/Repository/RISKYKVM/firmware/src/User/USB_Host/usb_keyboard.c:19
}
    b200:	0141                	addi	sp,sp,16
    b202:	8082                	ret

0000b204 <USB_GetMouseInfo>:
USB_MouseDecode():
C:/Repository/RISKYKVM/firmware/src/User/USB_Host/usb_mouse.c:23
}

USB_Status USB_MouseDecode(Interface *Itf)
{

  if (Itf->HidRptLen == 0U)
    b204:	10c54603          	lbu	a2,268(a0)
    b208:	e219                	bnez	a2,b20e <USB_GetMouseInfo+0xa>
USB_GetMouseInfo():
C:/Repository/RISKYKVM/firmware/src/User/USB_Host/usb_mouse.c:16
    return NULL;
    b20a:	4501                	li	a0,0
C:/Repository/RISKYKVM/firmware/src/User/USB_Host/usb_mouse.c:18
}
    b20c:	8082                	ret
C:/Repository/RISKYKVM/firmware/src/User/USB_Host/usb_mouse.c:9
{
    b20e:	1101                	addi	sp,sp,-32
    b210:	ca26                	sw	s1,20(sp)
USB_MouseDecode():
C:/Repository/RISKYKVM/firmware/src/User/USB_Host/usb_mouse.c:30
    return USB_FAIL;
  }

  //Clear mouse_report_data

  memset(&mouse_report_data,0,sizeof(mouse_report_data));
    b212:	200024b7          	lui	s1,0x20002
USB_GetMouseInfo():
C:/Repository/RISKYKVM/firmware/src/User/USB_Host/usb_mouse.c:9
{
    b216:	cc22                	sw	s0,24(sp)
    b218:	ce06                	sw	ra,28(sp)
    b21a:	c84a                	sw	s2,16(sp)
    b21c:	c64e                	sw	s3,12(sp)
    b21e:	c452                	sw	s4,8(sp)
USB_MouseDecode():
C:/Repository/RISKYKVM/firmware/src/User/USB_Host/usb_mouse.c:30
  memset(&mouse_report_data,0,sizeof(mouse_report_data));
    b220:	b1048793          	addi	a5,s1,-1264 # 20001b10 <mouse_report_data>
    b224:	b0048823          	sb	zero,-1264(s1)
    b228:	842a                	mv	s0,a0
C:/Repository/RISKYKVM/firmware/src/User/USB_Host/usb_mouse.c:33

  /*Fill report */
  if (FifoRead(&Itf->buffer, &mouse_report_data, Itf->HidRptLen) !=0)
    b22a:	b1048593          	addi	a1,s1,-1264
    b22e:	08050513          	addi	a0,a0,128
C:/Repository/RISKYKVM/firmware/src/User/USB_Host/usb_mouse.c:30
  memset(&mouse_report_data,0,sizeof(mouse_report_data));
    b232:	000780a3          	sb	zero,1(a5)
    b236:	00078123          	sb	zero,2(a5)
    b23a:	000781a3          	sb	zero,3(a5)
    b23e:	00078223          	sb	zero,4(a5)
    b242:	000782a3          	sb	zero,5(a5)
    b246:	00078323          	sb	zero,6(a5)
    b24a:	000783a3          	sb	zero,7(a5)
C:/Repository/RISKYKVM/firmware/src/User/USB_Host/usb_mouse.c:33
  if (FifoRead(&Itf->buffer, &mouse_report_data, Itf->HidRptLen) !=0)
    b24e:	2bb010ef          	jal	ra,cd08 <FifoRead>
    b252:	e911                	bnez	a0,b266 <USB_GetMouseInfo+0x62>
USB_GetMouseInfo():
C:/Repository/RISKYKVM/firmware/src/User/USB_Host/usb_mouse.c:16
    return NULL;
    b254:	4501                	li	a0,0
C:/Repository/RISKYKVM/firmware/src/User/USB_Host/usb_mouse.c:18
}
    b256:	40f2                	lw	ra,28(sp)
    b258:	4462                	lw	s0,24(sp)
    b25a:	44d2                	lw	s1,20(sp)
    b25c:	4942                	lw	s2,16(sp)
    b25e:	49b2                	lw	s3,12(sp)
    b260:	4a22                	lw	s4,8(sp)
    b262:	6105                	addi	sp,sp,32
    b264:	8082                	ret
USB_MouseDecode():
C:/Repository/RISKYKVM/firmware/src/User/USB_Host/usb_mouse.c:43
	  int16_t a[2];
	  uint8_t i;
	  int16_t wheelVal;

	  // skip report id if present
	  uint8_t *p = mouse_report_data + (Itf->HIDRptDesc.report_id?1:0);
    b266:	04344783          	lbu	a5,67(s0)
    b26a:	b1048493          	addi	s1,s1,-1264
    b26e:	c789                	beqz	a5,b278 <USB_GetMouseInfo+0x74>
    b270:	200024b7          	lui	s1,0x20002
    b274:	b1148493          	addi	s1,s1,-1263 # 20001b11 <mouse_report_data+0x1>
C:/Repository/RISKYKVM/firmware/src/User/USB_Host/usb_mouse.c:50
	  //process axis
	  // two axes ...
	  		for(i=0;i<2;i++) {
	  			// if logical minimum is > logical maximum then logical minimum
	  			// is signed. This means that the value itself is also signed
	  			int is_signed = Itf->HIDRptDesc.joystick_mouse.axis[i].logical.min >
    b278:	05045783          	lhu	a5,80(s0)
    b27c:	04e45683          	lhu	a3,78(s0)
C:/Repository/RISKYKVM/firmware/src/User/USB_Host/usb_mouse.c:52
	  				Itf->HIDRptDesc.joystick_mouse.axis[i].logical.max;
	  			a[i] = collect_bits(p, Itf->HIDRptDesc.joystick_mouse.axis[i].offset,
    b280:	04c44603          	lbu	a2,76(s0)
    b284:	04a45583          	lhu	a1,74(s0)
    b288:	00d7b6b3          	sltu	a3,a5,a3
    b28c:	8526                	mv	a0,s1
    b28e:	36b010ef          	jal	ra,cdf8 <collect_bits>
C:/Repository/RISKYKVM/firmware/src/User/USB_Host/usb_mouse.c:50
	  			int is_signed = Itf->HIDRptDesc.joystick_mouse.axis[i].logical.min >
    b292:	05845783          	lhu	a5,88(s0)
    b296:	05645683          	lhu	a3,86(s0)
C:/Repository/RISKYKVM/firmware/src/User/USB_Host/usb_mouse.c:52
	  			a[i] = collect_bits(p, Itf->HIDRptDesc.joystick_mouse.axis[i].offset,
    b29a:	05444603          	lbu	a2,84(s0)
    b29e:	05245583          	lhu	a1,82(s0)
    b2a2:	00d7b6b3          	sltu	a3,a5,a3
    b2a6:	01051a13          	slli	s4,a0,0x10
    b2aa:	8526                	mv	a0,s1
    b2ac:	34d010ef          	jal	ra,cdf8 <collect_bits>
C:/Repository/RISKYKVM/firmware/src/User/USB_Host/usb_mouse.c:58
	  					Itf->HIDRptDesc.joystick_mouse.axis[i].size, is_signed);
	  		}

	  //process 4 first buttons
	  for(i=0;i<4;i++)
	  	if(p[Itf->HIDRptDesc.joystick_mouse.button[i].byte_offset] &
    b2b0:	05a44703          	lbu	a4,90(s0)
    b2b4:	05c44783          	lbu	a5,92(s0)
    b2b8:	05b44683          	lbu	a3,91(s0)
    b2bc:	9726                	add	a4,a4,s1
    b2be:	97a6                	add	a5,a5,s1
    b2c0:	00074903          	lbu	s2,0(a4)
    b2c4:	0007c783          	lbu	a5,0(a5)
    b2c8:	05d44703          	lbu	a4,93(s0)
    b2cc:	00d97933          	and	s2,s2,a3
C:/Repository/RISKYKVM/firmware/src/User/USB_Host/usb_mouse.c:52
	  			a[i] = collect_bits(p, Itf->HIDRptDesc.joystick_mouse.axis[i].offset,
    b2d0:	01051993          	slli	s3,a0,0x10
C:/Repository/RISKYKVM/firmware/src/User/USB_Host/usb_mouse.c:58
	  	if(p[Itf->HIDRptDesc.joystick_mouse.button[i].byte_offset] &
    b2d4:	8ff9                	and	a5,a5,a4
C:/Repository/RISKYKVM/firmware/src/User/USB_Host/usb_mouse.c:52
	  			a[i] = collect_bits(p, Itf->HIDRptDesc.joystick_mouse.axis[i].offset,
    b2d6:	410a5a13          	srai	s4,s4,0x10
    b2da:	4109d993          	srai	s3,s3,0x10
C:/Repository/RISKYKVM/firmware/src/User/USB_Host/usb_mouse.c:36
	  uint8_t btn = 0;
    b2de:	01203933          	snez	s2,s2
C:/Repository/RISKYKVM/firmware/src/User/USB_Host/usb_mouse.c:58
	  	if(p[Itf->HIDRptDesc.joystick_mouse.button[i].byte_offset] &
    b2e2:	c399                	beqz	a5,b2e8 <USB_GetMouseInfo+0xe4>
C:/Repository/RISKYKVM/firmware/src/User/USB_Host/usb_mouse.c:59
	  			Itf->HIDRptDesc.joystick_mouse.button[i].bitmask) btn |= (1<<i);
    b2e4:	00296913          	ori	s2,s2,2
C:/Repository/RISKYKVM/firmware/src/User/USB_Host/usb_mouse.c:58
	  	if(p[Itf->HIDRptDesc.joystick_mouse.button[i].byte_offset] &
    b2e8:	05e44703          	lbu	a4,94(s0)
    b2ec:	05f44683          	lbu	a3,95(s0)
    b2f0:	9726                	add	a4,a4,s1
    b2f2:	00074783          	lbu	a5,0(a4)
    b2f6:	8ff5                	and	a5,a5,a3
    b2f8:	c399                	beqz	a5,b2fe <USB_GetMouseInfo+0xfa>
C:/Repository/RISKYKVM/firmware/src/User/USB_Host/usb_mouse.c:59
	  			Itf->HIDRptDesc.joystick_mouse.button[i].bitmask) btn |= (1<<i);
    b2fa:	00496913          	ori	s2,s2,4
C:/Repository/RISKYKVM/firmware/src/User/USB_Host/usb_mouse.c:58
	  	if(p[Itf->HIDRptDesc.joystick_mouse.button[i].byte_offset] &
    b2fe:	06044703          	lbu	a4,96(s0)
    b302:	06144683          	lbu	a3,97(s0)
    b306:	9726                	add	a4,a4,s1
    b308:	00074783          	lbu	a5,0(a4)
    b30c:	8ff5                	and	a5,a5,a3
    b30e:	c399                	beqz	a5,b314 <USB_GetMouseInfo+0x110>
C:/Repository/RISKYKVM/firmware/src/User/USB_Host/usb_mouse.c:59
	  			Itf->HIDRptDesc.joystick_mouse.button[i].bitmask) btn |= (1<<i);
    b310:	00896913          	ori	s2,s2,8
C:/Repository/RISKYKVM/firmware/src/User/USB_Host/usb_mouse.c:67
	  for(i=4;i<12;i++)
	  	if(p[Itf->HIDRptDesc.joystick_mouse.button[i].byte_offset] &
	  			Itf->HIDRptDesc.joystick_mouse.button[i].bitmask) btn_extra |= (1<<(i-4));

	  // process wheel
      int is_signed_wheel = Itf->HIDRptDesc.joystick_mouse.wheel.logical.min >
    b314:	07c45783          	lhu	a5,124(s0)
    b318:	07a45683          	lhu	a3,122(s0)
C:/Repository/RISKYKVM/firmware/src/User/USB_Host/usb_mouse.c:69
            Itf->HIDRptDesc.joystick_mouse.wheel.logical.max;
          wheelVal = collect_bits(p, Itf->HIDRptDesc.joystick_mouse.wheel.offset,
    b31c:	07844603          	lbu	a2,120(s0)
    b320:	07645583          	lhu	a1,118(s0)
    b324:	00d7b6b3          	sltu	a3,a5,a3
    b328:	8526                	mv	a0,s1
    b32a:	2cf010ef          	jal	ra,cdf8 <collect_bits>
C:/Repository/RISKYKVM/firmware/src/User/USB_Host/usb_mouse.c:73
                Itf->HIDRptDesc.joystick_mouse.wheel.size, is_signed_wheel);

	  //process mouse
	  if(Itf->HIDRptDesc.type == REPORT_TYPE_MOUSE) {
    b32e:	04244783          	lbu	a5,66(s0)
    b332:	4705                	li	a4,1
    b334:	8b8d                	andi	a5,a5,3
    b336:	00e78e63          	beq	a5,a4,b352 <USB_GetMouseInfo+0x14e>
USB_GetMouseInfo():
C:/Repository/RISKYKVM/firmware/src/User/USB_Host/usb_mouse.c:18
}
    b33a:	40f2                	lw	ra,28(sp)
    b33c:	4462                	lw	s0,24(sp)
    b33e:	20002537          	lui	a0,0x20002
    b342:	44d2                	lw	s1,20(sp)
    b344:	4942                	lw	s2,16(sp)
    b346:	49b2                	lw	s3,12(sp)
    b348:	4a22                	lw	s4,8(sp)
    b34a:	b0450513          	addi	a0,a0,-1276 # 20001b04 <mouse_info>
    b34e:	6105                	addi	sp,sp,32
    b350:	8082                	ret
USB_MouseDecode():
C:/Repository/RISKYKVM/firmware/src/User/USB_Host/usb_mouse.c:81
	  		for(i=0;i<2;i++) {
	  		if((int16_t)a[i] >  127) a[i] =  127;
	  		if((int16_t)a[i] < -128) a[i] = -128;
	  		}

	  		if((int16_t)wheelVal >  127) wheelVal =  127;
    b352:	01051713          	slli	a4,a0,0x10
    b356:	8741                	srai	a4,a4,0x10
    b358:	f8000793          	li	a5,-128
    b35c:	08f74e63          	blt	a4,a5,b3f8 <USB_GetMouseInfo+0x1f4>
    b360:	01051793          	slli	a5,a0,0x10
C:/Repository/RISKYKVM/firmware/src/User/USB_Host/usb_mouse.c:85
	  		if((int16_t)wheelVal< -128) wheelVal = -128;

	  		//btn
	  	  mouse_info.x = a[0];
    b364:	f8000613          	li	a2,-128
    b368:	87c1                	srai	a5,a5,0x10
    b36a:	200026b7          	lui	a3,0x20002
    b36e:	f8000713          	li	a4,-128
    b372:	09464163          	blt	a2,s4,b3f4 <USB_GetMouseInfo+0x1f0>
    b376:	01071593          	slli	a1,a4,0x10
    b37a:	85c1                	srai	a1,a1,0x10
    b37c:	07f00613          	li	a2,127
    b380:	06b64763          	blt	a2,a1,b3ee <USB_GetMouseInfo+0x1ea>
    b384:	b0e69223          	sh	a4,-1276(a3) # 20001b04 <mouse_info>
C:/Repository/RISKYKVM/firmware/src/User/USB_Host/usb_mouse.c:86
	  	  mouse_info.y = a[1];
    b388:	f8000613          	li	a2,-128
    b38c:	b0468513          	addi	a0,a3,-1276
    b390:	f8000713          	li	a4,-128
    b394:	05364b63          	blt	a2,s3,b3ea <USB_GetMouseInfo+0x1e6>
    b398:	01071593          	slli	a1,a4,0x10
    b39c:	85c1                	srai	a1,a1,0x10
    b39e:	07f00613          	li	a2,127
    b3a2:	04b64163          	blt	a2,a1,b3e4 <USB_GetMouseInfo+0x1e0>
C:/Repository/RISKYKVM/firmware/src/User/USB_Host/usb_mouse.c:88
	  	  mouse_info.buttons[0] = btn&0x1;
	  	  mouse_info.buttons[1] = (btn>>1)&0x1;
    b3a6:	00195593          	srli	a1,s2,0x1
C:/Repository/RISKYKVM/firmware/src/User/USB_Host/usb_mouse.c:89
	  	  mouse_info.buttons[2] = (btn>>2)&0x1;
    b3aa:	00295613          	srli	a2,s2,0x2
    b3ae:	8a05                	andi	a2,a2,1
C:/Repository/RISKYKVM/firmware/src/User/USB_Host/usb_mouse.c:87
	  	  mouse_info.buttons[0] = btn&0x1;
    b3b0:	00197913          	andi	s2,s2,1
C:/Repository/RISKYKVM/firmware/src/User/USB_Host/usb_mouse.c:88
	  	  mouse_info.buttons[1] = (btn>>1)&0x1;
    b3b4:	8985                	andi	a1,a1,1
C:/Repository/RISKYKVM/firmware/src/User/USB_Host/usb_mouse.c:86
	  	  mouse_info.y = a[1];
    b3b6:	00e51123          	sh	a4,2(a0)
C:/Repository/RISKYKVM/firmware/src/User/USB_Host/usb_mouse.c:89
	  	  mouse_info.buttons[2] = (btn>>2)&0x1;
    b3ba:	00c50323          	sb	a2,6(a0)
C:/Repository/RISKYKVM/firmware/src/User/USB_Host/usb_mouse.c:87
	  	  mouse_info.buttons[0] = btn&0x1;
    b3be:	01250223          	sb	s2,4(a0)
C:/Repository/RISKYKVM/firmware/src/User/USB_Host/usb_mouse.c:88
	  	  mouse_info.buttons[1] = (btn>>1)&0x1;
    b3c2:	00b502a3          	sb	a1,5(a0)
C:/Repository/RISKYKVM/firmware/src/User/USB_Host/usb_mouse.c:90
	  	  mouse_info.wheel = wheelVal;
    b3c6:	07f00613          	li	a2,127
    b3ca:	b0468513          	addi	a0,a3,-1276
    b3ce:	873e                	mv	a4,a5
    b3d0:	00f64563          	blt	a2,a5,b3da <USB_GetMouseInfo+0x1d6>
    b3d4:	00e51423          	sh	a4,8(a0)
C:/Repository/RISKYKVM/firmware/src/User/USB_Host/usb_mouse.c:92
	  	}
    return USB_OK;
    b3d8:	bdbd                	j	b256 <USB_GetMouseInfo+0x52>
C:/Repository/RISKYKVM/firmware/src/User/USB_Host/usb_mouse.c:90
	  	  mouse_info.wheel = wheelVal;
    b3da:	07f00713          	li	a4,127
    b3de:	00e51423          	sh	a4,8(a0)
C:/Repository/RISKYKVM/firmware/src/User/USB_Host/usb_mouse.c:92
    return USB_OK;
    b3e2:	bd95                	j	b256 <USB_GetMouseInfo+0x52>
C:/Repository/RISKYKVM/firmware/src/User/USB_Host/usb_mouse.c:86
	  	  mouse_info.y = a[1];
    b3e4:	07f00713          	li	a4,127
    b3e8:	bf7d                	j	b3a6 <USB_GetMouseInfo+0x1a2>
    b3ea:	874e                	mv	a4,s3
    b3ec:	b775                	j	b398 <USB_GetMouseInfo+0x194>
C:/Repository/RISKYKVM/firmware/src/User/USB_Host/usb_mouse.c:85
	  	  mouse_info.x = a[0];
    b3ee:	07f00713          	li	a4,127
    b3f2:	bf49                	j	b384 <USB_GetMouseInfo+0x180>
    b3f4:	8752                	mv	a4,s4
    b3f6:	b741                	j	b376 <USB_GetMouseInfo+0x172>
    b3f8:	f8000513          	li	a0,-128
    b3fc:	b795                	j	b360 <USB_GetMouseInfo+0x15c>

0000b3fe <NMI_Handler>:
NMI_Handler():
C:/Repository/RISKYKVM/firmware/src/User/ch32v20x_it.c:28
 *
 * @return  none
 */
void NMI_Handler(void)
{
}
    b3fe:	30200073          	mret

0000b402 <HardFault_Handler>:
HardFault_Handler():
C:/Repository/RISKYKVM/firmware/src/User/ch32v20x_it.c:41 (discriminator 1)
 */
void HardFault_Handler(void)
{
  while (1)
  {
  }
    b402:	a001                	j	b402 <HardFault_Handler>

0000b404 <EXTI15_10_IRQHandler>:
EXTI15_10_IRQHandler():
C:/Repository/RISKYKVM/firmware/src/User/ch32v20x_it.c:47
}


void EXTI15_10_IRQHandler(void)
{
    if(EXTI_GetITStatus(EXTI_Line10) != RESET)
    b404:	40000513          	li	a0,1024
    b408:	42b010ef          	jal	ra,d032 <EXTI_GetITStatus>
    b40c:	e119                	bnez	a0,b412 <EXTI15_10_IRQHandler+0xe>
C:/Repository/RISKYKVM/firmware/src/User/ch32v20x_it.c:52
    {
        ProcessScrollIRQ();
        EXTI_ClearITPendingBit(EXTI_Line10); /* Clear Flag */
    }
}
    b40e:	30200073          	mret
C:/Repository/RISKYKVM/firmware/src/User/ch32v20x_it.c:49
        ProcessScrollIRQ();
    b412:	522010ef          	jal	ra,c934 <ProcessScrollIRQ>
C:/Repository/RISKYKVM/firmware/src/User/ch32v20x_it.c:50
        EXTI_ClearITPendingBit(EXTI_Line10); /* Clear Flag */
    b416:	40000513          	li	a0,1024
    b41a:	437010ef          	jal	ra,d050 <EXTI_ClearITPendingBit>
C:/Repository/RISKYKVM/firmware/src/User/ch32v20x_it.c:52
}
    b41e:	30200073          	mret

0000b422 <ProcessGamepad>:
ProcessGamepad():
C:/Repository/RISKYKVM/firmware/src/User/gamepad.c:6
#include "gamepad.h"

void ProcessGamepad(HID_gamepad_Info_TypeDef* joymap)
{

			if (joymap == NULL) return;
    b422:	c145                	beqz	a0,b4c2 <ProcessGamepad+0xa0>
C:/Repository/RISKYKVM/firmware/src/User/gamepad.c:4
{
    b424:	1141                	addi	sp,sp,-16
    b426:	c606                	sw	ra,12(sp)
    b428:	c422                	sw	s0,8(sp)
    b42a:	c226                	sw	s1,4(sp)
C:/Repository/RISKYKVM/firmware/src/User/gamepad.c:8

				GPIO_WriteBit(RHQ_GPIO_Port, RHQ_Pin, !(joymap->gamepad_data & 0x1));
    b42c:	00054603          	lbu	a2,0(a0)
    b430:	400114b7          	lui	s1,0x40011
    b434:	842a                	mv	s0,a0
    b436:	fff64613          	not	a2,a2
    b43a:	c0048513          	addi	a0,s1,-1024 # 40010c00 <_eusrstack+0x2000bc00>
    b43e:	6585                	lui	a1,0x1
    b440:	8a05                	andi	a2,a2,1
    b442:	116020ef          	jal	ra,d558 <GPIO_WriteBit>
C:/Repository/RISKYKVM/firmware/src/User/gamepad.c:9
				GPIO_WriteBit(LVQ_GPIO_Port, LVQ_Pin, !(joymap->gamepad_data >> 1 & 0x1));
    b446:	00044603          	lbu	a2,0(s0)
    b44a:	c0048513          	addi	a0,s1,-1024
    b44e:	6589                	lui	a1,0x2
    b450:	8205                	srli	a2,a2,0x1
    b452:	fff64613          	not	a2,a2
    b456:	8a05                	andi	a2,a2,1
    b458:	100020ef          	jal	ra,d558 <GPIO_WriteBit>
C:/Repository/RISKYKVM/firmware/src/User/gamepad.c:10
				GPIO_WriteBit(BH_GPIO_Port, BH_Pin, !(joymap->gamepad_data >> 2 & 0x1));
    b45c:	00044603          	lbu	a2,0(s0)
    b460:	c0048513          	addi	a0,s1,-1024
    b464:	6591                	lui	a1,0x4
    b466:	8209                	srli	a2,a2,0x2
    b468:	fff64613          	not	a2,a2
    b46c:	8a05                	andi	a2,a2,1
    b46e:	0ea020ef          	jal	ra,d558 <GPIO_WriteBit>
C:/Repository/RISKYKVM/firmware/src/User/gamepad.c:11
				GPIO_WriteBit(FV_GPIO_Port, FV_Pin, !(joymap->gamepad_data >> 3 & 0x1));
    b472:	00044603          	lbu	a2,0(s0)
    b476:	80048513          	addi	a0,s1,-2048
    b47a:	10000593          	li	a1,256
    b47e:	820d                	srli	a2,a2,0x3
    b480:	fff64613          	not	a2,a2
    b484:	8a05                	andi	a2,a2,1
    b486:	0d2020ef          	jal	ra,d558 <GPIO_WriteBit>
C:/Repository/RISKYKVM/firmware/src/User/gamepad.c:12
				GPIO_WriteBit(LB_GPIO_Port, LB_Pin, !(joymap->gamepad_data >> 4 & 0x1));
    b48a:	00044603          	lbu	a2,0(s0)
    b48e:	c0048513          	addi	a0,s1,-1024
    b492:	65a1                	lui	a1,0x8
    b494:	8211                	srli	a2,a2,0x4
    b496:	fff64613          	not	a2,a2
    b49a:	8a05                	andi	a2,a2,1
    b49c:	0bc020ef          	jal	ra,d558 <GPIO_WriteBit>
C:/Repository/RISKYKVM/firmware/src/User/gamepad.c:14
				//GPIO_WriteBit(MB_GPIO_Port, RB_Pin, !(joymap->gamepad_data >> 5 & 0x1));
				GPIO_WriteBit(RB_GPIO_Port, RB_Pin, !(joymap->gamepad_data >> 6 & 0x1));
    b4a0:	00044603          	lbu	a2,0(s0)
C:/Repository/RISKYKVM/firmware/src/User/gamepad.c:16

}
    b4a4:	4422                	lw	s0,8(sp)
    b4a6:	40b2                	lw	ra,12(sp)
C:/Repository/RISKYKVM/firmware/src/User/gamepad.c:14
				GPIO_WriteBit(RB_GPIO_Port, RB_Pin, !(joymap->gamepad_data >> 6 & 0x1));
    b4a8:	8219                	srli	a2,a2,0x6
    b4aa:	c0048513          	addi	a0,s1,-1024
C:/Repository/RISKYKVM/firmware/src/User/gamepad.c:16
}
    b4ae:	4492                	lw	s1,4(sp)
C:/Repository/RISKYKVM/firmware/src/User/gamepad.c:14
				GPIO_WriteBit(RB_GPIO_Port, RB_Pin, !(joymap->gamepad_data >> 6 & 0x1));
    b4b0:	6585                	lui	a1,0x1
    b4b2:	fff64613          	not	a2,a2
    b4b6:	80058593          	addi	a1,a1,-2048 # 800 <__stack_size>
    b4ba:	8a05                	andi	a2,a2,1
C:/Repository/RISKYKVM/firmware/src/User/gamepad.c:16
}
    b4bc:	0141                	addi	sp,sp,16
C:/Repository/RISKYKVM/firmware/src/User/gamepad.c:14
				GPIO_WriteBit(RB_GPIO_Port, RB_Pin, !(joymap->gamepad_data >> 6 & 0x1));
    b4be:	09a0206f          	j	d558 <GPIO_WriteBit>
    b4c2:	8082                	ret

0000b4c4 <GPIO_Config>:
GPIO_Config():
C:/Repository/RISKYKVM/firmware/src/User/gpio.c:4
#include "gpio.h"

void GPIO_Config()
{
    b4c4:	715d                	addi	sp,sp,-80
C:/Repository/RISKYKVM/firmware/src/User/gpio.c:6
    //RCC_APB2Periph_GPIOA
    RCC_APB2PeriphClockCmd(RCC_APB2Periph_GPIOA, ENABLE);
    b4c6:	4585                	li	a1,1
    b4c8:	4511                	li	a0,4
C:/Repository/RISKYKVM/firmware/src/User/gpio.c:4
{
    b4ca:	c686                	sw	ra,76(sp)
    b4cc:	c4a2                	sw	s0,72(sp)
    b4ce:	c2a6                	sw	s1,68(sp)
    b4d0:	c0ca                	sw	s2,64(sp)
    b4d2:	de4e                	sw	s3,60(sp)
    b4d4:	dc52                	sw	s4,56(sp)
    b4d6:	da56                	sw	s5,52(sp)
    b4d8:	d85a                	sw	s6,48(sp)
C:/Repository/RISKYKVM/firmware/src/User/gpio.c:6
    RCC_APB2PeriphClockCmd(RCC_APB2Periph_GPIOA, ENABLE);
    b4da:	1fa020ef          	jal	ra,d6d4 <RCC_APB2PeriphClockCmd>
C:/Repository/RISKYKVM/firmware/src/User/gpio.c:7
    RCC_APB2PeriphClockCmd(RCC_APB2Periph_GPIOB, ENABLE);
    b4de:	4585                	li	a1,1
    b4e0:	4521                	li	a0,8
    b4e2:	1f2020ef          	jal	ra,d6d4 <RCC_APB2PeriphClockCmd>
C:/Repository/RISKYKVM/firmware/src/User/gpio.c:8
    RCC_APB2PeriphClockCmd(RCC_APB2Periph_GPIOC, ENABLE);
    b4e6:	4585                	li	a1,1
    b4e8:	4541                	li	a0,16
    b4ea:	1ea020ef          	jal	ra,d6d4 <RCC_APB2PeriphClockCmd>
C:/Repository/RISKYKVM/firmware/src/User/gpio.c:9
    RCC_APB2PeriphClockCmd(RCC_APB2Periph_AFIO, ENABLE);
    b4ee:	4585                	li	a1,1
    b4f0:	4505                	li	a0,1
    b4f2:	1e2020ef          	jal	ra,d6d4 <RCC_APB2PeriphClockCmd>
C:/Repository/RISKYKVM/firmware/src/User/gpio.c:15

    GPIO_InitTypeDef GPIO_InitStructure = {0};


    /*Configure GPIO pin Output Level */
    GPIO_WriteBit(LED_GPIO_Port,LED_Pin, Bit_SET);
    b4f6:	4605                	li	a2,1
    b4f8:	6591                	lui	a1,0x4
    b4fa:	40011537          	lui	a0,0x40011
C:/Repository/RISKYKVM/firmware/src/User/gpio.c:16
    GPIO_WriteBit(RHQ_GPIO_Port, RHQ_Pin, Bit_RESET);
    b4fe:	40011437          	lui	s0,0x40011
C:/Repository/RISKYKVM/firmware/src/User/gpio.c:11
    GPIO_InitTypeDef GPIO_InitStructure = {0};
    b502:	ca02                	sw	zero,20(sp)
    b504:	cc02                	sw	zero,24(sp)
    b506:	ce02                	sw	zero,28(sp)
C:/Repository/RISKYKVM/firmware/src/User/gpio.c:15
    GPIO_WriteBit(LED_GPIO_Port,LED_Pin, Bit_SET);
    b508:	050020ef          	jal	ra,d558 <GPIO_WriteBit>
C:/Repository/RISKYKVM/firmware/src/User/gpio.c:16
    GPIO_WriteBit(RHQ_GPIO_Port, RHQ_Pin, Bit_RESET);
    b50c:	c0040513          	addi	a0,s0,-1024 # 40010c00 <_eusrstack+0x2000bc00>
    b510:	4601                	li	a2,0
    b512:	6585                	lui	a1,0x1
    b514:	044020ef          	jal	ra,d558 <GPIO_WriteBit>
C:/Repository/RISKYKVM/firmware/src/User/gpio.c:17
    GPIO_WriteBit(LVQ_GPIO_Port, LVQ_Pin, Bit_RESET);
    b518:	c0040513          	addi	a0,s0,-1024
    b51c:	4601                	li	a2,0
    b51e:	6589                	lui	a1,0x2
    b520:	038020ef          	jal	ra,d558 <GPIO_WriteBit>
C:/Repository/RISKYKVM/firmware/src/User/gpio.c:18
    GPIO_WriteBit(BH_GPIO_Port, BH_Pin, Bit_RESET);
    b524:	c0040513          	addi	a0,s0,-1024
    b528:	4601                	li	a2,0
    b52a:	6591                	lui	a1,0x4
    b52c:	02c020ef          	jal	ra,d558 <GPIO_WriteBit>
C:/Repository/RISKYKVM/firmware/src/User/gpio.c:19
    GPIO_WriteBit(FV_GPIO_Port, FV_Pin, Bit_RESET);
    b530:	80040513          	addi	a0,s0,-2048
    b534:	4601                	li	a2,0
    b536:	10000593          	li	a1,256
    b53a:	01e020ef          	jal	ra,d558 <GPIO_WriteBit>
C:/Repository/RISKYKVM/firmware/src/User/gpio.c:20
    GPIO_WriteBit(LB_GPIO_Port, LB_Pin, Bit_SET);
    b53e:	c0040513          	addi	a0,s0,-1024
    b542:	4605                	li	a2,1
    b544:	65a1                	lui	a1,0x8
    b546:	012020ef          	jal	ra,d558 <GPIO_WriteBit>
C:/Repository/RISKYKVM/firmware/src/User/gpio.c:21
    GPIO_WriteBit(RB_GPIO_Port, RB_Pin, Bit_SET);
    b54a:	6a05                	lui	s4,0x1
    b54c:	800a0593          	addi	a1,s4,-2048 # 800 <__stack_size>
    b550:	c0040513          	addi	a0,s0,-1024
    b554:	4605                	li	a2,1
    b556:	002020ef          	jal	ra,d558 <GPIO_WriteBit>
C:/Repository/RISKYKVM/firmware/src/User/gpio.c:22
    GPIO_WriteBit(KBD_DATA_GPIO_Port, KBD_DATA_Pin, Bit_SET);
    b55a:	800a0593          	addi	a1,s4,-2048
    b55e:	80040513          	addi	a0,s0,-2048
    b562:	4605                	li	a2,1
    b564:	7f5010ef          	jal	ra,d558 <GPIO_WriteBit>
C:/Repository/RISKYKVM/firmware/src/User/gpio.c:23
    GPIO_WriteBit(KBD_CLOCK_GPIO_Port, KBD_CLOCK_Pin,Bit_SET);
    b568:	80040513          	addi	a0,s0,-2048
    b56c:	4605                	li	a2,1
    b56e:	6585                	lui	a1,0x1
    b570:	7e9010ef          	jal	ra,d558 <GPIO_WriteBit>
C:/Repository/RISKYKVM/firmware/src/User/gpio.c:24
    GPIO_WriteBit(KB_RESET_GPIO_Port,KB_RESET_GPIO_Pin,Bit_SET);
    b574:	80040513          	addi	a0,s0,-2048
    b578:	4605                	li	a2,1
    b57a:	40000593          	li	a1,1024
    b57e:	7db010ef          	jal	ra,d558 <GPIO_WriteBit>
C:/Repository/RISKYKVM/firmware/src/User/gpio.c:26

    GPIO_WriteBit(GPIOA,GPIO_Pin_13,Bit_SET);
    b582:	80040513          	addi	a0,s0,-2048
    b586:	4605                	li	a2,1
    b588:	6589                	lui	a1,0x2
    b58a:	7cf010ef          	jal	ra,d558 <GPIO_WriteBit>
C:/Repository/RISKYKVM/firmware/src/User/gpio.c:27
    GPIO_WriteBit(GPIOA,GPIO_Pin_14,Bit_SET);
    b58e:	4605                	li	a2,1
    b590:	80040513          	addi	a0,s0,-2048
    b594:	6591                	lui	a1,0x4
    b596:	7c3010ef          	jal	ra,d558 <GPIO_WriteBit>
C:/Repository/RISKYKVM/firmware/src/User/gpio.c:34


    /*Configure GPIO pins : PCPin PCPin PCPin */
    GPIO_InitStructure.GPIO_Pin = LED_Pin;
    GPIO_InitStructure.GPIO_Mode = GPIO_Mode_Out_PP;
    GPIO_InitStructure.GPIO_Speed = GPIO_Speed_50MHz;
    b59a:	448d                	li	s1,3
C:/Repository/RISKYKVM/firmware/src/User/gpio.c:33
    GPIO_InitStructure.GPIO_Mode = GPIO_Mode_Out_PP;
    b59c:	4941                	li	s2,16
C:/Repository/RISKYKVM/firmware/src/User/gpio.c:32
    GPIO_InitStructure.GPIO_Pin = LED_Pin;
    b59e:	6a91                	lui	s5,0x4
C:/Repository/RISKYKVM/firmware/src/User/gpio.c:35
    GPIO_Init(LED_GPIO_Port, &GPIO_InitStructure);
    b5a0:	084c                	addi	a1,sp,20
    b5a2:	40011537          	lui	a0,0x40011
C:/Repository/RISKYKVM/firmware/src/User/gpio.c:32
    GPIO_InitStructure.GPIO_Pin = LED_Pin;
    b5a6:	01511a23          	sh	s5,20(sp)
C:/Repository/RISKYKVM/firmware/src/User/gpio.c:33
    GPIO_InitStructure.GPIO_Mode = GPIO_Mode_Out_PP;
    b5aa:	ce4a                	sw	s2,28(sp)
C:/Repository/RISKYKVM/firmware/src/User/gpio.c:34
    GPIO_InitStructure.GPIO_Speed = GPIO_Speed_50MHz;
    b5ac:	cc26                	sw	s1,24(sp)
C:/Repository/RISKYKVM/firmware/src/User/gpio.c:35
    GPIO_Init(LED_GPIO_Port, &GPIO_InitStructure);
    b5ae:	2ad010ef          	jal	ra,d05a <GPIO_Init>
C:/Repository/RISKYKVM/firmware/src/User/gpio.c:38


    GPIO_InitStructure.GPIO_Pin = LB_Pin;
    b5b2:	77e1                	lui	a5,0xffff8
C:/Repository/RISKYKVM/firmware/src/User/gpio.c:41
    GPIO_InitStructure.GPIO_Mode = GPIO_Mode_Out_PP;
    GPIO_InitStructure.GPIO_Speed = GPIO_Speed_50MHz;
    GPIO_Init(LB_GPIO_Port, &GPIO_InitStructure);
    b5b4:	084c                	addi	a1,sp,20
    b5b6:	c0040513          	addi	a0,s0,-1024
C:/Repository/RISKYKVM/firmware/src/User/gpio.c:38
    GPIO_InitStructure.GPIO_Pin = LB_Pin;
    b5ba:	00f11a23          	sh	a5,20(sp)
C:/Repository/RISKYKVM/firmware/src/User/gpio.c:39
    GPIO_InitStructure.GPIO_Mode = GPIO_Mode_Out_PP;
    b5be:	ce4a                	sw	s2,28(sp)
C:/Repository/RISKYKVM/firmware/src/User/gpio.c:40
    GPIO_InitStructure.GPIO_Speed = GPIO_Speed_50MHz;
    b5c0:	cc26                	sw	s1,24(sp)
C:/Repository/RISKYKVM/firmware/src/User/gpio.c:43

    GPIO_InitStructure.GPIO_Pin = RB_Pin;
    b5c2:	6985                	lui	s3,0x1
C:/Repository/RISKYKVM/firmware/src/User/gpio.c:41
    GPIO_Init(LB_GPIO_Port, &GPIO_InitStructure);
    b5c4:	297010ef          	jal	ra,d05a <GPIO_Init>
C:/Repository/RISKYKVM/firmware/src/User/gpio.c:43
    GPIO_InitStructure.GPIO_Pin = RB_Pin;
    b5c8:	80098993          	addi	s3,s3,-2048 # 800 <__stack_size>
C:/Repository/RISKYKVM/firmware/src/User/gpio.c:46
    GPIO_InitStructure.GPIO_Mode = GPIO_Mode_Out_PP;
    GPIO_InitStructure.GPIO_Speed = GPIO_Speed_50MHz;
    GPIO_Init(RB_GPIO_Port, &GPIO_InitStructure);
    b5cc:	084c                	addi	a1,sp,20
    b5ce:	c0040513          	addi	a0,s0,-1024
C:/Repository/RISKYKVM/firmware/src/User/gpio.c:43
    GPIO_InitStructure.GPIO_Pin = RB_Pin;
    b5d2:	01311a23          	sh	s3,20(sp)
C:/Repository/RISKYKVM/firmware/src/User/gpio.c:44
    GPIO_InitStructure.GPIO_Mode = GPIO_Mode_Out_PP;
    b5d6:	ce4a                	sw	s2,28(sp)
C:/Repository/RISKYKVM/firmware/src/User/gpio.c:45
    GPIO_InitStructure.GPIO_Speed = GPIO_Speed_50MHz;
    b5d8:	cc26                	sw	s1,24(sp)
C:/Repository/RISKYKVM/firmware/src/User/gpio.c:46
    GPIO_Init(RB_GPIO_Port, &GPIO_InitStructure);
    b5da:	281010ef          	jal	ra,d05a <GPIO_Init>
C:/Repository/RISKYKVM/firmware/src/User/gpio.c:51

    GPIO_InitStructure.GPIO_Pin = RHQ_Pin;
    GPIO_InitStructure.GPIO_Mode = GPIO_Mode_Out_PP;
    GPIO_InitStructure.GPIO_Speed = GPIO_Speed_50MHz;
    GPIO_Init(RHQ_GPIO_Port, &GPIO_InitStructure);
    b5de:	084c                	addi	a1,sp,20
    b5e0:	c0040513          	addi	a0,s0,-1024
C:/Repository/RISKYKVM/firmware/src/User/gpio.c:48
    GPIO_InitStructure.GPIO_Pin = RHQ_Pin;
    b5e4:	01411a23          	sh	s4,20(sp)
C:/Repository/RISKYKVM/firmware/src/User/gpio.c:49
    GPIO_InitStructure.GPIO_Mode = GPIO_Mode_Out_PP;
    b5e8:	ce4a                	sw	s2,28(sp)
C:/Repository/RISKYKVM/firmware/src/User/gpio.c:50
    GPIO_InitStructure.GPIO_Speed = GPIO_Speed_50MHz;
    b5ea:	cc26                	sw	s1,24(sp)
C:/Repository/RISKYKVM/firmware/src/User/gpio.c:51
    GPIO_Init(RHQ_GPIO_Port, &GPIO_InitStructure);
    b5ec:	26f010ef          	jal	ra,d05a <GPIO_Init>
C:/Repository/RISKYKVM/firmware/src/User/gpio.c:54


    GPIO_InitStructure.GPIO_Pin = LVQ_Pin;
    b5f0:	6b09                	lui	s6,0x2
C:/Repository/RISKYKVM/firmware/src/User/gpio.c:57
    GPIO_InitStructure.GPIO_Mode = GPIO_Mode_Out_PP;
    GPIO_InitStructure.GPIO_Speed = GPIO_Speed_50MHz;
    GPIO_Init(LVQ_GPIO_Port, &GPIO_InitStructure);
    b5f2:	084c                	addi	a1,sp,20
    b5f4:	c0040513          	addi	a0,s0,-1024
C:/Repository/RISKYKVM/firmware/src/User/gpio.c:54
    GPIO_InitStructure.GPIO_Pin = LVQ_Pin;
    b5f8:	01611a23          	sh	s6,20(sp)
C:/Repository/RISKYKVM/firmware/src/User/gpio.c:55
    GPIO_InitStructure.GPIO_Mode = GPIO_Mode_Out_PP;
    b5fc:	ce4a                	sw	s2,28(sp)
C:/Repository/RISKYKVM/firmware/src/User/gpio.c:56
    GPIO_InitStructure.GPIO_Speed = GPIO_Speed_50MHz;
    b5fe:	cc26                	sw	s1,24(sp)
C:/Repository/RISKYKVM/firmware/src/User/gpio.c:57
    GPIO_Init(LVQ_GPIO_Port, &GPIO_InitStructure);
    b600:	25b010ef          	jal	ra,d05a <GPIO_Init>
C:/Repository/RISKYKVM/firmware/src/User/gpio.c:63


    GPIO_InitStructure.GPIO_Pin = BH_Pin;
    GPIO_InitStructure.GPIO_Mode = GPIO_Mode_Out_PP;
    GPIO_InitStructure.GPIO_Speed = GPIO_Speed_50MHz;
    GPIO_Init(BH_GPIO_Port, &GPIO_InitStructure);
    b604:	084c                	addi	a1,sp,20
    b606:	c0040513          	addi	a0,s0,-1024
C:/Repository/RISKYKVM/firmware/src/User/gpio.c:60
    GPIO_InitStructure.GPIO_Pin = BH_Pin;
    b60a:	01511a23          	sh	s5,20(sp)
C:/Repository/RISKYKVM/firmware/src/User/gpio.c:61
    GPIO_InitStructure.GPIO_Mode = GPIO_Mode_Out_PP;
    b60e:	ce4a                	sw	s2,28(sp)
C:/Repository/RISKYKVM/firmware/src/User/gpio.c:62
    GPIO_InitStructure.GPIO_Speed = GPIO_Speed_50MHz;
    b610:	cc26                	sw	s1,24(sp)
C:/Repository/RISKYKVM/firmware/src/User/gpio.c:63
    GPIO_Init(BH_GPIO_Port, &GPIO_InitStructure);
    b612:	249010ef          	jal	ra,d05a <GPIO_Init>
C:/Repository/RISKYKVM/firmware/src/User/gpio.c:65

    GPIO_InitStructure.GPIO_Pin = FV_Pin;
    b616:	10000793          	li	a5,256
C:/Repository/RISKYKVM/firmware/src/User/gpio.c:68
    GPIO_InitStructure.GPIO_Mode = GPIO_Mode_Out_PP;
    GPIO_InitStructure.GPIO_Speed = GPIO_Speed_50MHz;
    GPIO_Init(FV_GPIO_Port, &GPIO_InitStructure);
    b61a:	084c                	addi	a1,sp,20
    b61c:	80040513          	addi	a0,s0,-2048
C:/Repository/RISKYKVM/firmware/src/User/gpio.c:65
    GPIO_InitStructure.GPIO_Pin = FV_Pin;
    b620:	00f11a23          	sh	a5,20(sp)
C:/Repository/RISKYKVM/firmware/src/User/gpio.c:66
    GPIO_InitStructure.GPIO_Mode = GPIO_Mode_Out_PP;
    b624:	ce4a                	sw	s2,28(sp)
C:/Repository/RISKYKVM/firmware/src/User/gpio.c:67
    GPIO_InitStructure.GPIO_Speed = GPIO_Speed_50MHz;
    b626:	cc26                	sw	s1,24(sp)
C:/Repository/RISKYKVM/firmware/src/User/gpio.c:68
    GPIO_Init(FV_GPIO_Port, &GPIO_InitStructure);
    b628:	233010ef          	jal	ra,d05a <GPIO_Init>
C:/Repository/RISKYKVM/firmware/src/User/gpio.c:75

    GPIO_InitStructure.GPIO_Pin = KBD_CLOCK_Pin ;
    GPIO_InitStructure.GPIO_Mode = GPIO_Mode_Out_OD;
    GPIO_InitStructure.GPIO_Mode =
    GPIO_InitStructure.GPIO_Speed = GPIO_Speed_50MHz;;
    GPIO_Init(KBD_CLOCK_GPIO_Port, &GPIO_InitStructure);
    b62c:	084c                	addi	a1,sp,20
    b62e:	80040513          	addi	a0,s0,-2048
C:/Repository/RISKYKVM/firmware/src/User/gpio.c:71
    GPIO_InitStructure.GPIO_Pin = KBD_CLOCK_Pin ;
    b632:	01411a23          	sh	s4,20(sp)
C:/Repository/RISKYKVM/firmware/src/User/gpio.c:74
    GPIO_InitStructure.GPIO_Speed = GPIO_Speed_50MHz;;
    b636:	cc26                	sw	s1,24(sp)
C:/Repository/RISKYKVM/firmware/src/User/gpio.c:73
    GPIO_InitStructure.GPIO_Mode =
    b638:	ce26                	sw	s1,28(sp)
C:/Repository/RISKYKVM/firmware/src/User/gpio.c:75
    GPIO_Init(KBD_CLOCK_GPIO_Port, &GPIO_InitStructure);
    b63a:	221010ef          	jal	ra,d05a <GPIO_Init>
C:/Repository/RISKYKVM/firmware/src/User/gpio.c:78

    GPIO_InitStructure.GPIO_Pin = KBD_DATA_Pin;
    GPIO_InitStructure.GPIO_Mode = GPIO_Mode_Out_OD;
    b63e:	4951                	li	s2,20
C:/Repository/RISKYKVM/firmware/src/User/gpio.c:80
    GPIO_InitStructure.GPIO_Speed = GPIO_Speed_50MHz;;
    GPIO_Init(KBD_DATA_GPIO_Port, &GPIO_InitStructure);
    b640:	084c                	addi	a1,sp,20
    b642:	80040513          	addi	a0,s0,-2048
C:/Repository/RISKYKVM/firmware/src/User/gpio.c:77
    GPIO_InitStructure.GPIO_Pin = KBD_DATA_Pin;
    b646:	01311a23          	sh	s3,20(sp)
C:/Repository/RISKYKVM/firmware/src/User/gpio.c:78
    GPIO_InitStructure.GPIO_Mode = GPIO_Mode_Out_OD;
    b64a:	ce4a                	sw	s2,28(sp)
C:/Repository/RISKYKVM/firmware/src/User/gpio.c:79
    GPIO_InitStructure.GPIO_Speed = GPIO_Speed_50MHz;;
    b64c:	cc26                	sw	s1,24(sp)
C:/Repository/RISKYKVM/firmware/src/User/gpio.c:80
    GPIO_Init(KBD_DATA_GPIO_Port, &GPIO_InitStructure);
    b64e:	20d010ef          	jal	ra,d05a <GPIO_Init>
C:/Repository/RISKYKVM/firmware/src/User/gpio.c:82

    GPIO_InitStructure.GPIO_Pin = KB_RESET_GPIO_Pin ;
    b652:	40000993          	li	s3,1024
C:/Repository/RISKYKVM/firmware/src/User/gpio.c:85
    GPIO_InitStructure.GPIO_Mode = GPIO_Mode_Out_OD;
    GPIO_InitStructure.GPIO_Speed = GPIO_Speed_50MHz;;
    GPIO_Init(KB_RESET_GPIO_Port, &GPIO_InitStructure);
    b656:	084c                	addi	a1,sp,20
    b658:	80040513          	addi	a0,s0,-2048
C:/Repository/RISKYKVM/firmware/src/User/gpio.c:82
    GPIO_InitStructure.GPIO_Pin = KB_RESET_GPIO_Pin ;
    b65c:	01311a23          	sh	s3,20(sp)
C:/Repository/RISKYKVM/firmware/src/User/gpio.c:83
    GPIO_InitStructure.GPIO_Mode = GPIO_Mode_Out_OD;
    b660:	ce4a                	sw	s2,28(sp)
C:/Repository/RISKYKVM/firmware/src/User/gpio.c:84
    GPIO_InitStructure.GPIO_Speed = GPIO_Speed_50MHz;;
    b662:	cc26                	sw	s1,24(sp)
C:/Repository/RISKYKVM/firmware/src/User/gpio.c:85
    GPIO_Init(KB_RESET_GPIO_Port, &GPIO_InitStructure);
    b664:	1f7010ef          	jal	ra,d05a <GPIO_Init>
C:/Repository/RISKYKVM/firmware/src/User/gpio.c:89

    GPIO_InitStructure.GPIO_Pin = GPIO_Pin_14;
    GPIO_InitStructure.GPIO_Mode = GPIO_Mode_Out_OD;
    GPIO_Init(GPIOA, &GPIO_InitStructure);
    b668:	084c                	addi	a1,sp,20
    b66a:	80040513          	addi	a0,s0,-2048
C:/Repository/RISKYKVM/firmware/src/User/gpio.c:87
    GPIO_InitStructure.GPIO_Pin = GPIO_Pin_14;
    b66e:	01511a23          	sh	s5,20(sp)
C:/Repository/RISKYKVM/firmware/src/User/gpio.c:88
    GPIO_InitStructure.GPIO_Mode = GPIO_Mode_Out_OD;
    b672:	ce4a                	sw	s2,28(sp)
C:/Repository/RISKYKVM/firmware/src/User/gpio.c:89
    GPIO_Init(GPIOA, &GPIO_InitStructure);
    b674:	1e7010ef          	jal	ra,d05a <GPIO_Init>
C:/Repository/RISKYKVM/firmware/src/User/gpio.c:93

    GPIO_InitStructure.GPIO_Pin = GPIO_Pin_13;
    GPIO_InitStructure.GPIO_Mode = GPIO_Mode_Out_OD;
    GPIO_Init(GPIOA, &GPIO_InitStructure);
    b678:	084c                	addi	a1,sp,20
    b67a:	80040513          	addi	a0,s0,-2048
C:/Repository/RISKYKVM/firmware/src/User/gpio.c:91
    GPIO_InitStructure.GPIO_Pin = GPIO_Pin_13;
    b67e:	01611a23          	sh	s6,20(sp)
C:/Repository/RISKYKVM/firmware/src/User/gpio.c:92
    GPIO_InitStructure.GPIO_Mode = GPIO_Mode_Out_OD;
    b682:	ce4a                	sw	s2,28(sp)
C:/Repository/RISKYKVM/firmware/src/User/gpio.c:93
    GPIO_Init(GPIOA, &GPIO_InitStructure);
    b684:	1d7010ef          	jal	ra,d05a <GPIO_Init>
C:/Repository/RISKYKVM/firmware/src/User/gpio.c:105
    //MOUSE PIN 5 - MMB setup for Scroll support
    //On this PCB it is Port B Pin 10
	EXTI_InitTypeDef EXTI_InitStructure = {0};
	NVIC_InitTypeDef NVIC_InitStructure = {0};

	RCC_APB2PeriphClockCmd(RCC_APB2Periph_AFIO, ENABLE);
    b688:	4585                	li	a1,1
    b68a:	4505                	li	a0,1
C:/Repository/RISKYKVM/firmware/src/User/gpio.c:102
	EXTI_InitTypeDef EXTI_InitStructure = {0};
    b68c:	d002                	sw	zero,32(sp)
    b68e:	d202                	sw	zero,36(sp)
    b690:	d402                	sw	zero,40(sp)
    b692:	d602                	sw	zero,44(sp)
C:/Repository/RISKYKVM/firmware/src/User/gpio.c:103
	NVIC_InitTypeDef NVIC_InitStructure = {0};
    b694:	c602                	sw	zero,12(sp)
    b696:	c802                	sw	zero,16(sp)
C:/Repository/RISKYKVM/firmware/src/User/gpio.c:105
	RCC_APB2PeriphClockCmd(RCC_APB2Periph_AFIO, ENABLE);
    b698:	03c020ef          	jal	ra,d6d4 <RCC_APB2PeriphClockCmd>
C:/Repository/RISKYKVM/firmware/src/User/gpio.c:106
	RCC_APB2PeriphClockCmd(RCC_APB2Periph_GPIOB, ENABLE);
    b69c:	4585                	li	a1,1
    b69e:	4521                	li	a0,8
    b6a0:	034020ef          	jal	ra,d6d4 <RCC_APB2PeriphClockCmd>
C:/Repository/RISKYKVM/firmware/src/User/gpio.c:109

	GPIO_InitStructure.GPIO_Pin = MB_Pin;
	GPIO_InitStructure.GPIO_Mode = GPIO_Mode_IPU;
    b6a4:	04800793          	li	a5,72
C:/Repository/RISKYKVM/firmware/src/User/gpio.c:110
	GPIO_Init(MB_GPIO_Port, &GPIO_InitStructure);
    b6a8:	084c                	addi	a1,sp,20
    b6aa:	c0040513          	addi	a0,s0,-1024
C:/Repository/RISKYKVM/firmware/src/User/gpio.c:109
	GPIO_InitStructure.GPIO_Mode = GPIO_Mode_IPU;
    b6ae:	ce3e                	sw	a5,28(sp)
C:/Repository/RISKYKVM/firmware/src/User/gpio.c:108
	GPIO_InitStructure.GPIO_Pin = MB_Pin;
    b6b0:	01311a23          	sh	s3,20(sp)
C:/Repository/RISKYKVM/firmware/src/User/gpio.c:110
	GPIO_Init(MB_GPIO_Port, &GPIO_InitStructure);
    b6b4:	1a7010ef          	jal	ra,d05a <GPIO_Init>
C:/Repository/RISKYKVM/firmware/src/User/gpio.c:113


	GPIO_EXTILineConfig(GPIO_PortSourceGPIOB, GPIO_PinSource10);
    b6b8:	45a9                	li	a1,10
    b6ba:	4505                	li	a0,1
    b6bc:	6d1010ef          	jal	ra,d58c <GPIO_EXTILineConfig>
C:/Repository/RISKYKVM/firmware/src/User/gpio.c:114
	EXTI_InitStructure.EXTI_Line = EXTI_Line10;
    b6c0:	40000793          	li	a5,1024
C:/Repository/RISKYKVM/firmware/src/User/gpio.c:117
	EXTI_InitStructure.EXTI_Mode = EXTI_Mode_Interrupt;
	EXTI_InitStructure.EXTI_Trigger = EXTI_Trigger_Falling;
	EXTI_InitStructure.EXTI_LineCmd = ENABLE;
    b6c4:	4405                	li	s0,1
C:/Repository/RISKYKVM/firmware/src/User/gpio.c:118
	EXTI_Init(&EXTI_InitStructure);
    b6c6:	1008                	addi	a0,sp,32
C:/Repository/RISKYKVM/firmware/src/User/gpio.c:114
	EXTI_InitStructure.EXTI_Line = EXTI_Line10;
    b6c8:	d03e                	sw	a5,32(sp)
C:/Repository/RISKYKVM/firmware/src/User/gpio.c:116
	EXTI_InitStructure.EXTI_Trigger = EXTI_Trigger_Falling;
    b6ca:	47b1                	li	a5,12
    b6cc:	d43e                	sw	a5,40(sp)
C:/Repository/RISKYKVM/firmware/src/User/gpio.c:117
	EXTI_InitStructure.EXTI_LineCmd = ENABLE;
    b6ce:	d622                	sw	s0,44(sp)
C:/Repository/RISKYKVM/firmware/src/User/gpio.c:115
	EXTI_InitStructure.EXTI_Mode = EXTI_Mode_Interrupt;
    b6d0:	d202                	sw	zero,36(sp)
C:/Repository/RISKYKVM/firmware/src/User/gpio.c:118
	EXTI_Init(&EXTI_InitStructure);
    b6d2:	0f3010ef          	jal	ra,cfc4 <EXTI_Init>
C:/Repository/RISKYKVM/firmware/src/User/gpio.c:124

	NVIC_InitStructure.NVIC_IRQChannel = EXTI15_10_IRQn;
	NVIC_InitStructure.NVIC_IRQChannelPreemptionPriority = 1;
	NVIC_InitStructure.NVIC_IRQChannelSubPriority = 1;
	NVIC_InitStructure.NVIC_IRQChannelCmd = ENABLE;
	NVIC_Init(&NVIC_InitStructure);
    b6d6:	0068                	addi	a0,sp,12
C:/Repository/RISKYKVM/firmware/src/User/gpio.c:120
	NVIC_InitStructure.NVIC_IRQChannel = EXTI15_10_IRQn;
    b6d8:	13800793          	li	a5,312
C:/Repository/RISKYKVM/firmware/src/User/gpio.c:122
	NVIC_InitStructure.NVIC_IRQChannelSubPriority = 1;
    b6dc:	00810723          	sb	s0,14(sp)
C:/Repository/RISKYKVM/firmware/src/User/gpio.c:123
	NVIC_InitStructure.NVIC_IRQChannelCmd = ENABLE;
    b6e0:	c822                	sw	s0,16(sp)
C:/Repository/RISKYKVM/firmware/src/User/gpio.c:120
	NVIC_InitStructure.NVIC_IRQChannel = EXTI15_10_IRQn;
    b6e2:	00f11623          	sh	a5,12(sp)
C:/Repository/RISKYKVM/firmware/src/User/gpio.c:124
	NVIC_Init(&NVIC_InitStructure);
    b6e6:	6d1010ef          	jal	ra,d5b6 <NVIC_Init>
C:/Repository/RISKYKVM/firmware/src/User/gpio.c:125
}
    b6ea:	40b6                	lw	ra,76(sp)
    b6ec:	4426                	lw	s0,72(sp)
    b6ee:	4496                	lw	s1,68(sp)
    b6f0:	4906                	lw	s2,64(sp)
    b6f2:	59f2                	lw	s3,60(sp)
    b6f4:	5a62                	lw	s4,56(sp)
    b6f6:	5ad2                	lw	s5,52(sp)
    b6f8:	5b42                	lw	s6,48(sp)
    b6fa:	6161                	addi	sp,sp,80
    b6fc:	8082                	ret

0000b6fe <amikb_send>:
amikb_send():
C:/Repository/RISKYKVM/firmware/src/User/keyboard.c:591
	keyboard_is_present = isready;
}


static led_status_t amikb_send(uint8_t keycode, int press)
{
    b6fe:	1101                	addi	sp,sp,-32
    b700:	ce06                	sw	ra,28(sp)
    b702:	cc22                	sw	s0,24(sp)
    b704:	ca26                	sw	s1,20(sp)
    b706:	c84a                	sw	s2,16(sp)
    b708:	c64e                	sw	s3,12(sp)
    b70a:	c452                	sw	s4,8(sp)
    b70c:	c256                	sw	s5,4(sp)
C:/Repository/RISKYKVM/firmware/src/User/keyboard.c:594
	led_status_t rval = NO_LED;

	if (keycode == 0x62 || keycode == 0x68 || keycode == 0x1c) // Caps Lock, Num Lock or Scroll Lock Pressed or Released
    b70e:	06200793          	li	a5,98
    b712:	16f50e63          	beq	a0,a5,b88e <amikb_send+0x190>
C:/Repository/RISKYKVM/firmware/src/User/keyboard.c:594 (discriminator 1)
    b716:	06800793          	li	a5,104
    b71a:	12f50663          	beq	a0,a5,b846 <amikb_send+0x148>
C:/Repository/RISKYKVM/firmware/src/User/keyboard.c:594 (discriminator 2)
    b71e:	47f1                	li	a5,28
    b720:	14f50663          	beq	a0,a5,b86c <amikb_send+0x16e>
C:/Repository/RISKYKVM/firmware/src/User/keyboard.c:712
		}
	}

	// keycode bit transfer order: 6 5 4 3 2 1 0 7 (7 is pressed flag)
	keycode = (keycode << 1) | (~press & 1);
	if (keycode == prev_keycode)
    b724:	200007b7          	lui	a5,0x20000
C:/Repository/RISKYKVM/firmware/src/User/keyboard.c:711
	keycode = (keycode << 1) | (~press & 1);
    b728:	fff5c593          	not	a1,a1
C:/Repository/RISKYKVM/firmware/src/User/keyboard.c:712
	if (keycode == prev_keycode)
    b72c:	00078793          	mv	a5,a5
C:/Repository/RISKYKVM/firmware/src/User/keyboard.c:711
	keycode = (keycode << 1) | (~press & 1);
    b730:	8985                	andi	a1,a1,1
    b732:	0506                	slli	a0,a0,0x1
C:/Repository/RISKYKVM/firmware/src/User/keyboard.c:712
	if (keycode == prev_keycode)
    b734:	0007c703          	lbu	a4,0(a5) # 20000000 <_data_vma>
C:/Repository/RISKYKVM/firmware/src/User/keyboard.c:711
	keycode = (keycode << 1) | (~press & 1);
    b738:	8d4d                	or	a0,a0,a1
    b73a:	0ff57413          	andi	s0,a0,255
C:/Repository/RISKYKVM/firmware/src/User/keyboard.c:715
	{
		//DBG_N("NO SENDING THE SAME KEYCODE TWO TIMES IN A ROW\r\n");
		return NO_LED;
    b73e:	4a01                	li	s4,0
C:/Repository/RISKYKVM/firmware/src/User/keyboard.c:712
	if (keycode == prev_keycode)
    b740:	02871b63          	bne	a4,s0,b776 <amikb_send+0x78>
C:/Repository/RISKYKVM/firmware/src/User/keyboard.c:757
	GPIO_WriteBit(KBD_DATA_GPIO_Port, KBD_DATA_Pin, Bit_SET); // Set KBD_DATA pin
	Delay_Us(100);


	return rval;
}
    b744:	40f2                	lw	ra,28(sp)
    b746:	4462                	lw	s0,24(sp)
    b748:	8552                	mv	a0,s4
    b74a:	44d2                	lw	s1,20(sp)
    b74c:	4942                	lw	s2,16(sp)
    b74e:	49b2                	lw	s3,12(sp)
    b750:	4a22                	lw	s4,8(sp)
    b752:	4a92                	lw	s5,4(sp)
    b754:	6105                	addi	sp,sp,32
    b756:	8082                	ret
C:/Repository/RISKYKVM/firmware/src/User/keyboard.c:687
					if (press)
    b758:	12059563          	bnez	a1,b882 <amikb_send+0x184>
C:/Repository/RISKYKVM/firmware/src/User/keyboard.c:694
						scrolllk = 0;
    b75c:	00078023          	sb	zero,0(a5)
C:/Repository/RISKYKVM/firmware/src/User/keyboard.c:695
						rval = LED_SCROLL_LOCK_OFF;
    b760:	4a19                	li	s4,6
C:/Repository/RISKYKVM/firmware/src/User/keyboard.c:711
	keycode = (keycode << 1) | (~press & 1);
    b762:	00151413          	slli	s0,a0,0x1
    b766:	00146413          	ori	s0,s0,1
    b76a:	200007b7          	lui	a5,0x20000
    b76e:	0ff47413          	andi	s0,s0,255
C:/Repository/RISKYKVM/firmware/src/User/keyboard.c:712
	if (keycode == prev_keycode)
    b772:	00078793          	mv	a5,a5
C:/Repository/RISKYKVM/firmware/src/User/keyboard.c:722
	GPIO_WriteBit(KBD_DATA_GPIO_Port, KBD_DATA_Pin, Bit_SET); // Normally KBD_DATA pin is HIGH
    b776:	6985                	lui	s3,0x1
    b778:	400114b7          	lui	s1,0x40011
    b77c:	80098593          	addi	a1,s3,-2048 # 800 <__stack_size>
    b780:	80048513          	addi	a0,s1,-2048 # 40010800 <_eusrstack+0x2000b800>
    b784:	4605                	li	a2,1
C:/Repository/RISKYKVM/firmware/src/User/keyboard.c:718
	prev_keycode = keycode;
    b786:	00878023          	sb	s0,0(a5) # 20000000 <_data_vma>
C:/Repository/RISKYKVM/firmware/src/User/keyboard.c:722
	GPIO_WriteBit(KBD_DATA_GPIO_Port, KBD_DATA_Pin, Bit_SET); // Normally KBD_DATA pin is HIGH
    b78a:	5cf010ef          	jal	ra,d558 <GPIO_WriteBit>
C:/Repository/RISKYKVM/firmware/src/User/keyboard.c:725
	GPIO_WriteBit(KBD_DATA_GPIO_Port, KBD_DATA_Pin, Bit_RESET); // KBD_DATA pin is LOW
    b78e:	80098593          	addi	a1,s3,-2048
    b792:	4601                	li	a2,0
    b794:	80048513          	addi	a0,s1,-2048
    b798:	5c1010ef          	jal	ra,d558 <GPIO_WriteBit>
C:/Repository/RISKYKVM/firmware/src/User/keyboard.c:726
	Delay_Us(100);
    b79c:	06400513          	li	a0,100
    b7a0:	092020ef          	jal	ra,d832 <Delay_Us>
C:/Repository/RISKYKVM/firmware/src/User/keyboard.c:727
	GPIO_WriteBit(KBD_DATA_GPIO_Port, KBD_DATA_Pin, Bit_SET); // KBD_DATA pin is HIGH
    b7a4:	80098593          	addi	a1,s3,-2048
    b7a8:	80048513          	addi	a0,s1,-2048
    b7ac:	4605                	li	a2,1
    b7ae:	5ab010ef          	jal	ra,d558 <GPIO_WriteBit>
C:/Repository/RISKYKVM/firmware/src/User/keyboard.c:728
	Delay_Us(100);
    b7b2:	06400513          	li	a0,100
C:/Repository/RISKYKVM/firmware/src/User/keyboard.c:730
	for (i = 0; i < 8; i++)
    b7b6:	87118913          	addi	s2,gp,-1935 # 20000071 <i>
C:/Repository/RISKYKVM/firmware/src/User/keyboard.c:728
	Delay_Us(100);
    b7ba:	078020ef          	jal	ra,d832 <Delay_Us>
C:/Repository/RISKYKVM/firmware/src/User/keyboard.c:741
			GPIO_WriteBit(KBD_DATA_GPIO_Port, KBD_DATA_Pin, Bit_SET);
    b7be:	80098993          	addi	s3,s3,-2048
C:/Repository/RISKYKVM/firmware/src/User/keyboard.c:730
	for (i = 0; i < 8; i++)
    b7c2:	00090023          	sb	zero,0(s2)
C:/Repository/RISKYKVM/firmware/src/User/keyboard.c:741
			GPIO_WriteBit(KBD_DATA_GPIO_Port, KBD_DATA_Pin, Bit_SET);
    b7c6:	80048493          	addi	s1,s1,-2048
C:/Repository/RISKYKVM/firmware/src/User/keyboard.c:730
	for (i = 0; i < 8; i++)
    b7ca:	4a9d                	li	s5,7
C:/Repository/RISKYKVM/firmware/src/User/keyboard.c:733
		if (keycode & 0x80)
    b7cc:	01841793          	slli	a5,s0,0x18
    b7d0:	87e1                	srai	a5,a5,0x18
C:/Repository/RISKYKVM/firmware/src/User/keyboard.c:741
			GPIO_WriteBit(KBD_DATA_GPIO_Port, KBD_DATA_Pin, Bit_SET);
    b7d2:	4605                	li	a2,1
    b7d4:	85ce                	mv	a1,s3
    b7d6:	8526                	mv	a0,s1
C:/Repository/RISKYKVM/firmware/src/User/keyboard.c:733
		if (keycode & 0x80)
    b7d8:	0007d363          	bgez	a5,b7de <amikb_send+0xe0>
C:/Repository/RISKYKVM/firmware/src/User/keyboard.c:736
			GPIO_WriteBit(KBD_DATA_GPIO_Port, KBD_DATA_Pin, Bit_RESET);
    b7dc:	4601                	li	a2,0
C:/Repository/RISKYKVM/firmware/src/User/keyboard.c:741
			GPIO_WriteBit(KBD_DATA_GPIO_Port, KBD_DATA_Pin, Bit_SET);
    b7de:	57b010ef          	jal	ra,d558 <GPIO_WriteBit>
C:/Repository/RISKYKVM/firmware/src/User/keyboard.c:744
		Delay_Us(10);
    b7e2:	4529                	li	a0,10
    b7e4:	04e020ef          	jal	ra,d832 <Delay_Us>
C:/Repository/RISKYKVM/firmware/src/User/keyboard.c:746
		GPIO_WriteBit(KBD_CLOCK_GPIO_Port, KBD_CLOCK_Pin, Bit_RESET); // Clear KBD_CLOCK pin
    b7e8:	4601                	li	a2,0
    b7ea:	6585                	lui	a1,0x1
    b7ec:	8526                	mv	a0,s1
    b7ee:	56b010ef          	jal	ra,d558 <GPIO_WriteBit>
C:/Repository/RISKYKVM/firmware/src/User/keyboard.c:747
		Delay_Us(10);
    b7f2:	4529                	li	a0,10
    b7f4:	03e020ef          	jal	ra,d832 <Delay_Us>
C:/Repository/RISKYKVM/firmware/src/User/keyboard.c:748
		GPIO_WriteBit(KBD_CLOCK_GPIO_Port, KBD_CLOCK_Pin, Bit_SET); // Set KBD_CLOCK pin
    b7f8:	4605                	li	a2,1
    b7fa:	6585                	lui	a1,0x1
    b7fc:	8526                	mv	a0,s1
    b7fe:	55b010ef          	jal	ra,d558 <GPIO_WriteBit>
C:/Repository/RISKYKVM/firmware/src/User/keyboard.c:749
		Delay_Us(10);
    b802:	4529                	li	a0,10
    b804:	02e020ef          	jal	ra,d832 <Delay_Us>
C:/Repository/RISKYKVM/firmware/src/User/keyboard.c:730
	for (i = 0; i < 8; i++)
    b808:	00094783          	lbu	a5,0(s2)
C:/Repository/RISKYKVM/firmware/src/User/keyboard.c:743
		keycode <<= 1;
    b80c:	0406                	slli	s0,s0,0x1
    b80e:	0ff47413          	andi	s0,s0,255
C:/Repository/RISKYKVM/firmware/src/User/keyboard.c:730
	for (i = 0; i < 8; i++)
    b812:	0785                	addi	a5,a5,1
    b814:	0ff7f793          	andi	a5,a5,255
    b818:	00f90023          	sb	a5,0(s2)
    b81c:	fafaf8e3          	bgeu	s5,a5,b7cc <amikb_send+0xce>
C:/Repository/RISKYKVM/firmware/src/User/keyboard.c:751
	Delay_Us(100);
    b820:	06400513          	li	a0,100
    b824:	00e020ef          	jal	ra,d832 <Delay_Us>
C:/Repository/RISKYKVM/firmware/src/User/keyboard.c:752
	GPIO_WriteBit(KBD_DATA_GPIO_Port, KBD_DATA_Pin, Bit_SET); // Set KBD_DATA pin
    b828:	40011537          	lui	a0,0x40011
    b82c:	6585                	lui	a1,0x1
    b82e:	80050513          	addi	a0,a0,-2048 # 40010800 <_eusrstack+0x2000b800>
    b832:	4605                	li	a2,1
    b834:	80058593          	addi	a1,a1,-2048 # 800 <__stack_size>
    b838:	521010ef          	jal	ra,d558 <GPIO_WriteBit>
C:/Repository/RISKYKVM/firmware/src/User/keyboard.c:753
	Delay_Us(100);
    b83c:	06400513          	li	a0,100
    b840:	7f3010ef          	jal	ra,d832 <Delay_Us>
C:/Repository/RISKYKVM/firmware/src/User/keyboard.c:756
	return rval;
    b844:	b701                	j	b744 <amikb_send+0x46>
C:/Repository/RISKYKVM/firmware/src/User/keyboard.c:636
				if (!numlk)
    b846:	87218793          	addi	a5,gp,-1934 # 20000072 <numlk>
    b84a:	0007c703          	lbu	a4,0(a5)
    b84e:	ef39                	bnez	a4,b8ac <amikb_send+0x1ae>
C:/Repository/RISKYKVM/firmware/src/User/keyboard.c:640
						rval = LED_NUM_LOCK_ON;
    b850:	4a09                	li	s4,2
C:/Repository/RISKYKVM/firmware/src/User/keyboard.c:638
					if (press)
    b852:	c58d                	beqz	a1,b87c <amikb_send+0x17e>
C:/Repository/RISKYKVM/firmware/src/User/keyboard.c:711
	keycode = (keycode << 1) | (~press & 1);
    b854:	fff5c593          	not	a1,a1
    b858:	8985                	andi	a1,a1,1
    b85a:	0506                	slli	a0,a0,0x1
    b85c:	8d4d                	or	a0,a0,a1
    b85e:	200007b7          	lui	a5,0x20000
    b862:	0ff57413          	andi	s0,a0,255
C:/Repository/RISKYKVM/firmware/src/User/keyboard.c:712
	if (keycode == prev_keycode)
    b866:	00078793          	mv	a5,a5
    b86a:	b731                	j	b776 <amikb_send+0x78>
C:/Repository/RISKYKVM/firmware/src/User/keyboard.c:669
				if (!scrolllk)
    b86c:	87318793          	addi	a5,gp,-1933 # 20000073 <scrolllk>
    b870:	0007c703          	lbu	a4,0(a5) # 20000000 <_data_vma>
    b874:	ee0712e3          	bnez	a4,b758 <amikb_send+0x5a>
C:/Repository/RISKYKVM/firmware/src/User/keyboard.c:673
						rval = LED_SCROLL_LOCK_ON;
    b878:	4a0d                	li	s4,3
C:/Repository/RISKYKVM/firmware/src/User/keyboard.c:671
					if (press)
    b87a:	fde9                	bnez	a1,b854 <amikb_send+0x156>
C:/Repository/RISKYKVM/firmware/src/User/keyboard.c:680
						scrolllk = 1;
    b87c:	4705                	li	a4,1
    b87e:	00e78023          	sb	a4,0(a5)
C:/Repository/RISKYKVM/firmware/src/User/keyboard.c:681
						prev_keycode = 0;
    b882:	200007b7          	lui	a5,0x20000
    b886:	00078023          	sb	zero,0(a5) # 20000000 <_data_vma>
C:/Repository/RISKYKVM/firmware/src/User/keyboard.c:682
						return NO_LED;
    b88a:	4a01                	li	s4,0
    b88c:	bd65                	j	b744 <amikb_send+0x46>
C:/Repository/RISKYKVM/firmware/src/User/keyboard.c:603
				if (!capslk)
    b88e:	87018793          	addi	a5,gp,-1936 # 20000070 <_edata>
    b892:	0007c703          	lbu	a4,0(a5)
    b896:	e305                	bnez	a4,b8b6 <amikb_send+0x1b8>
C:/Repository/RISKYKVM/firmware/src/User/keyboard.c:607
						rval = LED_CAPS_LOCK_ON;
    b898:	4a05                	li	s4,1
C:/Repository/RISKYKVM/firmware/src/User/keyboard.c:605
					if (press)
    b89a:	fdcd                	bnez	a1,b854 <amikb_send+0x156>
C:/Repository/RISKYKVM/firmware/src/User/keyboard.c:614
						capslk = 1;
    b89c:	01478023          	sb	s4,0(a5)
C:/Repository/RISKYKVM/firmware/src/User/keyboard.c:615
						prev_keycode = 0;
    b8a0:	200007b7          	lui	a5,0x20000
    b8a4:	00078023          	sb	zero,0(a5) # 20000000 <_data_vma>
C:/Repository/RISKYKVM/firmware/src/User/keyboard.c:616
						return NO_LED;
    b8a8:	4a01                	li	s4,0
    b8aa:	bd69                	j	b744 <amikb_send+0x46>
C:/Repository/RISKYKVM/firmware/src/User/keyboard.c:654
					if (press)
    b8ac:	f9f9                	bnez	a1,b882 <amikb_send+0x184>
C:/Repository/RISKYKVM/firmware/src/User/keyboard.c:661
						numlk = 0;
    b8ae:	00078023          	sb	zero,0(a5)
C:/Repository/RISKYKVM/firmware/src/User/keyboard.c:662
						rval = LED_NUM_LOCK_OFF;
    b8b2:	4a15                	li	s4,5
C:/Repository/RISKYKVM/firmware/src/User/keyboard.c:664
						break;
    b8b4:	b57d                	j	b762 <amikb_send+0x64>
C:/Repository/RISKYKVM/firmware/src/User/keyboard.c:621
					if (press)
    b8b6:	f5f1                	bnez	a1,b882 <amikb_send+0x184>
C:/Repository/RISKYKVM/firmware/src/User/keyboard.c:628
						capslk = 0;
    b8b8:	00078023          	sb	zero,0(a5)
C:/Repository/RISKYKVM/firmware/src/User/keyboard.c:629
						rval = LED_CAPS_LOCK_OFF;
    b8bc:	4a11                	li	s4,4
C:/Repository/RISKYKVM/firmware/src/User/keyboard.c:631
						break;
    b8be:	bf59                	j	b854 <amikb_send+0x156>

0000b8c0 <amikb_process>:
amikb_process():
C:/Repository/RISKYKVM/firmware/src/User/keyboard.c:800

void amikb_process(HID_Keyboard_Data *kbdata)
{


	if (kbdata == NULL) return;
    b8c0:	64050563          	beqz	a0,bf0a <amikb_process+0x64a>
C:/Repository/RISKYKVM/firmware/src/User/keyboard.c:797
{
    b8c4:	7179                	addi	sp,sp,-48
    b8c6:	d422                	sw	s0,40(sp)
    b8c8:	d606                	sw	ra,44(sp)
    b8ca:	d226                	sw	s1,36(sp)
    b8cc:	d04a                	sw	s2,32(sp)
    b8ce:	ce4e                	sw	s3,28(sp)
    b8d0:	cc52                	sw	s4,24(sp)
    b8d2:	ca56                	sw	s5,20(sp)
    b8d4:	c85a                	sw	s6,16(sp)
C:/Repository/RISKYKVM/firmware/src/User/keyboard.c:806

	int i;
	int j;
	led_status_t rval = NO_LED; /* 0 means no USB interaction such as leds, ... */

	if(kbdata->keys[0] == KEY_F12)
    b8d6:	00854703          	lbu	a4,8(a0)
    b8da:	04500793          	li	a5,69
    b8de:	842a                	mv	s0,a0
    b8e0:	62f70663          	beq	a4,a5,bf0c <amikb_process+0x64c>
C:/Repository/RISKYKVM/firmware/src/User/keyboard.c:813
	    amikb_irq();
	    return;
	}

	//check for reset
	if(kbdata->lctrl == 1 && kbdata->lalt ==1 &&kbdata->keys[0]==KEY_DELETE  )
    b8e4:	00054783          	lbu	a5,0(a0)
    b8e8:	4685                	li	a3,1
    b8ea:	52d78d63          	beq	a5,a3,be24 <amikb_process+0x564>
C:/Repository/RISKYKVM/firmware/src/User/keyboard.c:819
	{
		amikb_reset();
		return;
	}

    if(kbdata->lgui == 1 && kbdata->rgui ==1 &&kbdata->rctrl )
    b8ee:	00344703          	lbu	a4,3(s0)
    b8f2:	4685                	li	a3,1
    b8f4:	5ad70463          	beq	a4,a3,be9c <amikb_process+0x5dc>
C:/Repository/RISKYKVM/firmware/src/User/keyboard.c:834
    }

	// ----------------------------------------------- LEFT

	// LEFT SHIFT
	if (prevkeycode.lshift != kbdata->lshift)
    b8f8:	8c818493          	addi	s1,gp,-1848 # 200000c8 <prevkeycode>
    b8fc:	00144583          	lbu	a1,1(s0)
    b900:	0014c783          	lbu	a5,1(s1)
    b904:	02b78d63          	beq	a5,a1,b93e <amikb_process+0x7e>
C:/Repository/RISKYKVM/firmware/src/User/keyboard.c:836
	{
		prevkeycode.lshift = kbdata->lshift;
    b908:	67b9                	lui	a5,0xe
    b90a:	9b478693          	addi	a3,a5,-1612 # d9b4 <scancodeamiga>
    b90e:	00b480a3          	sb	a1,1(s1)
scancode_to_amiga():
C:/Repository/RISKYKVM/firmware/src/User/keyboard.c:553
	for (i = 0; i < KEYCODE_TAB_SIZE; i++)
    b912:	9b478793          	addi	a5,a5,-1612
amikb_process():
C:/Repository/RISKYKVM/firmware/src/User/keyboard.c:836
		prevkeycode.lshift = kbdata->lshift;
    b916:	4701                	li	a4,0
scancode_to_amiga():
C:/Repository/RISKYKVM/firmware/src/User/keyboard.c:556
		if (lkey == scancodeamiga[i][0])
    b918:	0e100513          	li	a0,225
C:/Repository/RISKYKVM/firmware/src/User/keyboard.c:553
	for (i = 0; i < KEYCODE_TAB_SIZE; i++)
    b91c:	07200813          	li	a6,114
    b920:	a021                	j	b928 <amikb_process+0x68>
    b922:	0705                	addi	a4,a4,1
    b924:	65070063          	beq	a4,a6,bf64 <amikb_process+0x6a4>
C:/Repository/RISKYKVM/firmware/src/User/keyboard.c:556
		if (lkey == scancodeamiga[i][0])
    b928:	0007c603          	lbu	a2,0(a5)
    b92c:	0789                	addi	a5,a5,2
    b92e:	fea61ae3          	bne	a2,a0,b922 <amikb_process+0x62>
C:/Repository/RISKYKVM/firmware/src/User/keyboard.c:558
			keyvalue = scancodeamiga[i][1];
    b932:	00171793          	slli	a5,a4,0x1
    b936:	97b6                	add	a5,a5,a3
    b938:	0017c503          	lbu	a0,1(a5)
amikb_process():
C:/Repository/RISKYKVM/firmware/src/User/keyboard.c:837
		rval |= amikb_send(scancode_to_amiga(KEY_LEFTSHIFT), kbdata->lshift);
    b93c:	33c9                	jal	b6fe <amikb_send>
C:/Repository/RISKYKVM/firmware/src/User/keyboard.c:841
	}

	// LEFT ALT
	if (prevkeycode.lalt != kbdata->lalt)
    b93e:	00244583          	lbu	a1,2(s0)
    b942:	0024c783          	lbu	a5,2(s1)
    b946:	02b78d63          	beq	a5,a1,b980 <amikb_process+0xc0>
C:/Repository/RISKYKVM/firmware/src/User/keyboard.c:843
	{
		prevkeycode.lalt = kbdata->lalt;
    b94a:	67b9                	lui	a5,0xe
    b94c:	9b478693          	addi	a3,a5,-1612 # d9b4 <scancodeamiga>
    b950:	00b48123          	sb	a1,2(s1)
scancode_to_amiga():
C:/Repository/RISKYKVM/firmware/src/User/keyboard.c:553
	for (i = 0; i < KEYCODE_TAB_SIZE; i++)
    b954:	9b478793          	addi	a5,a5,-1612
amikb_process():
C:/Repository/RISKYKVM/firmware/src/User/keyboard.c:843
		prevkeycode.lalt = kbdata->lalt;
    b958:	4701                	li	a4,0
scancode_to_amiga():
C:/Repository/RISKYKVM/firmware/src/User/keyboard.c:556
		if (lkey == scancodeamiga[i][0])
    b95a:	0e200513          	li	a0,226
C:/Repository/RISKYKVM/firmware/src/User/keyboard.c:553
	for (i = 0; i < KEYCODE_TAB_SIZE; i++)
    b95e:	07200813          	li	a6,114
    b962:	a021                	j	b96a <amikb_process+0xaa>
    b964:	0705                	addi	a4,a4,1
    b966:	5f070c63          	beq	a4,a6,bf5e <amikb_process+0x69e>
C:/Repository/RISKYKVM/firmware/src/User/keyboard.c:556
		if (lkey == scancodeamiga[i][0])
    b96a:	0007c603          	lbu	a2,0(a5)
    b96e:	0789                	addi	a5,a5,2
    b970:	fea61ae3          	bne	a2,a0,b964 <amikb_process+0xa4>
C:/Repository/RISKYKVM/firmware/src/User/keyboard.c:558
			keyvalue = scancodeamiga[i][1];
    b974:	00171793          	slli	a5,a4,0x1
    b978:	97b6                	add	a5,a5,a3
    b97a:	0017c503          	lbu	a0,1(a5)
amikb_process():
C:/Repository/RISKYKVM/firmware/src/User/keyboard.c:844
		rval |= amikb_send(scancode_to_amiga(KEY_LEFTALT), kbdata->lalt);
    b97e:	3341                	jal	b6fe <amikb_send>
C:/Repository/RISKYKVM/firmware/src/User/keyboard.c:848
	}

	// LEFT CTRL
	if (prevkeycode.lctrl != kbdata->lctrl)
    b980:	00044583          	lbu	a1,0(s0)
    b984:	0004c783          	lbu	a5,0(s1)
    b988:	02b78d63          	beq	a5,a1,b9c2 <amikb_process+0x102>
C:/Repository/RISKYKVM/firmware/src/User/keyboard.c:850
	{
		prevkeycode.lctrl = kbdata->lctrl;
    b98c:	67b9                	lui	a5,0xe
    b98e:	9b478693          	addi	a3,a5,-1612 # d9b4 <scancodeamiga>
    b992:	00b48023          	sb	a1,0(s1)
scancode_to_amiga():
C:/Repository/RISKYKVM/firmware/src/User/keyboard.c:553
	for (i = 0; i < KEYCODE_TAB_SIZE; i++)
    b996:	9b478793          	addi	a5,a5,-1612
amikb_process():
C:/Repository/RISKYKVM/firmware/src/User/keyboard.c:850
		prevkeycode.lctrl = kbdata->lctrl;
    b99a:	4701                	li	a4,0
scancode_to_amiga():
C:/Repository/RISKYKVM/firmware/src/User/keyboard.c:556
		if (lkey == scancodeamiga[i][0])
    b99c:	0e000513          	li	a0,224
C:/Repository/RISKYKVM/firmware/src/User/keyboard.c:553
	for (i = 0; i < KEYCODE_TAB_SIZE; i++)
    b9a0:	07200813          	li	a6,114
    b9a4:	a021                	j	b9ac <amikb_process+0xec>
    b9a6:	0705                	addi	a4,a4,1
    b9a8:	5b070863          	beq	a4,a6,bf58 <amikb_process+0x698>
C:/Repository/RISKYKVM/firmware/src/User/keyboard.c:556
		if (lkey == scancodeamiga[i][0])
    b9ac:	0007c603          	lbu	a2,0(a5)
    b9b0:	0789                	addi	a5,a5,2
    b9b2:	fea61ae3          	bne	a2,a0,b9a6 <amikb_process+0xe6>
C:/Repository/RISKYKVM/firmware/src/User/keyboard.c:558
			keyvalue = scancodeamiga[i][1];
    b9b6:	00171793          	slli	a5,a4,0x1
    b9ba:	97b6                	add	a5,a5,a3
    b9bc:	0017c503          	lbu	a0,1(a5)
amikb_process():
C:/Repository/RISKYKVM/firmware/src/User/keyboard.c:851
		rval |= amikb_send(scancode_to_amiga(KEY_LEFTCONTROL), kbdata->lctrl);
    b9c0:	3b3d                	jal	b6fe <amikb_send>
C:/Repository/RISKYKVM/firmware/src/User/keyboard.c:855
	}

	// LEFT GUI
	if (prevkeycode.lgui != kbdata->lgui)
    b9c2:	00344583          	lbu	a1,3(s0)
    b9c6:	0034c783          	lbu	a5,3(s1)
    b9ca:	02b78d63          	beq	a5,a1,ba04 <amikb_process+0x144>
C:/Repository/RISKYKVM/firmware/src/User/keyboard.c:857
	{
		prevkeycode.lgui = kbdata->lgui;
    b9ce:	67b9                	lui	a5,0xe
    b9d0:	9b478693          	addi	a3,a5,-1612 # d9b4 <scancodeamiga>
    b9d4:	00b481a3          	sb	a1,3(s1)
scancode_to_amiga():
C:/Repository/RISKYKVM/firmware/src/User/keyboard.c:553
	for (i = 0; i < KEYCODE_TAB_SIZE; i++)
    b9d8:	9b478793          	addi	a5,a5,-1612
amikb_process():
C:/Repository/RISKYKVM/firmware/src/User/keyboard.c:857
		prevkeycode.lgui = kbdata->lgui;
    b9dc:	4701                	li	a4,0
scancode_to_amiga():
C:/Repository/RISKYKVM/firmware/src/User/keyboard.c:556
		if (lkey == scancodeamiga[i][0])
    b9de:	0e300513          	li	a0,227
C:/Repository/RISKYKVM/firmware/src/User/keyboard.c:553
	for (i = 0; i < KEYCODE_TAB_SIZE; i++)
    b9e2:	07200813          	li	a6,114
    b9e6:	a021                	j	b9ee <amikb_process+0x12e>
    b9e8:	0705                	addi	a4,a4,1
    b9ea:	59070363          	beq	a4,a6,bf70 <amikb_process+0x6b0>
C:/Repository/RISKYKVM/firmware/src/User/keyboard.c:556
		if (lkey == scancodeamiga[i][0])
    b9ee:	0007c603          	lbu	a2,0(a5)
    b9f2:	0789                	addi	a5,a5,2
    b9f4:	fea61ae3          	bne	a2,a0,b9e8 <amikb_process+0x128>
C:/Repository/RISKYKVM/firmware/src/User/keyboard.c:558
			keyvalue = scancodeamiga[i][1];
    b9f8:	00171793          	slli	a5,a4,0x1
    b9fc:	97b6                	add	a5,a5,a3
    b9fe:	0017c503          	lbu	a0,1(a5)
amikb_process():
C:/Repository/RISKYKVM/firmware/src/User/keyboard.c:858
		rval |= amikb_send(scancode_to_amiga(KEY_LEFT_GUI),  kbdata->lgui);
    ba02:	39f5                	jal	b6fe <amikb_send>
C:/Repository/RISKYKVM/firmware/src/User/keyboard.c:863
	}

	// ----------------------------------------------- RIGHT
	// RIGHT SHIFT
	if (prevkeycode.rshift != kbdata->rshift)
    ba04:	00544583          	lbu	a1,5(s0)
    ba08:	0054c783          	lbu	a5,5(s1)
    ba0c:	02b78d63          	beq	a5,a1,ba46 <amikb_process+0x186>
C:/Repository/RISKYKVM/firmware/src/User/keyboard.c:865
	{
		prevkeycode.rshift = kbdata->rshift;
    ba10:	67b9                	lui	a5,0xe
    ba12:	9b478693          	addi	a3,a5,-1612 # d9b4 <scancodeamiga>
    ba16:	00b482a3          	sb	a1,5(s1)
scancode_to_amiga():
C:/Repository/RISKYKVM/firmware/src/User/keyboard.c:553
	for (i = 0; i < KEYCODE_TAB_SIZE; i++)
    ba1a:	9b478793          	addi	a5,a5,-1612
amikb_process():
C:/Repository/RISKYKVM/firmware/src/User/keyboard.c:865
		prevkeycode.rshift = kbdata->rshift;
    ba1e:	4701                	li	a4,0
scancode_to_amiga():
C:/Repository/RISKYKVM/firmware/src/User/keyboard.c:556
		if (lkey == scancodeamiga[i][0])
    ba20:	0e500513          	li	a0,229
C:/Repository/RISKYKVM/firmware/src/User/keyboard.c:553
	for (i = 0; i < KEYCODE_TAB_SIZE; i++)
    ba24:	07200813          	li	a6,114
    ba28:	a021                	j	ba30 <amikb_process+0x170>
    ba2a:	0705                	addi	a4,a4,1
    ba2c:	55070563          	beq	a4,a6,bf76 <amikb_process+0x6b6>
C:/Repository/RISKYKVM/firmware/src/User/keyboard.c:556
		if (lkey == scancodeamiga[i][0])
    ba30:	0007c603          	lbu	a2,0(a5)
    ba34:	0789                	addi	a5,a5,2
    ba36:	fea61ae3          	bne	a2,a0,ba2a <amikb_process+0x16a>
C:/Repository/RISKYKVM/firmware/src/User/keyboard.c:558
			keyvalue = scancodeamiga[i][1];
    ba3a:	00171793          	slli	a5,a4,0x1
    ba3e:	97b6                	add	a5,a5,a3
    ba40:	0017c503          	lbu	a0,1(a5)
amikb_process():
C:/Repository/RISKYKVM/firmware/src/User/keyboard.c:866
		rval |= amikb_send(scancode_to_amiga(KEY_RIGHTSHIFT), kbdata->rshift);
    ba44:	396d                	jal	b6fe <amikb_send>
C:/Repository/RISKYKVM/firmware/src/User/keyboard.c:870
	}

	// RIGHT ALT
	if (prevkeycode.ralt != kbdata->ralt)
    ba46:	00644583          	lbu	a1,6(s0)
    ba4a:	0064c783          	lbu	a5,6(s1)
    ba4e:	02b78d63          	beq	a5,a1,ba88 <amikb_process+0x1c8>
C:/Repository/RISKYKVM/firmware/src/User/keyboard.c:872
	{
		prevkeycode.ralt = kbdata->ralt;
    ba52:	67b9                	lui	a5,0xe
    ba54:	9b478693          	addi	a3,a5,-1612 # d9b4 <scancodeamiga>
    ba58:	00b48323          	sb	a1,6(s1)
scancode_to_amiga():
C:/Repository/RISKYKVM/firmware/src/User/keyboard.c:553
	for (i = 0; i < KEYCODE_TAB_SIZE; i++)
    ba5c:	9b478793          	addi	a5,a5,-1612
amikb_process():
C:/Repository/RISKYKVM/firmware/src/User/keyboard.c:872
		prevkeycode.ralt = kbdata->ralt;
    ba60:	4701                	li	a4,0
scancode_to_amiga():
C:/Repository/RISKYKVM/firmware/src/User/keyboard.c:556
		if (lkey == scancodeamiga[i][0])
    ba62:	0e600513          	li	a0,230
C:/Repository/RISKYKVM/firmware/src/User/keyboard.c:553
	for (i = 0; i < KEYCODE_TAB_SIZE; i++)
    ba66:	07200813          	li	a6,114
    ba6a:	a021                	j	ba72 <amikb_process+0x1b2>
    ba6c:	0705                	addi	a4,a4,1
    ba6e:	51070763          	beq	a4,a6,bf7c <amikb_process+0x6bc>
C:/Repository/RISKYKVM/firmware/src/User/keyboard.c:556
		if (lkey == scancodeamiga[i][0])
    ba72:	0007c603          	lbu	a2,0(a5)
    ba76:	0789                	addi	a5,a5,2
    ba78:	fea61ae3          	bne	a2,a0,ba6c <amikb_process+0x1ac>
C:/Repository/RISKYKVM/firmware/src/User/keyboard.c:558
			keyvalue = scancodeamiga[i][1];
    ba7c:	00171793          	slli	a5,a4,0x1
    ba80:	97b6                	add	a5,a5,a3
    ba82:	0017c503          	lbu	a0,1(a5)
amikb_process():
C:/Repository/RISKYKVM/firmware/src/User/keyboard.c:873
		rval |= amikb_send(scancode_to_amiga(KEY_RIGHTALT), kbdata->ralt);
    ba86:	39a5                	jal	b6fe <amikb_send>
C:/Repository/RISKYKVM/firmware/src/User/keyboard.c:877
	}

	// RIGHT CTRL
	if (prevkeycode.rctrl != kbdata->rctrl)
    ba88:	00444583          	lbu	a1,4(s0)
    ba8c:	0044c783          	lbu	a5,4(s1)
    ba90:	02b78d63          	beq	a5,a1,baca <amikb_process+0x20a>
C:/Repository/RISKYKVM/firmware/src/User/keyboard.c:879
	{
		prevkeycode.rctrl = kbdata->rctrl;
    ba94:	67b9                	lui	a5,0xe
    ba96:	9b478693          	addi	a3,a5,-1612 # d9b4 <scancodeamiga>
    ba9a:	00b48223          	sb	a1,4(s1)
scancode_to_amiga():
C:/Repository/RISKYKVM/firmware/src/User/keyboard.c:553
	for (i = 0; i < KEYCODE_TAB_SIZE; i++)
    ba9e:	9b478793          	addi	a5,a5,-1612
amikb_process():
C:/Repository/RISKYKVM/firmware/src/User/keyboard.c:879
		prevkeycode.rctrl = kbdata->rctrl;
    baa2:	4701                	li	a4,0
scancode_to_amiga():
C:/Repository/RISKYKVM/firmware/src/User/keyboard.c:556
		if (lkey == scancodeamiga[i][0])
    baa4:	0e400513          	li	a0,228
C:/Repository/RISKYKVM/firmware/src/User/keyboard.c:553
	for (i = 0; i < KEYCODE_TAB_SIZE; i++)
    baa8:	07200813          	li	a6,114
    baac:	a021                	j	bab4 <amikb_process+0x1f4>
    baae:	0705                	addi	a4,a4,1
    bab0:	4d070963          	beq	a4,a6,bf82 <amikb_process+0x6c2>
C:/Repository/RISKYKVM/firmware/src/User/keyboard.c:556
		if (lkey == scancodeamiga[i][0])
    bab4:	0007c603          	lbu	a2,0(a5)
    bab8:	0789                	addi	a5,a5,2
    baba:	fea61ae3          	bne	a2,a0,baae <amikb_process+0x1ee>
C:/Repository/RISKYKVM/firmware/src/User/keyboard.c:558
			keyvalue = scancodeamiga[i][1];
    babe:	00171793          	slli	a5,a4,0x1
    bac2:	97b6                	add	a5,a5,a3
    bac4:	0017c503          	lbu	a0,1(a5)
amikb_process():
C:/Repository/RISKYKVM/firmware/src/User/keyboard.c:880
		rval |= amikb_send(scancode_to_amiga(KEY_RIGHTCONTROL), kbdata->rctrl);
    bac8:	391d                	jal	b6fe <amikb_send>
C:/Repository/RISKYKVM/firmware/src/User/keyboard.c:884
	}

	// RIGHT GUI
	if (prevkeycode.rgui != kbdata->rgui)
    baca:	00744583          	lbu	a1,7(s0)
    bace:	0074c783          	lbu	a5,7(s1)
    bad2:	02b78e63          	beq	a5,a1,bb0e <amikb_process+0x24e>
C:/Repository/RISKYKVM/firmware/src/User/keyboard.c:886
	{
		prevkeycode.rgui = kbdata->rgui;
    bad6:	67b9                	lui	a5,0xe
    bad8:	9b478693          	addi	a3,a5,-1612 # d9b4 <scancodeamiga>
    badc:	00b483a3          	sb	a1,7(s1)
scancode_to_amiga():
C:/Repository/RISKYKVM/firmware/src/User/keyboard.c:553
	for (i = 0; i < KEYCODE_TAB_SIZE; i++)
    bae0:	9b478793          	addi	a5,a5,-1612
amikb_process():
C:/Repository/RISKYKVM/firmware/src/User/keyboard.c:886
		prevkeycode.rgui = kbdata->rgui;
    bae4:	4701                	li	a4,0
scancode_to_amiga():
C:/Repository/RISKYKVM/firmware/src/User/keyboard.c:556
		if (lkey == scancodeamiga[i][0])
    bae6:	0e700513          	li	a0,231
C:/Repository/RISKYKVM/firmware/src/User/keyboard.c:553
	for (i = 0; i < KEYCODE_TAB_SIZE; i++)
    baea:	07200813          	li	a6,114
    baee:	a021                	j	baf6 <amikb_process+0x236>
    baf0:	0705                	addi	a4,a4,1
    baf2:	47070c63          	beq	a4,a6,bf6a <amikb_process+0x6aa>
C:/Repository/RISKYKVM/firmware/src/User/keyboard.c:556
		if (lkey == scancodeamiga[i][0])
    baf6:	0007c603          	lbu	a2,0(a5)
    bafa:	0789                	addi	a5,a5,2
    bafc:	fea61ae3          	bne	a2,a0,baf0 <amikb_process+0x230>
C:/Repository/RISKYKVM/firmware/src/User/keyboard.c:558
			keyvalue = scancodeamiga[i][1];
    bb00:	0706                	slli	a4,a4,0x1
    bb02:	00e687b3          	add	a5,a3,a4
    bb06:	0017c503          	lbu	a0,1(a5)
amikb_process():
C:/Repository/RISKYKVM/firmware/src/User/keyboard.c:887
		rval |= amikb_send(scancode_to_amiga(KEY_RIGHT_GUI), kbdata->rgui);
    bb0a:	bf5ff0ef          	jal	ra,b6fe <amikb_send>
C:/Repository/RISKYKVM/firmware/src/User/keyboard.c:905
	for (i = 0; i < KEY_PRESSED_MAX; i++)
	{
		int found = 0;
		for (j = 0; j < KEY_PRESSED_MAX; j++)
		{
			if (prevkeycode.keys[i] == kbdata->keys[j] )
    bb0e:	00944683          	lbu	a3,9(s0)
    bb12:	0084c503          	lbu	a0,8(s1)
C:/Repository/RISKYKVM/firmware/src/User/keyboard.c:893
	uint8_t keysToPress[KEY_PRESSED_MAX] = {0};
    bb16:	c002                	sw	zero,0(sp)
    bb18:	00011223          	sh	zero,4(sp)
C:/Repository/RISKYKVM/firmware/src/User/keyboard.c:894
	uint8_t keysToRelease[KEY_PRESSED_MAX] = {0} ;
    bb1c:	c402                	sw	zero,8(sp)
    bb1e:	00011623          	sh	zero,12(sp)
C:/Repository/RISKYKVM/firmware/src/User/keyboard.c:905
			if (prevkeycode.keys[i] == kbdata->keys[j] )
    bb22:	00844883          	lbu	a7,8(s0)
    bb26:	00a44603          	lbu	a2,10(s0)
    bb2a:	00b44583          	lbu	a1,11(s0)
    bb2e:	4785                	li	a5,1
    bb30:	00d50663          	beq	a0,a3,bb3c <amikb_process+0x27c>
    bb34:	411507b3          	sub	a5,a0,a7
    bb38:	0017b793          	seqz	a5,a5
    bb3c:	3ac50b63          	beq	a0,a2,bef2 <amikb_process+0x632>
    bb40:	38b50763          	beq	a0,a1,bece <amikb_process+0x60e>
    bb44:	00c44303          	lbu	t1,12(s0)
    bb48:	00d44f03          	lbu	t5,13(s0)
C:/Repository/RISKYKVM/firmware/src/User/keyboard.c:897
	int idxRelease = 0;
    bb4c:	4e81                	li	t4,0
C:/Repository/RISKYKVM/firmware/src/User/keyboard.c:905
			if (prevkeycode.keys[i] == kbdata->keys[j] )
    bb4e:	38a30563          	beq	t1,a0,bed8 <amikb_process+0x618>
    bb52:	38af0363          	beq	t5,a0,bed8 <amikb_process+0x618>
C:/Repository/RISKYKVM/firmware/src/User/keyboard.c:911
			{
				found = 1;
			}
		}

		if(found == 0)
    bb56:	38079163          	bnez	a5,bed8 <amikb_process+0x618>
C:/Repository/RISKYKVM/firmware/src/User/keyboard.c:905
			if (prevkeycode.keys[i] == kbdata->keys[j] )
    bb5a:	0094c703          	lbu	a4,9(s1)
C:/Repository/RISKYKVM/firmware/src/User/keyboard.c:913
		{
		keysToRelease[idxRelease] = prevkeycode.keys[i];
    bb5e:	00a10423          	sb	a0,8(sp)
C:/Repository/RISKYKVM/firmware/src/User/keyboard.c:914
		idxRelease++;
    bb62:	4e85                	li	t4,1
C:/Repository/RISKYKVM/firmware/src/User/keyboard.c:905
			if (prevkeycode.keys[i] == kbdata->keys[j] )
    bb64:	4785                	li	a5,1
    bb66:	36d71e63          	bne	a4,a3,bee2 <amikb_process+0x622>
    bb6a:	38c70263          	beq	a4,a2,beee <amikb_process+0x62e>
    bb6e:	00b70c63          	beq	a4,a1,bb86 <amikb_process+0x2c6>
    bb72:	00e30a63          	beq	t1,a4,bb86 <amikb_process+0x2c6>
    bb76:	00ef0863          	beq	t5,a4,bb86 <amikb_process+0x2c6>
C:/Repository/RISKYKVM/firmware/src/User/keyboard.c:911
		if(found == 0)
    bb7a:	e791                	bnez	a5,bb86 <amikb_process+0x2c6>
C:/Repository/RISKYKVM/firmware/src/User/keyboard.c:913
		keysToRelease[idxRelease] = prevkeycode.keys[i];
    bb7c:	081c                	addi	a5,sp,16
    bb7e:	97f6                	add	a5,a5,t4
    bb80:	fee78c23          	sb	a4,-8(a5)
C:/Repository/RISKYKVM/firmware/src/User/keyboard.c:914
		idxRelease++;
    bb84:	0e85                	addi	t4,t4,1
C:/Repository/RISKYKVM/firmware/src/User/keyboard.c:905
			if (prevkeycode.keys[i] == kbdata->keys[j] )
    bb86:	00a4c783          	lbu	a5,10(s1)
    bb8a:	4805                	li	a6,1
    bb8c:	00f68663          	beq	a3,a5,bb98 <amikb_process+0x2d8>
    bb90:	40f88833          	sub	a6,a7,a5
    bb94:	00183813          	seqz	a6,a6
    bb98:	36f60163          	beq	a2,a5,befa <amikb_process+0x63a>
    bb9c:	00f58e63          	beq	a1,a5,bbb8 <amikb_process+0x2f8>
    bba0:	00f30c63          	beq	t1,a5,bbb8 <amikb_process+0x2f8>
    bba4:	00ff0a63          	beq	t5,a5,bbb8 <amikb_process+0x2f8>
C:/Repository/RISKYKVM/firmware/src/User/keyboard.c:911
		if(found == 0)
    bba8:	00081863          	bnez	a6,bbb8 <amikb_process+0x2f8>
C:/Repository/RISKYKVM/firmware/src/User/keyboard.c:913
		keysToRelease[idxRelease] = prevkeycode.keys[i];
    bbac:	01010813          	addi	a6,sp,16
    bbb0:	9876                	add	a6,a6,t4
    bbb2:	fef80c23          	sb	a5,-8(a6)
C:/Repository/RISKYKVM/firmware/src/User/keyboard.c:914
		idxRelease++;
    bbb6:	0e85                	addi	t4,t4,1
C:/Repository/RISKYKVM/firmware/src/User/keyboard.c:905
			if (prevkeycode.keys[i] == kbdata->keys[j] )
    bbb8:	00b4c803          	lbu	a6,11(s1)
    bbbc:	4e05                	li	t3,1
    bbbe:	00d80663          	beq	a6,a3,bbca <amikb_process+0x30a>
    bbc2:	41180e33          	sub	t3,a6,a7
    bbc6:	001e3e13          	seqz	t3,t3
    bbca:	32c80a63          	beq	a6,a2,befe <amikb_process+0x63e>
    bbce:	00b80e63          	beq	a6,a1,bbea <amikb_process+0x32a>
    bbd2:	01030c63          	beq	t1,a6,bbea <amikb_process+0x32a>
    bbd6:	010f0a63          	beq	t5,a6,bbea <amikb_process+0x32a>
C:/Repository/RISKYKVM/firmware/src/User/keyboard.c:911
		if(found == 0)
    bbda:	000e1863          	bnez	t3,bbea <amikb_process+0x32a>
C:/Repository/RISKYKVM/firmware/src/User/keyboard.c:913
		keysToRelease[idxRelease] = prevkeycode.keys[i];
    bbde:	01010e13          	addi	t3,sp,16
    bbe2:	9e76                	add	t3,t3,t4
    bbe4:	ff0e0c23          	sb	a6,-8(t3)
C:/Repository/RISKYKVM/firmware/src/User/keyboard.c:914
		idxRelease++;
    bbe8:	0e85                	addi	t4,t4,1
C:/Repository/RISKYKVM/firmware/src/User/keyboard.c:905
			if (prevkeycode.keys[i] == kbdata->keys[j] )
    bbea:	00c4ce03          	lbu	t3,12(s1)
    bbee:	4f85                	li	t6,1
    bbf0:	01c68663          	beq	a3,t3,bbfc <amikb_process+0x33c>
    bbf4:	41c88fb3          	sub	t6,a7,t3
    bbf8:	001fbf93          	seqz	t6,t6
    bbfc:	31c60363          	beq	a2,t3,bf02 <amikb_process+0x642>
    bc00:	01c58e63          	beq	a1,t3,bc1c <amikb_process+0x35c>
    bc04:	01c30c63          	beq	t1,t3,bc1c <amikb_process+0x35c>
    bc08:	01cf0a63          	beq	t5,t3,bc1c <amikb_process+0x35c>
C:/Repository/RISKYKVM/firmware/src/User/keyboard.c:911
		if(found == 0)
    bc0c:	000f9863          	bnez	t6,bc1c <amikb_process+0x35c>
C:/Repository/RISKYKVM/firmware/src/User/keyboard.c:913
		keysToRelease[idxRelease] = prevkeycode.keys[i];
    bc10:	01010f93          	addi	t6,sp,16
    bc14:	9ff6                	add	t6,t6,t4
    bc16:	ffcf8c23          	sb	t3,-8(t6)
C:/Repository/RISKYKVM/firmware/src/User/keyboard.c:914
		idxRelease++;
    bc1a:	0e85                	addi	t4,t4,1
C:/Repository/RISKYKVM/firmware/src/User/keyboard.c:905
			if (prevkeycode.keys[i] == kbdata->keys[j] )
    bc1c:	00d4cf83          	lbu	t6,13(s1)
    bc20:	4285                	li	t0,1
    bc22:	00df8663          	beq	t6,a3,bc2e <amikb_process+0x36e>
    bc26:	411f82b3          	sub	t0,t6,a7
    bc2a:	0012b293          	seqz	t0,t0
    bc2e:	2ccf8c63          	beq	t6,a2,bf06 <amikb_process+0x646>
    bc32:	00bf8d63          	beq	t6,a1,bc4c <amikb_process+0x38c>
    bc36:	01f30b63          	beq	t1,t6,bc4c <amikb_process+0x38c>
    bc3a:	01ff0963          	beq	t5,t6,bc4c <amikb_process+0x38c>
C:/Repository/RISKYKVM/firmware/src/User/keyboard.c:911
		if(found == 0)
    bc3e:	00029763          	bnez	t0,bc4c <amikb_process+0x38c>
C:/Repository/RISKYKVM/firmware/src/User/keyboard.c:913
		keysToRelease[idxRelease] = prevkeycode.keys[i];
    bc42:	01010293          	addi	t0,sp,16
    bc46:	9e96                	add	t4,t4,t0
    bc48:	fffe8c23          	sb	t6,-8(t4)
C:/Repository/RISKYKVM/firmware/src/User/keyboard.c:925 (discriminator 2)
	for (i = 0; i < KEY_PRESSED_MAX; i++)
	{
		int found = 0;
		for (j = 0; j < KEY_PRESSED_MAX; j++)
		{
			if ( kbdata->keys[i] == prevkeycode.keys[j])
    bc4c:	4285                	li	t0,1
    bc4e:	01170663          	beq	a4,a7,bc5a <amikb_process+0x39a>
C:/Repository/RISKYKVM/firmware/src/User/keyboard.c:925
    bc52:	411502b3          	sub	t0,a0,a7
    bc56:	0012b293          	seqz	t0,t0
C:/Repository/RISKYKVM/firmware/src/User/keyboard.c:896
	int idxPress= 0;
    bc5a:	4e81                	li	t4,0
C:/Repository/RISKYKVM/firmware/src/User/keyboard.c:925
			if ( kbdata->keys[i] == prevkeycode.keys[j])
    bc5c:	00f88d63          	beq	a7,a5,bc76 <amikb_process+0x3b6>
    bc60:	01180b63          	beq	a6,a7,bc76 <amikb_process+0x3b6>
    bc64:	01c88963          	beq	a7,t3,bc76 <amikb_process+0x3b6>
    bc68:	011f8763          	beq	t6,a7,bc76 <amikb_process+0x3b6>
C:/Repository/RISKYKVM/firmware/src/User/keyboard.c:931
			{
				found = 1;
			}
		}

		 if (found == 0)
    bc6c:	00029563          	bnez	t0,bc76 <amikb_process+0x3b6>
C:/Repository/RISKYKVM/firmware/src/User/keyboard.c:933
		 {
			keysToPress[idxPress] = kbdata->keys[i];
    bc70:	01110023          	sb	a7,0(sp)
C:/Repository/RISKYKVM/firmware/src/User/keyboard.c:934
			idxPress++;
    bc74:	4e85                	li	t4,1
C:/Repository/RISKYKVM/firmware/src/User/keyboard.c:925
			if ( kbdata->keys[i] == prevkeycode.keys[j])
    bc76:	4885                	li	a7,1
    bc78:	00d70663          	beq	a4,a3,bc84 <amikb_process+0x3c4>
    bc7c:	40d508b3          	sub	a7,a0,a3
    bc80:	0018b893          	seqz	a7,a7
    bc84:	02f68063          	beq	a3,a5,bca4 <amikb_process+0x3e4>
    bc88:	00d80e63          	beq	a6,a3,bca4 <amikb_process+0x3e4>
    bc8c:	01c68c63          	beq	a3,t3,bca4 <amikb_process+0x3e4>
    bc90:	00df8a63          	beq	t6,a3,bca4 <amikb_process+0x3e4>
C:/Repository/RISKYKVM/firmware/src/User/keyboard.c:931
		 if (found == 0)
    bc94:	00089863          	bnez	a7,bca4 <amikb_process+0x3e4>
C:/Repository/RISKYKVM/firmware/src/User/keyboard.c:933
			keysToPress[idxPress] = kbdata->keys[i];
    bc98:	01010893          	addi	a7,sp,16
    bc9c:	98f6                	add	a7,a7,t4
    bc9e:	fed88823          	sb	a3,-16(a7)
C:/Repository/RISKYKVM/firmware/src/User/keyboard.c:934
			idxPress++;
    bca2:	0e85                	addi	t4,t4,1
C:/Repository/RISKYKVM/firmware/src/User/keyboard.c:925
			if ( kbdata->keys[i] == prevkeycode.keys[j])
    bca4:	4685                	li	a3,1
    bca6:	00c70663          	beq	a4,a2,bcb2 <amikb_process+0x3f2>
    bcaa:	40c506b3          	sub	a3,a0,a2
    bcae:	0016b693          	seqz	a3,a3
    bcb2:	00f60e63          	beq	a2,a5,bcce <amikb_process+0x40e>
    bcb6:	00c80c63          	beq	a6,a2,bcce <amikb_process+0x40e>
    bcba:	01c60a63          	beq	a2,t3,bcce <amikb_process+0x40e>
    bcbe:	00cf8863          	beq	t6,a2,bcce <amikb_process+0x40e>
C:/Repository/RISKYKVM/firmware/src/User/keyboard.c:931
		 if (found == 0)
    bcc2:	e691                	bnez	a3,bcce <amikb_process+0x40e>
C:/Repository/RISKYKVM/firmware/src/User/keyboard.c:933
			keysToPress[idxPress] = kbdata->keys[i];
    bcc4:	0814                	addi	a3,sp,16
    bcc6:	96f6                	add	a3,a3,t4
    bcc8:	fec68823          	sb	a2,-16(a3)
C:/Repository/RISKYKVM/firmware/src/User/keyboard.c:934
			idxPress++;
    bccc:	0e85                	addi	t4,t4,1
C:/Repository/RISKYKVM/firmware/src/User/keyboard.c:925
			if ( kbdata->keys[i] == prevkeycode.keys[j])
    bcce:	4685                	li	a3,1
    bcd0:	00b70663          	beq	a4,a1,bcdc <amikb_process+0x41c>
    bcd4:	40b506b3          	sub	a3,a0,a1
    bcd8:	0016b693          	seqz	a3,a3
    bcdc:	00f58e63          	beq	a1,a5,bcf8 <amikb_process+0x438>
    bce0:	00b80c63          	beq	a6,a1,bcf8 <amikb_process+0x438>
    bce4:	01c58a63          	beq	a1,t3,bcf8 <amikb_process+0x438>
    bce8:	00bf8863          	beq	t6,a1,bcf8 <amikb_process+0x438>
C:/Repository/RISKYKVM/firmware/src/User/keyboard.c:931
		 if (found == 0)
    bcec:	e691                	bnez	a3,bcf8 <amikb_process+0x438>
C:/Repository/RISKYKVM/firmware/src/User/keyboard.c:933
			keysToPress[idxPress] = kbdata->keys[i];
    bcee:	0814                	addi	a3,sp,16
    bcf0:	96f6                	add	a3,a3,t4
    bcf2:	feb68823          	sb	a1,-16(a3)
C:/Repository/RISKYKVM/firmware/src/User/keyboard.c:934
			idxPress++;
    bcf6:	0e85                	addi	t4,t4,1
C:/Repository/RISKYKVM/firmware/src/User/keyboard.c:925
			if ( kbdata->keys[i] == prevkeycode.keys[j])
    bcf8:	4685                	li	a3,1
    bcfa:	00670663          	beq	a4,t1,bd06 <amikb_process+0x446>
    bcfe:	406506b3          	sub	a3,a0,t1
    bd02:	0016b693          	seqz	a3,a3
    bd06:	00678e63          	beq	a5,t1,bd22 <amikb_process+0x462>
    bd0a:	00680c63          	beq	a6,t1,bd22 <amikb_process+0x462>
    bd0e:	01c30a63          	beq	t1,t3,bd22 <amikb_process+0x462>
    bd12:	006f8863          	beq	t6,t1,bd22 <amikb_process+0x462>
C:/Repository/RISKYKVM/firmware/src/User/keyboard.c:931
		 if (found == 0)
    bd16:	e691                	bnez	a3,bd22 <amikb_process+0x462>
C:/Repository/RISKYKVM/firmware/src/User/keyboard.c:933
			keysToPress[idxPress] = kbdata->keys[i];
    bd18:	0814                	addi	a3,sp,16
    bd1a:	96f6                	add	a3,a3,t4
    bd1c:	fe668823          	sb	t1,-16(a3)
C:/Repository/RISKYKVM/firmware/src/User/keyboard.c:934
			idxPress++;
    bd20:	0e85                	addi	t4,t4,1
C:/Repository/RISKYKVM/firmware/src/User/keyboard.c:925
			if ( kbdata->keys[i] == prevkeycode.keys[j])
    bd22:	4685                	li	a3,1
    bd24:	01e70663          	beq	a4,t5,bd30 <amikb_process+0x470>
    bd28:	40af0533          	sub	a0,t5,a0
    bd2c:	00153693          	seqz	a3,a0
    bd30:	00ff0d63          	beq	t5,a5,bd4a <amikb_process+0x48a>
    bd34:	01e80b63          	beq	a6,t5,bd4a <amikb_process+0x48a>
    bd38:	01cf0963          	beq	t5,t3,bd4a <amikb_process+0x48a>
    bd3c:	01ff0763          	beq	t5,t6,bd4a <amikb_process+0x48a>
C:/Repository/RISKYKVM/firmware/src/User/keyboard.c:931
		 if (found == 0)
    bd40:	e689                	bnez	a3,bd4a <amikb_process+0x48a>
C:/Repository/RISKYKVM/firmware/src/User/keyboard.c:933
			keysToPress[idxPress] = kbdata->keys[i];
    bd42:	081c                	addi	a5,sp,16
    bd44:	9ebe                	add	t4,t4,a5
    bd46:	ffee8823          	sb	t5,-16(t4)
C:/Repository/RISKYKVM/firmware/src/User/keyboard.c:934
			idxPress++;
    bd4a:	6b39                	lui	s6,0xe
    bd4c:	00810913          	addi	s2,sp,8
    bd50:	00e10a13          	addi	s4,sp,14
    bd54:	9b4b0a93          	addi	s5,s6,-1612 # d9b4 <scancodeamiga>
scancode_to_amiga():
C:/Repository/RISKYKVM/firmware/src/User/keyboard.c:553 (discriminator 2)
	for (i = 0; i < KEYCODE_TAB_SIZE; i++)
    bd58:	07200993          	li	s3,114
    bd5c:	a021                	j	bd64 <amikb_process+0x4a4>
    bd5e:	0905                	addi	s2,s2,1
amikb_process():
C:/Repository/RISKYKVM/firmware/src/User/keyboard.c:939 (discriminator 2)
		 }
	}

	//Send release keys
	for (i = 0; i < KEY_PRESSED_MAX; i++)
    bd60:	03490b63          	beq	s2,s4,bd96 <amikb_process+0x4d6>
C:/Repository/RISKYKVM/firmware/src/User/keyboard.c:941
	{
		if (keysToRelease[i] != 0x00) // Previous key was released
    bd64:	00094503          	lbu	a0,0(s2)
    bd68:	d97d                	beqz	a0,bd5e <amikb_process+0x49e>
    bd6a:	9b4b0713          	addi	a4,s6,-1612
    bd6e:	4781                	li	a5,0
    bd70:	a021                	j	bd78 <amikb_process+0x4b8>
    bd72:	0785                	addi	a5,a5,1
scancode_to_amiga():
C:/Repository/RISKYKVM/firmware/src/User/keyboard.c:553
	for (i = 0; i < KEYCODE_TAB_SIZE; i++)
    bd74:	01378b63          	beq	a5,s3,bd8a <amikb_process+0x4ca>
C:/Repository/RISKYKVM/firmware/src/User/keyboard.c:556
		if (lkey == scancodeamiga[i][0])
    bd78:	00074683          	lbu	a3,0(a4)
    bd7c:	0709                	addi	a4,a4,2
    bd7e:	fea69ae3          	bne	a3,a0,bd72 <amikb_process+0x4b2>
C:/Repository/RISKYKVM/firmware/src/User/keyboard.c:558
			keyvalue = scancodeamiga[i][1];
    bd82:	0786                	slli	a5,a5,0x1
    bd84:	97d6                	add	a5,a5,s5
    bd86:	0017c503          	lbu	a0,1(a5)
amikb_process():
C:/Repository/RISKYKVM/firmware/src/User/keyboard.c:943
		{
	        rval |= amikb_send(scancode_to_amiga(keysToRelease[i]), 0 /* Released */);
    bd8a:	4581                	li	a1,0
    bd8c:	0905                	addi	s2,s2,1
    bd8e:	971ff0ef          	jal	ra,b6fe <amikb_send>
C:/Repository/RISKYKVM/firmware/src/User/keyboard.c:939
	for (i = 0; i < KEY_PRESSED_MAX; i++)
    bd92:	fd4919e3          	bne	s2,s4,bd64 <amikb_process+0x4a4>
    bd96:	6b39                	lui	s6,0xe
    bd98:	890a                	mv	s2,sp
    bd9a:	00610a13          	addi	s4,sp,6
    bd9e:	9b4b0a93          	addi	s5,s6,-1612 # d9b4 <scancodeamiga>
scancode_to_amiga():
C:/Repository/RISKYKVM/firmware/src/User/keyboard.c:553
	for (i = 0; i < KEYCODE_TAB_SIZE; i++)
    bda2:	07200993          	li	s3,114
    bda6:	a021                	j	bdae <amikb_process+0x4ee>
    bda8:	0905                	addi	s2,s2,1
amikb_process():
C:/Repository/RISKYKVM/firmware/src/User/keyboard.c:948 (discriminator 2)
	    }
	}

	//send press keys
	for (i = 0; i < KEY_PRESSED_MAX; i++)
    bdaa:	032a0b63          	beq	s4,s2,bde0 <amikb_process+0x520>
C:/Repository/RISKYKVM/firmware/src/User/keyboard.c:950
	{
		if (keysToPress[i] != 0x00)
    bdae:	00094503          	lbu	a0,0(s2)
    bdb2:	d97d                	beqz	a0,bda8 <amikb_process+0x4e8>
    bdb4:	9b4b0713          	addi	a4,s6,-1612
    bdb8:	4781                	li	a5,0
    bdba:	a021                	j	bdc2 <amikb_process+0x502>
    bdbc:	0785                	addi	a5,a5,1
scancode_to_amiga():
C:/Repository/RISKYKVM/firmware/src/User/keyboard.c:553
	for (i = 0; i < KEYCODE_TAB_SIZE; i++)
    bdbe:	01378b63          	beq	a5,s3,bdd4 <amikb_process+0x514>
C:/Repository/RISKYKVM/firmware/src/User/keyboard.c:556
		if (lkey == scancodeamiga[i][0])
    bdc2:	00074683          	lbu	a3,0(a4)
    bdc6:	0709                	addi	a4,a4,2
    bdc8:	fea69ae3          	bne	a3,a0,bdbc <amikb_process+0x4fc>
C:/Repository/RISKYKVM/firmware/src/User/keyboard.c:558
			keyvalue = scancodeamiga[i][1];
    bdcc:	0786                	slli	a5,a5,0x1
    bdce:	97d6                	add	a5,a5,s5
    bdd0:	0017c503          	lbu	a0,1(a5)
amikb_process():
C:/Repository/RISKYKVM/firmware/src/User/keyboard.c:952
		{
			rval |= amikb_send(scancode_to_amiga(keysToPress[i]), 1 /* Pressed */);
    bdd4:	4585                	li	a1,1
    bdd6:	0905                	addi	s2,s2,1
    bdd8:	927ff0ef          	jal	ra,b6fe <amikb_send>
C:/Repository/RISKYKVM/firmware/src/User/keyboard.c:948
	for (i = 0; i < KEY_PRESSED_MAX; i++)
    bddc:	fd2a19e3          	bne	s4,s2,bdae <amikb_process+0x4ee>
    bde0:	00844803          	lbu	a6,8(s0)
    bde4:	00944503          	lbu	a0,9(s0)
    bde8:	00a44583          	lbu	a1,10(s0)
    bdec:	00b44603          	lbu	a2,11(s0)
    bdf0:	00c44683          	lbu	a3,12(s0)
    bdf4:	00d44703          	lbu	a4,13(s0)
    bdf8:	01048423          	sb	a6,8(s1)
    bdfc:	00a484a3          	sb	a0,9(s1)
    be00:	00b48523          	sb	a1,10(s1)
    be04:	00c485a3          	sb	a2,11(s1)
    be08:	00d48623          	sb	a3,12(s1)
    be0c:	00e486a3          	sb	a4,13(s1)
C:/Repository/RISKYKVM/firmware/src/User/keyboard.c:963
		{
		   prevkeycode.keys[i] = kbdata->keys[i];

		}

}
    be10:	50b2                	lw	ra,44(sp)
    be12:	5422                	lw	s0,40(sp)
    be14:	5492                	lw	s1,36(sp)
    be16:	5902                	lw	s2,32(sp)
    be18:	49f2                	lw	s3,28(sp)
    be1a:	4a62                	lw	s4,24(sp)
    be1c:	4ad2                	lw	s5,20(sp)
    be1e:	4b42                	lw	s6,16(sp)
    be20:	6145                	addi	sp,sp,48
    be22:	8082                	ret
C:/Repository/RISKYKVM/firmware/src/User/keyboard.c:813 (discriminator 1)
	if(kbdata->lctrl == 1 && kbdata->lalt ==1 &&kbdata->keys[0]==KEY_DELETE  )
    be24:	00254683          	lbu	a3,2(a0)
    be28:	acf693e3          	bne	a3,a5,b8ee <amikb_process+0x2e>
C:/Repository/RISKYKVM/firmware/src/User/keyboard.c:813 (discriminator 2)
    be2c:	04c00693          	li	a3,76
    be30:	aad71fe3          	bne	a4,a3,b8ee <amikb_process+0x2e>
amikb_reset():
C:/Repository/RISKYKVM/firmware/src/User/keyboard.c:764
        GPIO_WriteBit(KB_RESET_GPIO_Port, KB_RESET_GPIO_Pin, Bit_RESET);
    be34:	400114b7          	lui	s1,0x40011
amikb_process():
C:/Repository/RISKYKVM/firmware/src/User/keyboard.c:764
    be38:	4429                	li	s0,10
amikb_reset():
C:/Repository/RISKYKVM/firmware/src/User/keyboard.c:764
    be3a:	80048493          	addi	s1,s1,-2048 # 40010800 <_eusrstack+0x2000b800>
    be3e:	147d                	addi	s0,s0,-1
    be40:	4601                	li	a2,0
    be42:	40000593          	li	a1,1024
    be46:	8526                	mv	a0,s1
    be48:	0ff47413          	andi	s0,s0,255
    be4c:	70c010ef          	jal	ra,d558 <GPIO_WriteBit>
C:/Repository/RISKYKVM/firmware/src/User/keyboard.c:763
    for (var = 0; var < 10; ++var) {
    be50:	f47d                	bnez	s0,be3e <amikb_process+0x57e>
C:/Repository/RISKYKVM/firmware/src/User/keyboard.c:767
    GPIO_WriteBit(KB_RESET_GPIO_Port, KB_RESET_GPIO_Pin, Bit_SET);
    be52:	40011437          	lui	s0,0x40011
    be56:	4605                	li	a2,1
    be58:	40000593          	li	a1,1024
    be5c:	80040513          	addi	a0,s0,-2048 # 40010800 <_eusrstack+0x2000b800>
    be60:	6f8010ef          	jal	ra,d558 <GPIO_WriteBit>
C:/Repository/RISKYKVM/firmware/src/User/keyboard.c:770
    GPIO_WriteBit(KBD_CLOCK_GPIO_Port, KBD_CLOCK_Pin, Bit_RESET);
    be64:	4601                	li	a2,0
    be66:	6585                	lui	a1,0x1
    be68:	80040513          	addi	a0,s0,-2048
    be6c:	6ec010ef          	jal	ra,d558 <GPIO_WriteBit>
C:/Repository/RISKYKVM/firmware/src/User/keyboard.c:771
    Delay_Ms(500);
    be70:	1f400513          	li	a0,500
    be74:	1f9010ef          	jal	ra,d86c <Delay_Ms>
C:/Repository/RISKYKVM/firmware/src/User/keyboard.c:772
    GPIO_WriteBit(KBD_CLOCK_GPIO_Port, KBD_CLOCK_Pin, Bit_SET);
    be78:	4605                	li	a2,1
    be7a:	6585                	lui	a1,0x1
    be7c:	80040513          	addi	a0,s0,-2048
    be80:	6d8010ef          	jal	ra,d558 <GPIO_WriteBit>
C:/Repository/RISKYKVM/firmware/src/User/keyboard.c:774
    prev_keycode = 0xff;
    be84:	200007b7          	lui	a5,0x20000
    be88:	577d                	li	a4,-1
    be8a:	00e78023          	sb	a4,0(a5) # 20000000 <_data_vma>
C:/Repository/RISKYKVM/firmware/src/User/keyboard.c:775
	capslk = 0;
    be8e:	86018823          	sb	zero,-1936(gp) # 20000070 <_edata>
C:/Repository/RISKYKVM/firmware/src/User/keyboard.c:776
	numlk = 0;
    be92:	86018923          	sb	zero,-1934(gp) # 20000072 <numlk>
C:/Repository/RISKYKVM/firmware/src/User/keyboard.c:777
	scrolllk = 0;
    be96:	860189a3          	sb	zero,-1933(gp) # 20000073 <scrolllk>
    be9a:	bf9d                	j	be10 <amikb_process+0x550>
amikb_process():
C:/Repository/RISKYKVM/firmware/src/User/keyboard.c:819 (discriminator 1)
    if(kbdata->lgui == 1 && kbdata->rgui ==1 &&kbdata->rctrl )
    be9c:	00744683          	lbu	a3,7(s0)
    bea0:	a4e69ce3          	bne	a3,a4,b8f8 <amikb_process+0x38>
C:/Repository/RISKYKVM/firmware/src/User/keyboard.c:819 (discriminator 2)
    bea4:	00444703          	lbu	a4,4(s0)
    bea8:	e365                	bnez	a4,bf88 <amikb_process+0x6c8>
C:/Repository/RISKYKVM/firmware/src/User/keyboard.c:825
    if(kbdata->lgui == 1 && kbdata->rgui ==1 &&kbdata->lctrl )
    beaa:	a40787e3          	beqz	a5,b8f8 <amikb_process+0x38>
amikb_reset():
C:/Repository/RISKYKVM/firmware/src/User/keyboard.c:764
        GPIO_WriteBit(KB_RESET_GPIO_Port, KB_RESET_GPIO_Pin, Bit_RESET);
    beae:	400114b7          	lui	s1,0x40011
amikb_process():
C:/Repository/RISKYKVM/firmware/src/User/keyboard.c:764
    beb2:	4429                	li	s0,10
amikb_reset():
C:/Repository/RISKYKVM/firmware/src/User/keyboard.c:764
    beb4:	80048493          	addi	s1,s1,-2048 # 40010800 <_eusrstack+0x2000b800>
    beb8:	147d                	addi	s0,s0,-1
    beba:	4601                	li	a2,0
    bebc:	40000593          	li	a1,1024
    bec0:	8526                	mv	a0,s1
    bec2:	0ff47413          	andi	s0,s0,255
    bec6:	692010ef          	jal	ra,d558 <GPIO_WriteBit>
C:/Repository/RISKYKVM/firmware/src/User/keyboard.c:763
    for (var = 0; var < 10; ++var) {
    beca:	f47d                	bnez	s0,beb8 <amikb_process+0x5f8>
    becc:	b759                	j	be52 <amikb_process+0x592>
    bece:	00c44303          	lbu	t1,12(s0)
    bed2:	00d44f03          	lbu	t5,13(s0)
amikb_process():
C:/Repository/RISKYKVM/firmware/src/User/keyboard.c:897
	int idxRelease = 0;
    bed6:	4e81                	li	t4,0
C:/Repository/RISKYKVM/firmware/src/User/keyboard.c:905
			if (prevkeycode.keys[i] == kbdata->keys[j] )
    bed8:	0094c703          	lbu	a4,9(s1)
    bedc:	4785                	li	a5,1
    bede:	c8d706e3          	beq	a4,a3,bb6a <amikb_process+0x2aa>
    bee2:	411707b3          	sub	a5,a4,a7
    bee6:	0017b793          	seqz	a5,a5
    beea:	c8c712e3          	bne	a4,a2,bb6e <amikb_process+0x2ae>
C:/Repository/RISKYKVM/firmware/src/User/keyboard.c:907
				found = 1;
    beee:	4785                	li	a5,1
    bef0:	b9bd                	j	bb6e <amikb_process+0x2ae>
    bef2:	4785                	li	a5,1
C:/Repository/RISKYKVM/firmware/src/User/keyboard.c:905
			if (prevkeycode.keys[i] == kbdata->keys[j] )
    bef4:	c4b518e3          	bne	a0,a1,bb44 <amikb_process+0x284>
    bef8:	bfd9                	j	bece <amikb_process+0x60e>
C:/Repository/RISKYKVM/firmware/src/User/keyboard.c:907
				found = 1;
    befa:	4805                	li	a6,1
    befc:	b145                	j	bb9c <amikb_process+0x2dc>
    befe:	4e05                	li	t3,1
    bf00:	b1f9                	j	bbce <amikb_process+0x30e>
    bf02:	4f85                	li	t6,1
    bf04:	b9f5                	j	bc00 <amikb_process+0x340>
    bf06:	4285                	li	t0,1
    bf08:	b32d                	j	bc32 <amikb_process+0x372>
    bf0a:	8082                	ret
amikb_irq():
C:/Repository/RISKYKVM/firmware/src/User/keyboard.c:782
    GPIO_WriteBit(GPIOA,GPIO_Pin_13,Bit_RESET);
    bf0c:	40011437          	lui	s0,0x40011
    bf10:	80040513          	addi	a0,s0,-2048 # 40010800 <_eusrstack+0x2000b800>
    bf14:	4601                	li	a2,0
    bf16:	6589                	lui	a1,0x2
    bf18:	640010ef          	jal	ra,d558 <GPIO_WriteBit>
C:/Repository/RISKYKVM/firmware/src/User/keyboard.c:783
    GPIO_WriteBit(GPIOA,GPIO_Pin_14,Bit_RESET);
    bf1c:	4601                	li	a2,0
    bf1e:	6591                	lui	a1,0x4
    bf20:	80040513          	addi	a0,s0,-2048
    bf24:	634010ef          	jal	ra,d558 <GPIO_WriteBit>
C:/Repository/RISKYKVM/firmware/src/User/keyboard.c:784
    Delay_Ms(10);
    bf28:	4529                	li	a0,10
    bf2a:	143010ef          	jal	ra,d86c <Delay_Ms>
C:/Repository/RISKYKVM/firmware/src/User/keyboard.c:785
    GPIO_WriteBit(GPIOA,GPIO_Pin_13,Bit_SET);
    bf2e:	80040513          	addi	a0,s0,-2048
    bf32:	4605                	li	a2,1
    bf34:	6589                	lui	a1,0x2
    bf36:	622010ef          	jal	ra,d558 <GPIO_WriteBit>
C:/Repository/RISKYKVM/firmware/src/User/keyboard.c:786
    GPIO_WriteBit(GPIOA,GPIO_Pin_14,Bit_SET);
    bf3a:	80040513          	addi	a0,s0,-2048
amikb_process():
C:/Repository/RISKYKVM/firmware/src/User/keyboard.c:963
}
    bf3e:	5422                	lw	s0,40(sp)
    bf40:	50b2                	lw	ra,44(sp)
    bf42:	5492                	lw	s1,36(sp)
    bf44:	5902                	lw	s2,32(sp)
    bf46:	49f2                	lw	s3,28(sp)
    bf48:	4a62                	lw	s4,24(sp)
    bf4a:	4ad2                	lw	s5,20(sp)
    bf4c:	4b42                	lw	s6,16(sp)
amikb_irq():
C:/Repository/RISKYKVM/firmware/src/User/keyboard.c:786
    GPIO_WriteBit(GPIOA,GPIO_Pin_14,Bit_SET);
    bf4e:	4605                	li	a2,1
    bf50:	6591                	lui	a1,0x4
amikb_process():
C:/Repository/RISKYKVM/firmware/src/User/keyboard.c:963
}
    bf52:	6145                	addi	sp,sp,48
amikb_irq():
C:/Repository/RISKYKVM/firmware/src/User/keyboard.c:786
    GPIO_WriteBit(GPIOA,GPIO_Pin_14,Bit_SET);
    bf54:	6040106f          	j	d558 <GPIO_WriteBit>
scancode_to_amiga():
C:/Repository/RISKYKVM/firmware/src/User/keyboard.c:552
	uint8_t i = 0, keyvalue = lkey;
    bf58:	0e000513          	li	a0,224
    bf5c:	b495                	j	b9c0 <amikb_process+0x100>
    bf5e:	0e200513          	li	a0,226
    bf62:	bc31                	j	b97e <amikb_process+0xbe>
    bf64:	0e100513          	li	a0,225
    bf68:	bad1                	j	b93c <amikb_process+0x7c>
    bf6a:	0e700513          	li	a0,231
    bf6e:	be71                	j	bb0a <amikb_process+0x24a>
    bf70:	0e300513          	li	a0,227
    bf74:	b479                	j	ba02 <amikb_process+0x142>
    bf76:	0e500513          	li	a0,229
    bf7a:	b4e9                	j	ba44 <amikb_process+0x184>
    bf7c:	0e600513          	li	a0,230
    bf80:	b619                	j	ba86 <amikb_process+0x1c6>
    bf82:	0e400513          	li	a0,228
    bf86:	b689                	j	bac8 <amikb_process+0x208>
amikb_reset():
C:/Repository/RISKYKVM/firmware/src/User/keyboard.c:764
        GPIO_WriteBit(KB_RESET_GPIO_Port, KB_RESET_GPIO_Pin, Bit_RESET);
    bf88:	400114b7          	lui	s1,0x40011
amikb_process():
C:/Repository/RISKYKVM/firmware/src/User/keyboard.c:764
    bf8c:	4429                	li	s0,10
amikb_reset():
C:/Repository/RISKYKVM/firmware/src/User/keyboard.c:764
    bf8e:	80048493          	addi	s1,s1,-2048 # 40010800 <_eusrstack+0x2000b800>
    bf92:	147d                	addi	s0,s0,-1
    bf94:	4601                	li	a2,0
    bf96:	40000593          	li	a1,1024
    bf9a:	8526                	mv	a0,s1
    bf9c:	0ff47413          	andi	s0,s0,255
    bfa0:	5b8010ef          	jal	ra,d558 <GPIO_WriteBit>
C:/Repository/RISKYKVM/firmware/src/User/keyboard.c:763
    for (var = 0; var < 10; ++var) {
    bfa4:	f47d                	bnez	s0,bf92 <amikb_process+0x6d2>
    bfa6:	b575                	j	be52 <amikb_process+0x592>

0000bfa8 <main>:
main():
C:/Repository/RISKYKVM/firmware/src/User/main.c:13
#include "gpio.h"
#include "keyboard.h"
#include "gamepad.h"

int main( void )
{
    bfa8:	7139                	addi	sp,sp,-64
    bfaa:	de06                	sw	ra,60(sp)
    bfac:	dc22                	sw	s0,56(sp)
    bfae:	da26                	sw	s1,52(sp)
    bfb0:	d84a                	sw	s2,48(sp)
    bfb2:	d64e                	sw	s3,44(sp)
    bfb4:	d452                	sw	s4,40(sp)
    bfb6:	d256                	sw	s5,36(sp)
    bfb8:	d05a                	sw	s6,32(sp)
    bfba:	ce5e                	sw	s7,28(sp)
    bfbc:	c86a                	sw	s10,16(sp)
    bfbe:	c66e                	sw	s11,12(sp)
    bfc0:	cc62                	sw	s8,24(sp)
    bfc2:	ca66                	sw	s9,20(sp)
C:/Repository/RISKYKVM/firmware/src/User/main.c:16
   // USART_Printf_Init( 115200 );
    DUG_PRINTF( "SystemClk:%d\r\n", SystemCoreClock );
    Delay_Init( );
    bfc4:	045010ef          	jal	ra,d808 <Delay_Init>
C:/Repository/RISKYKVM/firmware/src/User/main.c:17
    TIM3_Init( 9, SystemCoreClock / 10000 - 1 );
    bfc8:	200007b7          	lui	a5,0x20000
    bfcc:	0047a583          	lw	a1,4(a5) # 20000004 <SystemCoreClock>
    bfd0:	6789                	lui	a5,0x2
    bfd2:	71078793          	addi	a5,a5,1808 # 2710 <__stack_size+0x1f10>
    bfd6:	02f5d5b3          	divu	a1,a1,a5
    bfda:	4525                	li	a0,9
C:/Repository/RISKYKVM/firmware/src/User/main.c:22

#if DEF_USBFS_PORT_EN
    USBFS_RCC_Init( );
    USBFS_Host_Init( ENABLE );
    memset( &RootHubDev.bStatus, 0, sizeof( ROOT_HUB_DEVICE ) );
    bfdc:	20001bb7          	lui	s7,0x20001
C:/Repository/RISKYKVM/firmware/src/User/main.c:23
    memset( &HostCtl[ DEF_USBFS_PORT_INDEX * DEF_ONE_USB_SUP_DEV_TOTAL ].InterfaceNum, 0, DEF_ONE_USB_SUP_DEV_TOTAL * sizeof( HOST_CTL ) );
    bfe0:	20000ab7          	lui	s5,0x20000
    bfe4:	640b8b13          	addi	s6,s7,1600 # 20001640 <RootHubDev>
    bfe8:	0d8a8493          	addi	s1,s5,216 # 200000d8 <HostCtl>
    bfec:	20000db7          	lui	s11,0x20000
    bff0:	20000d37          	lui	s10,0x20000
C:/Repository/RISKYKVM/firmware/src/User/main.c:34
    InitMouse();

	while (1) {
		USBH_MainDeal();
		//Handle HID Device
		if (RootHubDev.bType == USB_DEV_CLASS_HID) {
    bff4:	440d                	li	s0,3
C:/Repository/RISKYKVM/firmware/src/User/main.c:38

			for (int itf = 0; itf < DEF_INTERFACE_NUM_MAX; itf++) {
				//Handle mouse
				if (HostCtl[0].Interface[itf].HIDRptDesc.type
    bff6:	4985                	li	s3,1
C:/Repository/RISKYKVM/firmware/src/User/main.c:55
							&HostCtl[0].Interface[itf]);
						ProcessGamepad(gamepad);
				}

				// Handle Keyboard
				if (HostCtl[0].Interface[itf].HIDRptDesc.type
    bff8:	4909                	li	s2,2
C:/Repository/RISKYKVM/firmware/src/User/main.c:78
			for (uint8_t device = 1; device < 5; device++)
			{
				//Iterate over all interfaces
				for (int itf = 0; itf < DEF_INTERFACE_NUM_MAX; itf++) {
					//Handle mouse
					if (HostCtl[device].Interface[itf].HIDRptDesc.type
    bffa:	44400a13          	li	s4,1092
C:/Repository/RISKYKVM/firmware/src/User/main.c:17
    TIM3_Init( 9, SystemCoreClock / 10000 - 1 );
    bffe:	15fd                	addi	a1,a1,-1
    c000:	05c2                	slli	a1,a1,0x10
    c002:	81c1                	srli	a1,a1,0x10
    c004:	9e4fc0ef          	jal	ra,81e8 <TIM3_Init>
C:/Repository/RISKYKVM/firmware/src/User/main.c:20
    USBFS_RCC_Init( );
    c008:	a3bfd0ef          	jal	ra,9a42 <USBFS_RCC_Init>
C:/Repository/RISKYKVM/firmware/src/User/main.c:21
    USBFS_Host_Init( ENABLE );
    c00c:	4505                	li	a0,1
    c00e:	aa7fd0ef          	jal	ra,9ab4 <USBFS_Host_Init>
C:/Repository/RISKYKVM/firmware/src/User/main.c:22
    memset( &RootHubDev.bStatus, 0, sizeof( ROOT_HUB_DEVICE ) );
    c012:	467d                	li	a2,31
    c014:	4581                	li	a1,0
    c016:	640b8513          	addi	a0,s7,1600
    c01a:	926fc0ef          	jal	ra,8140 <memset>
C:/Repository/RISKYKVM/firmware/src/User/main.c:23
    memset( &HostCtl[ DEF_USBFS_PORT_INDEX * DEF_ONE_USB_SUP_DEV_TOTAL ].InterfaceNum, 0, DEF_ONE_USB_SUP_DEV_TOTAL * sizeof( HOST_CTL ) );
    c01e:	6605                	lui	a2,0x1
    c020:	55460613          	addi	a2,a2,1364 # 1554 <__stack_size+0xd54>
    c024:	4581                	li	a1,0
    c026:	0d8a8513          	addi	a0,s5,216
    c02a:	916fc0ef          	jal	ra,8140 <memset>
C:/Repository/RISKYKVM/firmware/src/User/main.c:26
    TIM2_Init();
    c02e:	38b000ef          	jal	ra,cbb8 <TIM2_Init>
C:/Repository/RISKYKVM/firmware/src/User/main.c:27
    TIM4_Init();
    c032:	3f5000ef          	jal	ra,cc26 <TIM4_Init>
C:/Repository/RISKYKVM/firmware/src/User/main.c:28
    GPIO_Config();
    c036:	c8eff0ef          	jal	ra,b4c4 <GPIO_Config>
C:/Repository/RISKYKVM/firmware/src/User/main.c:29
    InitMouse();
    c03a:	2cf5                	jal	c336 <InitMouse>
C:/Repository/RISKYKVM/firmware/src/User/main.c:70
		if (RootHubDev.bType == USB_DEV_CLASS_HUB) {
    c03c:	4aa5                	li	s5,9
C:/Repository/RISKYKVM/firmware/src/User/main.c:32
		USBH_MainDeal();
    c03e:	ad0fd0ef          	jal	ra,930e <USBH_MainDeal>
C:/Repository/RISKYKVM/firmware/src/User/main.c:34
		if (RootHubDev.bType == USB_DEV_CLASS_HID) {
    c042:	001b4783          	lbu	a5,1(s6)
    c046:	0a878463          	beq	a5,s0,c0ee <main+0x146>
C:/Repository/RISKYKVM/firmware/src/User/main.c:70
		if (RootHubDev.bType == USB_DEV_CLASS_HUB) {
    c04a:	ff579ae3          	bne	a5,s5,c03e <main+0x96>
    c04e:	4c05                	li	s8,1
C:/Repository/RISKYKVM/firmware/src/User/main.c:78
					if (HostCtl[device].Interface[itf].HIDRptDesc.type
    c050:	034c06b3          	mul	a3,s8,s4
    c054:	8aa6                	mv	s5,s1
C:/Repository/RISKYKVM/firmware/src/User/main.c:73
			for (uint8_t device = 1; device < 5; device++)
    c056:	4b95                	li	s7,5
C:/Repository/RISKYKVM/firmware/src/User/main.c:78
					if (HostCtl[device].Interface[itf].HIDRptDesc.type
    c058:	00d48cb3          	add	s9,s1,a3
    c05c:	046cd703          	lhu	a4,70(s9) # 10046 <_data_lma+0x25ae>
    c060:	8b0d                	andi	a4,a4,3
    c062:	07370b63          	beq	a4,s3,c0d8 <main+0x130>
C:/Repository/RISKYKVM/firmware/src/User/main.c:87
							ProcessMouse(mousemap);

					}

					//Handle gamepad
					if (HostCtl[device].Interface[itf].HIDRptDesc.type
    c066:	18870d63          	beq	a4,s0,c200 <main+0x258>
C:/Repository/RISKYKVM/firmware/src/User/main.c:96
								&HostCtl[device].Interface[itf]);
							ProcessGamepad(gamepad);
					}

					// Handle Keyboard
					if (HostCtl[device].Interface[itf].HIDRptDesc.type
    c06a:	1b270963          	beq	a4,s2,c21c <main+0x274>
C:/Repository/RISKYKVM/firmware/src/User/main.c:78
					if (HostCtl[device].Interface[itf].HIDRptDesc.type
    c06e:	034c06b3          	mul	a3,s8,s4
    c072:	00d48cb3          	add	s9,s1,a3
    c076:	156cd703          	lhu	a4,342(s9)
    c07a:	8b0d                	andi	a4,a4,3
    c07c:	17370763          	beq	a4,s3,c1ea <main+0x242>
C:/Repository/RISKYKVM/firmware/src/User/main.c:87
					if (HostCtl[device].Interface[itf].HIDRptDesc.type
    c080:	14870063          	beq	a4,s0,c1c0 <main+0x218>
C:/Repository/RISKYKVM/firmware/src/User/main.c:96
					if (HostCtl[device].Interface[itf].HIDRptDesc.type
    c084:	15270c63          	beq	a4,s2,c1dc <main+0x234>
C:/Repository/RISKYKVM/firmware/src/User/main.c:78
					if (HostCtl[device].Interface[itf].HIDRptDesc.type
    c088:	034c06b3          	mul	a3,s8,s4
    c08c:	00d48cb3          	add	s9,s1,a3
    c090:	266cd703          	lhu	a4,614(s9)
    c094:	8b0d                	andi	a4,a4,3
    c096:	11370a63          	beq	a4,s3,c1aa <main+0x202>
C:/Repository/RISKYKVM/firmware/src/User/main.c:87
					if (HostCtl[device].Interface[itf].HIDRptDesc.type
    c09a:	0e870363          	beq	a4,s0,c180 <main+0x1d8>
C:/Repository/RISKYKVM/firmware/src/User/main.c:96
					if (HostCtl[device].Interface[itf].HIDRptDesc.type
    c09e:	0f270f63          	beq	a4,s2,c19c <main+0x1f4>
C:/Repository/RISKYKVM/firmware/src/User/main.c:78
					if (HostCtl[device].Interface[itf].HIDRptDesc.type
    c0a2:	034c06b3          	mul	a3,s8,s4
    c0a6:	00d48cb3          	add	s9,s1,a3
    c0aa:	376cd703          	lhu	a4,886(s9)
    c0ae:	8b0d                	andi	a4,a4,3
    c0b0:	0b370d63          	beq	a4,s3,c16a <main+0x1c2>
C:/Repository/RISKYKVM/firmware/src/User/main.c:87
					if (HostCtl[device].Interface[itf].HIDRptDesc.type
    c0b4:	08870663          	beq	a4,s0,c140 <main+0x198>
C:/Repository/RISKYKVM/firmware/src/User/main.c:96
					if (HostCtl[device].Interface[itf].HIDRptDesc.type
    c0b8:	0b270263          	beq	a4,s2,c15c <main+0x1b4>
    c0bc:	0c05                	addi	s8,s8,1
    c0be:	444a8a93          	addi	s5,s5,1092
C:/Repository/RISKYKVM/firmware/src/User/main.c:73
			for (uint8_t device = 1; device < 5; device++)
    c0c2:	f77c0de3          	beq	s8,s7,c03c <main+0x94>
C:/Repository/RISKYKVM/firmware/src/User/main.c:78
					if (HostCtl[device].Interface[itf].HIDRptDesc.type
    c0c6:	034c06b3          	mul	a3,s8,s4
    c0ca:	00d48cb3          	add	s9,s1,a3
    c0ce:	046cd703          	lhu	a4,70(s9)
    c0d2:	8b0d                	andi	a4,a4,3
    c0d4:	f93719e3          	bne	a4,s3,c066 <main+0xbe>
C:/Repository/RISKYKVM/firmware/src/User/main.c:80
					    HID_MOUSE_Data *mousemap = USB_GetMouseInfo(
    c0d8:	448a8513          	addi	a0,s5,1096
    c0dc:	928ff0ef          	jal	ra,b204 <USB_GetMouseInfo>
C:/Repository/RISKYKVM/firmware/src/User/main.c:82
							ProcessMouse(mousemap);
    c0e0:	248d                	jal	c342 <ProcessMouse>
    c0e2:	046cd703          	lhu	a4,70(s9)
    c0e6:	8b0d                	andi	a4,a4,3
C:/Repository/RISKYKVM/firmware/src/User/main.c:87
					if (HostCtl[device].Interface[itf].HIDRptDesc.type
    c0e8:	f88711e3          	bne	a4,s0,c06a <main+0xc2>
    c0ec:	aa11                	j	c200 <main+0x258>
C:/Repository/RISKYKVM/firmware/src/User/main.c:38
				if (HostCtl[0].Interface[itf].HIDRptDesc.type
    c0ee:	0464d783          	lhu	a5,70(s1)
    c0f2:	8b8d                	andi	a5,a5,3
    c0f4:	1b378763          	beq	a5,s3,c2a2 <main+0x2fa>
C:/Repository/RISKYKVM/firmware/src/User/main.c:46
				if (HostCtl[0].Interface[itf].HIDRptDesc.type
    c0f8:	1a878f63          	beq	a5,s0,c2b6 <main+0x30e>
C:/Repository/RISKYKVM/firmware/src/User/main.c:55
				if (HostCtl[0].Interface[itf].HIDRptDesc.type
    c0fc:	1d278863          	beq	a5,s2,c2cc <main+0x324>
C:/Repository/RISKYKVM/firmware/src/User/main.c:38
				if (HostCtl[0].Interface[itf].HIDRptDesc.type
    c100:	1564d783          	lhu	a5,342(s1)
    c104:	8b8d                	andi	a5,a5,3
    c106:	1d378e63          	beq	a5,s3,c2e2 <main+0x33a>
C:/Repository/RISKYKVM/firmware/src/User/main.c:46
				if (HostCtl[0].Interface[itf].HIDRptDesc.type
    c10a:	20878463          	beq	a5,s0,c312 <main+0x36a>
C:/Repository/RISKYKVM/firmware/src/User/main.c:55
				if (HostCtl[0].Interface[itf].HIDRptDesc.type
    c10e:	21278d63          	beq	a5,s2,c328 <main+0x380>
C:/Repository/RISKYKVM/firmware/src/User/main.c:38
				if (HostCtl[0].Interface[itf].HIDRptDesc.type
    c112:	2664d783          	lhu	a5,614(s1)
    c116:	8b8d                	andi	a5,a5,3
    c118:	1f378063          	beq	a5,s3,c2f8 <main+0x350>
C:/Repository/RISKYKVM/firmware/src/User/main.c:46
				if (HostCtl[0].Interface[itf].HIDRptDesc.type
    c11c:	14878263          	beq	a5,s0,c260 <main+0x2b8>
C:/Repository/RISKYKVM/firmware/src/User/main.c:55
				if (HostCtl[0].Interface[itf].HIDRptDesc.type
    c120:	15278d63          	beq	a5,s2,c27a <main+0x2d2>
C:/Repository/RISKYKVM/firmware/src/User/main.c:38
				if (HostCtl[0].Interface[itf].HIDRptDesc.type
    c124:	3764d783          	lhu	a5,886(s1)
    c128:	8b8d                	andi	a5,a5,3
    c12a:	11378e63          	beq	a5,s3,c246 <main+0x29e>
C:/Repository/RISKYKVM/firmware/src/User/main.c:46
				if (HostCtl[0].Interface[itf].HIDRptDesc.type
    c12e:	0e878e63          	beq	a5,s0,c22a <main+0x282>
C:/Repository/RISKYKVM/firmware/src/User/main.c:55
				if (HostCtl[0].Interface[itf].HIDRptDesc.type
    c132:	15278d63          	beq	a5,s2,c28c <main+0x2e4>
    c136:	001b4783          	lbu	a5,1(s6)
C:/Repository/RISKYKVM/firmware/src/User/main.c:70
		if (RootHubDev.bType == USB_DEV_CLASS_HUB) {
    c13a:	f15792e3          	bne	a5,s5,c03e <main+0x96>
    c13e:	bf01                	j	c04e <main+0xa6>
C:/Repository/RISKYKVM/firmware/src/User/main.c:90
			HID_gamepad_Info_TypeDef *gamepad = GetGamepadInfo(
    c140:	778a8513          	addi	a0,s5,1912
    c144:	d54fe0ef          	jal	ra,a698 <GetGamepadInfo>
C:/Repository/RISKYKVM/firmware/src/User/main.c:92
							ProcessGamepad(gamepad);
    c148:	adaff0ef          	jal	ra,b422 <ProcessGamepad>
    c14c:	034c0733          	mul	a4,s8,s4
    c150:	9726                	add	a4,a4,s1
    c152:	37675703          	lhu	a4,886(a4)
    c156:	8b0d                	andi	a4,a4,3
C:/Repository/RISKYKVM/firmware/src/User/main.c:96
					if (HostCtl[device].Interface[itf].HIDRptDesc.type
    c158:	f72712e3          	bne	a4,s2,c0bc <main+0x114>
C:/Repository/RISKYKVM/firmware/src/User/main.c:98
							== REPORT_TYPE_KEYBOARD) {
					    HID_Keyboard_Data *kbd = USBH_HID_GetKeyboardInfo(
    c15c:	778a8513          	addi	a0,s5,1912
    c160:	fc3fe0ef          	jal	ra,b122 <USBH_HID_GetKeyboardInfo>
C:/Repository/RISKYKVM/firmware/src/User/main.c:100
								&HostCtl[device].Interface[itf]);
							amikb_process(kbd);
    c164:	f5cff0ef          	jal	ra,b8c0 <amikb_process>
    c168:	bf91                	j	c0bc <main+0x114>
C:/Repository/RISKYKVM/firmware/src/User/main.c:80
					    HID_MOUSE_Data *mousemap = USB_GetMouseInfo(
    c16a:	778a8513          	addi	a0,s5,1912
    c16e:	896ff0ef          	jal	ra,b204 <USB_GetMouseInfo>
C:/Repository/RISKYKVM/firmware/src/User/main.c:82
							ProcessMouse(mousemap);
    c172:	2ac1                	jal	c342 <ProcessMouse>
    c174:	376cd703          	lhu	a4,886(s9)
    c178:	8b0d                	andi	a4,a4,3
C:/Repository/RISKYKVM/firmware/src/User/main.c:87
					if (HostCtl[device].Interface[itf].HIDRptDesc.type
    c17a:	f2871fe3          	bne	a4,s0,c0b8 <main+0x110>
    c17e:	b7c9                	j	c140 <main+0x198>
C:/Repository/RISKYKVM/firmware/src/User/main.c:90
			HID_gamepad_Info_TypeDef *gamepad = GetGamepadInfo(
    c180:	668a8513          	addi	a0,s5,1640
    c184:	d14fe0ef          	jal	ra,a698 <GetGamepadInfo>
C:/Repository/RISKYKVM/firmware/src/User/main.c:92
							ProcessGamepad(gamepad);
    c188:	a9aff0ef          	jal	ra,b422 <ProcessGamepad>
    c18c:	034c0733          	mul	a4,s8,s4
    c190:	9726                	add	a4,a4,s1
    c192:	26675703          	lhu	a4,614(a4)
    c196:	8b0d                	andi	a4,a4,3
C:/Repository/RISKYKVM/firmware/src/User/main.c:96
					if (HostCtl[device].Interface[itf].HIDRptDesc.type
    c198:	f12715e3          	bne	a4,s2,c0a2 <main+0xfa>
C:/Repository/RISKYKVM/firmware/src/User/main.c:98
					    HID_Keyboard_Data *kbd = USBH_HID_GetKeyboardInfo(
    c19c:	668a8513          	addi	a0,s5,1640
    c1a0:	f83fe0ef          	jal	ra,b122 <USBH_HID_GetKeyboardInfo>
C:/Repository/RISKYKVM/firmware/src/User/main.c:100
							amikb_process(kbd);
    c1a4:	f1cff0ef          	jal	ra,b8c0 <amikb_process>
    c1a8:	bded                	j	c0a2 <main+0xfa>
C:/Repository/RISKYKVM/firmware/src/User/main.c:80
					    HID_MOUSE_Data *mousemap = USB_GetMouseInfo(
    c1aa:	668a8513          	addi	a0,s5,1640
    c1ae:	856ff0ef          	jal	ra,b204 <USB_GetMouseInfo>
C:/Repository/RISKYKVM/firmware/src/User/main.c:82
							ProcessMouse(mousemap);
    c1b2:	2a41                	jal	c342 <ProcessMouse>
    c1b4:	266cd703          	lhu	a4,614(s9)
    c1b8:	8b0d                	andi	a4,a4,3
C:/Repository/RISKYKVM/firmware/src/User/main.c:87
					if (HostCtl[device].Interface[itf].HIDRptDesc.type
    c1ba:	ee8712e3          	bne	a4,s0,c09e <main+0xf6>
    c1be:	b7c9                	j	c180 <main+0x1d8>
C:/Repository/RISKYKVM/firmware/src/User/main.c:90
			HID_gamepad_Info_TypeDef *gamepad = GetGamepadInfo(
    c1c0:	558a8513          	addi	a0,s5,1368
    c1c4:	cd4fe0ef          	jal	ra,a698 <GetGamepadInfo>
C:/Repository/RISKYKVM/firmware/src/User/main.c:92
							ProcessGamepad(gamepad);
    c1c8:	a5aff0ef          	jal	ra,b422 <ProcessGamepad>
    c1cc:	034c0733          	mul	a4,s8,s4
    c1d0:	9726                	add	a4,a4,s1
    c1d2:	15675703          	lhu	a4,342(a4)
    c1d6:	8b0d                	andi	a4,a4,3
C:/Repository/RISKYKVM/firmware/src/User/main.c:96
					if (HostCtl[device].Interface[itf].HIDRptDesc.type
    c1d8:	eb2718e3          	bne	a4,s2,c088 <main+0xe0>
C:/Repository/RISKYKVM/firmware/src/User/main.c:98
					    HID_Keyboard_Data *kbd = USBH_HID_GetKeyboardInfo(
    c1dc:	558a8513          	addi	a0,s5,1368
    c1e0:	f43fe0ef          	jal	ra,b122 <USBH_HID_GetKeyboardInfo>
C:/Repository/RISKYKVM/firmware/src/User/main.c:100
							amikb_process(kbd);
    c1e4:	edcff0ef          	jal	ra,b8c0 <amikb_process>
    c1e8:	b545                	j	c088 <main+0xe0>
C:/Repository/RISKYKVM/firmware/src/User/main.c:80
					    HID_MOUSE_Data *mousemap = USB_GetMouseInfo(
    c1ea:	558a8513          	addi	a0,s5,1368
    c1ee:	816ff0ef          	jal	ra,b204 <USB_GetMouseInfo>
C:/Repository/RISKYKVM/firmware/src/User/main.c:82
							ProcessMouse(mousemap);
    c1f2:	2a81                	jal	c342 <ProcessMouse>
    c1f4:	156cd703          	lhu	a4,342(s9)
    c1f8:	8b0d                	andi	a4,a4,3
C:/Repository/RISKYKVM/firmware/src/User/main.c:87
					if (HostCtl[device].Interface[itf].HIDRptDesc.type
    c1fa:	e88715e3          	bne	a4,s0,c084 <main+0xdc>
    c1fe:	b7c9                	j	c1c0 <main+0x218>
C:/Repository/RISKYKVM/firmware/src/User/main.c:90
			HID_gamepad_Info_TypeDef *gamepad = GetGamepadInfo(
    c200:	448a8513          	addi	a0,s5,1096
    c204:	c94fe0ef          	jal	ra,a698 <GetGamepadInfo>
C:/Repository/RISKYKVM/firmware/src/User/main.c:92
							ProcessGamepad(gamepad);
    c208:	a1aff0ef          	jal	ra,b422 <ProcessGamepad>
    c20c:	034c0733          	mul	a4,s8,s4
    c210:	9726                	add	a4,a4,s1
    c212:	04675703          	lhu	a4,70(a4)
    c216:	8b0d                	andi	a4,a4,3
C:/Repository/RISKYKVM/firmware/src/User/main.c:96
					if (HostCtl[device].Interface[itf].HIDRptDesc.type
    c218:	e5271be3          	bne	a4,s2,c06e <main+0xc6>
C:/Repository/RISKYKVM/firmware/src/User/main.c:98
					    HID_Keyboard_Data *kbd = USBH_HID_GetKeyboardInfo(
    c21c:	448a8513          	addi	a0,s5,1096
    c220:	f03fe0ef          	jal	ra,b122 <USBH_HID_GetKeyboardInfo>
C:/Repository/RISKYKVM/firmware/src/User/main.c:100
							amikb_process(kbd);
    c224:	e9cff0ef          	jal	ra,b8c0 <amikb_process>
    c228:	b599                	j	c06e <main+0xc6>
C:/Repository/RISKYKVM/firmware/src/User/main.c:49
		HID_gamepad_Info_TypeDef *gamepad = GetGamepadInfo(
    c22a:	200007b7          	lui	a5,0x20000
    c22e:	40c78513          	addi	a0,a5,1036 # 2000040c <HostCtl+0x334>
    c232:	c66fe0ef          	jal	ra,a698 <GetGamepadInfo>
C:/Repository/RISKYKVM/firmware/src/User/main.c:51
						ProcessGamepad(gamepad);
    c236:	9ecff0ef          	jal	ra,b422 <ProcessGamepad>
    c23a:	3764d783          	lhu	a5,886(s1)
    c23e:	8b8d                	andi	a5,a5,3
C:/Repository/RISKYKVM/firmware/src/User/main.c:55
				if (HostCtl[0].Interface[itf].HIDRptDesc.type
    c240:	ef279be3          	bne	a5,s2,c136 <main+0x18e>
    c244:	a0a1                	j	c28c <main+0x2e4>
C:/Repository/RISKYKVM/firmware/src/User/main.c:40
				    HID_MOUSE_Data *mousemap = USB_GetMouseInfo(
    c246:	200007b7          	lui	a5,0x20000
    c24a:	40c78513          	addi	a0,a5,1036 # 2000040c <HostCtl+0x334>
    c24e:	fb7fe0ef          	jal	ra,b204 <USB_GetMouseInfo>
C:/Repository/RISKYKVM/firmware/src/User/main.c:42
					ProcessMouse(mousemap);
    c252:	28c5                	jal	c342 <ProcessMouse>
    c254:	3764d783          	lhu	a5,886(s1)
    c258:	8b8d                	andi	a5,a5,3
C:/Repository/RISKYKVM/firmware/src/User/main.c:46
				if (HostCtl[0].Interface[itf].HIDRptDesc.type
    c25a:	ec879ce3          	bne	a5,s0,c132 <main+0x18a>
    c25e:	b7f1                	j	c22a <main+0x282>
C:/Repository/RISKYKVM/firmware/src/User/main.c:49
		HID_gamepad_Info_TypeDef *gamepad = GetGamepadInfo(
    c260:	200007b7          	lui	a5,0x20000
    c264:	2fc78513          	addi	a0,a5,764 # 200002fc <HostCtl+0x224>
    c268:	c30fe0ef          	jal	ra,a698 <GetGamepadInfo>
C:/Repository/RISKYKVM/firmware/src/User/main.c:51
						ProcessGamepad(gamepad);
    c26c:	9b6ff0ef          	jal	ra,b422 <ProcessGamepad>
    c270:	2664d783          	lhu	a5,614(s1)
    c274:	8b8d                	andi	a5,a5,3
C:/Repository/RISKYKVM/firmware/src/User/main.c:55
				if (HostCtl[0].Interface[itf].HIDRptDesc.type
    c276:	eb2797e3          	bne	a5,s2,c124 <main+0x17c>
C:/Repository/RISKYKVM/firmware/src/User/main.c:58
				    HID_Keyboard_Data *kbd = USBH_HID_GetKeyboardInfo(
    c27a:	200007b7          	lui	a5,0x20000
    c27e:	2fc78513          	addi	a0,a5,764 # 200002fc <HostCtl+0x224>
    c282:	ea1fe0ef          	jal	ra,b122 <USBH_HID_GetKeyboardInfo>
C:/Repository/RISKYKVM/firmware/src/User/main.c:61
					amikb_process(kbd);
    c286:	e3aff0ef          	jal	ra,b8c0 <amikb_process>
    c28a:	bd69                	j	c124 <main+0x17c>
C:/Repository/RISKYKVM/firmware/src/User/main.c:58
				    HID_Keyboard_Data *kbd = USBH_HID_GetKeyboardInfo(
    c28c:	200007b7          	lui	a5,0x20000
    c290:	40c78513          	addi	a0,a5,1036 # 2000040c <HostCtl+0x334>
    c294:	e8ffe0ef          	jal	ra,b122 <USBH_HID_GetKeyboardInfo>
C:/Repository/RISKYKVM/firmware/src/User/main.c:61
					amikb_process(kbd);
    c298:	e28ff0ef          	jal	ra,b8c0 <amikb_process>
    c29c:	001b4783          	lbu	a5,1(s6)
    c2a0:	bd69                	j	c13a <main+0x192>
C:/Repository/RISKYKVM/firmware/src/User/main.c:40
				    HID_MOUSE_Data *mousemap = USB_GetMouseInfo(
    c2a2:	0dcd8513          	addi	a0,s11,220 # 200000dc <HostCtl+0x4>
    c2a6:	f5ffe0ef          	jal	ra,b204 <USB_GetMouseInfo>
C:/Repository/RISKYKVM/firmware/src/User/main.c:42
					ProcessMouse(mousemap);
    c2aa:	2861                	jal	c342 <ProcessMouse>
    c2ac:	0464d783          	lhu	a5,70(s1)
    c2b0:	8b8d                	andi	a5,a5,3
C:/Repository/RISKYKVM/firmware/src/User/main.c:46
				if (HostCtl[0].Interface[itf].HIDRptDesc.type
    c2b2:	e48795e3          	bne	a5,s0,c0fc <main+0x154>
C:/Repository/RISKYKVM/firmware/src/User/main.c:49
		HID_gamepad_Info_TypeDef *gamepad = GetGamepadInfo(
    c2b6:	0dcd8513          	addi	a0,s11,220
    c2ba:	bdefe0ef          	jal	ra,a698 <GetGamepadInfo>
C:/Repository/RISKYKVM/firmware/src/User/main.c:51
						ProcessGamepad(gamepad);
    c2be:	964ff0ef          	jal	ra,b422 <ProcessGamepad>
    c2c2:	0464d783          	lhu	a5,70(s1)
    c2c6:	8b8d                	andi	a5,a5,3
C:/Repository/RISKYKVM/firmware/src/User/main.c:55
				if (HostCtl[0].Interface[itf].HIDRptDesc.type
    c2c8:	e3279ce3          	bne	a5,s2,c100 <main+0x158>
C:/Repository/RISKYKVM/firmware/src/User/main.c:58
				    HID_Keyboard_Data *kbd = USBH_HID_GetKeyboardInfo(
    c2cc:	0dcd8513          	addi	a0,s11,220
    c2d0:	e53fe0ef          	jal	ra,b122 <USBH_HID_GetKeyboardInfo>
C:/Repository/RISKYKVM/firmware/src/User/main.c:61
					amikb_process(kbd);
    c2d4:	decff0ef          	jal	ra,b8c0 <amikb_process>
C:/Repository/RISKYKVM/firmware/src/User/main.c:38
				if (HostCtl[0].Interface[itf].HIDRptDesc.type
    c2d8:	1564d783          	lhu	a5,342(s1)
    c2dc:	8b8d                	andi	a5,a5,3
    c2de:	e33796e3          	bne	a5,s3,c10a <main+0x162>
C:/Repository/RISKYKVM/firmware/src/User/main.c:40
				    HID_MOUSE_Data *mousemap = USB_GetMouseInfo(
    c2e2:	1ecd0513          	addi	a0,s10,492 # 200001ec <HostCtl+0x114>
    c2e6:	f1ffe0ef          	jal	ra,b204 <USB_GetMouseInfo>
C:/Repository/RISKYKVM/firmware/src/User/main.c:42
					ProcessMouse(mousemap);
    c2ea:	28a1                	jal	c342 <ProcessMouse>
    c2ec:	1564d783          	lhu	a5,342(s1)
    c2f0:	8b8d                	andi	a5,a5,3
C:/Repository/RISKYKVM/firmware/src/User/main.c:46
				if (HostCtl[0].Interface[itf].HIDRptDesc.type
    c2f2:	e0879ee3          	bne	a5,s0,c10e <main+0x166>
    c2f6:	a831                	j	c312 <main+0x36a>
C:/Repository/RISKYKVM/firmware/src/User/main.c:40
				    HID_MOUSE_Data *mousemap = USB_GetMouseInfo(
    c2f8:	200007b7          	lui	a5,0x20000
    c2fc:	2fc78513          	addi	a0,a5,764 # 200002fc <HostCtl+0x224>
    c300:	f05fe0ef          	jal	ra,b204 <USB_GetMouseInfo>
C:/Repository/RISKYKVM/firmware/src/User/main.c:42
					ProcessMouse(mousemap);
    c304:	283d                	jal	c342 <ProcessMouse>
    c306:	2664d783          	lhu	a5,614(s1)
    c30a:	8b8d                	andi	a5,a5,3
C:/Repository/RISKYKVM/firmware/src/User/main.c:46
				if (HostCtl[0].Interface[itf].HIDRptDesc.type
    c30c:	e0879ae3          	bne	a5,s0,c120 <main+0x178>
    c310:	bf81                	j	c260 <main+0x2b8>
C:/Repository/RISKYKVM/firmware/src/User/main.c:49
		HID_gamepad_Info_TypeDef *gamepad = GetGamepadInfo(
    c312:	1ecd0513          	addi	a0,s10,492
    c316:	b82fe0ef          	jal	ra,a698 <GetGamepadInfo>
C:/Repository/RISKYKVM/firmware/src/User/main.c:51
						ProcessGamepad(gamepad);
    c31a:	908ff0ef          	jal	ra,b422 <ProcessGamepad>
    c31e:	1564d783          	lhu	a5,342(s1)
    c322:	8b8d                	andi	a5,a5,3
C:/Repository/RISKYKVM/firmware/src/User/main.c:55
				if (HostCtl[0].Interface[itf].HIDRptDesc.type
    c324:	df2797e3          	bne	a5,s2,c112 <main+0x16a>
C:/Repository/RISKYKVM/firmware/src/User/main.c:58
				    HID_Keyboard_Data *kbd = USBH_HID_GetKeyboardInfo(
    c328:	1ecd0513          	addi	a0,s10,492
    c32c:	df7fe0ef          	jal	ra,b122 <USBH_HID_GetKeyboardInfo>
C:/Repository/RISKYKVM/firmware/src/User/main.c:61
					amikb_process(kbd);
    c330:	d90ff0ef          	jal	ra,b8c0 <amikb_process>
    c334:	bbf9                	j	c112 <main+0x16a>

0000c336 <InitMouse>:
InitMouse():
C:/Repository/RISKYKVM/firmware/src/User/mouse.c:24


void InitMouse()
{
    //Init circular buffer
    FifoInit(&ScrollBuffer);
    c336:	20002537          	lui	a0,0x20002
    c33a:	b1850513          	addi	a0,a0,-1256 # 20001b18 <ScrollBuffer>
    c33e:	1b30006f          	j	ccf0 <FifoInit>

0000c342 <ProcessMouse>:
ProcessMouse():
C:/Repository/RISKYKVM/firmware/src/User/mouse.c:156

void ProcessMouse(HID_MOUSE_Data *mousemap) {



	if (mousemap == NULL) return;
    c342:	26050e63          	beqz	a0,c5be <ProcessMouse+0x27c>
C:/Repository/RISKYKVM/firmware/src/User/mouse.c:169
		// If the mouse movement changes direction then disregard any remaining
		// movement units in the previous direction.



		if (mousemap->x > 0 && mouseDirectionX == 0) {
    c346:	00051783          	lh	a5,0(a0)
C:/Repository/RISKYKVM/firmware/src/User/mouse.c:152
void ProcessMouse(HID_MOUSE_Data *mousemap) {
    c34a:	7179                	addi	sp,sp,-48
    c34c:	d606                	sw	ra,44(sp)
    c34e:	d422                	sw	s0,40(sp)
    c350:	d226                	sw	s1,36(sp)
    c352:	d04a                	sw	s2,32(sp)
    c354:	ce4e                	sw	s3,28(sp)
    c356:	cc52                	sw	s4,24(sp)
    c358:	00251703          	lh	a4,2(a0)
C:/Repository/RISKYKVM/firmware/src/User/mouse.c:169
		if (mousemap->x > 0 && mouseDirectionX == 0) {
    c35c:	18f05663          	blez	a5,c4e8 <ProcessMouse+0x1a6>
C:/Repository/RISKYKVM/firmware/src/User/mouse.c:169 (discriminator 1)
    c360:	87418613          	addi	a2,gp,-1932 # 20000074 <mouseDirectionX>
    c364:	00064683          	lbu	a3,0(a2)
    c368:	06e2                	slli	a3,a3,0x18
    c36a:	86e1                	srai	a3,a3,0x18
    c36c:	18069863          	bnez	a3,c4fc <ProcessMouse+0x1ba>
C:/Repository/RISKYKVM/firmware/src/User/mouse.c:170
			mouseDistanceX = 0;
    c370:	87618693          	addi	a3,gp,-1930 # 20000076 <mouseDistanceX>
    c374:	00069023          	sh	zero,0(a3)
C:/Repository/RISKYKVM/firmware/src/User/mouse.c:171
			mouseDirectionX = 1;
    c378:	4585                	li	a1,1
    c37a:	00b60023          	sb	a1,0(a2)
    c37e:	87818613          	addi	a2,gp,-1928 # 20000078 <mouseDistanceY>
C:/Repository/RISKYKVM/firmware/src/User/mouse.c:185
			mouseDirectionY = 0;
		}

		// Process mouse X and Y movement -------------------------------------

		xTimerTop = processMouseMovement(mousemap->x, MOUSEX, 0U, 0U);
    c382:	07e2                	slli	a5,a5,0x18
    c384:	87e1                	srai	a5,a5,0x18
processMouseMovement():
C:/Repository/RISKYKVM/firmware/src/User/mouse.c:37
	if (movementUnits > 0) {
    c386:	1af05163          	blez	a5,c528 <ProcessMouse+0x1e6>
C:/Repository/RISKYKVM/firmware/src/User/mouse.c:49
			mouseDistanceX += movementUnits;
    c38a:	0006d583          	lhu	a1,0(a3)
    c38e:	97ae                	add	a5,a5,a1
    c390:	07c2                	slli	a5,a5,0x10
    c392:	87c1                	srai	a5,a5,0x10
    c394:	00f69023          	sh	a5,0(a3)
C:/Repository/RISKYKVM/firmware/src/User/mouse.c:76
		if (mouseDistanceX > Q_BUFFERLIMIT)
    c398:	0006d783          	lhu	a5,0(a3)
    c39c:	12c00593          	li	a1,300
    c3a0:	07c2                	slli	a5,a5,0x10
    c3a2:	87c1                	srai	a5,a5,0x10
    c3a4:	00f5d463          	bge	a1,a5,c3ac <ProcessMouse+0x6a>
C:/Repository/RISKYKVM/firmware/src/User/mouse.c:77
			mouseDistanceX = Q_BUFFERLIMIT;
    c3a8:	00b69023          	sh	a1,0(a3)
C:/Repository/RISKYKVM/firmware/src/User/mouse.c:85
		timerTopValue = mouseDistanceX;
    c3ac:	0006d683          	lhu	a3,0(a3)
C:/Repository/RISKYKVM/firmware/src/User/mouse.c:90
	if (timerTopValue > 127)
    c3b0:	07f00593          	li	a1,127
    c3b4:	4781                	li	a5,0
C:/Repository/RISKYKVM/firmware/src/User/mouse.c:85
		timerTopValue = mouseDistanceX;
    c3b6:	06c2                	slli	a3,a3,0x10
    c3b8:	82c1                	srli	a3,a3,0x10
C:/Repository/RISKYKVM/firmware/src/User/mouse.c:90
	if (timerTopValue > 127)
    c3ba:	00d5ee63          	bltu	a1,a3,c3d6 <ProcessMouse+0x94>
C:/Repository/RISKYKVM/firmware/src/User/mouse.c:118
	if (timerTopValue != 0) {
    c3be:	0ff00793          	li	a5,255
    c3c2:	ca91                	beqz	a3,c3d6 <ProcessMouse+0x94>
    c3c4:	6789                	lui	a5,0x2
    c3c6:	71078793          	addi	a5,a5,1808 # 2710 <__stack_size+0x1f10>
    c3ca:	02d7c7b3          	div	a5,a5,a3
    c3ce:	8799                	srai	a5,a5,0x6
    c3d0:	17fd                	addi	a5,a5,-1
    c3d2:	0ff7f793          	andi	a5,a5,255
ProcessMouse():
C:/Repository/RISKYKVM/firmware/src/User/mouse.c:185
		xTimerTop = processMouseMovement(mousemap->x, MOUSEX, 0U, 0U);
    c3d6:	200006b7          	lui	a3,0x20000
    c3da:	00f680a3          	sb	a5,1(a3) # 20000001 <xTimerTop>
C:/Repository/RISKYKVM/firmware/src/User/mouse.c:186
		yTimerTop = processMouseMovement(mousemap->y, MOUSEY, 0U, 0U);
    c3de:	01871793          	slli	a5,a4,0x18
    c3e2:	87e1                	srai	a5,a5,0x18
processMouseMovement():
C:/Repository/RISKYKVM/firmware/src/User/mouse.c:37
	if (movementUnits > 0) {
    c3e4:	16f05563          	blez	a5,c54e <ProcessMouse+0x20c>
C:/Repository/RISKYKVM/firmware/src/User/mouse.c:51
			mouseDistanceY += movementUnits;
    c3e8:	00065703          	lhu	a4,0(a2)
    c3ec:	97ba                	add	a5,a5,a4
    c3ee:	07c2                	slli	a5,a5,0x10
    c3f0:	87c1                	srai	a5,a5,0x10
    c3f2:	00f61023          	sh	a5,0(a2)
C:/Repository/RISKYKVM/firmware/src/User/mouse.c:79
		if (mouseDistanceY > Q_BUFFERLIMIT)
    c3f6:	00065783          	lhu	a5,0(a2)
    c3fa:	12c00713          	li	a4,300
    c3fe:	07c2                	slli	a5,a5,0x10
    c400:	87c1                	srai	a5,a5,0x10
    c402:	00f75463          	bge	a4,a5,c40a <ProcessMouse+0xc8>
C:/Repository/RISKYKVM/firmware/src/User/mouse.c:80
			mouseDistanceY = Q_BUFFERLIMIT;
    c406:	00e61023          	sh	a4,0(a2)
C:/Repository/RISKYKVM/firmware/src/User/mouse.c:87
		timerTopValue = mouseDistanceY;
    c40a:	00065703          	lhu	a4,0(a2)
C:/Repository/RISKYKVM/firmware/src/User/mouse.c:90
	if (timerTopValue > 127)
    c40e:	07f00693          	li	a3,127
    c412:	4781                	li	a5,0
C:/Repository/RISKYKVM/firmware/src/User/mouse.c:87
		timerTopValue = mouseDistanceY;
    c414:	0742                	slli	a4,a4,0x10
    c416:	8341                	srli	a4,a4,0x10
C:/Repository/RISKYKVM/firmware/src/User/mouse.c:90
	if (timerTopValue > 127)
    c418:	00e6ee63          	bltu	a3,a4,c434 <ProcessMouse+0xf2>
C:/Repository/RISKYKVM/firmware/src/User/mouse.c:118
	if (timerTopValue != 0) {
    c41c:	0ff00793          	li	a5,255
    c420:	cb11                	beqz	a4,c434 <ProcessMouse+0xf2>
    c422:	6789                	lui	a5,0x2
    c424:	71078793          	addi	a5,a5,1808 # 2710 <__stack_size+0x1f10>
    c428:	02e7c7b3          	div	a5,a5,a4
    c42c:	8799                	srai	a5,a5,0x6
    c42e:	17fd                	addi	a5,a5,-1
    c430:	0ff7f793          	andi	a5,a5,255
ProcessMouse():
C:/Repository/RISKYKVM/firmware/src/User/mouse.c:190

		// Process mouse buttons ----------------------------------------------

		GPIO_WriteBit(LB_GPIO_Port, LB_Pin, !(mousemap->buttons[0]));
    c434:	00450603          	lb	a2,4(a0)
    c438:	892a                	mv	s2,a0
    c43a:	40011537          	lui	a0,0x40011
C:/Repository/RISKYKVM/firmware/src/User/mouse.c:186
		yTimerTop = processMouseMovement(mousemap->y, MOUSEY, 0U, 0U);
    c43e:	20000737          	lui	a4,0x20000
C:/Repository/RISKYKVM/firmware/src/User/mouse.c:190
		GPIO_WriteBit(LB_GPIO_Port, LB_Pin, !(mousemap->buttons[0]));
    c442:	00163613          	seqz	a2,a2
    c446:	65a1                	lui	a1,0x8
    c448:	c0050513          	addi	a0,a0,-1024 # 40010c00 <_eusrstack+0x2000bc00>
C:/Repository/RISKYKVM/firmware/src/User/mouse.c:186
		yTimerTop = processMouseMovement(mousemap->y, MOUSEY, 0U, 0U);
    c44c:	00f70123          	sb	a5,2(a4) # 20000002 <yTimerTop>
C:/Repository/RISKYKVM/firmware/src/User/mouse.c:194

		uint8_t writeBuff = 0;
		uint8_t  numberTics = abs(mousemap->wheel);
		if (previousMMB == 0 && mousemap->buttons[2] == 1)
    c450:	87c18493          	addi	s1,gp,-1924 # 2000007c <previousMMB>
C:/Repository/RISKYKVM/firmware/src/User/mouse.c:190
		GPIO_WriteBit(LB_GPIO_Port, LB_Pin, !(mousemap->buttons[0]));
    c454:	104010ef          	jal	ra,d558 <GPIO_WriteBit>
C:/Repository/RISKYKVM/firmware/src/User/mouse.c:194
		if (previousMMB == 0 && mousemap->buttons[2] == 1)
    c458:	0004c783          	lbu	a5,0(s1)
C:/Repository/RISKYKVM/firmware/src/User/mouse.c:192
		uint8_t writeBuff = 0;
    c45c:	000107a3          	sb	zero,15(sp)
C:/Repository/RISKYKVM/firmware/src/User/mouse.c:193
		uint8_t  numberTics = abs(mousemap->wheel);
    c460:	00891403          	lh	s0,8(s2)
C:/Repository/RISKYKVM/firmware/src/User/mouse.c:194
		if (previousMMB == 0 && mousemap->buttons[2] == 1)
    c464:	0ff7f793          	andi	a5,a5,255
    c468:	e791                	bnez	a5,c474 <ProcessMouse+0x132>
C:/Repository/RISKYKVM/firmware/src/User/mouse.c:194 (discriminator 1)
    c46a:	00690a03          	lb	s4,6(s2)
    c46e:	4785                	li	a5,1
    c470:	16fa0e63          	beq	s4,a5,c5ec <ProcessMouse+0x2aa>
C:/Repository/RISKYKVM/firmware/src/User/mouse.c:200
		{
		    writeBuff = CODE_MMB_DOWN;
		    FifoWrite(&ScrollBuffer,&writeBuff , 1);
		    previousMMB = 1;
		}
		if (previousMMB == 1 &&mousemap->buttons[2] == 0) {
    c474:	0004c783          	lbu	a5,0(s1)
    c478:	4705                	li	a4,1
    c47a:	0cf70e63          	beq	a4,a5,c556 <ProcessMouse+0x214>
C:/Repository/RISKYKVM/firmware/src/User/mouse.c:208
            FifoWrite(&ScrollBuffer,&writeBuff , 1);
            previousMMB = 0;
	   }


		if (mousemap->wheel !=0)
    c47e:	00891783          	lh	a5,8(s2)
    c482:	cf95                	beqz	a5,c4be <ProcessMouse+0x17c>
C:/Repository/RISKYKVM/firmware/src/User/mouse.c:193
		uint8_t  numberTics = abs(mousemap->wheel);
    c484:	41f45713          	srai	a4,s0,0x1f
    c488:	008744b3          	xor	s1,a4,s0
    c48c:	8c99                	sub	s1,s1,a4
    c48e:	0ff4f493          	andi	s1,s1,255
C:/Repository/RISKYKVM/firmware/src/User/mouse.c:210
		{
		    if (mousemap->wheel > 0)
    c492:	12f05763          	blez	a5,c5c0 <ProcessMouse+0x27e>
C:/Repository/RISKYKVM/firmware/src/User/mouse.c:212
		    {
		        writeBuff = CODE_WHEEL_UP;
    c496:	47ad                	li	a5,11
    c498:	00f107a3          	sb	a5,15(sp)
C:/Repository/RISKYKVM/firmware/src/User/mouse.c:213
		        for( uint8_t i = 0; i<numberTics ;i++)
    c49c:	c08d                	beqz	s1,c4be <ProcessMouse+0x17c>
    c49e:	4401                	li	s0,0
    c4a0:	00f10a13          	addi	s4,sp,15
    c4a4:	200029b7          	lui	s3,0x20002
C:/Repository/RISKYKVM/firmware/src/User/mouse.c:213 (discriminator 3)
    c4a8:	0405                	addi	s0,s0,1
C:/Repository/RISKYKVM/firmware/src/User/mouse.c:215 (discriminator 3)
		        {
		            FifoWrite(&ScrollBuffer,&writeBuff , 1);
    c4aa:	4605                	li	a2,1
    c4ac:	85d2                	mv	a1,s4
    c4ae:	b1898513          	addi	a0,s3,-1256 # 20001b18 <ScrollBuffer>
C:/Repository/RISKYKVM/firmware/src/User/mouse.c:213 (discriminator 3)
		        for( uint8_t i = 0; i<numberTics ;i++)
    c4b2:	0ff47413          	andi	s0,s0,255
C:/Repository/RISKYKVM/firmware/src/User/mouse.c:215 (discriminator 3)
		            FifoWrite(&ScrollBuffer,&writeBuff , 1);
    c4b6:	0bd000ef          	jal	ra,cd72 <FifoWrite>
C:/Repository/RISKYKVM/firmware/src/User/mouse.c:213 (discriminator 3)
		        for( uint8_t i = 0; i<numberTics ;i++)
    c4ba:	fe8497e3          	bne	s1,s0,c4a8 <ProcessMouse+0x166>
C:/Repository/RISKYKVM/firmware/src/User/mouse.c:228
                }
            }

		}

		GPIO_WriteBit(RB_GPIO_Port, RB_Pin, !(mousemap->buttons[1]));
    c4be:	00590603          	lb	a2,5(s2)
    c4c2:	6585                	lui	a1,0x1
    c4c4:	40011537          	lui	a0,0x40011
    c4c8:	00163613          	seqz	a2,a2
    c4cc:	80058593          	addi	a1,a1,-2048 # 800 <__stack_size>
    c4d0:	c0050513          	addi	a0,a0,-1024 # 40010c00 <_eusrstack+0x2000bc00>
    c4d4:	084010ef          	jal	ra,d558 <GPIO_WriteBit>
C:/Repository/RISKYKVM/firmware/src/User/mouse.c:230

}
    c4d8:	50b2                	lw	ra,44(sp)
    c4da:	5422                	lw	s0,40(sp)
    c4dc:	5492                	lw	s1,36(sp)
    c4de:	5902                	lw	s2,32(sp)
    c4e0:	49f2                	lw	s3,28(sp)
    c4e2:	4a62                	lw	s4,24(sp)
    c4e4:	6145                	addi	sp,sp,48
    c4e6:	8082                	ret
C:/Repository/RISKYKVM/firmware/src/User/mouse.c:172
		} else if (mousemap->x < 0 && mouseDirectionX == 1) {
    c4e8:	cb91                	beqz	a5,c4fc <ProcessMouse+0x1ba>
C:/Repository/RISKYKVM/firmware/src/User/mouse.c:172 (discriminator 1)
    c4ea:	87418613          	addi	a2,gp,-1932 # 20000074 <mouseDirectionX>
    c4ee:	00064683          	lbu	a3,0(a2)
    c4f2:	4585                	li	a1,1
    c4f4:	06e2                	slli	a3,a3,0x18
    c4f6:	86e1                	srai	a3,a3,0x18
    c4f8:	0ab68a63          	beq	a3,a1,c5ac <ProcessMouse+0x26a>
C:/Repository/RISKYKVM/firmware/src/User/mouse.c:175
		} else if (mousemap->y > 0 && mouseDirectionY == 0) {
    c4fc:	02e05a63          	blez	a4,c530 <ProcessMouse+0x1ee>
C:/Repository/RISKYKVM/firmware/src/User/mouse.c:175 (discriminator 1)
    c500:	87518693          	addi	a3,gp,-1931 # 20000075 <mouseDirectionY>
    c504:	0006c603          	lbu	a2,0(a3)
    c508:	0662                	slli	a2,a2,0x18
    c50a:	8661                	srai	a2,a2,0x18
    c50c:	ee05                	bnez	a2,c544 <ProcessMouse+0x202>
C:/Repository/RISKYKVM/firmware/src/User/mouse.c:176
			mouseDistanceY = 0;
    c50e:	87818613          	addi	a2,gp,-1928 # 20000078 <mouseDistanceY>
    c512:	00061023          	sh	zero,0(a2)
C:/Repository/RISKYKVM/firmware/src/User/mouse.c:177
			mouseDirectionY = 1;
    c516:	4585                	li	a1,1
C:/Repository/RISKYKVM/firmware/src/User/mouse.c:185
		xTimerTop = processMouseMovement(mousemap->x, MOUSEX, 0U, 0U);
    c518:	07e2                	slli	a5,a5,0x18
C:/Repository/RISKYKVM/firmware/src/User/mouse.c:177
			mouseDirectionY = 1;
    c51a:	00b68023          	sb	a1,0(a3)
C:/Repository/RISKYKVM/firmware/src/User/mouse.c:185
		xTimerTop = processMouseMovement(mousemap->x, MOUSEX, 0U, 0U);
    c51e:	87e1                	srai	a5,a5,0x18
    c520:	87618693          	addi	a3,gp,-1930 # 20000076 <mouseDistanceX>
processMouseMovement():
C:/Repository/RISKYKVM/firmware/src/User/mouse.c:37
	if (movementUnits > 0) {
    c524:	e6f043e3          	bgtz	a5,c38a <ProcessMouse+0x48>
C:/Repository/RISKYKVM/firmware/src/User/mouse.c:52
	} else if (movementUnits < 0) {
    c528:	ebad                	bnez	a5,c59a <ProcessMouse+0x258>
C:/Repository/RISKYKVM/firmware/src/User/mouse.c:69
			mouseDistanceX = 0;
    c52a:	00069023          	sh	zero,0(a3)
    c52e:	b5ad                	j	c398 <ProcessMouse+0x56>
ProcessMouse():
C:/Repository/RISKYKVM/firmware/src/User/mouse.c:178
		} else if (mousemap->y < 0 && mouseDirectionY == 1) {
    c530:	cb11                	beqz	a4,c544 <ProcessMouse+0x202>
C:/Repository/RISKYKVM/firmware/src/User/mouse.c:178 (discriminator 1)
    c532:	87518693          	addi	a3,gp,-1931 # 20000075 <mouseDirectionY>
    c536:	0006c603          	lbu	a2,0(a3)
    c53a:	4585                	li	a1,1
    c53c:	0662                	slli	a2,a2,0x18
    c53e:	8661                	srai	a2,a2,0x18
    c540:	0cb60563          	beq	a2,a1,c60a <ProcessMouse+0x2c8>
    c544:	87618693          	addi	a3,gp,-1930 # 20000076 <mouseDistanceX>
    c548:	87818613          	addi	a2,gp,-1928 # 20000078 <mouseDistanceY>
    c54c:	bd1d                	j	c382 <ProcessMouse+0x40>
processMouseMovement():
C:/Repository/RISKYKVM/firmware/src/User/mouse.c:52
	} else if (movementUnits < 0) {
    c54e:	ef8d                	bnez	a5,c588 <ProcessMouse+0x246>
C:/Repository/RISKYKVM/firmware/src/User/mouse.c:71
			mouseDistanceY = 0;
    c550:	00061023          	sh	zero,0(a2)
    c554:	b54d                	j	c3f6 <ProcessMouse+0xb4>
ProcessMouse():
C:/Repository/RISKYKVM/firmware/src/User/mouse.c:200 (discriminator 1)
		if (previousMMB == 1 &&mousemap->buttons[2] == 0) {
    c556:	00690783          	lb	a5,6(s2)
    c55a:	f395                	bnez	a5,c47e <ProcessMouse+0x13c>
C:/Repository/RISKYKVM/firmware/src/User/mouse.c:202
            FifoWrite(&ScrollBuffer,&writeBuff , 1);
    c55c:	00f10a13          	addi	s4,sp,15
    c560:	200029b7          	lui	s3,0x20002
C:/Repository/RISKYKVM/firmware/src/User/mouse.c:201
            writeBuff = CODE_MMB_UP;
    c564:	47b9                	li	a5,14
C:/Repository/RISKYKVM/firmware/src/User/mouse.c:202
            FifoWrite(&ScrollBuffer,&writeBuff , 1);
    c566:	4605                	li	a2,1
    c568:	85d2                	mv	a1,s4
    c56a:	b1898513          	addi	a0,s3,-1256 # 20001b18 <ScrollBuffer>
C:/Repository/RISKYKVM/firmware/src/User/mouse.c:201
            writeBuff = CODE_MMB_UP;
    c56e:	00f107a3          	sb	a5,15(sp)
C:/Repository/RISKYKVM/firmware/src/User/mouse.c:202
            FifoWrite(&ScrollBuffer,&writeBuff , 1);
    c572:	001000ef          	jal	ra,cd72 <FifoWrite>
C:/Repository/RISKYKVM/firmware/src/User/mouse.c:203
            FifoWrite(&ScrollBuffer,&writeBuff , 1);
    c576:	4605                	li	a2,1
    c578:	85d2                	mv	a1,s4
    c57a:	b1898513          	addi	a0,s3,-1256
    c57e:	7f4000ef          	jal	ra,cd72 <FifoWrite>
C:/Repository/RISKYKVM/firmware/src/User/mouse.c:204
            previousMMB = 0;
    c582:	00048023          	sb	zero,0(s1)
    c586:	bde5                	j	c47e <ProcessMouse+0x13c>
processMouseMovement():
C:/Repository/RISKYKVM/firmware/src/User/mouse.c:66
			mouseDistanceY += -movementUnits;
    c588:	00065703          	lhu	a4,0(a2)
    c58c:	40f707b3          	sub	a5,a4,a5
    c590:	07c2                	slli	a5,a5,0x10
    c592:	87c1                	srai	a5,a5,0x10
    c594:	00f61023          	sh	a5,0(a2)
    c598:	bdb9                	j	c3f6 <ProcessMouse+0xb4>
C:/Repository/RISKYKVM/firmware/src/User/mouse.c:64
			mouseDistanceX += -movementUnits;
    c59a:	0006d583          	lhu	a1,0(a3)
    c59e:	40f587b3          	sub	a5,a1,a5
    c5a2:	07c2                	slli	a5,a5,0x10
    c5a4:	87c1                	srai	a5,a5,0x10
    c5a6:	00f69023          	sh	a5,0(a3)
    c5aa:	b3fd                	j	c398 <ProcessMouse+0x56>
ProcessMouse():
C:/Repository/RISKYKVM/firmware/src/User/mouse.c:173
			mouseDistanceX = 0;
    c5ac:	87618693          	addi	a3,gp,-1930 # 20000076 <mouseDistanceX>
    c5b0:	00069023          	sh	zero,0(a3)
C:/Repository/RISKYKVM/firmware/src/User/mouse.c:174
			mouseDirectionX = 0;
    c5b4:	00060023          	sb	zero,0(a2)
    c5b8:	87818613          	addi	a2,gp,-1928 # 20000078 <mouseDistanceY>
    c5bc:	b3d9                	j	c382 <ProcessMouse+0x40>
    c5be:	8082                	ret
C:/Repository/RISKYKVM/firmware/src/User/mouse.c:219
		        writeBuff = CODE_WHEEL_DOWN;
    c5c0:	479d                	li	a5,7
    c5c2:	00f107a3          	sb	a5,15(sp)
C:/Repository/RISKYKVM/firmware/src/User/mouse.c:220
                for( uint8_t i = 0; i<numberTics ;i++)
    c5c6:	ee048ce3          	beqz	s1,c4be <ProcessMouse+0x17c>
    c5ca:	4401                	li	s0,0
    c5cc:	00f10a13          	addi	s4,sp,15
    c5d0:	200029b7          	lui	s3,0x20002
C:/Repository/RISKYKVM/firmware/src/User/mouse.c:220 (discriminator 3)
    c5d4:	0405                	addi	s0,s0,1
C:/Repository/RISKYKVM/firmware/src/User/mouse.c:222 (discriminator 3)
                    FifoWrite(&ScrollBuffer,&writeBuff , 1);
    c5d6:	4605                	li	a2,1
    c5d8:	85d2                	mv	a1,s4
    c5da:	b1898513          	addi	a0,s3,-1256 # 20001b18 <ScrollBuffer>
C:/Repository/RISKYKVM/firmware/src/User/mouse.c:220 (discriminator 3)
                for( uint8_t i = 0; i<numberTics ;i++)
    c5de:	0ff47413          	andi	s0,s0,255
C:/Repository/RISKYKVM/firmware/src/User/mouse.c:222 (discriminator 3)
                    FifoWrite(&ScrollBuffer,&writeBuff , 1);
    c5e2:	790000ef          	jal	ra,cd72 <FifoWrite>
C:/Repository/RISKYKVM/firmware/src/User/mouse.c:220 (discriminator 3)
                for( uint8_t i = 0; i<numberTics ;i++)
    c5e6:	fe8497e3          	bne	s1,s0,c5d4 <ProcessMouse+0x292>
    c5ea:	bdd1                	j	c4be <ProcessMouse+0x17c>
C:/Repository/RISKYKVM/firmware/src/User/mouse.c:197
		    FifoWrite(&ScrollBuffer,&writeBuff , 1);
    c5ec:	200029b7          	lui	s3,0x20002
C:/Repository/RISKYKVM/firmware/src/User/mouse.c:196
		    writeBuff = CODE_MMB_DOWN;
    c5f0:	47b5                	li	a5,13
C:/Repository/RISKYKVM/firmware/src/User/mouse.c:197
		    FifoWrite(&ScrollBuffer,&writeBuff , 1);
    c5f2:	4605                	li	a2,1
    c5f4:	00f10593          	addi	a1,sp,15
    c5f8:	b1898513          	addi	a0,s3,-1256 # 20001b18 <ScrollBuffer>
C:/Repository/RISKYKVM/firmware/src/User/mouse.c:196
		    writeBuff = CODE_MMB_DOWN;
    c5fc:	00f107a3          	sb	a5,15(sp)
C:/Repository/RISKYKVM/firmware/src/User/mouse.c:197
		    FifoWrite(&ScrollBuffer,&writeBuff , 1);
    c600:	772000ef          	jal	ra,cd72 <FifoWrite>
C:/Repository/RISKYKVM/firmware/src/User/mouse.c:198
		    previousMMB = 1;
    c604:	01448023          	sb	s4,0(s1)
    c608:	b5b5                	j	c474 <ProcessMouse+0x132>
C:/Repository/RISKYKVM/firmware/src/User/mouse.c:179
			mouseDistanceY = 0;
    c60a:	87818613          	addi	a2,gp,-1928 # 20000078 <mouseDistanceY>
    c60e:	00061023          	sh	zero,0(a2)
C:/Repository/RISKYKVM/firmware/src/User/mouse.c:180
			mouseDirectionY = 0;
    c612:	00068023          	sb	zero,0(a3)
    c616:	87618693          	addi	a3,gp,-1930 # 20000076 <mouseDistanceX>
    c61a:	b3a5                	j	c382 <ProcessMouse+0x40>

0000c61c <ProcessX_IRQ>:
ProcessX_IRQ():
C:/Repository/RISKYKVM/firmware/src/User/mouse.c:232

void ProcessX_IRQ() {
    c61c:	1141                	addi	sp,sp,-16
    c61e:	c226                	sw	s1,4(sp)
C:/Repository/RISKYKVM/firmware/src/User/mouse.c:237



	// Process X output
	if (mouseDistanceX > 0) {
    c620:	87618493          	addi	s1,gp,-1930 # 20000076 <mouseDistanceX>
    c624:	0004d783          	lhu	a5,0(s1)
C:/Repository/RISKYKVM/firmware/src/User/mouse.c:232
void ProcessX_IRQ() {
    c628:	c606                	sw	ra,12(sp)
    c62a:	c422                	sw	s0,8(sp)
C:/Repository/RISKYKVM/firmware/src/User/mouse.c:237
	if (mouseDistanceX > 0) {
    c62c:	07c2                	slli	a5,a5,0x10
    c62e:	87c1                	srai	a5,a5,0x10
    c630:	0cf05b63          	blez	a5,c706 <ProcessX_IRQ+0xea>
C:/Repository/RISKYKVM/firmware/src/User/mouse.c:240
		// Set the output pins according to the current phase BH RHQ FV LVQ

		if (mouseEncoderPhaseX == 0)
    c634:	87a18413          	addi	s0,gp,-1926 # 2000007a <mouseEncoderPhaseX>
    c638:	00044783          	lbu	a5,0(s0)
    c63c:	07e2                	slli	a5,a5,0x18
    c63e:	87e1                	srai	a5,a5,0x18
    c640:	c3e5                	beqz	a5,c720 <ProcessX_IRQ+0x104>
C:/Repository/RISKYKVM/firmware/src/User/mouse.c:242
			GPIO_WriteBit(BH_GPIO_Port, BH_Pin, !(1));	// Set X1 to 1
		if (mouseEncoderPhaseX == 1)
    c642:	00044783          	lbu	a5,0(s0)
    c646:	4705                	li	a4,1
    c648:	07e2                	slli	a5,a5,0x18
    c64a:	87e1                	srai	a5,a5,0x18
    c64c:	0ee78e63          	beq	a5,a4,c748 <ProcessX_IRQ+0x12c>
C:/Repository/RISKYKVM/firmware/src/User/mouse.c:244
			GPIO_WriteBit(RHQ_GPIO_Port, RHQ_Pin, !(1));	// Set X2 to 1
		if (mouseEncoderPhaseX == 2)
    c650:	00044783          	lbu	a5,0(s0)
    c654:	4709                	li	a4,2
    c656:	07e2                	slli	a5,a5,0x18
    c658:	87e1                	srai	a5,a5,0x18
    c65a:	10e78663          	beq	a5,a4,c766 <ProcessX_IRQ+0x14a>
C:/Repository/RISKYKVM/firmware/src/User/mouse.c:246
			GPIO_WriteBit(BH_GPIO_Port, BH_Pin, !(0));	// Set X1 to 0
		if (mouseEncoderPhaseX == 3)
    c65e:	00044783          	lbu	a5,0(s0)
    c662:	470d                	li	a4,3
    c664:	07e2                	slli	a5,a5,0x18
    c666:	87e1                	srai	a5,a5,0x18
    c668:	10e78e63          	beq	a5,a4,c784 <ProcessX_IRQ+0x168>
C:/Repository/RISKYKVM/firmware/src/User/mouse.c:250
			GPIO_WriteBit(RHQ_GPIO_Port, RHQ_Pin, !(0));	// Set X2 to 0

		// Change phase
		if (mouseDirectionX == 0)
    c66c:	87418793          	addi	a5,gp,-1932 # 20000074 <mouseDirectionX>
    c670:	0007c703          	lbu	a4,0(a5)
    c674:	0762                	slli	a4,a4,0x18
    c676:	8761                	srai	a4,a4,0x18
    c678:	c725                	beqz	a4,c6e0 <ProcessX_IRQ+0xc4>
C:/Repository/RISKYKVM/firmware/src/User/mouse.c:253
			mouseEncoderPhaseX--;
		else
			mouseEncoderPhaseX++;
    c67a:	00044703          	lbu	a4,0(s0)
    c67e:	0705                	addi	a4,a4,1
    c680:	0762                	slli	a4,a4,0x18
    c682:	8761                	srai	a4,a4,0x18
    c684:	00e40023          	sb	a4,0(s0)
C:/Repository/RISKYKVM/firmware/src/User/mouse.c:256

		// Decrement the distance left to move
		mouseDistanceX--;
    c688:	0004d703          	lhu	a4,0(s1)
C:/Repository/RISKYKVM/firmware/src/User/mouse.c:259

		// Range check the phase
		if ((mouseDirectionX == 1) && (mouseEncoderPhaseX > 3))
    c68c:	4685                	li	a3,1
C:/Repository/RISKYKVM/firmware/src/User/mouse.c:256
		mouseDistanceX--;
    c68e:	177d                	addi	a4,a4,-1
    c690:	0742                	slli	a4,a4,0x10
    c692:	8741                	srai	a4,a4,0x10
    c694:	00e49023          	sh	a4,0(s1)
C:/Repository/RISKYKVM/firmware/src/User/mouse.c:259
		if ((mouseDirectionX == 1) && (mouseEncoderPhaseX > 3))
    c698:	0007c703          	lbu	a4,0(a5)
    c69c:	0762                	slli	a4,a4,0x18
    c69e:	8761                	srai	a4,a4,0x18
    c6a0:	06d70663          	beq	a4,a3,c70c <ProcessX_IRQ+0xf0>
C:/Repository/RISKYKVM/firmware/src/User/mouse.c:261
			mouseEncoderPhaseX = 0;
		if ((mouseDirectionX == 0) && (mouseEncoderPhaseX < 0))
    c6a4:	0007c783          	lbu	a5,0(a5)
    c6a8:	07e2                	slli	a5,a5,0x18
    c6aa:	87e1                	srai	a5,a5,0x18
    c6ac:	e799                	bnez	a5,c6ba <ProcessX_IRQ+0x9e>
C:/Repository/RISKYKVM/firmware/src/User/mouse.c:261 (discriminator 1)
    c6ae:	00044783          	lbu	a5,0(s0)
    c6b2:	07e2                	slli	a5,a5,0x18
    c6b4:	87e1                	srai	a5,a5,0x18
    c6b6:	0807c563          	bltz	a5,c740 <ProcessX_IRQ+0x124>
C:/Repository/RISKYKVM/firmware/src/User/mouse.c:269
		// Reset the phase if the mouse isn't moving
		mouseEncoderPhaseX = 0;
	}

	// Set the timer top value for the next interrupt
	if (xTimerTop == 0) {
    c6ba:	200007b7          	lui	a5,0x20000
    c6be:	00178793          	addi	a5,a5,1 # 20000001 <xTimerTop>
    c6c2:	0007c703          	lbu	a4,0(a5)
    c6c6:	0ff77713          	andi	a4,a4,255
    c6ca:	e31d                	bnez	a4,c6f0 <ProcessX_IRQ+0xd4>
C:/Repository/RISKYKVM/firmware/src/User/mouse.c:275
		TIM2->ATRLR = 1;
	} else {
		TIM2->ATRLR = xTimerTop;
	}

}
    c6cc:	40b2                	lw	ra,12(sp)
    c6ce:	4422                	lw	s0,8(sp)
C:/Repository/RISKYKVM/firmware/src/User/mouse.c:270
		TIM2->ATRLR = 1;
    c6d0:	400007b7          	lui	a5,0x40000
    c6d4:	4705                	li	a4,1
    c6d6:	02e79623          	sh	a4,44(a5) # 4000002c <_eusrstack+0x1fffb02c>
C:/Repository/RISKYKVM/firmware/src/User/mouse.c:275
}
    c6da:	4492                	lw	s1,4(sp)
    c6dc:	0141                	addi	sp,sp,16
    c6de:	8082                	ret
C:/Repository/RISKYKVM/firmware/src/User/mouse.c:251
			mouseEncoderPhaseX--;
    c6e0:	00044703          	lbu	a4,0(s0)
    c6e4:	177d                	addi	a4,a4,-1
    c6e6:	0762                	slli	a4,a4,0x18
    c6e8:	8761                	srai	a4,a4,0x18
    c6ea:	00e40023          	sb	a4,0(s0)
    c6ee:	bf69                	j	c688 <ProcessX_IRQ+0x6c>
C:/Repository/RISKYKVM/firmware/src/User/mouse.c:272
		TIM2->ATRLR = xTimerTop;
    c6f0:	0007c783          	lbu	a5,0(a5)
C:/Repository/RISKYKVM/firmware/src/User/mouse.c:275
}
    c6f4:	40b2                	lw	ra,12(sp)
    c6f6:	4422                	lw	s0,8(sp)
C:/Repository/RISKYKVM/firmware/src/User/mouse.c:272
		TIM2->ATRLR = xTimerTop;
    c6f8:	40000737          	lui	a4,0x40000
    c6fc:	02f71623          	sh	a5,44(a4) # 4000002c <_eusrstack+0x1fffb02c>
C:/Repository/RISKYKVM/firmware/src/User/mouse.c:275
}
    c700:	4492                	lw	s1,4(sp)
    c702:	0141                	addi	sp,sp,16
    c704:	8082                	ret
C:/Repository/RISKYKVM/firmware/src/User/mouse.c:265
		mouseEncoderPhaseX = 0;
    c706:	86018d23          	sb	zero,-1926(gp) # 2000007a <mouseEncoderPhaseX>
    c70a:	bf45                	j	c6ba <ProcessX_IRQ+0x9e>
C:/Repository/RISKYKVM/firmware/src/User/mouse.c:259 (discriminator 1)
		if ((mouseDirectionX == 1) && (mouseEncoderPhaseX > 3))
    c70c:	00044703          	lbu	a4,0(s0)
    c710:	468d                	li	a3,3
    c712:	0762                	slli	a4,a4,0x18
    c714:	8761                	srai	a4,a4,0x18
    c716:	f8e6d7e3          	bge	a3,a4,c6a4 <ProcessX_IRQ+0x88>
C:/Repository/RISKYKVM/firmware/src/User/mouse.c:260
			mouseEncoderPhaseX = 0;
    c71a:	00040023          	sb	zero,0(s0)
    c71e:	b759                	j	c6a4 <ProcessX_IRQ+0x88>
C:/Repository/RISKYKVM/firmware/src/User/mouse.c:241
			GPIO_WriteBit(BH_GPIO_Port, BH_Pin, !(1));	// Set X1 to 1
    c720:	40011537          	lui	a0,0x40011
    c724:	4601                	li	a2,0
    c726:	6591                	lui	a1,0x4
    c728:	c0050513          	addi	a0,a0,-1024 # 40010c00 <_eusrstack+0x2000bc00>
    c72c:	62d000ef          	jal	ra,d558 <GPIO_WriteBit>
C:/Repository/RISKYKVM/firmware/src/User/mouse.c:242
		if (mouseEncoderPhaseX == 1)
    c730:	00044783          	lbu	a5,0(s0)
    c734:	4705                	li	a4,1
    c736:	07e2                	slli	a5,a5,0x18
    c738:	87e1                	srai	a5,a5,0x18
    c73a:	f0e79be3          	bne	a5,a4,c650 <ProcessX_IRQ+0x34>
    c73e:	a029                	j	c748 <ProcessX_IRQ+0x12c>
C:/Repository/RISKYKVM/firmware/src/User/mouse.c:262
			mouseEncoderPhaseX = 3;
    c740:	478d                	li	a5,3
    c742:	00f40023          	sb	a5,0(s0)
    c746:	bf95                	j	c6ba <ProcessX_IRQ+0x9e>
C:/Repository/RISKYKVM/firmware/src/User/mouse.c:243
			GPIO_WriteBit(RHQ_GPIO_Port, RHQ_Pin, !(1));	// Set X2 to 1
    c748:	40011537          	lui	a0,0x40011
    c74c:	4601                	li	a2,0
    c74e:	6585                	lui	a1,0x1
    c750:	c0050513          	addi	a0,a0,-1024 # 40010c00 <_eusrstack+0x2000bc00>
    c754:	605000ef          	jal	ra,d558 <GPIO_WriteBit>
C:/Repository/RISKYKVM/firmware/src/User/mouse.c:244
		if (mouseEncoderPhaseX == 2)
    c758:	00044783          	lbu	a5,0(s0)
    c75c:	4709                	li	a4,2
    c75e:	07e2                	slli	a5,a5,0x18
    c760:	87e1                	srai	a5,a5,0x18
    c762:	eee79ee3          	bne	a5,a4,c65e <ProcessX_IRQ+0x42>
C:/Repository/RISKYKVM/firmware/src/User/mouse.c:245
			GPIO_WriteBit(BH_GPIO_Port, BH_Pin, !(0));	// Set X1 to 0
    c766:	40011537          	lui	a0,0x40011
    c76a:	4605                	li	a2,1
    c76c:	6591                	lui	a1,0x4
    c76e:	c0050513          	addi	a0,a0,-1024 # 40010c00 <_eusrstack+0x2000bc00>
    c772:	5e7000ef          	jal	ra,d558 <GPIO_WriteBit>
C:/Repository/RISKYKVM/firmware/src/User/mouse.c:246
		if (mouseEncoderPhaseX == 3)
    c776:	00044783          	lbu	a5,0(s0)
    c77a:	470d                	li	a4,3
    c77c:	07e2                	slli	a5,a5,0x18
    c77e:	87e1                	srai	a5,a5,0x18
    c780:	eee796e3          	bne	a5,a4,c66c <ProcessX_IRQ+0x50>
C:/Repository/RISKYKVM/firmware/src/User/mouse.c:247
			GPIO_WriteBit(RHQ_GPIO_Port, RHQ_Pin, !(0));	// Set X2 to 0
    c784:	40011537          	lui	a0,0x40011
    c788:	4605                	li	a2,1
    c78a:	6585                	lui	a1,0x1
    c78c:	c0050513          	addi	a0,a0,-1024 # 40010c00 <_eusrstack+0x2000bc00>
    c790:	5c9000ef          	jal	ra,d558 <GPIO_WriteBit>
C:/Repository/RISKYKVM/firmware/src/User/mouse.c:250
		if (mouseDirectionX == 0)
    c794:	87418793          	addi	a5,gp,-1932 # 20000074 <mouseDirectionX>
    c798:	0007c703          	lbu	a4,0(a5)
    c79c:	0762                	slli	a4,a4,0x18
    c79e:	8761                	srai	a4,a4,0x18
    c7a0:	ec071de3          	bnez	a4,c67a <ProcessX_IRQ+0x5e>
    c7a4:	bf35                	j	c6e0 <ProcessX_IRQ+0xc4>

0000c7a6 <ProcessY_IRQ>:
ProcessY_IRQ():
C:/Repository/RISKYKVM/firmware/src/User/mouse.c:277

void ProcessY_IRQ() {
    c7a6:	1141                	addi	sp,sp,-16
    c7a8:	c226                	sw	s1,4(sp)
C:/Repository/RISKYKVM/firmware/src/User/mouse.c:281


// Process Y output
	if (mouseDistanceY > 0) {
    c7aa:	87818493          	addi	s1,gp,-1928 # 20000078 <mouseDistanceY>
    c7ae:	0004d783          	lhu	a5,0(s1)
C:/Repository/RISKYKVM/firmware/src/User/mouse.c:277
void ProcessY_IRQ() {
    c7b2:	c606                	sw	ra,12(sp)
    c7b4:	c422                	sw	s0,8(sp)
C:/Repository/RISKYKVM/firmware/src/User/mouse.c:281
	if (mouseDistanceY > 0) {
    c7b6:	07c2                	slli	a5,a5,0x10
    c7b8:	87c1                	srai	a5,a5,0x10
    c7ba:	0cf05b63          	blez	a5,c890 <ProcessY_IRQ+0xea>
C:/Repository/RISKYKVM/firmware/src/User/mouse.c:283
		// Set the output pins according to the current phase
		if (mouseEncoderPhaseY == 3)
    c7be:	87b18413          	addi	s0,gp,-1925 # 2000007b <mouseEncoderPhaseY>
    c7c2:	00044783          	lbu	a5,0(s0)
    c7c6:	470d                	li	a4,3
    c7c8:	07e2                	slli	a5,a5,0x18
    c7ca:	87e1                	srai	a5,a5,0x18
    c7cc:	12e78563          	beq	a5,a4,c8f6 <ProcessY_IRQ+0x150>
C:/Repository/RISKYKVM/firmware/src/User/mouse.c:287
		{
			GPIO_WriteBit(LVQ_GPIO_Port, LVQ_Pin, !(0));	// Set Y1 to 0
		}
		if (mouseEncoderPhaseY == 2)
    c7d0:	00044783          	lbu	a5,0(s0)
    c7d4:	4709                	li	a4,2
    c7d6:	07e2                	slli	a5,a5,0x18
    c7d8:	87e1                	srai	a5,a5,0x18
    c7da:	0ee78d63          	beq	a5,a4,c8d4 <ProcessY_IRQ+0x12e>
C:/Repository/RISKYKVM/firmware/src/User/mouse.c:289
			GPIO_WriteBit(FV_GPIO_Port, FV_Pin, !(0));	// Set Y2 to 0
		if (mouseEncoderPhaseY == 1)
    c7de:	00044783          	lbu	a5,0(s0)
    c7e2:	4705                	li	a4,1
    c7e4:	07e2                	slli	a5,a5,0x18
    c7e6:	87e1                	srai	a5,a5,0x18
    c7e8:	12e78763          	beq	a5,a4,c916 <ProcessY_IRQ+0x170>
C:/Repository/RISKYKVM/firmware/src/User/mouse.c:293
		{
			GPIO_WriteBit(LVQ_GPIO_Port, LVQ_Pin, !(1));	// Set Y1 to 1
		}
			if (mouseEncoderPhaseY == 0)
    c7ec:	00044783          	lbu	a5,0(s0)
    c7f0:	07e2                	slli	a5,a5,0x18
    c7f2:	87e1                	srai	a5,a5,0x18
    c7f4:	cbdd                	beqz	a5,c8aa <ProcessY_IRQ+0x104>
C:/Repository/RISKYKVM/firmware/src/User/mouse.c:297
			GPIO_WriteBit(FV_GPIO_Port, FV_Pin, !(1));	// Set Y2 to 1

		// Change phase
		if (mouseDirectionY == 0)
    c7f6:	87518793          	addi	a5,gp,-1931 # 20000075 <mouseDirectionY>
    c7fa:	0007c703          	lbu	a4,0(a5)
    c7fe:	0762                	slli	a4,a4,0x18
    c800:	8761                	srai	a4,a4,0x18
    c802:	c725                	beqz	a4,c86a <ProcessY_IRQ+0xc4>
C:/Repository/RISKYKVM/firmware/src/User/mouse.c:300
			mouseEncoderPhaseY--;
		else
			mouseEncoderPhaseY++;
    c804:	00044703          	lbu	a4,0(s0)
    c808:	0705                	addi	a4,a4,1
    c80a:	0762                	slli	a4,a4,0x18
    c80c:	8761                	srai	a4,a4,0x18
    c80e:	00e40023          	sb	a4,0(s0)
C:/Repository/RISKYKVM/firmware/src/User/mouse.c:303

		// Decrement the distance left to move
		mouseDistanceY--;
    c812:	0004d703          	lhu	a4,0(s1)
C:/Repository/RISKYKVM/firmware/src/User/mouse.c:306

		// Range check the phase
		if ((mouseDirectionY == 1) && (mouseEncoderPhaseY > 3))
    c816:	4685                	li	a3,1
C:/Repository/RISKYKVM/firmware/src/User/mouse.c:303
		mouseDistanceY--;
    c818:	177d                	addi	a4,a4,-1
    c81a:	0742                	slli	a4,a4,0x10
    c81c:	8741                	srai	a4,a4,0x10
    c81e:	00e49023          	sh	a4,0(s1)
C:/Repository/RISKYKVM/firmware/src/User/mouse.c:306
		if ((mouseDirectionY == 1) && (mouseEncoderPhaseY > 3))
    c822:	0007c703          	lbu	a4,0(a5)
    c826:	0762                	slli	a4,a4,0x18
    c828:	8761                	srai	a4,a4,0x18
    c82a:	06d70663          	beq	a4,a3,c896 <ProcessY_IRQ+0xf0>
C:/Repository/RISKYKVM/firmware/src/User/mouse.c:308
			mouseEncoderPhaseY = 0;
		if ((mouseDirectionY == 0) && (mouseEncoderPhaseY < 0))
    c82e:	0007c783          	lbu	a5,0(a5)
    c832:	07e2                	slli	a5,a5,0x18
    c834:	87e1                	srai	a5,a5,0x18
    c836:	e799                	bnez	a5,c844 <ProcessY_IRQ+0x9e>
C:/Repository/RISKYKVM/firmware/src/User/mouse.c:308 (discriminator 1)
    c838:	00044783          	lbu	a5,0(s0)
    c83c:	07e2                	slli	a5,a5,0x18
    c83e:	87e1                	srai	a5,a5,0x18
    c840:	0807c663          	bltz	a5,c8cc <ProcessY_IRQ+0x126>
C:/Repository/RISKYKVM/firmware/src/User/mouse.c:316
		// Reset the phase if the mouse isn't moving
		mouseEncoderPhaseY = 0;
	}

// Set the timer top value for the next interrupt
	if (yTimerTop == 0) {
    c844:	200007b7          	lui	a5,0x20000
    c848:	00278793          	addi	a5,a5,2 # 20000002 <yTimerTop>
    c84c:	0007c703          	lbu	a4,0(a5)
    c850:	0ff77713          	andi	a4,a4,255
    c854:	e31d                	bnez	a4,c87a <ProcessY_IRQ+0xd4>
C:/Repository/RISKYKVM/firmware/src/User/mouse.c:322
		TIM4->ATRLR = 1;
	} else {
		TIM4->ATRLR = yTimerTop;
	}

}
    c856:	40b2                	lw	ra,12(sp)
    c858:	4422                	lw	s0,8(sp)
C:/Repository/RISKYKVM/firmware/src/User/mouse.c:317
		TIM4->ATRLR = 1;
    c85a:	400017b7          	lui	a5,0x40001
    c85e:	4705                	li	a4,1
    c860:	82e79623          	sh	a4,-2004(a5) # 4000082c <_eusrstack+0x1fffb82c>
C:/Repository/RISKYKVM/firmware/src/User/mouse.c:322
}
    c864:	4492                	lw	s1,4(sp)
    c866:	0141                	addi	sp,sp,16
    c868:	8082                	ret
C:/Repository/RISKYKVM/firmware/src/User/mouse.c:298
			mouseEncoderPhaseY--;
    c86a:	00044703          	lbu	a4,0(s0)
    c86e:	177d                	addi	a4,a4,-1
    c870:	0762                	slli	a4,a4,0x18
    c872:	8761                	srai	a4,a4,0x18
    c874:	00e40023          	sb	a4,0(s0)
    c878:	bf69                	j	c812 <ProcessY_IRQ+0x6c>
C:/Repository/RISKYKVM/firmware/src/User/mouse.c:319
		TIM4->ATRLR = yTimerTop;
    c87a:	0007c703          	lbu	a4,0(a5)
C:/Repository/RISKYKVM/firmware/src/User/mouse.c:322
}
    c87e:	40b2                	lw	ra,12(sp)
    c880:	4422                	lw	s0,8(sp)
C:/Repository/RISKYKVM/firmware/src/User/mouse.c:319
		TIM4->ATRLR = yTimerTop;
    c882:	400017b7          	lui	a5,0x40001
    c886:	82e79623          	sh	a4,-2004(a5) # 4000082c <_eusrstack+0x1fffb82c>
C:/Repository/RISKYKVM/firmware/src/User/mouse.c:322
}
    c88a:	4492                	lw	s1,4(sp)
    c88c:	0141                	addi	sp,sp,16
    c88e:	8082                	ret
C:/Repository/RISKYKVM/firmware/src/User/mouse.c:312
		mouseEncoderPhaseY = 0;
    c890:	86018da3          	sb	zero,-1925(gp) # 2000007b <mouseEncoderPhaseY>
    c894:	bf45                	j	c844 <ProcessY_IRQ+0x9e>
C:/Repository/RISKYKVM/firmware/src/User/mouse.c:306 (discriminator 1)
		if ((mouseDirectionY == 1) && (mouseEncoderPhaseY > 3))
    c896:	00044703          	lbu	a4,0(s0)
    c89a:	468d                	li	a3,3
    c89c:	0762                	slli	a4,a4,0x18
    c89e:	8761                	srai	a4,a4,0x18
    c8a0:	f8e6d7e3          	bge	a3,a4,c82e <ProcessY_IRQ+0x88>
C:/Repository/RISKYKVM/firmware/src/User/mouse.c:307
			mouseEncoderPhaseY = 0;
    c8a4:	00040023          	sb	zero,0(s0)
    c8a8:	b759                	j	c82e <ProcessY_IRQ+0x88>
C:/Repository/RISKYKVM/firmware/src/User/mouse.c:294
			GPIO_WriteBit(FV_GPIO_Port, FV_Pin, !(1));	// Set Y2 to 1
    c8aa:	40011537          	lui	a0,0x40011
    c8ae:	4601                	li	a2,0
    c8b0:	10000593          	li	a1,256
    c8b4:	80050513          	addi	a0,a0,-2048 # 40010800 <_eusrstack+0x2000b800>
    c8b8:	4a1000ef          	jal	ra,d558 <GPIO_WriteBit>
C:/Repository/RISKYKVM/firmware/src/User/mouse.c:297
		if (mouseDirectionY == 0)
    c8bc:	87518793          	addi	a5,gp,-1931 # 20000075 <mouseDirectionY>
    c8c0:	0007c703          	lbu	a4,0(a5)
    c8c4:	0762                	slli	a4,a4,0x18
    c8c6:	8761                	srai	a4,a4,0x18
    c8c8:	ff15                	bnez	a4,c804 <ProcessY_IRQ+0x5e>
    c8ca:	b745                	j	c86a <ProcessY_IRQ+0xc4>
C:/Repository/RISKYKVM/firmware/src/User/mouse.c:309
			mouseEncoderPhaseY = 3;
    c8cc:	478d                	li	a5,3
    c8ce:	00f40023          	sb	a5,0(s0)
    c8d2:	bf8d                	j	c844 <ProcessY_IRQ+0x9e>
C:/Repository/RISKYKVM/firmware/src/User/mouse.c:288
			GPIO_WriteBit(FV_GPIO_Port, FV_Pin, !(0));	// Set Y2 to 0
    c8d4:	40011537          	lui	a0,0x40011
    c8d8:	4605                	li	a2,1
    c8da:	10000593          	li	a1,256
    c8de:	80050513          	addi	a0,a0,-2048 # 40010800 <_eusrstack+0x2000b800>
    c8e2:	477000ef          	jal	ra,d558 <GPIO_WriteBit>
C:/Repository/RISKYKVM/firmware/src/User/mouse.c:289
		if (mouseEncoderPhaseY == 1)
    c8e6:	00044783          	lbu	a5,0(s0)
    c8ea:	4705                	li	a4,1
    c8ec:	07e2                	slli	a5,a5,0x18
    c8ee:	87e1                	srai	a5,a5,0x18
    c8f0:	eee79ee3          	bne	a5,a4,c7ec <ProcessY_IRQ+0x46>
    c8f4:	a00d                	j	c916 <ProcessY_IRQ+0x170>
C:/Repository/RISKYKVM/firmware/src/User/mouse.c:285
			GPIO_WriteBit(LVQ_GPIO_Port, LVQ_Pin, !(0));	// Set Y1 to 0
    c8f6:	40011537          	lui	a0,0x40011
    c8fa:	4605                	li	a2,1
    c8fc:	6589                	lui	a1,0x2
    c8fe:	c0050513          	addi	a0,a0,-1024 # 40010c00 <_eusrstack+0x2000bc00>
    c902:	457000ef          	jal	ra,d558 <GPIO_WriteBit>
C:/Repository/RISKYKVM/firmware/src/User/mouse.c:287
		if (mouseEncoderPhaseY == 2)
    c906:	00044783          	lbu	a5,0(s0)
    c90a:	4709                	li	a4,2
    c90c:	07e2                	slli	a5,a5,0x18
    c90e:	87e1                	srai	a5,a5,0x18
    c910:	ece797e3          	bne	a5,a4,c7de <ProcessY_IRQ+0x38>
    c914:	b7c1                	j	c8d4 <ProcessY_IRQ+0x12e>
C:/Repository/RISKYKVM/firmware/src/User/mouse.c:291
			GPIO_WriteBit(LVQ_GPIO_Port, LVQ_Pin, !(1));	// Set Y1 to 1
    c916:	40011537          	lui	a0,0x40011
    c91a:	4601                	li	a2,0
    c91c:	6589                	lui	a1,0x2
    c91e:	c0050513          	addi	a0,a0,-1024 # 40010c00 <_eusrstack+0x2000bc00>
    c922:	437000ef          	jal	ra,d558 <GPIO_WriteBit>
C:/Repository/RISKYKVM/firmware/src/User/mouse.c:293
			if (mouseEncoderPhaseY == 0)
    c926:	00044783          	lbu	a5,0(s0)
    c92a:	07e2                	slli	a5,a5,0x18
    c92c:	87e1                	srai	a5,a5,0x18
    c92e:	ec0794e3          	bnez	a5,c7f6 <ProcessY_IRQ+0x50>
    c932:	bfa5                	j	c8aa <ProcessY_IRQ+0x104>

0000c934 <ProcessScrollIRQ>:
ProcessScrollIRQ():
C:/Repository/RISKYKVM/firmware/src/User/mouse.c:327



void ProcessScrollIRQ()
{
    c934:	7179                	addi	sp,sp,-48
    c936:	d422                	sw	s0,40(sp)
C:/Repository/RISKYKVM/firmware/src/User/mouse.c:329
    uint8_t code = 0;
    uint16_t PortCurrentValueGPIOA = GPIO_ReadOutputData(GPIOA);
    c938:	40011437          	lui	s0,0x40011
    c93c:	80040513          	addi	a0,s0,-2048 # 40010800 <_eusrstack+0x2000b800>
C:/Repository/RISKYKVM/firmware/src/User/mouse.c:327
{
    c940:	d606                	sw	ra,44(sp)
    c942:	ce4e                	sw	s3,28(sp)
    c944:	cc52                	sw	s4,24(sp)
    c946:	d226                	sw	s1,36(sp)
    c948:	d04a                	sw	s2,32(sp)
C:/Repository/RISKYKVM/firmware/src/User/mouse.c:328
    uint8_t code = 0;
    c94a:	000107a3          	sb	zero,15(sp)
C:/Repository/RISKYKVM/firmware/src/User/mouse.c:329
    uint16_t PortCurrentValueGPIOA = GPIO_ReadOutputData(GPIOA);
    c94e:	3eb000ef          	jal	ra,d538 <GPIO_ReadOutputData>
    c952:	8a2a                	mv	s4,a0
C:/Repository/RISKYKVM/firmware/src/User/mouse.c:330
    uint16_t PortCurrentValueGPIOB = GPIO_ReadOutputData(GPIOB);
    c954:	c0040513          	addi	a0,s0,-1024
    c958:	3e1000ef          	jal	ra,d538 <GPIO_ReadOutputData>
    c95c:	89aa                	mv	s3,a0
C:/Repository/RISKYKVM/firmware/src/User/mouse.c:332

    FifoRead(&ScrollBuffer, &code, 1);
    c95e:	20002537          	lui	a0,0x20002
    c962:	4605                	li	a2,1
    c964:	00f10593          	addi	a1,sp,15
    c968:	b1850513          	addi	a0,a0,-1256 # 20001b18 <ScrollBuffer>
    c96c:	2e71                	jal	cd08 <FifoRead>
C:/Repository/RISKYKVM/firmware/src/User/mouse.c:335


    GPIO_WriteBit(RB_GPIO_Port, RB_Pin, 0);
    c96e:	6585                	lui	a1,0x1
    c970:	4601                	li	a2,0
    c972:	80058593          	addi	a1,a1,-2048 # 800 <__stack_size>
    c976:	c0040513          	addi	a0,s0,-1024
    c97a:	3df000ef          	jal	ra,d558 <GPIO_WriteBit>
C:/Repository/RISKYKVM/firmware/src/User/mouse.c:337

    if (code == 0)
    c97e:	00f14783          	lbu	a5,15(sp)
    c982:	cbb9                	beqz	a5,c9d8 <ProcessScrollIRQ+0xa4>
C:/Repository/RISKYKVM/firmware/src/User/mouse.c:345
        GPIO_WriteBit(LVQ_GPIO_Port, LVQ_Pin,1);
        GPIO_WriteBit(BH_GPIO_Port, BH_Pin,1);
        GPIO_WriteBit(FV_GPIO_Port,FV_Pin, 1);
    }

    if (code == CODE_WHEEL_UP)
    c984:	472d                	li	a4,11
    c986:	08e78763          	beq	a5,a4,ca14 <ProcessScrollIRQ+0xe0>
C:/Repository/RISKYKVM/firmware/src/User/mouse.c:353
        GPIO_WriteBit(LVQ_GPIO_Port, LVQ_Pin,0);
        GPIO_WriteBit(BH_GPIO_Port, BH_Pin,1);
        GPIO_WriteBit(FV_GPIO_Port,FV_Pin, 1);
    }

    if (code == CODE_WHEEL_DOWN)
    c98a:	471d                	li	a4,7
    c98c:	0ce78463          	beq	a5,a4,ca54 <ProcessScrollIRQ+0x120>
C:/Repository/RISKYKVM/firmware/src/User/mouse.c:361
        GPIO_WriteBit(LVQ_GPIO_Port, LVQ_Pin, 0);
        GPIO_WriteBit(BH_GPIO_Port, BH_Pin,0);
        GPIO_WriteBit(FV_GPIO_Port,FV_Pin, 1);
    }

    if (code == CODE_MMB_DOWN)
    c990:	4735                	li	a4,13
    c992:	10e78163          	beq	a5,a4,ca94 <ProcessScrollIRQ+0x160>
C:/Repository/RISKYKVM/firmware/src/User/mouse.c:369
        GPIO_WriteBit(LVQ_GPIO_Port, LVQ_Pin, 0);
        GPIO_WriteBit(BH_GPIO_Port, BH_Pin,1);
        GPIO_WriteBit(FV_GPIO_Port,FV_Pin, 0);
    }

    if (code == CODE_MMB_UP)
    c996:	4739                	li	a4,14
    c998:	12e78e63          	beq	a5,a4,cad4 <ProcessScrollIRQ+0x1a0>
C:/Repository/RISKYKVM/firmware/src/User/mouse.c:377 (discriminator 1)
        GPIO_WriteBit(LVQ_GPIO_Port, LVQ_Pin, 0);
        GPIO_WriteBit(BH_GPIO_Port, BH_Pin,0);
        GPIO_WriteBit(FV_GPIO_Port,FV_Pin, 0);
    }

   while (GPIO_ReadInputDataBit(MB_GPIO_Port, MB_Pin) != 1);
    c99c:	40011937          	lui	s2,0x40011
    c9a0:	c0090493          	addi	s1,s2,-1024 # 40010c00 <_eusrstack+0x2000bc00>
    c9a4:	4405                	li	s0,1
    c9a6:	40000593          	li	a1,1024
    c9aa:	8526                	mv	a0,s1
    c9ac:	369000ef          	jal	ra,d514 <GPIO_ReadInputDataBit>
    c9b0:	fe851be3          	bne	a0,s0,c9a6 <ProcessScrollIRQ+0x72>
C:/Repository/RISKYKVM/firmware/src/User/mouse.c:378
   GPIO_Write(GPIOA,PortCurrentValueGPIOA);
    c9b4:	80090513          	addi	a0,s2,-2048
    c9b8:	85d2                	mv	a1,s4
    c9ba:	3bb000ef          	jal	ra,d574 <GPIO_Write>
C:/Repository/RISKYKVM/firmware/src/User/mouse.c:379
   GPIO_Write(GPIOB,PortCurrentValueGPIOB);
    c9be:	85ce                	mv	a1,s3
    c9c0:	c0090513          	addi	a0,s2,-1024
    c9c4:	3b1000ef          	jal	ra,d574 <GPIO_Write>
C:/Repository/RISKYKVM/firmware/src/User/mouse.c:380
}
    c9c8:	50b2                	lw	ra,44(sp)
    c9ca:	5422                	lw	s0,40(sp)
    c9cc:	5492                	lw	s1,36(sp)
    c9ce:	5902                	lw	s2,32(sp)
    c9d0:	49f2                	lw	s3,28(sp)
    c9d2:	4a62                	lw	s4,24(sp)
    c9d4:	6145                	addi	sp,sp,48
    c9d6:	8082                	ret
C:/Repository/RISKYKVM/firmware/src/User/mouse.c:339
        GPIO_WriteBit(RHQ_GPIO_Port, RHQ_Pin, 1);
    c9d8:	4605                	li	a2,1
    c9da:	6585                	lui	a1,0x1
    c9dc:	c0040513          	addi	a0,s0,-1024
    c9e0:	379000ef          	jal	ra,d558 <GPIO_WriteBit>
C:/Repository/RISKYKVM/firmware/src/User/mouse.c:340
        GPIO_WriteBit(LVQ_GPIO_Port, LVQ_Pin,1);
    c9e4:	4605                	li	a2,1
    c9e6:	6589                	lui	a1,0x2
    c9e8:	c0040513          	addi	a0,s0,-1024
    c9ec:	36d000ef          	jal	ra,d558 <GPIO_WriteBit>
C:/Repository/RISKYKVM/firmware/src/User/mouse.c:341
        GPIO_WriteBit(BH_GPIO_Port, BH_Pin,1);
    c9f0:	4605                	li	a2,1
    c9f2:	6591                	lui	a1,0x4
    c9f4:	c0040513          	addi	a0,s0,-1024
    c9f8:	361000ef          	jal	ra,d558 <GPIO_WriteBit>
C:/Repository/RISKYKVM/firmware/src/User/mouse.c:342
        GPIO_WriteBit(FV_GPIO_Port,FV_Pin, 1);
    c9fc:	4605                	li	a2,1
    c9fe:	10000593          	li	a1,256
    ca02:	80040513          	addi	a0,s0,-2048
    ca06:	353000ef          	jal	ra,d558 <GPIO_WriteBit>
    ca0a:	00f14783          	lbu	a5,15(sp)
C:/Repository/RISKYKVM/firmware/src/User/mouse.c:345
    if (code == CODE_WHEEL_UP)
    ca0e:	472d                	li	a4,11
    ca10:	f6e79de3          	bne	a5,a4,c98a <ProcessScrollIRQ+0x56>
C:/Repository/RISKYKVM/firmware/src/User/mouse.c:347
        GPIO_WriteBit(RHQ_GPIO_Port, RHQ_Pin, 0);
    ca14:	40011437          	lui	s0,0x40011
    ca18:	4601                	li	a2,0
    ca1a:	6585                	lui	a1,0x1
    ca1c:	c0040513          	addi	a0,s0,-1024 # 40010c00 <_eusrstack+0x2000bc00>
    ca20:	339000ef          	jal	ra,d558 <GPIO_WriteBit>
C:/Repository/RISKYKVM/firmware/src/User/mouse.c:348
        GPIO_WriteBit(LVQ_GPIO_Port, LVQ_Pin,0);
    ca24:	4601                	li	a2,0
    ca26:	6589                	lui	a1,0x2
    ca28:	c0040513          	addi	a0,s0,-1024
    ca2c:	32d000ef          	jal	ra,d558 <GPIO_WriteBit>
C:/Repository/RISKYKVM/firmware/src/User/mouse.c:349
        GPIO_WriteBit(BH_GPIO_Port, BH_Pin,1);
    ca30:	4605                	li	a2,1
    ca32:	6591                	lui	a1,0x4
    ca34:	c0040513          	addi	a0,s0,-1024
    ca38:	321000ef          	jal	ra,d558 <GPIO_WriteBit>
C:/Repository/RISKYKVM/firmware/src/User/mouse.c:350
        GPIO_WriteBit(FV_GPIO_Port,FV_Pin, 1);
    ca3c:	4605                	li	a2,1
    ca3e:	10000593          	li	a1,256
    ca42:	80040513          	addi	a0,s0,-2048
    ca46:	313000ef          	jal	ra,d558 <GPIO_WriteBit>
    ca4a:	00f14783          	lbu	a5,15(sp)
C:/Repository/RISKYKVM/firmware/src/User/mouse.c:353
    if (code == CODE_WHEEL_DOWN)
    ca4e:	471d                	li	a4,7
    ca50:	f4e790e3          	bne	a5,a4,c990 <ProcessScrollIRQ+0x5c>
C:/Repository/RISKYKVM/firmware/src/User/mouse.c:355
        GPIO_WriteBit(RHQ_GPIO_Port, RHQ_Pin, 1);
    ca54:	40011437          	lui	s0,0x40011
    ca58:	4605                	li	a2,1
    ca5a:	6585                	lui	a1,0x1
    ca5c:	c0040513          	addi	a0,s0,-1024 # 40010c00 <_eusrstack+0x2000bc00>
    ca60:	2f9000ef          	jal	ra,d558 <GPIO_WriteBit>
C:/Repository/RISKYKVM/firmware/src/User/mouse.c:356
        GPIO_WriteBit(LVQ_GPIO_Port, LVQ_Pin, 0);
    ca64:	4601                	li	a2,0
    ca66:	6589                	lui	a1,0x2
    ca68:	c0040513          	addi	a0,s0,-1024
    ca6c:	2ed000ef          	jal	ra,d558 <GPIO_WriteBit>
C:/Repository/RISKYKVM/firmware/src/User/mouse.c:357
        GPIO_WriteBit(BH_GPIO_Port, BH_Pin,0);
    ca70:	4601                	li	a2,0
    ca72:	6591                	lui	a1,0x4
    ca74:	c0040513          	addi	a0,s0,-1024
    ca78:	2e1000ef          	jal	ra,d558 <GPIO_WriteBit>
C:/Repository/RISKYKVM/firmware/src/User/mouse.c:358
        GPIO_WriteBit(FV_GPIO_Port,FV_Pin, 1);
    ca7c:	4605                	li	a2,1
    ca7e:	10000593          	li	a1,256
    ca82:	80040513          	addi	a0,s0,-2048
    ca86:	2d3000ef          	jal	ra,d558 <GPIO_WriteBit>
    ca8a:	00f14783          	lbu	a5,15(sp)
C:/Repository/RISKYKVM/firmware/src/User/mouse.c:361
    if (code == CODE_MMB_DOWN)
    ca8e:	4735                	li	a4,13
    ca90:	f0e793e3          	bne	a5,a4,c996 <ProcessScrollIRQ+0x62>
C:/Repository/RISKYKVM/firmware/src/User/mouse.c:363
        GPIO_WriteBit(RHQ_GPIO_Port, RHQ_Pin, 0);
    ca94:	40011437          	lui	s0,0x40011
    ca98:	4601                	li	a2,0
    ca9a:	6585                	lui	a1,0x1
    ca9c:	c0040513          	addi	a0,s0,-1024 # 40010c00 <_eusrstack+0x2000bc00>
    caa0:	2b9000ef          	jal	ra,d558 <GPIO_WriteBit>
C:/Repository/RISKYKVM/firmware/src/User/mouse.c:364
        GPIO_WriteBit(LVQ_GPIO_Port, LVQ_Pin, 0);
    caa4:	4601                	li	a2,0
    caa6:	6589                	lui	a1,0x2
    caa8:	c0040513          	addi	a0,s0,-1024
    caac:	2ad000ef          	jal	ra,d558 <GPIO_WriteBit>
C:/Repository/RISKYKVM/firmware/src/User/mouse.c:365
        GPIO_WriteBit(BH_GPIO_Port, BH_Pin,1);
    cab0:	4605                	li	a2,1
    cab2:	6591                	lui	a1,0x4
    cab4:	c0040513          	addi	a0,s0,-1024
    cab8:	2a1000ef          	jal	ra,d558 <GPIO_WriteBit>
C:/Repository/RISKYKVM/firmware/src/User/mouse.c:366
        GPIO_WriteBit(FV_GPIO_Port,FV_Pin, 0);
    cabc:	4601                	li	a2,0
    cabe:	10000593          	li	a1,256
    cac2:	80040513          	addi	a0,s0,-2048
    cac6:	293000ef          	jal	ra,d558 <GPIO_WriteBit>
    caca:	00f14783          	lbu	a5,15(sp)
C:/Repository/RISKYKVM/firmware/src/User/mouse.c:369
    if (code == CODE_MMB_UP)
    cace:	4739                	li	a4,14
    cad0:	ece796e3          	bne	a5,a4,c99c <ProcessScrollIRQ+0x68>
C:/Repository/RISKYKVM/firmware/src/User/mouse.c:371
        GPIO_WriteBit(RHQ_GPIO_Port, RHQ_Pin, 1);
    cad4:	40011437          	lui	s0,0x40011
    cad8:	c0040513          	addi	a0,s0,-1024 # 40010c00 <_eusrstack+0x2000bc00>
    cadc:	4605                	li	a2,1
    cade:	6585                	lui	a1,0x1
    cae0:	279000ef          	jal	ra,d558 <GPIO_WriteBit>
C:/Repository/RISKYKVM/firmware/src/User/mouse.c:372
        GPIO_WriteBit(LVQ_GPIO_Port, LVQ_Pin, 0);
    cae4:	c0040513          	addi	a0,s0,-1024
    cae8:	4601                	li	a2,0
    caea:	6589                	lui	a1,0x2
    caec:	26d000ef          	jal	ra,d558 <GPIO_WriteBit>
C:/Repository/RISKYKVM/firmware/src/User/mouse.c:373
        GPIO_WriteBit(BH_GPIO_Port, BH_Pin,0);
    caf0:	c0040513          	addi	a0,s0,-1024
    caf4:	4601                	li	a2,0
    caf6:	6591                	lui	a1,0x4
    caf8:	261000ef          	jal	ra,d558 <GPIO_WriteBit>
C:/Repository/RISKYKVM/firmware/src/User/mouse.c:374
        GPIO_WriteBit(FV_GPIO_Port,FV_Pin, 0);
    cafc:	4601                	li	a2,0
    cafe:	10000593          	li	a1,256
    cb02:	80040513          	addi	a0,s0,-2048
    cb06:	253000ef          	jal	ra,d558 <GPIO_WriteBit>
    cb0a:	bd49                	j	c99c <ProcessScrollIRQ+0x68>

0000cb0c <SystemInit>:
SystemInit():
C:/Repository/RISKYKVM/firmware/src/User/system_ch32v20x.c:113
 *
 * @return  none
 */
void SystemInit (void)
{
  RCC->CTLR |= (uint32_t)0x00000001;
    cb0c:	400217b7          	lui	a5,0x40021
    cb10:	4398                	lw	a4,0(a5)
C:/Repository/RISKYKVM/firmware/src/User/system_ch32v20x.c:114
  RCC->CFGR0 &= (uint32_t)0xF8FF0000;
    cb12:	f8ff06b7          	lui	a3,0xf8ff0
SetSysClockTo144_HSI():
C:/Repository/RISKYKVM/firmware/src/User/system_ch32v20x.c:956
 *
 * @return  none
 */
static void SetSysClockTo144_HSI(void)
{
    EXTEN->EXTEN_CTR |= EXTEN_PLL_HSI_PRE;
    cb16:	40024637          	lui	a2,0x40024
SystemInit():
C:/Repository/RISKYKVM/firmware/src/User/system_ch32v20x.c:113
  RCC->CTLR |= (uint32_t)0x00000001;
    cb1a:	00176713          	ori	a4,a4,1
    cb1e:	c398                	sw	a4,0(a5)
C:/Repository/RISKYKVM/firmware/src/User/system_ch32v20x.c:114
  RCC->CFGR0 &= (uint32_t)0xF8FF0000;
    cb20:	43d8                	lw	a4,4(a5)
    cb22:	8f75                	and	a4,a4,a3
    cb24:	c3d8                	sw	a4,4(a5)
C:/Repository/RISKYKVM/firmware/src/User/system_ch32v20x.c:115
  RCC->CTLR &= (uint32_t)0xFEF6FFFF;
    cb26:	4398                	lw	a4,0(a5)
    cb28:	fef706b7          	lui	a3,0xfef70
    cb2c:	16fd                	addi	a3,a3,-1
    cb2e:	8f75                	and	a4,a4,a3
    cb30:	c398                	sw	a4,0(a5)
C:/Repository/RISKYKVM/firmware/src/User/system_ch32v20x.c:116
  RCC->CTLR &= (uint32_t)0xFFFBFFFF;
    cb32:	4398                	lw	a4,0(a5)
    cb34:	fffc06b7          	lui	a3,0xfffc0
    cb38:	16fd                	addi	a3,a3,-1
    cb3a:	8f75                	and	a4,a4,a3
    cb3c:	c398                	sw	a4,0(a5)
C:/Repository/RISKYKVM/firmware/src/User/system_ch32v20x.c:117
  RCC->CFGR0 &= (uint32_t)0xFF80FFFF;
    cb3e:	43d8                	lw	a4,4(a5)
    cb40:	ff8106b7          	lui	a3,0xff810
    cb44:	16fd                	addi	a3,a3,-1
    cb46:	8f75                	and	a4,a4,a3
    cb48:	c3d8                	sw	a4,4(a5)
C:/Repository/RISKYKVM/firmware/src/User/system_ch32v20x.c:118
  RCC->INTR = 0x009F0000;    
    cb4a:	009f0737          	lui	a4,0x9f0
    cb4e:	c798                	sw	a4,8(a5)
SetSysClockTo144_HSI():
C:/Repository/RISKYKVM/firmware/src/User/system_ch32v20x.c:956
    EXTEN->EXTEN_CTR |= EXTEN_PLL_HSI_PRE;
    cb50:	80062703          	lw	a4,-2048(a2) # 40023800 <_eusrstack+0x2001e800>
    cb54:	01076713          	ori	a4,a4,16
    cb58:	80e62023          	sw	a4,-2048(a2)
C:/Repository/RISKYKVM/firmware/src/User/system_ch32v20x.c:959

    /* HCLK = SYSCLK */
    RCC->CFGR0 |= (uint32_t)RCC_HPRE_DIV1;
    cb5c:	43d4                	lw	a3,4(a5)
C:/Repository/RISKYKVM/firmware/src/User/system_ch32v20x.c:966
    RCC->CFGR0 |= (uint32_t)RCC_PPRE2_DIV1;
    /* PCLK1 = HCLK */
    RCC->CFGR0 |= (uint32_t)RCC_PPRE1_DIV2;

    /*  PLL configuration: PLLCLK = HSI * 18 = 144 MHz */
    RCC->CFGR0 &= (uint32_t)((uint32_t)~(RCC_PLLSRC | RCC_PLLXTPRE | RCC_PLLMULL));
    cb5e:	ffc10637          	lui	a2,0xffc10
    cb62:	167d                	addi	a2,a2,-1
C:/Repository/RISKYKVM/firmware/src/User/system_ch32v20x.c:959
    RCC->CFGR0 |= (uint32_t)RCC_HPRE_DIV1;
    cb64:	c3d4                	sw	a3,4(a5)
C:/Repository/RISKYKVM/firmware/src/User/system_ch32v20x.c:961
    RCC->CFGR0 |= (uint32_t)RCC_PPRE2_DIV1;
    cb66:	43d4                	lw	a3,4(a5)
C:/Repository/RISKYKVM/firmware/src/User/system_ch32v20x.c:973
     RCC->CFGR0 |= (uint32_t)(RCC_PLLSRC_HSI_Div2 | RCC_PLLMULL18);

    /* Enable PLL */
    RCC->CTLR |= RCC_PLLON;
    /* Wait till PLL is ready */
    while((RCC->CTLR & RCC_PLLRDY) == 0)
    cb68:	40021737          	lui	a4,0x40021
C:/Repository/RISKYKVM/firmware/src/User/system_ch32v20x.c:961
    RCC->CFGR0 |= (uint32_t)RCC_PPRE2_DIV1;
    cb6c:	c3d4                	sw	a3,4(a5)
C:/Repository/RISKYKVM/firmware/src/User/system_ch32v20x.c:963
    RCC->CFGR0 |= (uint32_t)RCC_PPRE1_DIV2;
    cb6e:	43d4                	lw	a3,4(a5)
    cb70:	4006e693          	ori	a3,a3,1024
    cb74:	c3d4                	sw	a3,4(a5)
C:/Repository/RISKYKVM/firmware/src/User/system_ch32v20x.c:966
    RCC->CFGR0 &= (uint32_t)((uint32_t)~(RCC_PLLSRC | RCC_PLLXTPRE | RCC_PLLMULL));
    cb76:	43d4                	lw	a3,4(a5)
    cb78:	8ef1                	and	a3,a3,a2
    cb7a:	c3d4                	sw	a3,4(a5)
C:/Repository/RISKYKVM/firmware/src/User/system_ch32v20x.c:968
     RCC->CFGR0 |= (uint32_t)(RCC_PLLSRC_HSI_Div2 | RCC_PLLMULL18);
    cb7c:	43d4                	lw	a3,4(a5)
    cb7e:	003c0637          	lui	a2,0x3c0
    cb82:	8ed1                	or	a3,a3,a2
    cb84:	c3d4                	sw	a3,4(a5)
C:/Repository/RISKYKVM/firmware/src/User/system_ch32v20x.c:971
    RCC->CTLR |= RCC_PLLON;
    cb86:	4394                	lw	a3,0(a5)
    cb88:	01000637          	lui	a2,0x1000
    cb8c:	8ed1                	or	a3,a3,a2
    cb8e:	c394                	sw	a3,0(a5)
C:/Repository/RISKYKVM/firmware/src/User/system_ch32v20x.c:973
    while((RCC->CTLR & RCC_PLLRDY) == 0)
    cb90:	431c                	lw	a5,0(a4)
    cb92:	00679693          	slli	a3,a5,0x6
    cb96:	fe06dde3          	bgez	a3,cb90 <SystemInit+0x84>
C:/Repository/RISKYKVM/firmware/src/User/system_ch32v20x.c:977
    {
    }
    /* Select PLL as system clock source */
    RCC->CFGR0 &= (uint32_t)((uint32_t)~(RCC_SW));
    cb9a:	435c                	lw	a5,4(a4)
C:/Repository/RISKYKVM/firmware/src/User/system_ch32v20x.c:980
    RCC->CFGR0 |= (uint32_t)RCC_SW_PLL;
    /* Wait till PLL is used as system clock source */
    while ((RCC->CFGR0 & (uint32_t)RCC_SWS) != (uint32_t)0x08)
    cb9c:	40021637          	lui	a2,0x40021
    cba0:	46a1                	li	a3,8
C:/Repository/RISKYKVM/firmware/src/User/system_ch32v20x.c:977
    RCC->CFGR0 &= (uint32_t)((uint32_t)~(RCC_SW));
    cba2:	9bf1                	andi	a5,a5,-4
    cba4:	c35c                	sw	a5,4(a4)
C:/Repository/RISKYKVM/firmware/src/User/system_ch32v20x.c:978
    RCC->CFGR0 |= (uint32_t)RCC_SW_PLL;
    cba6:	435c                	lw	a5,4(a4)
    cba8:	0027e793          	ori	a5,a5,2
    cbac:	c35c                	sw	a5,4(a4)
C:/Repository/RISKYKVM/firmware/src/User/system_ch32v20x.c:980
    while ((RCC->CFGR0 & (uint32_t)RCC_SWS) != (uint32_t)0x08)
    cbae:	425c                	lw	a5,4(a2)
    cbb0:	8bb1                	andi	a5,a5,12
    cbb2:	fed79ee3          	bne	a5,a3,cbae <SystemInit+0xa2>
SystemInit():
C:/Repository/RISKYKVM/firmware/src/User/system_ch32v20x.c:120
}
    cbb6:	8082                	ret

0000cbb8 <TIM2_Init>:
TIM2_Init():
C:/Repository/RISKYKVM/firmware/src/User/tim.c:9
void TIM2_IRQHandler(void) __attribute__((interrupt("WCH-Interrupt-fast")));
void TIM4_IRQHandler(void) __attribute__((interrupt("WCH-Interrupt-fast")));


void TIM2_Init( void )
{
    cbb8:	7179                	addi	sp,sp,-48
C:/Repository/RISKYKVM/firmware/src/User/tim.c:16

    TIM_TimeBaseInitTypeDef TIM_TimeBaseStructure = { 0 };
    NVIC_InitTypeDef NVIC_InitStructure = { 0 };

    /* Enable Timer3 Clock */
    RCC_APB1PeriphClockCmd( RCC_APB1Periph_TIM2, ENABLE );
    cbba:	4585                	li	a1,1
    cbbc:	4505                	li	a0,1
C:/Repository/RISKYKVM/firmware/src/User/tim.c:9
{
    cbbe:	d606                	sw	ra,44(sp)
C:/Repository/RISKYKVM/firmware/src/User/tim.c:12
    TIM_TimeBaseInitTypeDef TIM_TimeBaseStructure = { 0 };
    cbc0:	ca02                	sw	zero,20(sp)
    cbc2:	cc02                	sw	zero,24(sp)
    cbc4:	00011e23          	sh	zero,28(sp)
C:/Repository/RISKYKVM/firmware/src/User/tim.c:13
    NVIC_InitTypeDef NVIC_InitStructure = { 0 };
    cbc8:	c602                	sw	zero,12(sp)
    cbca:	c802                	sw	zero,16(sp)
C:/Repository/RISKYKVM/firmware/src/User/tim.c:16
    RCC_APB1PeriphClockCmd( RCC_APB1Periph_TIM2, ENABLE );
    cbcc:	327000ef          	jal	ra,d6f2 <RCC_APB1PeriphClockCmd>
C:/Repository/RISKYKVM/firmware/src/User/tim.c:20

    /* Initialize Timer2 */
    TIM_TimeBaseStructure.TIM_Period = 1000;
    TIM_TimeBaseStructure.TIM_Prescaler = 18720-1;
    cbd0:	6795                	lui	a5,0x5
    cbd2:	91f78793          	addi	a5,a5,-1761 # 491f <__stack_size+0x411f>
C:/Repository/RISKYKVM/firmware/src/User/tim.c:23
    TIM_TimeBaseStructure.TIM_ClockDivision = TIM_CKD_DIV1;
    TIM_TimeBaseStructure.TIM_CounterMode = TIM_CounterMode_Up;
    TIM_TimeBaseInit( TIM2, &TIM_TimeBaseStructure );
    cbd6:	084c                	addi	a1,sp,20
C:/Repository/RISKYKVM/firmware/src/User/tim.c:20
    TIM_TimeBaseStructure.TIM_Prescaler = 18720-1;
    cbd8:	ca3e                	sw	a5,20(sp)
C:/Repository/RISKYKVM/firmware/src/User/tim.c:23
    TIM_TimeBaseInit( TIM2, &TIM_TimeBaseStructure );
    cbda:	40000537          	lui	a0,0x40000
C:/Repository/RISKYKVM/firmware/src/User/tim.c:20
    TIM_TimeBaseStructure.TIM_Prescaler = 18720-1;
    cbde:	3e800793          	li	a5,1000
    cbe2:	cc3e                	sw	a5,24(sp)
C:/Repository/RISKYKVM/firmware/src/User/tim.c:23
    TIM_TimeBaseInit( TIM2, &TIM_TimeBaseStructure );
    cbe4:	32d000ef          	jal	ra,d710 <TIM_TimeBaseInit>
C:/Repository/RISKYKVM/firmware/src/User/tim.c:25

    TIM_ITConfig( TIM2, TIM_IT_Update, ENABLE );
    cbe8:	4605                	li	a2,1
    cbea:	4585                	li	a1,1
    cbec:	40000537          	lui	a0,0x40000
    cbf0:	3d5000ef          	jal	ra,d7c4 <TIM_ITConfig>
C:/Repository/RISKYKVM/firmware/src/User/tim.c:27

    NVIC_InitStructure.NVIC_IRQChannel = TIM2_IRQn;
    cbf4:	42c00793          	li	a5,1068
    cbf8:	00f11623          	sh	a5,12(sp)
C:/Repository/RISKYKVM/firmware/src/User/tim.c:29
    NVIC_InitStructure.NVIC_IRQChannelPreemptionPriority = 4;
    NVIC_InitStructure.NVIC_IRQChannelSubPriority = 1;
    cbfc:	4785                	li	a5,1
C:/Repository/RISKYKVM/firmware/src/User/tim.c:31
    NVIC_InitStructure.NVIC_IRQChannelCmd = ENABLE;
    NVIC_Init( &NVIC_InitStructure );
    cbfe:	0068                	addi	a0,sp,12
C:/Repository/RISKYKVM/firmware/src/User/tim.c:29
    NVIC_InitStructure.NVIC_IRQChannelSubPriority = 1;
    cc00:	00f10723          	sb	a5,14(sp)
C:/Repository/RISKYKVM/firmware/src/User/tim.c:30
    NVIC_InitStructure.NVIC_IRQChannelCmd = ENABLE;
    cc04:	4785                	li	a5,1
    cc06:	c83e                	sw	a5,16(sp)
C:/Repository/RISKYKVM/firmware/src/User/tim.c:31
    NVIC_Init( &NVIC_InitStructure );
    cc08:	1af000ef          	jal	ra,d5b6 <NVIC_Init>
C:/Repository/RISKYKVM/firmware/src/User/tim.c:34

    /* Enable Timer2 */
    TIM_Cmd( TIM2, ENABLE );
    cc0c:	4585                	li	a1,1
    cc0e:	40000537          	lui	a0,0x40000
    cc12:	393000ef          	jal	ra,d7a4 <TIM_Cmd>
C:/Repository/RISKYKVM/firmware/src/User/tim.c:39

    /* Enable timer2 interrupt */
    NVIC_EnableIRQ( TIM2_IRQn );

}
    cc16:	50b2                	lw	ra,44(sp)
NVIC_EnableIRQ():
C:\Repository\RISKYKVM\firmware\src\Core/core_riscv.h:170
    cc18:	e000e7b7          	lui	a5,0xe000e
    cc1c:	6705                	lui	a4,0x1
    cc1e:	10e7a223          	sw	a4,260(a5) # e000e104 <_eusrstack+0xc0009104>
TIM2_Init():
C:/Repository/RISKYKVM/firmware/src/User/tim.c:39
    cc22:	6145                	addi	sp,sp,48
    cc24:	8082                	ret

0000cc26 <TIM4_Init>:
TIM4_Init():
C:/Repository/RISKYKVM/firmware/src/User/tim.c:42

void TIM4_Init( void )
{
    cc26:	7179                	addi	sp,sp,-48
C:/Repository/RISKYKVM/firmware/src/User/tim.c:49

    TIM_TimeBaseInitTypeDef TIM_TimeBaseStructure = { 0 };
    NVIC_InitTypeDef NVIC_InitStructure = { 0 };

    /* Enable Timer4 Clock */
    RCC_APB1PeriphClockCmd( RCC_APB1Periph_TIM4, ENABLE );
    cc28:	4585                	li	a1,1
    cc2a:	4511                	li	a0,4
C:/Repository/RISKYKVM/firmware/src/User/tim.c:42
{
    cc2c:	d606                	sw	ra,44(sp)
    cc2e:	d422                	sw	s0,40(sp)
C:/Repository/RISKYKVM/firmware/src/User/tim.c:45
    TIM_TimeBaseInitTypeDef TIM_TimeBaseStructure = { 0 };
    cc30:	ca02                	sw	zero,20(sp)
    cc32:	cc02                	sw	zero,24(sp)
    cc34:	00011e23          	sh	zero,28(sp)
C:/Repository/RISKYKVM/firmware/src/User/tim.c:46
    NVIC_InitTypeDef NVIC_InitStructure = { 0 };
    cc38:	c602                	sw	zero,12(sp)
    cc3a:	c802                	sw	zero,16(sp)
C:/Repository/RISKYKVM/firmware/src/User/tim.c:49
    RCC_APB1PeriphClockCmd( RCC_APB1Periph_TIM4, ENABLE );
    cc3c:	2b7000ef          	jal	ra,d6f2 <RCC_APB1PeriphClockCmd>
C:/Repository/RISKYKVM/firmware/src/User/tim.c:53

    /* Initialize Timer4 */
    TIM_TimeBaseStructure.TIM_Period = 1000;
    TIM_TimeBaseStructure.TIM_Prescaler = 18720-1;
    cc40:	6795                	lui	a5,0x5
C:/Repository/RISKYKVM/firmware/src/User/tim.c:56
    TIM_TimeBaseStructure.TIM_ClockDivision = TIM_CKD_DIV1;
    TIM_TimeBaseStructure.TIM_CounterMode = TIM_CounterMode_Up;
    TIM_TimeBaseInit( TIM4, &TIM_TimeBaseStructure );
    cc42:	40001437          	lui	s0,0x40001
C:/Repository/RISKYKVM/firmware/src/User/tim.c:53
    TIM_TimeBaseStructure.TIM_Prescaler = 18720-1;
    cc46:	91f78793          	addi	a5,a5,-1761 # 491f <__stack_size+0x411f>
C:/Repository/RISKYKVM/firmware/src/User/tim.c:56
    TIM_TimeBaseInit( TIM4, &TIM_TimeBaseStructure );
    cc4a:	084c                	addi	a1,sp,20
    cc4c:	80040513          	addi	a0,s0,-2048 # 40000800 <_eusrstack+0x1fffb800>
C:/Repository/RISKYKVM/firmware/src/User/tim.c:53
    TIM_TimeBaseStructure.TIM_Prescaler = 18720-1;
    cc50:	ca3e                	sw	a5,20(sp)
    cc52:	3e800793          	li	a5,1000
    cc56:	cc3e                	sw	a5,24(sp)
C:/Repository/RISKYKVM/firmware/src/User/tim.c:56
    TIM_TimeBaseInit( TIM4, &TIM_TimeBaseStructure );
    cc58:	2b9000ef          	jal	ra,d710 <TIM_TimeBaseInit>
C:/Repository/RISKYKVM/firmware/src/User/tim.c:58

    TIM_ITConfig( TIM4, TIM_IT_Update, ENABLE );
    cc5c:	4605                	li	a2,1
    cc5e:	4585                	li	a1,1
    cc60:	80040513          	addi	a0,s0,-2048
    cc64:	361000ef          	jal	ra,d7c4 <TIM_ITConfig>
C:/Repository/RISKYKVM/firmware/src/User/tim.c:60

    NVIC_InitStructure.NVIC_IRQChannel = TIM4_IRQn;
    cc68:	32e00793          	li	a5,814
    cc6c:	00f11623          	sh	a5,12(sp)
C:/Repository/RISKYKVM/firmware/src/User/tim.c:62
    NVIC_InitStructure.NVIC_IRQChannelPreemptionPriority = 3;
    NVIC_InitStructure.NVIC_IRQChannelSubPriority = 1;
    cc70:	4785                	li	a5,1
C:/Repository/RISKYKVM/firmware/src/User/tim.c:64
    NVIC_InitStructure.NVIC_IRQChannelCmd = ENABLE;
    NVIC_Init( &NVIC_InitStructure );
    cc72:	0068                	addi	a0,sp,12
C:/Repository/RISKYKVM/firmware/src/User/tim.c:62
    NVIC_InitStructure.NVIC_IRQChannelSubPriority = 1;
    cc74:	00f10723          	sb	a5,14(sp)
C:/Repository/RISKYKVM/firmware/src/User/tim.c:63
    NVIC_InitStructure.NVIC_IRQChannelCmd = ENABLE;
    cc78:	4785                	li	a5,1
    cc7a:	c83e                	sw	a5,16(sp)
C:/Repository/RISKYKVM/firmware/src/User/tim.c:64
    NVIC_Init( &NVIC_InitStructure );
    cc7c:	13b000ef          	jal	ra,d5b6 <NVIC_Init>
C:/Repository/RISKYKVM/firmware/src/User/tim.c:67

    /* Enable Timer4 */
    TIM_Cmd( TIM4, ENABLE );
    cc80:	80040513          	addi	a0,s0,-2048
    cc84:	4585                	li	a1,1
    cc86:	31f000ef          	jal	ra,d7a4 <TIM_Cmd>
C:/Repository/RISKYKVM/firmware/src/User/tim.c:72

    /* Enable timer4 interrupt */
    NVIC_EnableIRQ( TIM4_IRQn );

}
    cc8a:	50b2                	lw	ra,44(sp)
    cc8c:	5422                	lw	s0,40(sp)
NVIC_EnableIRQ():
C:\Repository\RISKYKVM\firmware\src\Core/core_riscv.h:170
    cc8e:	e000e7b7          	lui	a5,0xe000e
    cc92:	6711                	lui	a4,0x4
    cc94:	10e7a223          	sw	a4,260(a5) # e000e104 <_eusrstack+0xc0009104>
TIM4_Init():
C:/Repository/RISKYKVM/firmware/src/User/tim.c:72
    cc98:	6145                	addi	sp,sp,48
    cc9a:	8082                	ret

0000cc9c <TIM2_IRQHandler>:
TIM2_IRQHandler():
C:/Repository/RISKYKVM/firmware/src/User/tim.c:79


void TIM2_IRQHandler( void )
{

    if( TIM_GetITStatus( TIM2, TIM_IT_Update ) != RESET )
    cc9c:	4585                	li	a1,1
    cc9e:	40000537          	lui	a0,0x40000
    cca2:	33d000ef          	jal	ra,d7de <TIM_GetITStatus>
    cca6:	e119                	bnez	a0,ccac <TIM2_IRQHandler+0x10>
C:/Repository/RISKYKVM/firmware/src/User/tim.c:85
    {
    	ProcessX_IRQ();
        /* Clear interrupt flag */
        TIM_ClearITPendingBit( TIM2, TIM_IT_Update );
    }
}
    cca8:	30200073          	mret
C:/Repository/RISKYKVM/firmware/src/User/tim.c:81
    	ProcessX_IRQ();
    ccac:	971ff0ef          	jal	ra,c61c <ProcessX_IRQ>
C:/Repository/RISKYKVM/firmware/src/User/tim.c:83
        TIM_ClearITPendingBit( TIM2, TIM_IT_Update );
    ccb0:	4585                	li	a1,1
    ccb2:	40000537          	lui	a0,0x40000
    ccb6:	345000ef          	jal	ra,d7fa <TIM_ClearITPendingBit>
C:/Repository/RISKYKVM/firmware/src/User/tim.c:85
}
    ccba:	30200073          	mret

0000ccbe <TIM4_IRQHandler>:
TIM4_IRQHandler():
C:/Repository/RISKYKVM/firmware/src/User/tim.c:88

void TIM4_IRQHandler( void )
{
    ccbe:	1141                	addi	sp,sp,-16
    ccc0:	c622                	sw	s0,12(sp)
C:/Repository/RISKYKVM/firmware/src/User/tim.c:90

    if( TIM_GetITStatus( TIM4, TIM_IT_Update ) != RESET )
    ccc2:	40001437          	lui	s0,0x40001
    ccc6:	4585                	li	a1,1
    ccc8:	80040513          	addi	a0,s0,-2048 # 40000800 <_eusrstack+0x1fffb800>
    cccc:	313000ef          	jal	ra,d7de <TIM_GetITStatus>
    ccd0:	e509                	bnez	a0,ccda <TIM4_IRQHandler+0x1c>
C:/Repository/RISKYKVM/firmware/src/User/tim.c:96
    {
    	 ProcessY_IRQ();
        /* Clear interrupt flag */
        TIM_ClearITPendingBit( TIM4, TIM_IT_Update );
    }
}
    ccd2:	4432                	lw	s0,12(sp)
    ccd4:	0141                	addi	sp,sp,16
    ccd6:	30200073          	mret
C:/Repository/RISKYKVM/firmware/src/User/tim.c:92
    	 ProcessY_IRQ();
    ccda:	acdff0ef          	jal	ra,c7a6 <ProcessY_IRQ>
C:/Repository/RISKYKVM/firmware/src/User/tim.c:94
        TIM_ClearITPendingBit( TIM4, TIM_IT_Update );
    ccde:	80040513          	addi	a0,s0,-2048
    cce2:	4585                	li	a1,1
    cce4:	317000ef          	jal	ra,d7fa <TIM_ClearITPendingBit>
C:/Repository/RISKYKVM/firmware/src/User/tim.c:96
}
    cce8:	4432                	lw	s0,12(sp)
    ccea:	0141                	addi	sp,sp,16
    ccec:	30200073          	mret

0000ccf0 <FifoInit>:
FifoInit():
C:/Repository/RISKYKVM/firmware/src/User/utils.c:11
{
  f->head = 0U;
  f->tail = 0U;
  f->lock = 0U;
  f->size = 128U;
  f->buf = f->buffArr;
    ccf0:	00b50793          	addi	a5,a0,11 # 4000000b <_eusrstack+0x1fffb00b>
C:/Repository/RISKYKVM/firmware/src/User/utils.c:10
  f->size = 128U;
    ccf4:	08000713          	li	a4,128
C:/Repository/RISKYKVM/firmware/src/User/utils.c:7
  f->head = 0U;
    ccf8:	00052223          	sw	zero,4(a0)
C:/Repository/RISKYKVM/firmware/src/User/utils.c:9
  f->lock = 0U;
    ccfc:	00050523          	sb	zero,10(a0)
C:/Repository/RISKYKVM/firmware/src/User/utils.c:10
  f->size = 128U;
    cd00:	00e51423          	sh	a4,8(a0)
C:/Repository/RISKYKVM/firmware/src/User/utils.c:11
  f->buf = f->buffArr;
    cd04:	c11c                	sw	a5,0(a0)
C:/Repository/RISKYKVM/firmware/src/User/utils.c:12
}
    cd06:	8082                	ret

0000cd08 <FifoRead>:
FifoRead():
C:/Repository/RISKYKVM/firmware/src/User/utils.c:22
  uint16_t i;
  uint8_t *p;

  p = (uint8_t *) buf;

  if (f->lock == 0U)
    cd08:	00a54783          	lbu	a5,10(a0)
C:/Repository/RISKYKVM/firmware/src/User/utils.c:16
{
    cd0c:	872a                	mv	a4,a0
C:/Repository/RISKYKVM/firmware/src/User/utils.c:22
  if (f->lock == 0U)
    cd0e:	ebb9                	bnez	a5,cd64 <FifoRead+0x5c>
C:/Repository/RISKYKVM/firmware/src/User/utils.c:24
  {
    f->lock = 1U;
    cd10:	4785                	li	a5,1
    cd12:	00f50523          	sb	a5,10(a0)
C:/Repository/RISKYKVM/firmware/src/User/utils.c:26

    for (i = 0U; i < nbytes; i++)
    cd16:	c639                	beqz	a2,cd64 <FifoRead+0x5c>
C:/Repository/RISKYKVM/firmware/src/User/utils.c:28
    {
      if (f->tail != f->head)
    cd18:	00655783          	lhu	a5,6(a0)
    cd1c:	00455683          	lhu	a3,4(a0)
C:/Repository/RISKYKVM/firmware/src/User/utils.c:26
    for (i = 0U; i < nbytes; i++)
    cd20:	4501                	li	a0,0
C:/Repository/RISKYKVM/firmware/src/User/utils.c:28
      if (f->tail != f->head)
    cd22:	00f69763          	bne	a3,a5,cd30 <FifoRead+0x28>
    cd26:	a099                	j	cd6c <FifoRead+0x64>
    cd28:	00475683          	lhu	a3,4(a4) # 4004 <__stack_size+0x3804>
    cd2c:	04f68063          	beq	a3,a5,cd6c <FifoRead+0x64>
C:/Repository/RISKYKVM/firmware/src/User/utils.c:30
      {
        *p++ = f->buf[f->tail];
    cd30:	4314                	lw	a3,0(a4)
    cd32:	0585                	addi	a1,a1,1
    cd34:	97b6                	add	a5,a5,a3
    cd36:	0007c783          	lbu	a5,0(a5)
    cd3a:	fef58fa3          	sb	a5,-1(a1) # 3fff <__stack_size+0x37ff>
C:/Repository/RISKYKVM/firmware/src/User/utils.c:31
        f->tail++;
    cd3e:	00675783          	lhu	a5,6(a4)
C:/Repository/RISKYKVM/firmware/src/User/utils.c:33

        if (f->tail == f->size)
    cd42:	00875683          	lhu	a3,8(a4)
C:/Repository/RISKYKVM/firmware/src/User/utils.c:31
        f->tail++;
    cd46:	0785                	addi	a5,a5,1
    cd48:	07c2                	slli	a5,a5,0x10
    cd4a:	83c1                	srli	a5,a5,0x10
    cd4c:	00f71323          	sh	a5,6(a4)
C:/Repository/RISKYKVM/firmware/src/User/utils.c:33
        if (f->tail == f->size)
    cd50:	00f69563          	bne	a3,a5,cd5a <FifoRead+0x52>
C:/Repository/RISKYKVM/firmware/src/User/utils.c:35
        {
          f->tail = 0U;
    cd54:	00071323          	sh	zero,6(a4)
    cd58:	4781                	li	a5,0
C:/Repository/RISKYKVM/firmware/src/User/utils.c:26 (discriminator 2)
    for (i = 0U; i < nbytes; i++)
    cd5a:	0505                	addi	a0,a0,1
    cd5c:	0542                	slli	a0,a0,0x10
    cd5e:	8141                	srli	a0,a0,0x10
    cd60:	fca614e3          	bne	a2,a0,cd28 <FifoRead+0x20>
C:/Repository/RISKYKVM/firmware/src/User/utils.c:46
        return i;
      }
    }
  }

  f->lock = 0U;
    cd64:	00070523          	sb	zero,10(a4)
C:/Repository/RISKYKVM/firmware/src/User/utils.c:48

  return nbytes;
    cd68:	8532                	mv	a0,a2
    cd6a:	8082                	ret
C:/Repository/RISKYKVM/firmware/src/User/utils.c:40
        f->lock = 0U;
    cd6c:	00070523          	sb	zero,10(a4)
C:/Repository/RISKYKVM/firmware/src/User/utils.c:49
}
    cd70:	8082                	ret

0000cd72 <FifoWrite>:
FifoWrite():
C:/Repository/RISKYKVM/firmware/src/User/utils.c:59
  uint16_t i;
  uint8_t *p;

  p = (uint8_t *) buf;

  if (f->lock == 0U)
    cd72:	00a54783          	lbu	a5,10(a0)
C:/Repository/RISKYKVM/firmware/src/User/utils.c:53
{
    cd76:	872a                	mv	a4,a0
C:/Repository/RISKYKVM/firmware/src/User/utils.c:59
  if (f->lock == 0U)
    cd78:	ebb5                	bnez	a5,cdec <FifoWrite+0x7a>
C:/Repository/RISKYKVM/firmware/src/User/utils.c:61
  {
    f->lock = 1U;
    cd7a:	4785                	li	a5,1
    cd7c:	00f50523          	sb	a5,10(a0)
C:/Repository/RISKYKVM/firmware/src/User/utils.c:63

    for (i = 0U; i < nbytes; i++)
    cd80:	c635                	beqz	a2,cdec <FifoWrite+0x7a>
C:/Repository/RISKYKVM/firmware/src/User/utils.c:65
    {
      if ((f->head + 1U == f->tail) ||
    cd82:	00455783          	lhu	a5,4(a0)
    cd86:	00655883          	lhu	a7,6(a0)
    cd8a:	00178693          	addi	a3,a5,1
    cd8e:	07168363          	beq	a3,a7,cdf4 <FifoWrite+0x82>
    cd92:	00855803          	lhu	a6,8(a0)
C:/Repository/RISKYKVM/firmware/src/User/utils.c:63
    for (i = 0U; i < nbytes; i++)
    cd96:	4501                	li	a0,0
    cd98:	a089                	j	cdda <FifoWrite+0x68>
C:/Repository/RISKYKVM/firmware/src/User/utils.c:73
        f->lock = 0U;
        return i;
      }
      else
      {
        f->buf[f->head] = *p++;
    cd9a:	4314                	lw	a3,0(a4)
    cd9c:	0005c803          	lbu	a6,0(a1)
C:/Repository/RISKYKVM/firmware/src/User/utils.c:63
    for (i = 0U; i < nbytes; i++)
    cda0:	01031513          	slli	a0,t1,0x10
C:/Repository/RISKYKVM/firmware/src/User/utils.c:73
        f->buf[f->head] = *p++;
    cda4:	97b6                	add	a5,a5,a3
    cda6:	01078023          	sb	a6,0(a5)
C:/Repository/RISKYKVM/firmware/src/User/utils.c:74
        f->head++;
    cdaa:	00475783          	lhu	a5,4(a4)
C:/Repository/RISKYKVM/firmware/src/User/utils.c:76

        if (f->head == f->size)
    cdae:	00875803          	lhu	a6,8(a4)
C:/Repository/RISKYKVM/firmware/src/User/utils.c:63
    for (i = 0U; i < nbytes; i++)
    cdb2:	8141                	srli	a0,a0,0x10
C:/Repository/RISKYKVM/firmware/src/User/utils.c:74
        f->head++;
    cdb4:	0785                	addi	a5,a5,1
    cdb6:	07c2                	slli	a5,a5,0x10
    cdb8:	83c1                	srli	a5,a5,0x10
    cdba:	00f71223          	sh	a5,4(a4)
C:/Repository/RISKYKVM/firmware/src/User/utils.c:76
        if (f->head == f->size)
    cdbe:	0585                	addi	a1,a1,1
    cdc0:	01079563          	bne	a5,a6,cdca <FifoWrite+0x58>
C:/Repository/RISKYKVM/firmware/src/User/utils.c:78
        {
          f->head = 0U;
    cdc4:	00071223          	sh	zero,4(a4)
    cdc8:	4781                	li	a5,0
C:/Repository/RISKYKVM/firmware/src/User/utils.c:65 (discriminator 2)
      if ((f->head + 1U == f->tail) ||
    cdca:	00178693          	addi	a3,a5,1
C:/Repository/RISKYKVM/firmware/src/User/utils.c:63 (discriminator 2)
    for (i = 0U; i < nbytes; i++)
    cdce:	00a60f63          	beq	a2,a0,cdec <FifoWrite+0x7a>
C:/Repository/RISKYKVM/firmware/src/User/utils.c:65
      if ((f->head + 1U == f->tail) ||
    cdd2:	00675883          	lhu	a7,6(a4)
    cdd6:	01168863          	beq	a3,a7,cde6 <FifoWrite+0x74>
C:/Repository/RISKYKVM/firmware/src/User/utils.c:63 (discriminator 1)
    for (i = 0U; i < nbytes; i++)
    cdda:	00150313          	addi	t1,a0,1
C:/Repository/RISKYKVM/firmware/src/User/utils.c:65 (discriminator 1)
      if ((f->head + 1U == f->tail) ||
    cdde:	fad81ee3          	bne	a6,a3,cd9a <FifoWrite+0x28>
C:/Repository/RISKYKVM/firmware/src/User/utils.c:66
          ((f->head + 1U == f->size) && (f->tail == 0U)))
    cde2:	fa089ce3          	bnez	a7,cd9a <FifoWrite+0x28>
C:/Repository/RISKYKVM/firmware/src/User/utils.c:68
        f->lock = 0U;
    cde6:	00070523          	sb	zero,10(a4)
C:/Repository/RISKYKVM/firmware/src/User/utils.c:87
  }

  f->lock = 0U;

  return nbytes;
}
    cdea:	8082                	ret
C:/Repository/RISKYKVM/firmware/src/User/utils.c:84
  f->lock = 0U;
    cdec:	00070523          	sb	zero,10(a4)
C:/Repository/RISKYKVM/firmware/src/User/utils.c:86
  return nbytes;
    cdf0:	8532                	mv	a0,a2
    cdf2:	8082                	ret
C:/Repository/RISKYKVM/firmware/src/User/utils.c:63
    for (i = 0U; i < nbytes; i++)
    cdf4:	4501                	li	a0,0
    cdf6:	bfc5                	j	cde6 <FifoWrite+0x74>

0000cdf8 <collect_bits>:
collect_bits():
C:/Repository/RISKYKVM/firmware/src/User/utils.c:95


uint16_t collect_bits(uint8_t *p, uint16_t offset, uint8_t size, int is_signed) {
  // mask unused bits of first byte
  uint8_t mask = 0xff << (offset&7);
  uint8_t byte = offset/8;
    cdf8:	0035d713          	srli	a4,a1,0x3
    cdfc:	0ff77713          	andi	a4,a4,255
C:/Repository/RISKYKVM/firmware/src/User/utils.c:100
  uint8_t bits = size;
  uint8_t shift = offset&7;


  uint16_t rval = (p[byte++] & mask) >> shift;
    ce00:	00e507b3          	add	a5,a0,a4
    ce04:	0007c883          	lbu	a7,0(a5)
C:/Repository/RISKYKVM/firmware/src/User/utils.c:97
  uint8_t shift = offset&7;
    ce08:	899d                	andi	a1,a1,7
    ce0a:	0ff5f813          	andi	a6,a1,255
C:/Repository/RISKYKVM/firmware/src/User/utils.c:92
uint16_t collect_bits(uint8_t *p, uint16_t offset, uint8_t size, int is_signed) {
    ce0e:	832a                	mv	t1,a0
C:/Repository/RISKYKVM/firmware/src/User/utils.c:102
  mask = 0xff;
  shift = 8-shift;
    ce10:	47a1                	li	a5,8
C:/Repository/RISKYKVM/firmware/src/User/utils.c:94
  uint8_t mask = 0xff << (offset&7);
    ce12:	0ff00513          	li	a0,255
    ce16:	00b51533          	sll	a0,a0,a1
C:/Repository/RISKYKVM/firmware/src/User/utils.c:102
  shift = 8-shift;
    ce1a:	410787b3          	sub	a5,a5,a6
C:/Repository/RISKYKVM/firmware/src/User/utils.c:100
  uint16_t rval = (p[byte++] & mask) >> shift;
    ce1e:	01157533          	and	a0,a0,a7
C:/Repository/RISKYKVM/firmware/src/User/utils.c:102
  shift = 8-shift;
    ce22:	0ff7f893          	andi	a7,a5,255
C:/Repository/RISKYKVM/firmware/src/User/utils.c:100
  uint16_t rval = (p[byte++] & mask) >> shift;
    ce26:	41055533          	sra	a0,a0,a6
C:/Repository/RISKYKVM/firmware/src/User/utils.c:106
  bits -= shift;

  // first byte already contained more bits than we need
  if(shift > size) {
    ce2a:	09166a63          	bltu	a2,a7,cebe <collect_bits+0xc6>
C:/Repository/RISKYKVM/firmware/src/User/utils.c:103
  bits -= shift;
    ce2e:	ff860593          	addi	a1,a2,-8 # 40020ff8 <_eusrstack+0x2001bff8>
    ce32:	95c2                	add	a1,a1,a6
C:/Repository/RISKYKVM/firmware/src/User/utils.c:100
  uint16_t rval = (p[byte++] & mask) >> shift;
    ce34:	0705                	addi	a4,a4,1
    ce36:	0542                	slli	a0,a0,0x10
C:/Repository/RISKYKVM/firmware/src/User/utils.c:103
  bits -= shift;
    ce38:	0ff5f593          	andi	a1,a1,255
C:/Repository/RISKYKVM/firmware/src/User/utils.c:100
  uint16_t rval = (p[byte++] & mask) >> shift;
    ce3c:	8141                	srli	a0,a0,0x10
    ce3e:	0ff77793          	andi	a5,a4,255
C:/Repository/RISKYKVM/firmware/src/User/utils.c:112
    // mask unused bits
    rval &= (1<<size)-1;
  } else {
    // further bytes if required
    while(bits) {
      mask = (bits<8)?(0xff>>(8-bits)):0xff;
    ce42:	4f1d                	li	t5,7
C:/Repository/RISKYKVM/firmware/src/User/utils.c:111
    while(bits) {
    ce44:	c99d                	beqz	a1,ce7a <collect_bits+0x82>
C:/Repository/RISKYKVM/firmware/src/User/utils.c:113
      rval += (p[byte++] & mask) << shift;
    ce46:	00f30733          	add	a4,t1,a5
C:/Repository/RISKYKVM/firmware/src/User/utils.c:115
      shift += 8;
      bits -= (bits>8)?8:bits;
    ce4a:	ff858e93          	addi	t4,a1,-8
C:/Repository/RISKYKVM/firmware/src/User/utils.c:113
      rval += (p[byte++] & mask) << shift;
    ce4e:	00178e13          	addi	t3,a5,1
C:/Repository/RISKYKVM/firmware/src/User/utils.c:114
      shift += 8;
    ce52:	00888813          	addi	a6,a7,8
C:/Repository/RISKYKVM/firmware/src/User/utils.c:112
      mask = (bits<8)?(0xff>>(8-bits)):0xff;
    ce56:	04bf6463          	bltu	t5,a1,ce9e <collect_bits+0xa6>
    ce5a:	47a1                	li	a5,8
C:/Repository/RISKYKVM/firmware/src/User/utils.c:113
      rval += (p[byte++] & mask) << shift;
    ce5c:	00074703          	lbu	a4,0(a4)
C:/Repository/RISKYKVM/firmware/src/User/utils.c:112
      mask = (bits<8)?(0xff>>(8-bits)):0xff;
    ce60:	40b785b3          	sub	a1,a5,a1
    ce64:	0ff00793          	li	a5,255
    ce68:	40b7d7b3          	sra	a5,a5,a1
C:/Repository/RISKYKVM/firmware/src/User/utils.c:113
      rval += (p[byte++] & mask) << shift;
    ce6c:	8ff9                	and	a5,a5,a4
    ce6e:	011797b3          	sll	a5,a5,a7
    ce72:	97aa                	add	a5,a5,a0
    ce74:	01079513          	slli	a0,a5,0x10
    ce78:	8141                	srli	a0,a0,0x10
C:/Repository/RISKYKVM/firmware/src/User/utils.c:119
    }
  }

  if(is_signed) {
    ce7a:	c28d                	beqz	a3,ce9c <collect_bits+0xa4>
C:/Repository/RISKYKVM/firmware/src/User/utils.c:121
    // do sign expansion
    uint16_t sign_bit = 1<<(size-1);
    ce7c:	167d                	addi	a2,a2,-1
    ce7e:	4785                	li	a5,1
    ce80:	00c797b3          	sll	a5,a5,a2
    ce84:	07c2                	slli	a5,a5,0x10
    ce86:	83c1                	srli	a5,a5,0x10
C:/Repository/RISKYKVM/firmware/src/User/utils.c:122
    if(rval & sign_bit) {
    ce88:	00f57733          	and	a4,a0,a5
    ce8c:	cb01                	beqz	a4,ce9c <collect_bits+0xa4>
C:/Repository/RISKYKVM/firmware/src/User/utils.c:125
      while(sign_bit) {
	rval |= sign_bit;
	sign_bit <<= 1;
    ce8e:	00179713          	slli	a4,a5,0x1
C:/Repository/RISKYKVM/firmware/src/User/utils.c:124
	rval |= sign_bit;
    ce92:	8d5d                	or	a0,a0,a5
C:/Repository/RISKYKVM/firmware/src/User/utils.c:125
	sign_bit <<= 1;
    ce94:	01071793          	slli	a5,a4,0x10
    ce98:	83c1                	srli	a5,a5,0x10
C:/Repository/RISKYKVM/firmware/src/User/utils.c:123
      while(sign_bit) {
    ce9a:	fbf5                	bnez	a5,ce8e <collect_bits+0x96>
C:/Repository/RISKYKVM/firmware/src/User/utils.c:131
      }
    }
  }

  return rval;
}
    ce9c:	8082                	ret
C:/Repository/RISKYKVM/firmware/src/User/utils.c:113
      rval += (p[byte++] & mask) << shift;
    ce9e:	00074703          	lbu	a4,0(a4)
C:/Repository/RISKYKVM/firmware/src/User/utils.c:115
      bits -= (bits>8)?8:bits;
    cea2:	0ffef593          	andi	a1,t4,255
C:/Repository/RISKYKVM/firmware/src/User/utils.c:113
      rval += (p[byte++] & mask) << shift;
    cea6:	0ffe7793          	andi	a5,t3,255
    ceaa:	011718b3          	sll	a7,a4,a7
    ceae:	98aa                	add	a7,a7,a0
    ceb0:	01089513          	slli	a0,a7,0x10
    ceb4:	8141                	srli	a0,a0,0x10
C:/Repository/RISKYKVM/firmware/src/User/utils.c:114
      shift += 8;
    ceb6:	0ff87893          	andi	a7,a6,255
C:/Repository/RISKYKVM/firmware/src/User/utils.c:111
    while(bits) {
    ceba:	f5d1                	bnez	a1,ce46 <collect_bits+0x4e>
    cebc:	bf7d                	j	ce7a <collect_bits+0x82>
C:/Repository/RISKYKVM/firmware/src/User/utils.c:108
    rval &= (1<<size)-1;
    cebe:	4785                	li	a5,1
    cec0:	00c797b3          	sll	a5,a5,a2
    cec4:	17fd                	addi	a5,a5,-1
    cec6:	8d7d                	and	a0,a0,a5
    cec8:	0542                	slli	a0,a0,0x10
    ceca:	8141                	srli	a0,a0,0x10
    cecc:	b77d                	j	ce7a <collect_bits+0x82>
C:/Repository/RISKYKVM/firmware/src/Startup/startup_ch32v20x_D6.S:159
    .weak   USBHD_IRQHandler           /* USBHD */
    .weak   USBHDWakeUp_IRQHandler     /* USBHD Wake Up */
    .weak   UART4_IRQHandler           /* UART4 */
    .weak   DMA1_Channel8_IRQHandler   /* DMA1 Channel8 */

NMI_Handler:  1:  j 1b
    cece:	a001                	j	cece <collect_bits+0xd6>
C:/Repository/RISKYKVM/firmware/src/Startup/startup_ch32v20x_D6.S:160
HardFault_Handler:  1:  j 1b
    ced0:	a001                	j	ced0 <collect_bits+0xd8>

0000ced2 <Ecall_M_Mode_Handler>:
Ecall_M_Mode_Handler():
C:/Repository/RISKYKVM/firmware/src/Startup/startup_ch32v20x_D6.S:161
Ecall_M_Mode_Handler:  1:  j 1b
    ced2:	a001                	j	ced2 <Ecall_M_Mode_Handler>

0000ced4 <Ecall_U_Mode_Handler>:
Ecall_U_Mode_Handler():
C:/Repository/RISKYKVM/firmware/src/Startup/startup_ch32v20x_D6.S:162
Ecall_U_Mode_Handler:  1:  j 1b
    ced4:	a001                	j	ced4 <Ecall_U_Mode_Handler>

0000ced6 <Break_Point_Handler>:
Break_Point_Handler():
C:/Repository/RISKYKVM/firmware/src/Startup/startup_ch32v20x_D6.S:163
Break_Point_Handler:  1:  j 1b
    ced6:	a001                	j	ced6 <Break_Point_Handler>

0000ced8 <SysTick_Handler>:
SysTick_Handler():
C:/Repository/RISKYKVM/firmware/src/Startup/startup_ch32v20x_D6.S:164
SysTick_Handler:  1:  j 1b
    ced8:	a001                	j	ced8 <SysTick_Handler>

0000ceda <SW_Handler>:
SW_Handler():
C:/Repository/RISKYKVM/firmware/src/Startup/startup_ch32v20x_D6.S:165
SW_Handler:  1:  j 1b
    ceda:	a001                	j	ceda <SW_Handler>

0000cedc <WWDG_IRQHandler>:
WWDG_IRQHandler():
C:/Repository/RISKYKVM/firmware/src/Startup/startup_ch32v20x_D6.S:166
WWDG_IRQHandler:  1:  j 1b
    cedc:	a001                	j	cedc <WWDG_IRQHandler>

0000cede <PVD_IRQHandler>:
PVD_IRQHandler():
C:/Repository/RISKYKVM/firmware/src/Startup/startup_ch32v20x_D6.S:167
PVD_IRQHandler:  1:  j 1b
    cede:	a001                	j	cede <PVD_IRQHandler>

0000cee0 <TAMPER_IRQHandler>:
TAMPER_IRQHandler():
C:/Repository/RISKYKVM/firmware/src/Startup/startup_ch32v20x_D6.S:168
TAMPER_IRQHandler:  1:  j 1b
    cee0:	a001                	j	cee0 <TAMPER_IRQHandler>

0000cee2 <RTC_IRQHandler>:
RTC_IRQHandler():
C:/Repository/RISKYKVM/firmware/src/Startup/startup_ch32v20x_D6.S:169
RTC_IRQHandler:  1:  j 1b
    cee2:	a001                	j	cee2 <RTC_IRQHandler>

0000cee4 <FLASH_IRQHandler>:
FLASH_IRQHandler():
C:/Repository/RISKYKVM/firmware/src/Startup/startup_ch32v20x_D6.S:170
FLASH_IRQHandler:  1:  j 1b
    cee4:	a001                	j	cee4 <FLASH_IRQHandler>

0000cee6 <RCC_IRQHandler>:
RCC_IRQHandler():
C:/Repository/RISKYKVM/firmware/src/Startup/startup_ch32v20x_D6.S:171
RCC_IRQHandler:  1:  j 1b
    cee6:	a001                	j	cee6 <RCC_IRQHandler>

0000cee8 <EXTI0_IRQHandler>:
EXTI0_IRQHandler():
C:/Repository/RISKYKVM/firmware/src/Startup/startup_ch32v20x_D6.S:172
EXTI0_IRQHandler:  1:  j 1b
    cee8:	a001                	j	cee8 <EXTI0_IRQHandler>

0000ceea <EXTI1_IRQHandler>:
EXTI1_IRQHandler():
C:/Repository/RISKYKVM/firmware/src/Startup/startup_ch32v20x_D6.S:173
EXTI1_IRQHandler:  1:  j 1b
    ceea:	a001                	j	ceea <EXTI1_IRQHandler>

0000ceec <EXTI2_IRQHandler>:
EXTI2_IRQHandler():
C:/Repository/RISKYKVM/firmware/src/Startup/startup_ch32v20x_D6.S:174
EXTI2_IRQHandler:  1:  j 1b
    ceec:	a001                	j	ceec <EXTI2_IRQHandler>

0000ceee <EXTI3_IRQHandler>:
EXTI3_IRQHandler():
C:/Repository/RISKYKVM/firmware/src/Startup/startup_ch32v20x_D6.S:175
EXTI3_IRQHandler:  1:  j 1b
    ceee:	a001                	j	ceee <EXTI3_IRQHandler>

0000cef0 <EXTI4_IRQHandler>:
EXTI4_IRQHandler():
C:/Repository/RISKYKVM/firmware/src/Startup/startup_ch32v20x_D6.S:176
EXTI4_IRQHandler:  1:  j 1b
    cef0:	a001                	j	cef0 <EXTI4_IRQHandler>

0000cef2 <DMA1_Channel1_IRQHandler>:
DMA1_Channel1_IRQHandler():
C:/Repository/RISKYKVM/firmware/src/Startup/startup_ch32v20x_D6.S:177
DMA1_Channel1_IRQHandler:  1:  j 1b
    cef2:	a001                	j	cef2 <DMA1_Channel1_IRQHandler>

0000cef4 <DMA1_Channel2_IRQHandler>:
DMA1_Channel2_IRQHandler():
C:/Repository/RISKYKVM/firmware/src/Startup/startup_ch32v20x_D6.S:178
DMA1_Channel2_IRQHandler:  1:  j 1b
    cef4:	a001                	j	cef4 <DMA1_Channel2_IRQHandler>

0000cef6 <DMA1_Channel3_IRQHandler>:
DMA1_Channel3_IRQHandler():
C:/Repository/RISKYKVM/firmware/src/Startup/startup_ch32v20x_D6.S:179
DMA1_Channel3_IRQHandler:  1:  j 1b
    cef6:	a001                	j	cef6 <DMA1_Channel3_IRQHandler>

0000cef8 <DMA1_Channel4_IRQHandler>:
DMA1_Channel4_IRQHandler():
C:/Repository/RISKYKVM/firmware/src/Startup/startup_ch32v20x_D6.S:180
DMA1_Channel4_IRQHandler:  1:  j 1b
    cef8:	a001                	j	cef8 <DMA1_Channel4_IRQHandler>

0000cefa <DMA1_Channel5_IRQHandler>:
DMA1_Channel5_IRQHandler():
C:/Repository/RISKYKVM/firmware/src/Startup/startup_ch32v20x_D6.S:181
DMA1_Channel5_IRQHandler:  1:  j 1b
    cefa:	a001                	j	cefa <DMA1_Channel5_IRQHandler>

0000cefc <DMA1_Channel6_IRQHandler>:
DMA1_Channel6_IRQHandler():
C:/Repository/RISKYKVM/firmware/src/Startup/startup_ch32v20x_D6.S:182
DMA1_Channel6_IRQHandler:  1:  j 1b
    cefc:	a001                	j	cefc <DMA1_Channel6_IRQHandler>

0000cefe <DMA1_Channel7_IRQHandler>:
DMA1_Channel7_IRQHandler():
C:/Repository/RISKYKVM/firmware/src/Startup/startup_ch32v20x_D6.S:183
DMA1_Channel7_IRQHandler:  1:  j 1b
    cefe:	a001                	j	cefe <DMA1_Channel7_IRQHandler>

0000cf00 <ADC1_2_IRQHandler>:
ADC1_2_IRQHandler():
C:/Repository/RISKYKVM/firmware/src/Startup/startup_ch32v20x_D6.S:184
ADC1_2_IRQHandler:  1:  j 1b
    cf00:	a001                	j	cf00 <ADC1_2_IRQHandler>

0000cf02 <USB_HP_CAN1_TX_IRQHandler>:
USB_HP_CAN1_TX_IRQHandler():
C:/Repository/RISKYKVM/firmware/src/Startup/startup_ch32v20x_D6.S:185
USB_HP_CAN1_TX_IRQHandler:  1:  j 1b
    cf02:	a001                	j	cf02 <USB_HP_CAN1_TX_IRQHandler>

0000cf04 <USB_LP_CAN1_RX0_IRQHandler>:
USB_LP_CAN1_RX0_IRQHandler():
C:/Repository/RISKYKVM/firmware/src/Startup/startup_ch32v20x_D6.S:186
USB_LP_CAN1_RX0_IRQHandler:  1:  j 1b
    cf04:	a001                	j	cf04 <USB_LP_CAN1_RX0_IRQHandler>

0000cf06 <CAN1_RX1_IRQHandler>:
CAN1_RX1_IRQHandler():
C:/Repository/RISKYKVM/firmware/src/Startup/startup_ch32v20x_D6.S:187
CAN1_RX1_IRQHandler:  1:  j 1b
    cf06:	a001                	j	cf06 <CAN1_RX1_IRQHandler>

0000cf08 <CAN1_SCE_IRQHandler>:
CAN1_SCE_IRQHandler():
C:/Repository/RISKYKVM/firmware/src/Startup/startup_ch32v20x_D6.S:188
CAN1_SCE_IRQHandler:  1:  j 1b
    cf08:	a001                	j	cf08 <CAN1_SCE_IRQHandler>

0000cf0a <EXTI9_5_IRQHandler>:
EXTI9_5_IRQHandler():
C:/Repository/RISKYKVM/firmware/src/Startup/startup_ch32v20x_D6.S:189
EXTI9_5_IRQHandler:  1:  j 1b
    cf0a:	a001                	j	cf0a <EXTI9_5_IRQHandler>

0000cf0c <TIM1_BRK_IRQHandler>:
TIM1_BRK_IRQHandler():
C:/Repository/RISKYKVM/firmware/src/Startup/startup_ch32v20x_D6.S:190
TIM1_BRK_IRQHandler:  1:  j 1b
    cf0c:	a001                	j	cf0c <TIM1_BRK_IRQHandler>

0000cf0e <TIM1_UP_IRQHandler>:
TIM1_UP_IRQHandler():
C:/Repository/RISKYKVM/firmware/src/Startup/startup_ch32v20x_D6.S:191
TIM1_UP_IRQHandler:  1:  j 1b
    cf0e:	a001                	j	cf0e <TIM1_UP_IRQHandler>

0000cf10 <TIM1_TRG_COM_IRQHandler>:
TIM1_TRG_COM_IRQHandler():
C:/Repository/RISKYKVM/firmware/src/Startup/startup_ch32v20x_D6.S:192
TIM1_TRG_COM_IRQHandler:  1:  j 1b
    cf10:	a001                	j	cf10 <TIM1_TRG_COM_IRQHandler>

0000cf12 <TIM1_CC_IRQHandler>:
TIM1_CC_IRQHandler():
C:/Repository/RISKYKVM/firmware/src/Startup/startup_ch32v20x_D6.S:193
TIM1_CC_IRQHandler:  1:  j 1b
    cf12:	a001                	j	cf12 <TIM1_CC_IRQHandler>
C:/Repository/RISKYKVM/firmware/src/Startup/startup_ch32v20x_D6.S:194
TIM2_IRQHandler:  1:  j 1b
    cf14:	a001                	j	cf14 <TIM1_CC_IRQHandler+0x2>
C:/Repository/RISKYKVM/firmware/src/Startup/startup_ch32v20x_D6.S:195
TIM3_IRQHandler:  1:  j 1b
    cf16:	a001                	j	cf16 <TIM1_CC_IRQHandler+0x4>
C:/Repository/RISKYKVM/firmware/src/Startup/startup_ch32v20x_D6.S:196
TIM4_IRQHandler:  1:  j 1b
    cf18:	a001                	j	cf18 <TIM1_CC_IRQHandler+0x6>

0000cf1a <I2C1_EV_IRQHandler>:
I2C1_EV_IRQHandler():
C:/Repository/RISKYKVM/firmware/src/Startup/startup_ch32v20x_D6.S:197
I2C1_EV_IRQHandler:  1:  j 1b
    cf1a:	a001                	j	cf1a <I2C1_EV_IRQHandler>

0000cf1c <I2C1_ER_IRQHandler>:
I2C1_ER_IRQHandler():
C:/Repository/RISKYKVM/firmware/src/Startup/startup_ch32v20x_D6.S:198
I2C1_ER_IRQHandler:  1:  j 1b
    cf1c:	a001                	j	cf1c <I2C1_ER_IRQHandler>

0000cf1e <I2C2_EV_IRQHandler>:
I2C2_EV_IRQHandler():
C:/Repository/RISKYKVM/firmware/src/Startup/startup_ch32v20x_D6.S:199
I2C2_EV_IRQHandler:  1:  j 1b
    cf1e:	a001                	j	cf1e <I2C2_EV_IRQHandler>

0000cf20 <I2C2_ER_IRQHandler>:
I2C2_ER_IRQHandler():
C:/Repository/RISKYKVM/firmware/src/Startup/startup_ch32v20x_D6.S:200
I2C2_ER_IRQHandler:  1:  j 1b
    cf20:	a001                	j	cf20 <I2C2_ER_IRQHandler>

0000cf22 <SPI1_IRQHandler>:
SPI1_IRQHandler():
C:/Repository/RISKYKVM/firmware/src/Startup/startup_ch32v20x_D6.S:201
SPI1_IRQHandler:  1:  j 1b
    cf22:	a001                	j	cf22 <SPI1_IRQHandler>

0000cf24 <SPI2_IRQHandler>:
SPI2_IRQHandler():
C:/Repository/RISKYKVM/firmware/src/Startup/startup_ch32v20x_D6.S:202
SPI2_IRQHandler:  1:  j 1b
    cf24:	a001                	j	cf24 <SPI2_IRQHandler>

0000cf26 <USART1_IRQHandler>:
USART1_IRQHandler():
C:/Repository/RISKYKVM/firmware/src/Startup/startup_ch32v20x_D6.S:203
USART1_IRQHandler:  1:  j 1b
    cf26:	a001                	j	cf26 <USART1_IRQHandler>

0000cf28 <USART2_IRQHandler>:
USART2_IRQHandler():
C:/Repository/RISKYKVM/firmware/src/Startup/startup_ch32v20x_D6.S:204
USART2_IRQHandler:  1:  j 1b
    cf28:	a001                	j	cf28 <USART2_IRQHandler>

0000cf2a <USART3_IRQHandler>:
USART3_IRQHandler():
C:/Repository/RISKYKVM/firmware/src/Startup/startup_ch32v20x_D6.S:205
USART3_IRQHandler:  1:  j 1b
    cf2a:	a001                	j	cf2a <USART3_IRQHandler>
C:/Repository/RISKYKVM/firmware/src/Startup/startup_ch32v20x_D6.S:206
EXTI15_10_IRQHandler:  1:  j 1b
    cf2c:	a001                	j	cf2c <USART3_IRQHandler+0x2>

0000cf2e <RTCAlarm_IRQHandler>:
RTCAlarm_IRQHandler():
C:/Repository/RISKYKVM/firmware/src/Startup/startup_ch32v20x_D6.S:207
RTCAlarm_IRQHandler:  1:  j 1b
    cf2e:	a001                	j	cf2e <RTCAlarm_IRQHandler>

0000cf30 <USBWakeUp_IRQHandler>:
USBWakeUp_IRQHandler():
C:/Repository/RISKYKVM/firmware/src/Startup/startup_ch32v20x_D6.S:208
USBWakeUp_IRQHandler:  1:  j 1b
    cf30:	a001                	j	cf30 <USBWakeUp_IRQHandler>

0000cf32 <USBHD_IRQHandler>:
USBHD_IRQHandler():
C:/Repository/RISKYKVM/firmware/src/Startup/startup_ch32v20x_D6.S:209
USBHD_IRQHandler:  1:  j 1b
    cf32:	a001                	j	cf32 <USBHD_IRQHandler>

0000cf34 <USBHDWakeUp_IRQHandler>:
USBHDWakeUp_IRQHandler():
C:/Repository/RISKYKVM/firmware/src/Startup/startup_ch32v20x_D6.S:210
USBHDWakeUp_IRQHandler:  1:  j 1b
    cf34:	a001                	j	cf34 <USBHDWakeUp_IRQHandler>

0000cf36 <UART4_IRQHandler>:
UART4_IRQHandler():
C:/Repository/RISKYKVM/firmware/src/Startup/startup_ch32v20x_D6.S:211
UART4_IRQHandler:  1:  j 1b
    cf36:	a001                	j	cf36 <UART4_IRQHandler>

0000cf38 <DMA1_Channel8_IRQHandler>:
DMA1_Channel8_IRQHandler():
C:/Repository/RISKYKVM/firmware/src/Startup/startup_ch32v20x_D6.S:212
DMA1_Channel8_IRQHandler:  1:  j 1b
    cf38:	a001                	j	cf38 <DMA1_Channel8_IRQHandler>

0000cf3a <handle_reset>:
handle_reset():
C:/Repository/RISKYKVM/firmware/src/Startup/startup_ch32v20x_D6.S:220
	.weak	handle_reset
	.align	1
handle_reset:
.option push 
.option	norelax 
	la gp, __global_pointer$
    cf3a:	1fff4197          	auipc	gp,0x1fff4
    cf3e:	8c618193          	addi	gp,gp,-1850 # 20000800 <__global_pointer$>
C:/Repository/RISKYKVM/firmware/src/Startup/startup_ch32v20x_D6.S:223
.option	pop 
1:
	la sp, _eusrstack 
    cf42:	1fff8117          	auipc	sp,0x1fff8
    cf46:	0be10113          	addi	sp,sp,190 # 20005000 <_eusrstack>
C:/Repository/RISKYKVM/firmware/src/Startup/startup_ch32v20x_D6.S:226
2:
	/* Load data section from flash to RAM */
	la a0, _data_lma
    cf4a:	00001517          	auipc	a0,0x1
    cf4e:	b4e50513          	addi	a0,a0,-1202 # da98 <_data_lma>
C:/Repository/RISKYKVM/firmware/src/Startup/startup_ch32v20x_D6.S:227
	la a1, _data_vma
    cf52:	1fff3597          	auipc	a1,0x1fff3
    cf56:	0ae58593          	addi	a1,a1,174 # 20000000 <_data_vma>
C:/Repository/RISKYKVM/firmware/src/Startup/startup_ch32v20x_D6.S:228
	la a2, _edata
    cf5a:	87018613          	addi	a2,gp,-1936 # 20000070 <_edata>
C:/Repository/RISKYKVM/firmware/src/Startup/startup_ch32v20x_D6.S:229
	bgeu a1, a2, 2f
    cf5e:	00c5fa63          	bgeu	a1,a2,cf72 <handle_reset+0x38>
C:/Repository/RISKYKVM/firmware/src/Startup/startup_ch32v20x_D6.S:231
1:
	lw t0, (a0)
    cf62:	00052283          	lw	t0,0(a0)
C:/Repository/RISKYKVM/firmware/src/Startup/startup_ch32v20x_D6.S:232
	sw t0, (a1)
    cf66:	0055a023          	sw	t0,0(a1)
C:/Repository/RISKYKVM/firmware/src/Startup/startup_ch32v20x_D6.S:233
	addi a0, a0, 4
    cf6a:	0511                	addi	a0,a0,4
C:/Repository/RISKYKVM/firmware/src/Startup/startup_ch32v20x_D6.S:234
	addi a1, a1, 4
    cf6c:	0591                	addi	a1,a1,4
C:/Repository/RISKYKVM/firmware/src/Startup/startup_ch32v20x_D6.S:235
	bltu a1, a2, 1b
    cf6e:	fec5eae3          	bltu	a1,a2,cf62 <handle_reset+0x28>
C:/Repository/RISKYKVM/firmware/src/Startup/startup_ch32v20x_D6.S:238
2:
	/* Clear bss section */
	la a0, _sbss
    cf72:	87018513          	addi	a0,gp,-1936 # 20000070 <_edata>
C:/Repository/RISKYKVM/firmware/src/Startup/startup_ch32v20x_D6.S:239
	la a1, _ebss
    cf76:	1fff5597          	auipc	a1,0x1fff5
    cf7a:	c2e58593          	addi	a1,a1,-978 # 20001ba4 <_ebss>
C:/Repository/RISKYKVM/firmware/src/Startup/startup_ch32v20x_D6.S:240
	bgeu a0, a1, 2f
    cf7e:	00b57763          	bgeu	a0,a1,cf8c <handle_reset+0x52>
C:/Repository/RISKYKVM/firmware/src/Startup/startup_ch32v20x_D6.S:242
1:
	sw zero, (a0)
    cf82:	00052023          	sw	zero,0(a0)
C:/Repository/RISKYKVM/firmware/src/Startup/startup_ch32v20x_D6.S:243
	addi a0, a0, 4
    cf86:	0511                	addi	a0,a0,4
C:/Repository/RISKYKVM/firmware/src/Startup/startup_ch32v20x_D6.S:244
	bltu a0, a1, 1b
    cf88:	feb56de3          	bltu	a0,a1,cf82 <handle_reset+0x48>
C:/Repository/RISKYKVM/firmware/src/Startup/startup_ch32v20x_D6.S:246
2:
    li t0, 0x1f
    cf8c:	42fd                	li	t0,31
C:/Repository/RISKYKVM/firmware/src/Startup/startup_ch32v20x_D6.S:247
    csrw 0xbc0, t0
    cf8e:	bc029073          	csrw	0xbc0,t0
C:/Repository/RISKYKVM/firmware/src/Startup/startup_ch32v20x_D6.S:250

    /* Enable nested and hardware stack */
	li t0, 0x3
    cf92:	428d                	li	t0,3
C:/Repository/RISKYKVM/firmware/src/Startup/startup_ch32v20x_D6.S:251
	csrw 0x804, t0
    cf94:	80429073          	csrw	0x804,t0
C:/Repository/RISKYKVM/firmware/src/Startup/startup_ch32v20x_D6.S:254

    /* Enable interrupt */
   	li t0, 0x88           
    cf98:	08800293          	li	t0,136
C:/Repository/RISKYKVM/firmware/src/Startup/startup_ch32v20x_D6.S:255
   	csrs mstatus, t0
    cf9c:	3002a073          	csrs	mstatus,t0
C:/Repository/RISKYKVM/firmware/src/Startup/startup_ch32v20x_D6.S:257

 	la t0, _vector_base
    cfa0:	ffffb297          	auipc	t0,0xffffb
    cfa4:	09828293          	addi	t0,t0,152 # 8038 <_einit>
C:/Repository/RISKYKVM/firmware/src/Startup/startup_ch32v20x_D6.S:258
    ori t0, t0, 3           
    cfa8:	0032e293          	ori	t0,t0,3
C:/Repository/RISKYKVM/firmware/src/Startup/startup_ch32v20x_D6.S:259
	csrw mtvec, t0
    cfac:	30529073          	csrw	mtvec,t0
C:/Repository/RISKYKVM/firmware/src/Startup/startup_ch32v20x_D6.S:261

    jal  SystemInit
    cfb0:	b5dff0ef          	jal	ra,cb0c <SystemInit>
C:/Repository/RISKYKVM/firmware/src/Startup/startup_ch32v20x_D6.S:262
	la t0, main
    cfb4:	fffff297          	auipc	t0,0xfffff
    cfb8:	ff428293          	addi	t0,t0,-12 # bfa8 <main>
C:/Repository/RISKYKVM/firmware/src/Startup/startup_ch32v20x_D6.S:263
	csrw mepc, t0
    cfbc:	34129073          	csrw	mepc,t0
C:/Repository/RISKYKVM/firmware/src/Startup/startup_ch32v20x_D6.S:264
	mret
    cfc0:	30200073          	mret

0000cfc4 <EXTI_Init>:
EXTI_Init():
C:/Repository/RISKYKVM/firmware/src/Peripheral/src/ch32v20x_exti.c:49
void EXTI_Init(EXTI_InitTypeDef *EXTI_InitStruct)
{
    uint32_t tmp = 0;

    tmp = (uint32_t)EXTI_BASE;
    if(EXTI_InitStruct->EXTI_LineCmd != DISABLE)
    cfc4:	4158                	lw	a4,4(a0)
    cfc6:	410c                	lw	a1,0(a0)
    cfc8:	00c52803          	lw	a6,12(a0)
    cfcc:	400106b7          	lui	a3,0x40010
    cfd0:	40068793          	addi	a5,a3,1024 # 40010400 <_eusrstack+0x2000b400>
    cfd4:	973e                	add	a4,a4,a5
    cfd6:	fff5c613          	not	a2,a1
    cfda:	04080163          	beqz	a6,d01c <EXTI_Init+0x58>
C:/Repository/RISKYKVM/firmware/src/Peripheral/src/ch32v20x_exti.c:51
    {
        EXTI->INTENR &= ~EXTI_InitStruct->EXTI_Line;
    cfde:	4006a883          	lw	a7,1024(a3)
C:/Repository/RISKYKVM/firmware/src/Peripheral/src/ch32v20x_exti.c:57
        EXTI->EVENR &= ~EXTI_InitStruct->EXTI_Line;
        tmp += EXTI_InitStruct->EXTI_Mode;
        *(__IO uint32_t *)tmp |= EXTI_InitStruct->EXTI_Line;
        EXTI->RTENR &= ~EXTI_InitStruct->EXTI_Line;
        EXTI->FTENR &= ~EXTI_InitStruct->EXTI_Line;
        if(EXTI_InitStruct->EXTI_Trigger == EXTI_Trigger_Rising_Falling)
    cfe2:	00852803          	lw	a6,8(a0)
    cfe6:	4341                	li	t1,16
C:/Repository/RISKYKVM/firmware/src/Peripheral/src/ch32v20x_exti.c:51
        EXTI->INTENR &= ~EXTI_InitStruct->EXTI_Line;
    cfe8:	00c8f8b3          	and	a7,a7,a2
    cfec:	4116a023          	sw	a7,1024(a3)
C:/Repository/RISKYKVM/firmware/src/Peripheral/src/ch32v20x_exti.c:52
        EXTI->EVENR &= ~EXTI_InitStruct->EXTI_Line;
    cff0:	43d4                	lw	a3,4(a5)
    cff2:	8e75                	and	a2,a2,a3
    cff4:	c3d0                	sw	a2,4(a5)
C:/Repository/RISKYKVM/firmware/src/Peripheral/src/ch32v20x_exti.c:54
        *(__IO uint32_t *)tmp |= EXTI_InitStruct->EXTI_Line;
    cff6:	4314                	lw	a3,0(a4)
    cff8:	8dd5                	or	a1,a1,a3
    cffa:	c30c                	sw	a1,0(a4)
C:/Repository/RISKYKVM/firmware/src/Peripheral/src/ch32v20x_exti.c:55
        EXTI->RTENR &= ~EXTI_InitStruct->EXTI_Line;
    cffc:	4118                	lw	a4,0(a0)
    cffe:	4790                	lw	a2,8(a5)
    d000:	fff74693          	not	a3,a4
    d004:	8e75                	and	a2,a2,a3
    d006:	c790                	sw	a2,8(a5)
C:/Repository/RISKYKVM/firmware/src/Peripheral/src/ch32v20x_exti.c:56
        EXTI->FTENR &= ~EXTI_InitStruct->EXTI_Line;
    d008:	47d0                	lw	a2,12(a5)
    d00a:	8ef1                	and	a3,a3,a2
    d00c:	c7d4                	sw	a3,12(a5)
C:/Repository/RISKYKVM/firmware/src/Peripheral/src/ch32v20x_exti.c:57
        if(EXTI_InitStruct->EXTI_Trigger == EXTI_Trigger_Rising_Falling)
    d00e:	00680b63          	beq	a6,t1,d024 <EXTI_Init+0x60>
C:/Repository/RISKYKVM/firmware/src/Peripheral/src/ch32v20x_exti.c:65
            EXTI->FTENR |= EXTI_InitStruct->EXTI_Line;
        }
        else
        {
            tmp = (uint32_t)EXTI_BASE;
            tmp += EXTI_InitStruct->EXTI_Trigger;
    d012:	97c2                	add	a5,a5,a6
C:/Repository/RISKYKVM/firmware/src/Peripheral/src/ch32v20x_exti.c:66
            *(__IO uint32_t *)tmp |= EXTI_InitStruct->EXTI_Line;
    d014:	4394                	lw	a3,0(a5)
    d016:	8f55                	or	a4,a4,a3
    d018:	c398                	sw	a4,0(a5)
    d01a:	8082                	ret
C:/Repository/RISKYKVM/firmware/src/Peripheral/src/ch32v20x_exti.c:72
        }
    }
    else
    {
        tmp += EXTI_InitStruct->EXTI_Mode;
        *(__IO uint32_t *)tmp &= ~EXTI_InitStruct->EXTI_Line;
    d01c:	431c                	lw	a5,0(a4)
    d01e:	8e7d                	and	a2,a2,a5
    d020:	c310                	sw	a2,0(a4)
C:/Repository/RISKYKVM/firmware/src/Peripheral/src/ch32v20x_exti.c:74
    }
}
    d022:	8082                	ret
C:/Repository/RISKYKVM/firmware/src/Peripheral/src/ch32v20x_exti.c:59
            EXTI->RTENR |= EXTI_InitStruct->EXTI_Line;
    d024:	4794                	lw	a3,8(a5)
    d026:	8ed9                	or	a3,a3,a4
    d028:	c794                	sw	a3,8(a5)
C:/Repository/RISKYKVM/firmware/src/Peripheral/src/ch32v20x_exti.c:60
            EXTI->FTENR |= EXTI_InitStruct->EXTI_Line;
    d02a:	47d4                	lw	a3,12(a5)
    d02c:	8f55                	or	a4,a4,a3
    d02e:	c7d8                	sw	a4,12(a5)
    d030:	8082                	ret

0000d032 <EXTI_GetITStatus>:
EXTI_GetITStatus():
C:/Repository/RISKYKVM/firmware/src/Peripheral/src/ch32v20x_exti.c:158
ITStatus EXTI_GetITStatus(uint32_t EXTI_Line)
{
    ITStatus bitstatus = RESET;
    uint32_t enablestatus = 0;

    enablestatus = EXTI->INTENR & EXTI_Line;
    d032:	400107b7          	lui	a5,0x40010
    d036:	40078713          	addi	a4,a5,1024 # 40010400 <_eusrstack+0x2000b400>
    d03a:	4007a783          	lw	a5,1024(a5)
C:/Repository/RISKYKVM/firmware/src/Peripheral/src/ch32v20x_exti.c:159
    if(((EXTI->INTFR & EXTI_Line) != (uint32_t)RESET) && (enablestatus != (uint32_t)RESET))
    d03e:	4b58                	lw	a4,20(a4)
    d040:	8f69                	and	a4,a4,a0
    d042:	c709                	beqz	a4,d04c <EXTI_GetITStatus+0x1a>
C:/Repository/RISKYKVM/firmware/src/Peripheral/src/ch32v20x_exti.c:158 (discriminator 1)
    enablestatus = EXTI->INTENR & EXTI_Line;
    d044:	8d7d                	and	a0,a0,a5
C:/Repository/RISKYKVM/firmware/src/Peripheral/src/ch32v20x_exti.c:159 (discriminator 1)
    if(((EXTI->INTFR & EXTI_Line) != (uint32_t)RESET) && (enablestatus != (uint32_t)RESET))
    d046:	00a03533          	snez	a0,a0
    d04a:	8082                	ret
C:/Repository/RISKYKVM/firmware/src/Peripheral/src/ch32v20x_exti.c:165
    {
        bitstatus = SET;
    }
    else
    {
        bitstatus = RESET;
    d04c:	4501                	li	a0,0
C:/Repository/RISKYKVM/firmware/src/Peripheral/src/ch32v20x_exti.c:168
    }
    return bitstatus;
}
    d04e:	8082                	ret

0000d050 <EXTI_ClearITPendingBit>:
EXTI_ClearITPendingBit():
    d050:	400107b7          	lui	a5,0x40010
    d054:	40a7aa23          	sw	a0,1044(a5) # 40010414 <_eusrstack+0x2000b414>
    d058:	8082                	ret

0000d05a <GPIO_Init>:
GPIO_Init():
C:/Repository/RISKYKVM/firmware/src/Peripheral/src/ch32v20x_gpio.c:95
void GPIO_Init(GPIO_TypeDef *GPIOx, GPIO_InitTypeDef *GPIO_InitStruct)
{
    uint32_t currentmode = 0x00, currentpin = 0x00, pinpos = 0x00, pos = 0x00;
    uint32_t tmpreg = 0x00, pinmask = 0x00;

    currentmode = ((uint32_t)GPIO_InitStruct->GPIO_Mode) & ((uint32_t)0x0F);
    d05a:	4594                	lw	a3,8(a1)
C:/Repository/RISKYKVM/firmware/src/Peripheral/src/ch32v20x_gpio.c:97

    if((((uint32_t)GPIO_InitStruct->GPIO_Mode) & ((uint32_t)0x10)) != 0x00)
    d05c:	0106f793          	andi	a5,a3,16
C:/Repository/RISKYKVM/firmware/src/Peripheral/src/ch32v20x_gpio.c:95
    currentmode = ((uint32_t)GPIO_InitStruct->GPIO_Mode) & ((uint32_t)0x0F);
    d060:	00f6f613          	andi	a2,a3,15
C:/Repository/RISKYKVM/firmware/src/Peripheral/src/ch32v20x_gpio.c:97
    if((((uint32_t)GPIO_InitStruct->GPIO_Mode) & ((uint32_t)0x10)) != 0x00)
    d064:	c399                	beqz	a5,d06a <GPIO_Init+0x10>
C:/Repository/RISKYKVM/firmware/src/Peripheral/src/ch32v20x_gpio.c:99
    {
        currentmode |= (uint32_t)GPIO_InitStruct->GPIO_Speed;
    d066:	41dc                	lw	a5,4(a1)
    d068:	8e5d                	or	a2,a2,a5
C:/Repository/RISKYKVM/firmware/src/Peripheral/src/ch32v20x_gpio.c:102
    }
#if defined (CH32V20x_D6)
    if(((*(uint32_t *) 0x40022030) & 0x0F000000) == 0)
    d06a:	400227b7          	lui	a5,0x40022
    d06e:	5b98                	lw	a4,48(a5)
    d070:	0f0007b7          	lui	a5,0xf000
    d074:	8ff9                	and	a5,a5,a4
    d076:	12079c63          	bnez	a5,d1ae <GPIO_Init+0x154>
C:/Repository/RISKYKVM/firmware/src/Peripheral/src/ch32v20x_gpio.c:104
    {
        MCU_Version = 1;
    d07a:	4705                	li	a4,1
    d07c:	86e18ea3          	sb	a4,-1923(gp) # 2000007d <MCU_Version>
C:/Repository/RISKYKVM/firmware/src/Peripheral/src/ch32v20x_gpio.c:107
    }

    if((GPIOx == GPIOC) && MCU_Version){
    d080:	400117b7          	lui	a5,0x40011
    d084:	12f50d63          	beq	a0,a5,d1be <GPIO_Init+0x164>
C:/Repository/RISKYKVM/firmware/src/Peripheral/src/ch32v20x_gpio.c:112
        GPIO_InitStruct->GPIO_Pin = GPIO_InitStruct->GPIO_Pin >> 13;
    }

#endif
    if(((uint32_t)GPIO_InitStruct->GPIO_Pin & ((uint32_t)0x00FF)) != 0x00)
    d088:	0005d783          	lhu	a5,0(a1)
    d08c:	0ff7f713          	andi	a4,a5,255
    d090:	e761                	bnez	a4,d158 <GPIO_Init+0xfe>
C:/Repository/RISKYKVM/firmware/src/Peripheral/src/ch32v20x_gpio.c:144
            }
        }
        GPIOx->CFGLR = tmpreg;
    }

    if(GPIO_InitStruct->GPIO_Pin > 0x00FF)
    d092:	0ff00713          	li	a4,255
    d096:	0cf77063          	bgeu	a4,a5,d156 <GPIO_Init+0xfc>
C:/Repository/RISKYKVM/firmware/src/Peripheral/src/ch32v20x_gpio.c:146
    {
        tmpreg = GPIOx->CFGHR;
    d09a:	4158                	lw	a4,4(a0)
C:/Repository/RISKYKVM/firmware/src/Peripheral/src/ch32v20x_gpio.c:148

        for(pinpos = 0x00; pinpos < 0x08; pinpos++)
    d09c:	04800593          	li	a1,72
    d0a0:	12b69663          	bne	a3,a1,d1cc <GPIO_Init+0x172>
C:/Repository/RISKYKVM/firmware/src/Peripheral/src/ch32v20x_gpio.c:151
        {
            pos = (((uint32_t)0x01) << (pinpos + 0x08));
            currentpin = ((GPIO_InitStruct->GPIO_Pin) & pos);
    d0a4:	1007f693          	andi	a3,a5,256
C:/Repository/RISKYKVM/firmware/src/Peripheral/src/ch32v20x_gpio.c:153

            if(currentpin == pos)
    d0a8:	c691                	beqz	a3,d0b4 <GPIO_Init+0x5a>
C:/Repository/RISKYKVM/firmware/src/Peripheral/src/ch32v20x_gpio.c:157
            {
                pos = pinpos << 2;
                pinmask = ((uint32_t)0x0F) << pos;
                tmpreg &= ~pinmask;
    d0aa:	9b41                	andi	a4,a4,-16
C:/Repository/RISKYKVM/firmware/src/Peripheral/src/ch32v20x_gpio.c:167
                    GPIOx->BCR = (((uint32_t)0x01) << (pinpos + 0x08));
                }

                if(GPIO_InitStruct->GPIO_Mode == GPIO_Mode_IPU)
                {
                    GPIOx->BSHR = (((uint32_t)0x01) << (pinpos + 0x08));
    d0ac:	10000693          	li	a3,256
C:/Repository/RISKYKVM/firmware/src/Peripheral/src/ch32v20x_gpio.c:158
                tmpreg |= (currentmode << pos);
    d0b0:	8f51                	or	a4,a4,a2
C:/Repository/RISKYKVM/firmware/src/Peripheral/src/ch32v20x_gpio.c:167
                    GPIOx->BSHR = (((uint32_t)0x01) << (pinpos + 0x08));
    d0b2:	c914                	sw	a3,16(a0)
C:/Repository/RISKYKVM/firmware/src/Peripheral/src/ch32v20x_gpio.c:151
            currentpin = ((GPIO_InitStruct->GPIO_Pin) & pos);
    d0b4:	2007f693          	andi	a3,a5,512
C:/Repository/RISKYKVM/firmware/src/Peripheral/src/ch32v20x_gpio.c:153
            if(currentpin == pos)
    d0b8:	ca89                	beqz	a3,d0ca <GPIO_Init+0x70>
C:/Repository/RISKYKVM/firmware/src/Peripheral/src/ch32v20x_gpio.c:158
                tmpreg |= (currentmode << pos);
    d0ba:	00461693          	slli	a3,a2,0x4
C:/Repository/RISKYKVM/firmware/src/Peripheral/src/ch32v20x_gpio.c:157
                tmpreg &= ~pinmask;
    d0be:	f0f77713          	andi	a4,a4,-241
C:/Repository/RISKYKVM/firmware/src/Peripheral/src/ch32v20x_gpio.c:158
                tmpreg |= (currentmode << pos);
    d0c2:	8f55                	or	a4,a4,a3
C:/Repository/RISKYKVM/firmware/src/Peripheral/src/ch32v20x_gpio.c:167
                    GPIOx->BSHR = (((uint32_t)0x01) << (pinpos + 0x08));
    d0c4:	20000693          	li	a3,512
    d0c8:	c914                	sw	a3,16(a0)
C:/Repository/RISKYKVM/firmware/src/Peripheral/src/ch32v20x_gpio.c:151
            currentpin = ((GPIO_InitStruct->GPIO_Pin) & pos);
    d0ca:	4007f693          	andi	a3,a5,1024
C:/Repository/RISKYKVM/firmware/src/Peripheral/src/ch32v20x_gpio.c:153
            if(currentpin == pos)
    d0ce:	ca99                	beqz	a3,d0e4 <GPIO_Init+0x8a>
C:/Repository/RISKYKVM/firmware/src/Peripheral/src/ch32v20x_gpio.c:157
                tmpreg &= ~pinmask;
    d0d0:	76fd                	lui	a3,0xfffff
    d0d2:	0ff68693          	addi	a3,a3,255 # fffff0ff <_eusrstack+0xdfffa0ff>
    d0d6:	8f75                	and	a4,a4,a3
C:/Repository/RISKYKVM/firmware/src/Peripheral/src/ch32v20x_gpio.c:158
                tmpreg |= (currentmode << pos);
    d0d8:	00861693          	slli	a3,a2,0x8
    d0dc:	8f55                	or	a4,a4,a3
C:/Repository/RISKYKVM/firmware/src/Peripheral/src/ch32v20x_gpio.c:167
                    GPIOx->BSHR = (((uint32_t)0x01) << (pinpos + 0x08));
    d0de:	40000693          	li	a3,1024
    d0e2:	c914                	sw	a3,16(a0)
C:/Repository/RISKYKVM/firmware/src/Peripheral/src/ch32v20x_gpio.c:151
            currentpin = ((GPIO_InitStruct->GPIO_Pin) & pos);
    d0e4:	6685                	lui	a3,0x1
    d0e6:	80068693          	addi	a3,a3,-2048 # 800 <__stack_size>
    d0ea:	00d7f5b3          	and	a1,a5,a3
C:/Repository/RISKYKVM/firmware/src/Peripheral/src/ch32v20x_gpio.c:153
            if(currentpin == pos)
    d0ee:	c981                	beqz	a1,d0fe <GPIO_Init+0xa4>
C:/Repository/RISKYKVM/firmware/src/Peripheral/src/ch32v20x_gpio.c:157
                tmpreg &= ~pinmask;
    d0f0:	75c5                	lui	a1,0xffff1
    d0f2:	15fd                	addi	a1,a1,-1
    d0f4:	8f6d                	and	a4,a4,a1
C:/Repository/RISKYKVM/firmware/src/Peripheral/src/ch32v20x_gpio.c:158
                tmpreg |= (currentmode << pos);
    d0f6:	00c61593          	slli	a1,a2,0xc
    d0fa:	8f4d                	or	a4,a4,a1
C:/Repository/RISKYKVM/firmware/src/Peripheral/src/ch32v20x_gpio.c:167
                    GPIOx->BSHR = (((uint32_t)0x01) << (pinpos + 0x08));
    d0fc:	c914                	sw	a3,16(a0)
C:/Repository/RISKYKVM/firmware/src/Peripheral/src/ch32v20x_gpio.c:153
            if(currentpin == pos)
    d0fe:	01379693          	slli	a3,a5,0x13
    d102:	0006db63          	bgez	a3,d118 <GPIO_Init+0xbe>
C:/Repository/RISKYKVM/firmware/src/Peripheral/src/ch32v20x_gpio.c:157
                tmpreg &= ~pinmask;
    d106:	fff106b7          	lui	a3,0xfff10
    d10a:	16fd                	addi	a3,a3,-1
    d10c:	8f75                	and	a4,a4,a3
C:/Repository/RISKYKVM/firmware/src/Peripheral/src/ch32v20x_gpio.c:158
                tmpreg |= (currentmode << pos);
    d10e:	01061693          	slli	a3,a2,0x10
    d112:	8f55                	or	a4,a4,a3
C:/Repository/RISKYKVM/firmware/src/Peripheral/src/ch32v20x_gpio.c:167
                    GPIOx->BSHR = (((uint32_t)0x01) << (pinpos + 0x08));
    d114:	6685                	lui	a3,0x1
    d116:	c914                	sw	a3,16(a0)
C:/Repository/RISKYKVM/firmware/src/Peripheral/src/ch32v20x_gpio.c:153
            if(currentpin == pos)
    d118:	01279693          	slli	a3,a5,0x12
    d11c:	0006db63          	bgez	a3,d132 <GPIO_Init+0xd8>
C:/Repository/RISKYKVM/firmware/src/Peripheral/src/ch32v20x_gpio.c:157
                tmpreg &= ~pinmask;
    d120:	ff1006b7          	lui	a3,0xff100
    d124:	16fd                	addi	a3,a3,-1
    d126:	8f75                	and	a4,a4,a3
C:/Repository/RISKYKVM/firmware/src/Peripheral/src/ch32v20x_gpio.c:158
                tmpreg |= (currentmode << pos);
    d128:	01461693          	slli	a3,a2,0x14
    d12c:	8f55                	or	a4,a4,a3
C:/Repository/RISKYKVM/firmware/src/Peripheral/src/ch32v20x_gpio.c:167
                    GPIOx->BSHR = (((uint32_t)0x01) << (pinpos + 0x08));
    d12e:	6689                	lui	a3,0x2
    d130:	c914                	sw	a3,16(a0)
C:/Repository/RISKYKVM/firmware/src/Peripheral/src/ch32v20x_gpio.c:153
            if(currentpin == pos)
    d132:	01179693          	slli	a3,a5,0x11
    d136:	0006db63          	bgez	a3,d14c <GPIO_Init+0xf2>
C:/Repository/RISKYKVM/firmware/src/Peripheral/src/ch32v20x_gpio.c:157
                tmpreg &= ~pinmask;
    d13a:	f10006b7          	lui	a3,0xf1000
    d13e:	16fd                	addi	a3,a3,-1
    d140:	8f75                	and	a4,a4,a3
C:/Repository/RISKYKVM/firmware/src/Peripheral/src/ch32v20x_gpio.c:158
                tmpreg |= (currentmode << pos);
    d142:	01861693          	slli	a3,a2,0x18
    d146:	8f55                	or	a4,a4,a3
C:/Repository/RISKYKVM/firmware/src/Peripheral/src/ch32v20x_gpio.c:167
                    GPIOx->BSHR = (((uint32_t)0x01) << (pinpos + 0x08));
    d148:	6691                	lui	a3,0x4
    d14a:	c914                	sw	a3,16(a0)
C:/Repository/RISKYKVM/firmware/src/Peripheral/src/ch32v20x_gpio.c:151
            currentpin = ((GPIO_InitStruct->GPIO_Pin) & pos);
    d14c:	66a1                	lui	a3,0x8
    d14e:	8ff5                	and	a5,a5,a3
C:/Repository/RISKYKVM/firmware/src/Peripheral/src/ch32v20x_gpio.c:153
            if(currentpin == pos)
    d150:	2e079f63          	bnez	a5,d44e <GPIO_Init+0x3f4>
C:/Repository/RISKYKVM/firmware/src/Peripheral/src/ch32v20x_gpio.c:171
                }
            }
        }
        GPIOx->CFGHR = tmpreg;
    d154:	c158                	sw	a4,4(a0)
C:/Repository/RISKYKVM/firmware/src/Peripheral/src/ch32v20x_gpio.c:173
    }
}
    d156:	8082                	ret
C:/Repository/RISKYKVM/firmware/src/Peripheral/src/ch32v20x_gpio.c:114
        tmpreg = GPIOx->CFGLR;
    d158:	4118                	lw	a4,0(a0)
C:/Repository/RISKYKVM/firmware/src/Peripheral/src/ch32v20x_gpio.c:116
        for(pinpos = 0x00; pinpos < 0x08; pinpos++)
    d15a:	04800593          	li	a1,72
    d15e:	10b68663          	beq	a3,a1,d26a <GPIO_Init+0x210>
    d162:	02800593          	li	a1,40
    d166:	2eb68b63          	beq	a3,a1,d45c <GPIO_Init+0x402>
C:/Repository/RISKYKVM/firmware/src/Peripheral/src/ch32v20x_gpio.c:119
            currentpin = (GPIO_InitStruct->GPIO_Pin) & pos;
    d16a:	0017f593          	andi	a1,a5,1
C:/Repository/RISKYKVM/firmware/src/Peripheral/src/ch32v20x_gpio.c:121
            if(currentpin == pos)
    d16e:	2a059863          	bnez	a1,d41e <GPIO_Init+0x3c4>
C:/Repository/RISKYKVM/firmware/src/Peripheral/src/ch32v20x_gpio.c:119
            currentpin = (GPIO_InitStruct->GPIO_Pin) & pos;
    d172:	0027f593          	andi	a1,a5,2
C:/Repository/RISKYKVM/firmware/src/Peripheral/src/ch32v20x_gpio.c:121
            if(currentpin == pos)
    d176:	2a059763          	bnez	a1,d424 <GPIO_Init+0x3ca>
C:/Repository/RISKYKVM/firmware/src/Peripheral/src/ch32v20x_gpio.c:119
            currentpin = (GPIO_InitStruct->GPIO_Pin) & pos;
    d17a:	0047f593          	andi	a1,a5,4
C:/Repository/RISKYKVM/firmware/src/Peripheral/src/ch32v20x_gpio.c:121
            if(currentpin == pos)
    d17e:	2c059063          	bnez	a1,d43e <GPIO_Init+0x3e4>
C:/Repository/RISKYKVM/firmware/src/Peripheral/src/ch32v20x_gpio.c:119
            currentpin = (GPIO_InitStruct->GPIO_Pin) & pos;
    d182:	0087f593          	andi	a1,a5,8
C:/Repository/RISKYKVM/firmware/src/Peripheral/src/ch32v20x_gpio.c:121
            if(currentpin == pos)
    d186:	2a059563          	bnez	a1,d430 <GPIO_Init+0x3d6>
C:/Repository/RISKYKVM/firmware/src/Peripheral/src/ch32v20x_gpio.c:119
            currentpin = (GPIO_InitStruct->GPIO_Pin) & pos;
    d18a:	0107f593          	andi	a1,a5,16
C:/Repository/RISKYKVM/firmware/src/Peripheral/src/ch32v20x_gpio.c:121
            if(currentpin == pos)
    d18e:	26059863          	bnez	a1,d3fe <GPIO_Init+0x3a4>
C:/Repository/RISKYKVM/firmware/src/Peripheral/src/ch32v20x_gpio.c:119
            currentpin = (GPIO_InitStruct->GPIO_Pin) & pos;
    d192:	0207f593          	andi	a1,a5,32
C:/Repository/RISKYKVM/firmware/src/Peripheral/src/ch32v20x_gpio.c:121
            if(currentpin == pos)
    d196:	24059c63          	bnez	a1,d3ee <GPIO_Init+0x394>
C:/Repository/RISKYKVM/firmware/src/Peripheral/src/ch32v20x_gpio.c:119
            currentpin = (GPIO_InitStruct->GPIO_Pin) & pos;
    d19a:	0407f593          	andi	a1,a5,64
C:/Repository/RISKYKVM/firmware/src/Peripheral/src/ch32v20x_gpio.c:121
            if(currentpin == pos)
    d19e:	26059863          	bnez	a1,d40e <GPIO_Init+0x3b4>
C:/Repository/RISKYKVM/firmware/src/Peripheral/src/ch32v20x_gpio.c:119
            currentpin = (GPIO_InitStruct->GPIO_Pin) & pos;
    d1a2:	0807f593          	andi	a1,a5,128
C:/Repository/RISKYKVM/firmware/src/Peripheral/src/ch32v20x_gpio.c:121
            if(currentpin == pos)
    d1a6:	22059d63          	bnez	a1,d3e0 <GPIO_Init+0x386>
C:/Repository/RISKYKVM/firmware/src/Peripheral/src/ch32v20x_gpio.c:141
        GPIOx->CFGLR = tmpreg;
    d1aa:	c118                	sw	a4,0(a0)
    d1ac:	b5dd                	j	d092 <GPIO_Init+0x38>
C:/Repository/RISKYKVM/firmware/src/Peripheral/src/ch32v20x_gpio.c:107
    if((GPIOx == GPIOC) && MCU_Version){
    d1ae:	400117b7          	lui	a5,0x40011
    d1b2:	ecf51be3          	bne	a0,a5,d088 <GPIO_Init+0x2e>
C:/Repository/RISKYKVM/firmware/src/Peripheral/src/ch32v20x_gpio.c:107 (discriminator 1)
    d1b6:	87d1c783          	lbu	a5,-1923(gp) # 2000007d <MCU_Version>
    d1ba:	ec0787e3          	beqz	a5,d088 <GPIO_Init+0x2e>
C:/Repository/RISKYKVM/firmware/src/Peripheral/src/ch32v20x_gpio.c:108
        GPIO_InitStruct->GPIO_Pin = GPIO_InitStruct->GPIO_Pin >> 13;
    d1be:	0005d783          	lhu	a5,0(a1) # ffff1000 <_eusrstack+0xdffec000>
    d1c2:	83b5                	srli	a5,a5,0xd
    d1c4:	00f59023          	sh	a5,0(a1)
C:/Repository/RISKYKVM/firmware/src/Peripheral/src/ch32v20x_gpio.c:112
    if(((uint32_t)GPIO_InitStruct->GPIO_Pin & ((uint32_t)0x00FF)) != 0x00)
    d1c8:	fbc1                	bnez	a5,d158 <GPIO_Init+0xfe>
    d1ca:	8082                	ret
    d1cc:	02800593          	li	a1,40
    d1d0:	14b68963          	beq	a3,a1,d322 <GPIO_Init+0x2c8>
C:/Repository/RISKYKVM/firmware/src/Peripheral/src/ch32v20x_gpio.c:151
            currentpin = ((GPIO_InitStruct->GPIO_Pin) & pos);
    d1d4:	1007f693          	andi	a3,a5,256
C:/Repository/RISKYKVM/firmware/src/Peripheral/src/ch32v20x_gpio.c:153
            if(currentpin == pos)
    d1d8:	c299                	beqz	a3,d1de <GPIO_Init+0x184>
C:/Repository/RISKYKVM/firmware/src/Peripheral/src/ch32v20x_gpio.c:157
                tmpreg &= ~pinmask;
    d1da:	9b41                	andi	a4,a4,-16
C:/Repository/RISKYKVM/firmware/src/Peripheral/src/ch32v20x_gpio.c:158
                tmpreg |= (currentmode << pos);
    d1dc:	8f51                	or	a4,a4,a2
C:/Repository/RISKYKVM/firmware/src/Peripheral/src/ch32v20x_gpio.c:151
            currentpin = ((GPIO_InitStruct->GPIO_Pin) & pos);
    d1de:	2007f693          	andi	a3,a5,512
C:/Repository/RISKYKVM/firmware/src/Peripheral/src/ch32v20x_gpio.c:153
            if(currentpin == pos)
    d1e2:	c691                	beqz	a3,d1ee <GPIO_Init+0x194>
C:/Repository/RISKYKVM/firmware/src/Peripheral/src/ch32v20x_gpio.c:157
                tmpreg &= ~pinmask;
    d1e4:	f0f77713          	andi	a4,a4,-241
C:/Repository/RISKYKVM/firmware/src/Peripheral/src/ch32v20x_gpio.c:158
                tmpreg |= (currentmode << pos);
    d1e8:	00461693          	slli	a3,a2,0x4
    d1ec:	8f55                	or	a4,a4,a3
C:/Repository/RISKYKVM/firmware/src/Peripheral/src/ch32v20x_gpio.c:151
            currentpin = ((GPIO_InitStruct->GPIO_Pin) & pos);
    d1ee:	4007f693          	andi	a3,a5,1024
C:/Repository/RISKYKVM/firmware/src/Peripheral/src/ch32v20x_gpio.c:153
            if(currentpin == pos)
    d1f2:	ca81                	beqz	a3,d202 <GPIO_Init+0x1a8>
C:/Repository/RISKYKVM/firmware/src/Peripheral/src/ch32v20x_gpio.c:157
                tmpreg &= ~pinmask;
    d1f4:	76fd                	lui	a3,0xfffff
    d1f6:	0ff68693          	addi	a3,a3,255 # fffff0ff <_eusrstack+0xdfffa0ff>
    d1fa:	8f75                	and	a4,a4,a3
C:/Repository/RISKYKVM/firmware/src/Peripheral/src/ch32v20x_gpio.c:158
                tmpreg |= (currentmode << pos);
    d1fc:	00861693          	slli	a3,a2,0x8
    d200:	8f55                	or	a4,a4,a3
C:/Repository/RISKYKVM/firmware/src/Peripheral/src/ch32v20x_gpio.c:153
            if(currentpin == pos)
    d202:	01479693          	slli	a3,a5,0x14
    d206:	0006d863          	bgez	a3,d216 <GPIO_Init+0x1bc>
C:/Repository/RISKYKVM/firmware/src/Peripheral/src/ch32v20x_gpio.c:157
                tmpreg &= ~pinmask;
    d20a:	76c5                	lui	a3,0xffff1
    d20c:	16fd                	addi	a3,a3,-1
    d20e:	8f75                	and	a4,a4,a3
C:/Repository/RISKYKVM/firmware/src/Peripheral/src/ch32v20x_gpio.c:158
                tmpreg |= (currentmode << pos);
    d210:	00c61693          	slli	a3,a2,0xc
    d214:	8f55                	or	a4,a4,a3
C:/Repository/RISKYKVM/firmware/src/Peripheral/src/ch32v20x_gpio.c:153
            if(currentpin == pos)
    d216:	01379693          	slli	a3,a5,0x13
    d21a:	0006d963          	bgez	a3,d22c <GPIO_Init+0x1d2>
C:/Repository/RISKYKVM/firmware/src/Peripheral/src/ch32v20x_gpio.c:157
                tmpreg &= ~pinmask;
    d21e:	fff106b7          	lui	a3,0xfff10
    d222:	16fd                	addi	a3,a3,-1
    d224:	8f75                	and	a4,a4,a3
C:/Repository/RISKYKVM/firmware/src/Peripheral/src/ch32v20x_gpio.c:158
                tmpreg |= (currentmode << pos);
    d226:	01061693          	slli	a3,a2,0x10
    d22a:	8f55                	or	a4,a4,a3
C:/Repository/RISKYKVM/firmware/src/Peripheral/src/ch32v20x_gpio.c:153
            if(currentpin == pos)
    d22c:	01279693          	slli	a3,a5,0x12
    d230:	0006d963          	bgez	a3,d242 <GPIO_Init+0x1e8>
C:/Repository/RISKYKVM/firmware/src/Peripheral/src/ch32v20x_gpio.c:157
                tmpreg &= ~pinmask;
    d234:	ff1006b7          	lui	a3,0xff100
    d238:	16fd                	addi	a3,a3,-1
    d23a:	8f75                	and	a4,a4,a3
C:/Repository/RISKYKVM/firmware/src/Peripheral/src/ch32v20x_gpio.c:158
                tmpreg |= (currentmode << pos);
    d23c:	01461693          	slli	a3,a2,0x14
    d240:	8f55                	or	a4,a4,a3
C:/Repository/RISKYKVM/firmware/src/Peripheral/src/ch32v20x_gpio.c:153
            if(currentpin == pos)
    d242:	01179693          	slli	a3,a5,0x11
    d246:	0006d963          	bgez	a3,d258 <GPIO_Init+0x1fe>
C:/Repository/RISKYKVM/firmware/src/Peripheral/src/ch32v20x_gpio.c:157
                tmpreg &= ~pinmask;
    d24a:	f10006b7          	lui	a3,0xf1000
    d24e:	16fd                	addi	a3,a3,-1
    d250:	8f75                	and	a4,a4,a3
C:/Repository/RISKYKVM/firmware/src/Peripheral/src/ch32v20x_gpio.c:158
                tmpreg |= (currentmode << pos);
    d252:	01861693          	slli	a3,a2,0x18
    d256:	8f55                	or	a4,a4,a3
C:/Repository/RISKYKVM/firmware/src/Peripheral/src/ch32v20x_gpio.c:151
            currentpin = ((GPIO_InitStruct->GPIO_Pin) & pos);
    d258:	83bd                	srli	a5,a5,0xf
C:/Repository/RISKYKVM/firmware/src/Peripheral/src/ch32v20x_gpio.c:153
            if(currentpin == pos)
    d25a:	ee078de3          	beqz	a5,d154 <GPIO_Init+0xfa>
C:/Repository/RISKYKVM/firmware/src/Peripheral/src/ch32v20x_gpio.c:157
                tmpreg &= ~pinmask;
    d25e:	0712                	slli	a4,a4,0x4
    d260:	8311                	srli	a4,a4,0x4
C:/Repository/RISKYKVM/firmware/src/Peripheral/src/ch32v20x_gpio.c:158
                tmpreg |= (currentmode << pos);
    d262:	0672                	slli	a2,a2,0x1c
    d264:	8f51                	or	a4,a4,a2
C:/Repository/RISKYKVM/firmware/src/Peripheral/src/ch32v20x_gpio.c:171
        GPIOx->CFGHR = tmpreg;
    d266:	c158                	sw	a4,4(a0)
    d268:	b5fd                	j	d156 <GPIO_Init+0xfc>
C:/Repository/RISKYKVM/firmware/src/Peripheral/src/ch32v20x_gpio.c:119
            currentpin = (GPIO_InitStruct->GPIO_Pin) & pos;
    d26a:	0017f593          	andi	a1,a5,1
C:/Repository/RISKYKVM/firmware/src/Peripheral/src/ch32v20x_gpio.c:121
            if(currentpin == pos)
    d26e:	c589                	beqz	a1,d278 <GPIO_Init+0x21e>
C:/Repository/RISKYKVM/firmware/src/Peripheral/src/ch32v20x_gpio.c:125
                tmpreg &= ~pinmask;
    d270:	9b41                	andi	a4,a4,-16
C:/Repository/RISKYKVM/firmware/src/Peripheral/src/ch32v20x_gpio.c:136
                        GPIOx->BSHR = (((uint32_t)0x01) << pinpos);
    d272:	4585                	li	a1,1
C:/Repository/RISKYKVM/firmware/src/Peripheral/src/ch32v20x_gpio.c:126
                tmpreg |= (currentmode << pos);
    d274:	8f51                	or	a4,a4,a2
C:/Repository/RISKYKVM/firmware/src/Peripheral/src/ch32v20x_gpio.c:136
                        GPIOx->BSHR = (((uint32_t)0x01) << pinpos);
    d276:	c90c                	sw	a1,16(a0)
C:/Repository/RISKYKVM/firmware/src/Peripheral/src/ch32v20x_gpio.c:119
            currentpin = (GPIO_InitStruct->GPIO_Pin) & pos;
    d278:	0027f593          	andi	a1,a5,2
C:/Repository/RISKYKVM/firmware/src/Peripheral/src/ch32v20x_gpio.c:121
            if(currentpin == pos)
    d27c:	c981                	beqz	a1,d28c <GPIO_Init+0x232>
C:/Repository/RISKYKVM/firmware/src/Peripheral/src/ch32v20x_gpio.c:126
                tmpreg |= (currentmode << pos);
    d27e:	00461593          	slli	a1,a2,0x4
C:/Repository/RISKYKVM/firmware/src/Peripheral/src/ch32v20x_gpio.c:125
                tmpreg &= ~pinmask;
    d282:	f0f77713          	andi	a4,a4,-241
C:/Repository/RISKYKVM/firmware/src/Peripheral/src/ch32v20x_gpio.c:126
                tmpreg |= (currentmode << pos);
    d286:	8f4d                	or	a4,a4,a1
C:/Repository/RISKYKVM/firmware/src/Peripheral/src/ch32v20x_gpio.c:136
                        GPIOx->BSHR = (((uint32_t)0x01) << pinpos);
    d288:	4589                	li	a1,2
    d28a:	c90c                	sw	a1,16(a0)
C:/Repository/RISKYKVM/firmware/src/Peripheral/src/ch32v20x_gpio.c:119
            currentpin = (GPIO_InitStruct->GPIO_Pin) & pos;
    d28c:	0047f593          	andi	a1,a5,4
C:/Repository/RISKYKVM/firmware/src/Peripheral/src/ch32v20x_gpio.c:121
            if(currentpin == pos)
    d290:	c991                	beqz	a1,d2a4 <GPIO_Init+0x24a>
C:/Repository/RISKYKVM/firmware/src/Peripheral/src/ch32v20x_gpio.c:125
                tmpreg &= ~pinmask;
    d292:	75fd                	lui	a1,0xfffff
    d294:	0ff58593          	addi	a1,a1,255 # fffff0ff <_eusrstack+0xdfffa0ff>
    d298:	8f6d                	and	a4,a4,a1
C:/Repository/RISKYKVM/firmware/src/Peripheral/src/ch32v20x_gpio.c:126
                tmpreg |= (currentmode << pos);
    d29a:	00861593          	slli	a1,a2,0x8
    d29e:	8f4d                	or	a4,a4,a1
C:/Repository/RISKYKVM/firmware/src/Peripheral/src/ch32v20x_gpio.c:136
                        GPIOx->BSHR = (((uint32_t)0x01) << pinpos);
    d2a0:	4591                	li	a1,4
    d2a2:	c90c                	sw	a1,16(a0)
C:/Repository/RISKYKVM/firmware/src/Peripheral/src/ch32v20x_gpio.c:119
            currentpin = (GPIO_InitStruct->GPIO_Pin) & pos;
    d2a4:	0087f593          	andi	a1,a5,8
C:/Repository/RISKYKVM/firmware/src/Peripheral/src/ch32v20x_gpio.c:121
            if(currentpin == pos)
    d2a8:	c989                	beqz	a1,d2ba <GPIO_Init+0x260>
C:/Repository/RISKYKVM/firmware/src/Peripheral/src/ch32v20x_gpio.c:125
                tmpreg &= ~pinmask;
    d2aa:	75c5                	lui	a1,0xffff1
    d2ac:	15fd                	addi	a1,a1,-1
    d2ae:	8f6d                	and	a4,a4,a1
C:/Repository/RISKYKVM/firmware/src/Peripheral/src/ch32v20x_gpio.c:126
                tmpreg |= (currentmode << pos);
    d2b0:	00c61593          	slli	a1,a2,0xc
    d2b4:	8f4d                	or	a4,a4,a1
C:/Repository/RISKYKVM/firmware/src/Peripheral/src/ch32v20x_gpio.c:136
                        GPIOx->BSHR = (((uint32_t)0x01) << pinpos);
    d2b6:	45a1                	li	a1,8
    d2b8:	c90c                	sw	a1,16(a0)
C:/Repository/RISKYKVM/firmware/src/Peripheral/src/ch32v20x_gpio.c:119
            currentpin = (GPIO_InitStruct->GPIO_Pin) & pos;
    d2ba:	0107f593          	andi	a1,a5,16
C:/Repository/RISKYKVM/firmware/src/Peripheral/src/ch32v20x_gpio.c:121
            if(currentpin == pos)
    d2be:	c991                	beqz	a1,d2d2 <GPIO_Init+0x278>
C:/Repository/RISKYKVM/firmware/src/Peripheral/src/ch32v20x_gpio.c:125
                tmpreg &= ~pinmask;
    d2c0:	fff105b7          	lui	a1,0xfff10
    d2c4:	15fd                	addi	a1,a1,-1
    d2c6:	8f6d                	and	a4,a4,a1
C:/Repository/RISKYKVM/firmware/src/Peripheral/src/ch32v20x_gpio.c:126
                tmpreg |= (currentmode << pos);
    d2c8:	01061593          	slli	a1,a2,0x10
    d2cc:	8f4d                	or	a4,a4,a1
C:/Repository/RISKYKVM/firmware/src/Peripheral/src/ch32v20x_gpio.c:136
                        GPIOx->BSHR = (((uint32_t)0x01) << pinpos);
    d2ce:	45c1                	li	a1,16
    d2d0:	c90c                	sw	a1,16(a0)
C:/Repository/RISKYKVM/firmware/src/Peripheral/src/ch32v20x_gpio.c:119
            currentpin = (GPIO_InitStruct->GPIO_Pin) & pos;
    d2d2:	0207f593          	andi	a1,a5,32
C:/Repository/RISKYKVM/firmware/src/Peripheral/src/ch32v20x_gpio.c:121
            if(currentpin == pos)
    d2d6:	c999                	beqz	a1,d2ec <GPIO_Init+0x292>
C:/Repository/RISKYKVM/firmware/src/Peripheral/src/ch32v20x_gpio.c:125
                tmpreg &= ~pinmask;
    d2d8:	ff1005b7          	lui	a1,0xff100
    d2dc:	15fd                	addi	a1,a1,-1
    d2de:	8f6d                	and	a4,a4,a1
C:/Repository/RISKYKVM/firmware/src/Peripheral/src/ch32v20x_gpio.c:126
                tmpreg |= (currentmode << pos);
    d2e0:	01461593          	slli	a1,a2,0x14
    d2e4:	8f4d                	or	a4,a4,a1
C:/Repository/RISKYKVM/firmware/src/Peripheral/src/ch32v20x_gpio.c:136
                        GPIOx->BSHR = (((uint32_t)0x01) << pinpos);
    d2e6:	02000593          	li	a1,32
    d2ea:	c90c                	sw	a1,16(a0)
C:/Repository/RISKYKVM/firmware/src/Peripheral/src/ch32v20x_gpio.c:119
            currentpin = (GPIO_InitStruct->GPIO_Pin) & pos;
    d2ec:	0407f593          	andi	a1,a5,64
C:/Repository/RISKYKVM/firmware/src/Peripheral/src/ch32v20x_gpio.c:121
            if(currentpin == pos)
    d2f0:	c999                	beqz	a1,d306 <GPIO_Init+0x2ac>
C:/Repository/RISKYKVM/firmware/src/Peripheral/src/ch32v20x_gpio.c:125
                tmpreg &= ~pinmask;
    d2f2:	f10005b7          	lui	a1,0xf1000
    d2f6:	15fd                	addi	a1,a1,-1
    d2f8:	8f6d                	and	a4,a4,a1
C:/Repository/RISKYKVM/firmware/src/Peripheral/src/ch32v20x_gpio.c:126
                tmpreg |= (currentmode << pos);
    d2fa:	01861593          	slli	a1,a2,0x18
    d2fe:	8f4d                	or	a4,a4,a1
C:/Repository/RISKYKVM/firmware/src/Peripheral/src/ch32v20x_gpio.c:136
                        GPIOx->BSHR = (((uint32_t)0x01) << pinpos);
    d300:	04000593          	li	a1,64
    d304:	c90c                	sw	a1,16(a0)
C:/Repository/RISKYKVM/firmware/src/Peripheral/src/ch32v20x_gpio.c:119
            currentpin = (GPIO_InitStruct->GPIO_Pin) & pos;
    d306:	0807f593          	andi	a1,a5,128
C:/Repository/RISKYKVM/firmware/src/Peripheral/src/ch32v20x_gpio.c:121
            if(currentpin == pos)
    d30a:	ea0580e3          	beqz	a1,d1aa <GPIO_Init+0x150>
C:/Repository/RISKYKVM/firmware/src/Peripheral/src/ch32v20x_gpio.c:125
                tmpreg &= ~pinmask;
    d30e:	0712                	slli	a4,a4,0x4
C:/Repository/RISKYKVM/firmware/src/Peripheral/src/ch32v20x_gpio.c:126
                tmpreg |= (currentmode << pos);
    d310:	01c61593          	slli	a1,a2,0x1c
C:/Repository/RISKYKVM/firmware/src/Peripheral/src/ch32v20x_gpio.c:125
                tmpreg &= ~pinmask;
    d314:	8311                	srli	a4,a4,0x4
C:/Repository/RISKYKVM/firmware/src/Peripheral/src/ch32v20x_gpio.c:126
                tmpreg |= (currentmode << pos);
    d316:	8f4d                	or	a4,a4,a1
C:/Repository/RISKYKVM/firmware/src/Peripheral/src/ch32v20x_gpio.c:136
                        GPIOx->BSHR = (((uint32_t)0x01) << pinpos);
    d318:	08000593          	li	a1,128
    d31c:	c90c                	sw	a1,16(a0)
C:/Repository/RISKYKVM/firmware/src/Peripheral/src/ch32v20x_gpio.c:141
        GPIOx->CFGLR = tmpreg;
    d31e:	c118                	sw	a4,0(a0)
    d320:	bb8d                	j	d092 <GPIO_Init+0x38>
C:/Repository/RISKYKVM/firmware/src/Peripheral/src/ch32v20x_gpio.c:151
            currentpin = ((GPIO_InitStruct->GPIO_Pin) & pos);
    d322:	1007f693          	andi	a3,a5,256
C:/Repository/RISKYKVM/firmware/src/Peripheral/src/ch32v20x_gpio.c:153
            if(currentpin == pos)
    d326:	c691                	beqz	a3,d332 <GPIO_Init+0x2d8>
C:/Repository/RISKYKVM/firmware/src/Peripheral/src/ch32v20x_gpio.c:157
                tmpreg &= ~pinmask;
    d328:	9b41                	andi	a4,a4,-16
C:/Repository/RISKYKVM/firmware/src/Peripheral/src/ch32v20x_gpio.c:162
                    GPIOx->BCR = (((uint32_t)0x01) << (pinpos + 0x08));
    d32a:	10000693          	li	a3,256
C:/Repository/RISKYKVM/firmware/src/Peripheral/src/ch32v20x_gpio.c:158
                tmpreg |= (currentmode << pos);
    d32e:	8f51                	or	a4,a4,a2
C:/Repository/RISKYKVM/firmware/src/Peripheral/src/ch32v20x_gpio.c:162
                    GPIOx->BCR = (((uint32_t)0x01) << (pinpos + 0x08));
    d330:	c954                	sw	a3,20(a0)
C:/Repository/RISKYKVM/firmware/src/Peripheral/src/ch32v20x_gpio.c:151
            currentpin = ((GPIO_InitStruct->GPIO_Pin) & pos);
    d332:	2007f693          	andi	a3,a5,512
C:/Repository/RISKYKVM/firmware/src/Peripheral/src/ch32v20x_gpio.c:153
            if(currentpin == pos)
    d336:	ca89                	beqz	a3,d348 <GPIO_Init+0x2ee>
C:/Repository/RISKYKVM/firmware/src/Peripheral/src/ch32v20x_gpio.c:158
                tmpreg |= (currentmode << pos);
    d338:	00461693          	slli	a3,a2,0x4
C:/Repository/RISKYKVM/firmware/src/Peripheral/src/ch32v20x_gpio.c:157
                tmpreg &= ~pinmask;
    d33c:	f0f77713          	andi	a4,a4,-241
C:/Repository/RISKYKVM/firmware/src/Peripheral/src/ch32v20x_gpio.c:158
                tmpreg |= (currentmode << pos);
    d340:	8f55                	or	a4,a4,a3
C:/Repository/RISKYKVM/firmware/src/Peripheral/src/ch32v20x_gpio.c:162
                    GPIOx->BCR = (((uint32_t)0x01) << (pinpos + 0x08));
    d342:	20000693          	li	a3,512
    d346:	c954                	sw	a3,20(a0)
C:/Repository/RISKYKVM/firmware/src/Peripheral/src/ch32v20x_gpio.c:151
            currentpin = ((GPIO_InitStruct->GPIO_Pin) & pos);
    d348:	4007f693          	andi	a3,a5,1024
C:/Repository/RISKYKVM/firmware/src/Peripheral/src/ch32v20x_gpio.c:153
            if(currentpin == pos)
    d34c:	ca99                	beqz	a3,d362 <GPIO_Init+0x308>
C:/Repository/RISKYKVM/firmware/src/Peripheral/src/ch32v20x_gpio.c:157
                tmpreg &= ~pinmask;
    d34e:	76fd                	lui	a3,0xfffff
    d350:	0ff68693          	addi	a3,a3,255 # fffff0ff <_eusrstack+0xdfffa0ff>
    d354:	8f75                	and	a4,a4,a3
C:/Repository/RISKYKVM/firmware/src/Peripheral/src/ch32v20x_gpio.c:158
                tmpreg |= (currentmode << pos);
    d356:	00861693          	slli	a3,a2,0x8
    d35a:	8f55                	or	a4,a4,a3
C:/Repository/RISKYKVM/firmware/src/Peripheral/src/ch32v20x_gpio.c:162
                    GPIOx->BCR = (((uint32_t)0x01) << (pinpos + 0x08));
    d35c:	40000693          	li	a3,1024
    d360:	c954                	sw	a3,20(a0)
C:/Repository/RISKYKVM/firmware/src/Peripheral/src/ch32v20x_gpio.c:151
            currentpin = ((GPIO_InitStruct->GPIO_Pin) & pos);
    d362:	6685                	lui	a3,0x1
    d364:	80068693          	addi	a3,a3,-2048 # 800 <__stack_size>
    d368:	00d7f5b3          	and	a1,a5,a3
C:/Repository/RISKYKVM/firmware/src/Peripheral/src/ch32v20x_gpio.c:153
            if(currentpin == pos)
    d36c:	c981                	beqz	a1,d37c <GPIO_Init+0x322>
C:/Repository/RISKYKVM/firmware/src/Peripheral/src/ch32v20x_gpio.c:157
                tmpreg &= ~pinmask;
    d36e:	75c5                	lui	a1,0xffff1
    d370:	15fd                	addi	a1,a1,-1
    d372:	8f6d                	and	a4,a4,a1
C:/Repository/RISKYKVM/firmware/src/Peripheral/src/ch32v20x_gpio.c:158
                tmpreg |= (currentmode << pos);
    d374:	00c61593          	slli	a1,a2,0xc
    d378:	8f4d                	or	a4,a4,a1
C:/Repository/RISKYKVM/firmware/src/Peripheral/src/ch32v20x_gpio.c:162
                    GPIOx->BCR = (((uint32_t)0x01) << (pinpos + 0x08));
    d37a:	c954                	sw	a3,20(a0)
C:/Repository/RISKYKVM/firmware/src/Peripheral/src/ch32v20x_gpio.c:153
            if(currentpin == pos)
    d37c:	01379693          	slli	a3,a5,0x13
    d380:	0006db63          	bgez	a3,d396 <GPIO_Init+0x33c>
C:/Repository/RISKYKVM/firmware/src/Peripheral/src/ch32v20x_gpio.c:157
                tmpreg &= ~pinmask;
    d384:	fff106b7          	lui	a3,0xfff10
    d388:	16fd                	addi	a3,a3,-1
    d38a:	8f75                	and	a4,a4,a3
C:/Repository/RISKYKVM/firmware/src/Peripheral/src/ch32v20x_gpio.c:158
                tmpreg |= (currentmode << pos);
    d38c:	01061693          	slli	a3,a2,0x10
    d390:	8f55                	or	a4,a4,a3
C:/Repository/RISKYKVM/firmware/src/Peripheral/src/ch32v20x_gpio.c:162
                    GPIOx->BCR = (((uint32_t)0x01) << (pinpos + 0x08));
    d392:	6685                	lui	a3,0x1
    d394:	c954                	sw	a3,20(a0)
C:/Repository/RISKYKVM/firmware/src/Peripheral/src/ch32v20x_gpio.c:153
            if(currentpin == pos)
    d396:	01279693          	slli	a3,a5,0x12
    d39a:	0006db63          	bgez	a3,d3b0 <GPIO_Init+0x356>
C:/Repository/RISKYKVM/firmware/src/Peripheral/src/ch32v20x_gpio.c:157
                tmpreg &= ~pinmask;
    d39e:	ff1006b7          	lui	a3,0xff100
    d3a2:	16fd                	addi	a3,a3,-1
    d3a4:	8f75                	and	a4,a4,a3
C:/Repository/RISKYKVM/firmware/src/Peripheral/src/ch32v20x_gpio.c:158
                tmpreg |= (currentmode << pos);
    d3a6:	01461693          	slli	a3,a2,0x14
    d3aa:	8f55                	or	a4,a4,a3
C:/Repository/RISKYKVM/firmware/src/Peripheral/src/ch32v20x_gpio.c:162
                    GPIOx->BCR = (((uint32_t)0x01) << (pinpos + 0x08));
    d3ac:	6689                	lui	a3,0x2
    d3ae:	c954                	sw	a3,20(a0)
C:/Repository/RISKYKVM/firmware/src/Peripheral/src/ch32v20x_gpio.c:153
            if(currentpin == pos)
    d3b0:	01179693          	slli	a3,a5,0x11
    d3b4:	0006db63          	bgez	a3,d3ca <GPIO_Init+0x370>
C:/Repository/RISKYKVM/firmware/src/Peripheral/src/ch32v20x_gpio.c:157
                tmpreg &= ~pinmask;
    d3b8:	f10006b7          	lui	a3,0xf1000
    d3bc:	16fd                	addi	a3,a3,-1
    d3be:	8f75                	and	a4,a4,a3
C:/Repository/RISKYKVM/firmware/src/Peripheral/src/ch32v20x_gpio.c:158
                tmpreg |= (currentmode << pos);
    d3c0:	01861693          	slli	a3,a2,0x18
    d3c4:	8f55                	or	a4,a4,a3
C:/Repository/RISKYKVM/firmware/src/Peripheral/src/ch32v20x_gpio.c:162
                    GPIOx->BCR = (((uint32_t)0x01) << (pinpos + 0x08));
    d3c6:	6691                	lui	a3,0x4
    d3c8:	c954                	sw	a3,20(a0)
C:/Repository/RISKYKVM/firmware/src/Peripheral/src/ch32v20x_gpio.c:151
            currentpin = ((GPIO_InitStruct->GPIO_Pin) & pos);
    d3ca:	66a1                	lui	a3,0x8
    d3cc:	8ff5                	and	a5,a5,a3
C:/Repository/RISKYKVM/firmware/src/Peripheral/src/ch32v20x_gpio.c:153
            if(currentpin == pos)
    d3ce:	d80783e3          	beqz	a5,d154 <GPIO_Init+0xfa>
C:/Repository/RISKYKVM/firmware/src/Peripheral/src/ch32v20x_gpio.c:157
                tmpreg &= ~pinmask;
    d3d2:	0712                	slli	a4,a4,0x4
    d3d4:	8311                	srli	a4,a4,0x4
C:/Repository/RISKYKVM/firmware/src/Peripheral/src/ch32v20x_gpio.c:158
                tmpreg |= (currentmode << pos);
    d3d6:	0672                	slli	a2,a2,0x1c
    d3d8:	8f51                	or	a4,a4,a2
C:/Repository/RISKYKVM/firmware/src/Peripheral/src/ch32v20x_gpio.c:162
                    GPIOx->BCR = (((uint32_t)0x01) << (pinpos + 0x08));
    d3da:	c954                	sw	a3,20(a0)
C:/Repository/RISKYKVM/firmware/src/Peripheral/src/ch32v20x_gpio.c:171
        GPIOx->CFGHR = tmpreg;
    d3dc:	c158                	sw	a4,4(a0)
    d3de:	bba5                	j	d156 <GPIO_Init+0xfc>
C:/Repository/RISKYKVM/firmware/src/Peripheral/src/ch32v20x_gpio.c:125
                tmpreg &= ~pinmask;
    d3e0:	0712                	slli	a4,a4,0x4
    d3e2:	8311                	srli	a4,a4,0x4
C:/Repository/RISKYKVM/firmware/src/Peripheral/src/ch32v20x_gpio.c:126
                tmpreg |= (currentmode << pos);
    d3e4:	01c61593          	slli	a1,a2,0x1c
    d3e8:	8f4d                	or	a4,a4,a1
C:/Repository/RISKYKVM/firmware/src/Peripheral/src/ch32v20x_gpio.c:141
        GPIOx->CFGLR = tmpreg;
    d3ea:	c118                	sw	a4,0(a0)
    d3ec:	b15d                	j	d092 <GPIO_Init+0x38>
C:/Repository/RISKYKVM/firmware/src/Peripheral/src/ch32v20x_gpio.c:125
                tmpreg &= ~pinmask;
    d3ee:	ff1005b7          	lui	a1,0xff100
    d3f2:	15fd                	addi	a1,a1,-1
    d3f4:	8f6d                	and	a4,a4,a1
C:/Repository/RISKYKVM/firmware/src/Peripheral/src/ch32v20x_gpio.c:126
                tmpreg |= (currentmode << pos);
    d3f6:	01461593          	slli	a1,a2,0x14
    d3fa:	8f4d                	or	a4,a4,a1
C:/Repository/RISKYKVM/firmware/src/Peripheral/src/ch32v20x_gpio.c:134
                    if(GPIO_InitStruct->GPIO_Mode == GPIO_Mode_IPU)
    d3fc:	bb79                	j	d19a <GPIO_Init+0x140>
C:/Repository/RISKYKVM/firmware/src/Peripheral/src/ch32v20x_gpio.c:125
                tmpreg &= ~pinmask;
    d3fe:	fff105b7          	lui	a1,0xfff10
    d402:	15fd                	addi	a1,a1,-1
    d404:	8f6d                	and	a4,a4,a1
C:/Repository/RISKYKVM/firmware/src/Peripheral/src/ch32v20x_gpio.c:126
                tmpreg |= (currentmode << pos);
    d406:	01061593          	slli	a1,a2,0x10
    d40a:	8f4d                	or	a4,a4,a1
C:/Repository/RISKYKVM/firmware/src/Peripheral/src/ch32v20x_gpio.c:134
                    if(GPIO_InitStruct->GPIO_Mode == GPIO_Mode_IPU)
    d40c:	b359                	j	d192 <GPIO_Init+0x138>
C:/Repository/RISKYKVM/firmware/src/Peripheral/src/ch32v20x_gpio.c:125
                tmpreg &= ~pinmask;
    d40e:	f10005b7          	lui	a1,0xf1000
    d412:	15fd                	addi	a1,a1,-1
    d414:	8f6d                	and	a4,a4,a1
C:/Repository/RISKYKVM/firmware/src/Peripheral/src/ch32v20x_gpio.c:126
                tmpreg |= (currentmode << pos);
    d416:	01861593          	slli	a1,a2,0x18
    d41a:	8f4d                	or	a4,a4,a1
C:/Repository/RISKYKVM/firmware/src/Peripheral/src/ch32v20x_gpio.c:134
                    if(GPIO_InitStruct->GPIO_Mode == GPIO_Mode_IPU)
    d41c:	b359                	j	d1a2 <GPIO_Init+0x148>
C:/Repository/RISKYKVM/firmware/src/Peripheral/src/ch32v20x_gpio.c:125
                tmpreg &= ~pinmask;
    d41e:	9b41                	andi	a4,a4,-16
C:/Repository/RISKYKVM/firmware/src/Peripheral/src/ch32v20x_gpio.c:126
                tmpreg |= (currentmode << pos);
    d420:	8f51                	or	a4,a4,a2
C:/Repository/RISKYKVM/firmware/src/Peripheral/src/ch32v20x_gpio.c:134
                    if(GPIO_InitStruct->GPIO_Mode == GPIO_Mode_IPU)
    d422:	bb81                	j	d172 <GPIO_Init+0x118>
C:/Repository/RISKYKVM/firmware/src/Peripheral/src/ch32v20x_gpio.c:125
                tmpreg &= ~pinmask;
    d424:	f0f77713          	andi	a4,a4,-241
C:/Repository/RISKYKVM/firmware/src/Peripheral/src/ch32v20x_gpio.c:126
                tmpreg |= (currentmode << pos);
    d428:	00461593          	slli	a1,a2,0x4
    d42c:	8f4d                	or	a4,a4,a1
C:/Repository/RISKYKVM/firmware/src/Peripheral/src/ch32v20x_gpio.c:134
                    if(GPIO_InitStruct->GPIO_Mode == GPIO_Mode_IPU)
    d42e:	b3b1                	j	d17a <GPIO_Init+0x120>
C:/Repository/RISKYKVM/firmware/src/Peripheral/src/ch32v20x_gpio.c:125
                tmpreg &= ~pinmask;
    d430:	75c5                	lui	a1,0xffff1
    d432:	15fd                	addi	a1,a1,-1
    d434:	8f6d                	and	a4,a4,a1
C:/Repository/RISKYKVM/firmware/src/Peripheral/src/ch32v20x_gpio.c:126
                tmpreg |= (currentmode << pos);
    d436:	00c61593          	slli	a1,a2,0xc
    d43a:	8f4d                	or	a4,a4,a1
C:/Repository/RISKYKVM/firmware/src/Peripheral/src/ch32v20x_gpio.c:134
                    if(GPIO_InitStruct->GPIO_Mode == GPIO_Mode_IPU)
    d43c:	b3b9                	j	d18a <GPIO_Init+0x130>
C:/Repository/RISKYKVM/firmware/src/Peripheral/src/ch32v20x_gpio.c:125
                tmpreg &= ~pinmask;
    d43e:	75fd                	lui	a1,0xfffff
    d440:	0ff58593          	addi	a1,a1,255 # fffff0ff <_eusrstack+0xdfffa0ff>
    d444:	8f6d                	and	a4,a4,a1
C:/Repository/RISKYKVM/firmware/src/Peripheral/src/ch32v20x_gpio.c:126
                tmpreg |= (currentmode << pos);
    d446:	00861593          	slli	a1,a2,0x8
    d44a:	8f4d                	or	a4,a4,a1
C:/Repository/RISKYKVM/firmware/src/Peripheral/src/ch32v20x_gpio.c:134
                    if(GPIO_InitStruct->GPIO_Mode == GPIO_Mode_IPU)
    d44c:	bb1d                	j	d182 <GPIO_Init+0x128>
C:/Repository/RISKYKVM/firmware/src/Peripheral/src/ch32v20x_gpio.c:157
                tmpreg &= ~pinmask;
    d44e:	0712                	slli	a4,a4,0x4
    d450:	8311                	srli	a4,a4,0x4
C:/Repository/RISKYKVM/firmware/src/Peripheral/src/ch32v20x_gpio.c:158
                tmpreg |= (currentmode << pos);
    d452:	0672                	slli	a2,a2,0x1c
    d454:	8f51                	or	a4,a4,a2
C:/Repository/RISKYKVM/firmware/src/Peripheral/src/ch32v20x_gpio.c:167
                    GPIOx->BSHR = (((uint32_t)0x01) << (pinpos + 0x08));
    d456:	c914                	sw	a3,16(a0)
C:/Repository/RISKYKVM/firmware/src/Peripheral/src/ch32v20x_gpio.c:171
        GPIOx->CFGHR = tmpreg;
    d458:	c158                	sw	a4,4(a0)
    d45a:	b9f5                	j	d156 <GPIO_Init+0xfc>
C:/Repository/RISKYKVM/firmware/src/Peripheral/src/ch32v20x_gpio.c:119
            currentpin = (GPIO_InitStruct->GPIO_Pin) & pos;
    d45c:	0017f593          	andi	a1,a5,1
C:/Repository/RISKYKVM/firmware/src/Peripheral/src/ch32v20x_gpio.c:121
            if(currentpin == pos)
    d460:	c589                	beqz	a1,d46a <GPIO_Init+0x410>
C:/Repository/RISKYKVM/firmware/src/Peripheral/src/ch32v20x_gpio.c:125
                tmpreg &= ~pinmask;
    d462:	9b41                	andi	a4,a4,-16
C:/Repository/RISKYKVM/firmware/src/Peripheral/src/ch32v20x_gpio.c:130
                    GPIOx->BCR = (((uint32_t)0x01) << pinpos);
    d464:	4585                	li	a1,1
C:/Repository/RISKYKVM/firmware/src/Peripheral/src/ch32v20x_gpio.c:126
                tmpreg |= (currentmode << pos);
    d466:	8f51                	or	a4,a4,a2
C:/Repository/RISKYKVM/firmware/src/Peripheral/src/ch32v20x_gpio.c:130
                    GPIOx->BCR = (((uint32_t)0x01) << pinpos);
    d468:	c94c                	sw	a1,20(a0)
C:/Repository/RISKYKVM/firmware/src/Peripheral/src/ch32v20x_gpio.c:119
            currentpin = (GPIO_InitStruct->GPIO_Pin) & pos;
    d46a:	0027f593          	andi	a1,a5,2
C:/Repository/RISKYKVM/firmware/src/Peripheral/src/ch32v20x_gpio.c:121
            if(currentpin == pos)
    d46e:	c981                	beqz	a1,d47e <GPIO_Init+0x424>
C:/Repository/RISKYKVM/firmware/src/Peripheral/src/ch32v20x_gpio.c:126
                tmpreg |= (currentmode << pos);
    d470:	00461593          	slli	a1,a2,0x4
C:/Repository/RISKYKVM/firmware/src/Peripheral/src/ch32v20x_gpio.c:125
                tmpreg &= ~pinmask;
    d474:	f0f77713          	andi	a4,a4,-241
C:/Repository/RISKYKVM/firmware/src/Peripheral/src/ch32v20x_gpio.c:126
                tmpreg |= (currentmode << pos);
    d478:	8f4d                	or	a4,a4,a1
C:/Repository/RISKYKVM/firmware/src/Peripheral/src/ch32v20x_gpio.c:130
                    GPIOx->BCR = (((uint32_t)0x01) << pinpos);
    d47a:	4589                	li	a1,2
    d47c:	c94c                	sw	a1,20(a0)
C:/Repository/RISKYKVM/firmware/src/Peripheral/src/ch32v20x_gpio.c:119
            currentpin = (GPIO_InitStruct->GPIO_Pin) & pos;
    d47e:	0047f593          	andi	a1,a5,4
C:/Repository/RISKYKVM/firmware/src/Peripheral/src/ch32v20x_gpio.c:121
            if(currentpin == pos)
    d482:	c991                	beqz	a1,d496 <GPIO_Init+0x43c>
C:/Repository/RISKYKVM/firmware/src/Peripheral/src/ch32v20x_gpio.c:125
                tmpreg &= ~pinmask;
    d484:	75fd                	lui	a1,0xfffff
    d486:	0ff58593          	addi	a1,a1,255 # fffff0ff <_eusrstack+0xdfffa0ff>
    d48a:	8f6d                	and	a4,a4,a1
C:/Repository/RISKYKVM/firmware/src/Peripheral/src/ch32v20x_gpio.c:126
                tmpreg |= (currentmode << pos);
    d48c:	00861593          	slli	a1,a2,0x8
    d490:	8f4d                	or	a4,a4,a1
C:/Repository/RISKYKVM/firmware/src/Peripheral/src/ch32v20x_gpio.c:130
                    GPIOx->BCR = (((uint32_t)0x01) << pinpos);
    d492:	4591                	li	a1,4
    d494:	c94c                	sw	a1,20(a0)
C:/Repository/RISKYKVM/firmware/src/Peripheral/src/ch32v20x_gpio.c:119
            currentpin = (GPIO_InitStruct->GPIO_Pin) & pos;
    d496:	0087f593          	andi	a1,a5,8
C:/Repository/RISKYKVM/firmware/src/Peripheral/src/ch32v20x_gpio.c:121
            if(currentpin == pos)
    d49a:	c989                	beqz	a1,d4ac <GPIO_Init+0x452>
C:/Repository/RISKYKVM/firmware/src/Peripheral/src/ch32v20x_gpio.c:125
                tmpreg &= ~pinmask;
    d49c:	75c5                	lui	a1,0xffff1
    d49e:	15fd                	addi	a1,a1,-1
    d4a0:	8f6d                	and	a4,a4,a1
C:/Repository/RISKYKVM/firmware/src/Peripheral/src/ch32v20x_gpio.c:126
                tmpreg |= (currentmode << pos);
    d4a2:	00c61593          	slli	a1,a2,0xc
    d4a6:	8f4d                	or	a4,a4,a1
C:/Repository/RISKYKVM/firmware/src/Peripheral/src/ch32v20x_gpio.c:130
                    GPIOx->BCR = (((uint32_t)0x01) << pinpos);
    d4a8:	45a1                	li	a1,8
    d4aa:	c94c                	sw	a1,20(a0)
C:/Repository/RISKYKVM/firmware/src/Peripheral/src/ch32v20x_gpio.c:119
            currentpin = (GPIO_InitStruct->GPIO_Pin) & pos;
    d4ac:	0107f593          	andi	a1,a5,16
C:/Repository/RISKYKVM/firmware/src/Peripheral/src/ch32v20x_gpio.c:121
            if(currentpin == pos)
    d4b0:	c991                	beqz	a1,d4c4 <GPIO_Init+0x46a>
C:/Repository/RISKYKVM/firmware/src/Peripheral/src/ch32v20x_gpio.c:125
                tmpreg &= ~pinmask;
    d4b2:	fff105b7          	lui	a1,0xfff10
    d4b6:	15fd                	addi	a1,a1,-1
    d4b8:	8f6d                	and	a4,a4,a1
C:/Repository/RISKYKVM/firmware/src/Peripheral/src/ch32v20x_gpio.c:126
                tmpreg |= (currentmode << pos);
    d4ba:	01061593          	slli	a1,a2,0x10
    d4be:	8f4d                	or	a4,a4,a1
C:/Repository/RISKYKVM/firmware/src/Peripheral/src/ch32v20x_gpio.c:130
                    GPIOx->BCR = (((uint32_t)0x01) << pinpos);
    d4c0:	45c1                	li	a1,16
    d4c2:	c94c                	sw	a1,20(a0)
C:/Repository/RISKYKVM/firmware/src/Peripheral/src/ch32v20x_gpio.c:119
            currentpin = (GPIO_InitStruct->GPIO_Pin) & pos;
    d4c4:	0207f593          	andi	a1,a5,32
C:/Repository/RISKYKVM/firmware/src/Peripheral/src/ch32v20x_gpio.c:121
            if(currentpin == pos)
    d4c8:	c999                	beqz	a1,d4de <GPIO_Init+0x484>
C:/Repository/RISKYKVM/firmware/src/Peripheral/src/ch32v20x_gpio.c:125
                tmpreg &= ~pinmask;
    d4ca:	ff1005b7          	lui	a1,0xff100
    d4ce:	15fd                	addi	a1,a1,-1
    d4d0:	8f6d                	and	a4,a4,a1
C:/Repository/RISKYKVM/firmware/src/Peripheral/src/ch32v20x_gpio.c:126
                tmpreg |= (currentmode << pos);
    d4d2:	01461593          	slli	a1,a2,0x14
    d4d6:	8f4d                	or	a4,a4,a1
C:/Repository/RISKYKVM/firmware/src/Peripheral/src/ch32v20x_gpio.c:130
                    GPIOx->BCR = (((uint32_t)0x01) << pinpos);
    d4d8:	02000593          	li	a1,32
    d4dc:	c94c                	sw	a1,20(a0)
C:/Repository/RISKYKVM/firmware/src/Peripheral/src/ch32v20x_gpio.c:119
            currentpin = (GPIO_InitStruct->GPIO_Pin) & pos;
    d4de:	0407f593          	andi	a1,a5,64
C:/Repository/RISKYKVM/firmware/src/Peripheral/src/ch32v20x_gpio.c:121
            if(currentpin == pos)
    d4e2:	c999                	beqz	a1,d4f8 <GPIO_Init+0x49e>
C:/Repository/RISKYKVM/firmware/src/Peripheral/src/ch32v20x_gpio.c:125
                tmpreg &= ~pinmask;
    d4e4:	f10005b7          	lui	a1,0xf1000
    d4e8:	15fd                	addi	a1,a1,-1
    d4ea:	8f6d                	and	a4,a4,a1
C:/Repository/RISKYKVM/firmware/src/Peripheral/src/ch32v20x_gpio.c:126
                tmpreg |= (currentmode << pos);
    d4ec:	01861593          	slli	a1,a2,0x18
    d4f0:	8f4d                	or	a4,a4,a1
C:/Repository/RISKYKVM/firmware/src/Peripheral/src/ch32v20x_gpio.c:130
                    GPIOx->BCR = (((uint32_t)0x01) << pinpos);
    d4f2:	04000593          	li	a1,64
    d4f6:	c94c                	sw	a1,20(a0)
C:/Repository/RISKYKVM/firmware/src/Peripheral/src/ch32v20x_gpio.c:119
            currentpin = (GPIO_InitStruct->GPIO_Pin) & pos;
    d4f8:	0807f593          	andi	a1,a5,128
C:/Repository/RISKYKVM/firmware/src/Peripheral/src/ch32v20x_gpio.c:121
            if(currentpin == pos)
    d4fc:	ca0587e3          	beqz	a1,d1aa <GPIO_Init+0x150>
C:/Repository/RISKYKVM/firmware/src/Peripheral/src/ch32v20x_gpio.c:125
                tmpreg &= ~pinmask;
    d500:	0712                	slli	a4,a4,0x4
C:/Repository/RISKYKVM/firmware/src/Peripheral/src/ch32v20x_gpio.c:126
                tmpreg |= (currentmode << pos);
    d502:	01c61593          	slli	a1,a2,0x1c
C:/Repository/RISKYKVM/firmware/src/Peripheral/src/ch32v20x_gpio.c:125
                tmpreg &= ~pinmask;
    d506:	8311                	srli	a4,a4,0x4
C:/Repository/RISKYKVM/firmware/src/Peripheral/src/ch32v20x_gpio.c:126
                tmpreg |= (currentmode << pos);
    d508:	8f4d                	or	a4,a4,a1
C:/Repository/RISKYKVM/firmware/src/Peripheral/src/ch32v20x_gpio.c:130
                    GPIOx->BCR = (((uint32_t)0x01) << pinpos);
    d50a:	08000593          	li	a1,128
    d50e:	c94c                	sw	a1,20(a0)
C:/Repository/RISKYKVM/firmware/src/Peripheral/src/ch32v20x_gpio.c:141
        GPIOx->CFGLR = tmpreg;
    d510:	c118                	sw	a4,0(a0)
    d512:	b641                	j	d092 <GPIO_Init+0x38>

0000d514 <GPIO_ReadInputDataBit>:
GPIO_ReadInputDataBit():
C:/Repository/RISKYKVM/firmware/src/Peripheral/src/ch32v20x_gpio.c:207
uint8_t GPIO_ReadInputDataBit(GPIO_TypeDef *GPIOx, uint16_t GPIO_Pin)
{
    uint8_t bitstatus = 0x00;

#if defined (CH32V20x_D6)
    if((GPIOx == GPIOC) && MCU_Version){
    d514:	400117b7          	lui	a5,0x40011
    d518:	00f50763          	beq	a0,a5,d526 <GPIO_ReadInputDataBit+0x12>
C:/Repository/RISKYKVM/firmware/src/Peripheral/src/ch32v20x_gpio.c:213
        GPIO_Pin = GPIO_Pin >> 13;
    }

#endif

    if((GPIOx->INDR & GPIO_Pin) != (uint32_t)Bit_RESET)
    d51c:	4508                	lw	a0,8(a0)
    d51e:	8d6d                	and	a0,a0,a1
C:/Repository/RISKYKVM/firmware/src/Peripheral/src/ch32v20x_gpio.c:223
    {
        bitstatus = (uint8_t)Bit_RESET;
    }

    return bitstatus;
}
    d520:	00a03533          	snez	a0,a0
    d524:	8082                	ret
C:/Repository/RISKYKVM/firmware/src/Peripheral/src/ch32v20x_gpio.c:207 (discriminator 1)
    if((GPIOx == GPIOC) && MCU_Version){
    d526:	87d1c783          	lbu	a5,-1923(gp) # 2000007d <MCU_Version>
    d52a:	dbed                	beqz	a5,d51c <GPIO_ReadInputDataBit+0x8>
C:/Repository/RISKYKVM/firmware/src/Peripheral/src/ch32v20x_gpio.c:213
    if((GPIOx->INDR & GPIO_Pin) != (uint32_t)Bit_RESET)
    d52c:	4508                	lw	a0,8(a0)
C:/Repository/RISKYKVM/firmware/src/Peripheral/src/ch32v20x_gpio.c:208
        GPIO_Pin = GPIO_Pin >> 13;
    d52e:	81b5                	srli	a1,a1,0xd
C:/Repository/RISKYKVM/firmware/src/Peripheral/src/ch32v20x_gpio.c:213
    if((GPIOx->INDR & GPIO_Pin) != (uint32_t)Bit_RESET)
    d530:	8d6d                	and	a0,a0,a1
C:/Repository/RISKYKVM/firmware/src/Peripheral/src/ch32v20x_gpio.c:223
}
    d532:	00a03533          	snez	a0,a0
    d536:	8082                	ret

0000d538 <GPIO_ReadOutputData>:
GPIO_ReadOutputData():
C:/Repository/RISKYKVM/firmware/src/Peripheral/src/ch32v20x_gpio.c:301
uint16_t GPIO_ReadOutputData(GPIO_TypeDef *GPIOx)
{
    uint16_t val;

#if defined (CH32V20x_D6)
    if((GPIOx == GPIOC) && MCU_Version){
    d538:	400117b7          	lui	a5,0x40011
    d53c:	00f50663          	beq	a0,a5,d548 <GPIO_ReadOutputData+0x10>
C:/Repository/RISKYKVM/firmware/src/Peripheral/src/ch32v20x_gpio.c:305
        val = ( uint16_t )(GPIOx->OUTDR << 13);
    }
    else{
        val = ( uint16_t )GPIOx->OUTDR;
    d540:	4548                	lw	a0,12(a0)
    d542:	0542                	slli	a0,a0,0x10
    d544:	8141                	srli	a0,a0,0x10
C:/Repository/RISKYKVM/firmware/src/Peripheral/src/ch32v20x_gpio.c:313
#else
    val = ( uint16_t )GPIOx->OUTDR;
#endif

    return ( val );
}
    d546:	8082                	ret
C:/Repository/RISKYKVM/firmware/src/Peripheral/src/ch32v20x_gpio.c:301 (discriminator 1)
    if((GPIOx == GPIOC) && MCU_Version){
    d548:	87d1c783          	lbu	a5,-1923(gp) # 2000007d <MCU_Version>
    d54c:	dbf5                	beqz	a5,d540 <GPIO_ReadOutputData+0x8>
C:/Repository/RISKYKVM/firmware/src/Peripheral/src/ch32v20x_gpio.c:302
        val = ( uint16_t )(GPIOx->OUTDR << 13);
    d54e:	4548                	lw	a0,12(a0)
    d550:	0536                	slli	a0,a0,0xd
    d552:	0542                	slli	a0,a0,0x10
    d554:	8141                	srli	a0,a0,0x10
    d556:	8082                	ret

0000d558 <GPIO_WriteBit>:
GPIO_WriteBit():
C:/Repository/RISKYKVM/firmware/src/Peripheral/src/ch32v20x_gpio.c:377
 * @return  none
 */
void GPIO_WriteBit(GPIO_TypeDef *GPIOx, uint16_t GPIO_Pin, BitAction BitVal)
{
#if defined (CH32V20x_D6)
    if((GPIOx == GPIOC) && MCU_Version){
    d558:	400117b7          	lui	a5,0x40011
    d55c:	00f50563          	beq	a0,a5,d566 <GPIO_WriteBit+0xe>
C:/Repository/RISKYKVM/firmware/src/Peripheral/src/ch32v20x_gpio.c:383
        GPIO_Pin = GPIO_Pin >> 13;
    }

#endif

    if(BitVal != Bit_RESET)
    d560:	ca01                	beqz	a2,d570 <GPIO_WriteBit+0x18>
C:/Repository/RISKYKVM/firmware/src/Peripheral/src/ch32v20x_gpio.c:385
    {
        GPIOx->BSHR = GPIO_Pin;
    d562:	c90c                	sw	a1,16(a0)
    d564:	8082                	ret
C:/Repository/RISKYKVM/firmware/src/Peripheral/src/ch32v20x_gpio.c:377 (discriminator 1)
    if((GPIOx == GPIOC) && MCU_Version){
    d566:	87d1c783          	lbu	a5,-1923(gp) # 2000007d <MCU_Version>
    d56a:	dbfd                	beqz	a5,d560 <GPIO_WriteBit+0x8>
C:/Repository/RISKYKVM/firmware/src/Peripheral/src/ch32v20x_gpio.c:378
        GPIO_Pin = GPIO_Pin >> 13;
    d56c:	81b5                	srli	a1,a1,0xd
C:/Repository/RISKYKVM/firmware/src/Peripheral/src/ch32v20x_gpio.c:383
    if(BitVal != Bit_RESET)
    d56e:	fa75                	bnez	a2,d562 <GPIO_WriteBit+0xa>
C:/Repository/RISKYKVM/firmware/src/Peripheral/src/ch32v20x_gpio.c:389
    }
    else
    {
        GPIOx->BCR = GPIO_Pin;
    d570:	c94c                	sw	a1,20(a0)
C:/Repository/RISKYKVM/firmware/src/Peripheral/src/ch32v20x_gpio.c:391
    }
}
    d572:	8082                	ret

0000d574 <GPIO_Write>:
GPIO_Write():
C:/Repository/RISKYKVM/firmware/src/Peripheral/src/ch32v20x_gpio.c:406
 * @return  none
 */
void GPIO_Write(GPIO_TypeDef *GPIOx, uint16_t PortVal)
{
#if defined (CH32V20x_D6)
    if((GPIOx == GPIOC) && MCU_Version){
    d574:	400117b7          	lui	a5,0x40011
    d578:	00f50463          	beq	a0,a5,d580 <GPIO_Write+0xc>
C:/Repository/RISKYKVM/firmware/src/Peripheral/src/ch32v20x_gpio.c:412
        PortVal = PortVal >> 13;
    }

#endif

    GPIOx->OUTDR = PortVal;
    d57c:	c54c                	sw	a1,12(a0)
C:/Repository/RISKYKVM/firmware/src/Peripheral/src/ch32v20x_gpio.c:413
}
    d57e:	8082                	ret
C:/Repository/RISKYKVM/firmware/src/Peripheral/src/ch32v20x_gpio.c:406 (discriminator 1)
    if((GPIOx == GPIOC) && MCU_Version){
    d580:	87d1c783          	lbu	a5,-1923(gp) # 2000007d <MCU_Version>
    d584:	dfe5                	beqz	a5,d57c <GPIO_Write+0x8>
C:/Repository/RISKYKVM/firmware/src/Peripheral/src/ch32v20x_gpio.c:407
        PortVal = PortVal >> 13;
    d586:	81b5                	srli	a1,a1,0xd
C:/Repository/RISKYKVM/firmware/src/Peripheral/src/ch32v20x_gpio.c:412
    GPIOx->OUTDR = PortVal;
    d588:	c54c                	sw	a1,12(a0)
C:/Repository/RISKYKVM/firmware/src/Peripheral/src/ch32v20x_gpio.c:413
}
    d58a:	8082                	ret

0000d58c <GPIO_EXTILineConfig>:
GPIO_EXTILineConfig():
C:/Repository/RISKYKVM/firmware/src/Peripheral/src/ch32v20x_gpio.c:640
 */
void GPIO_EXTILineConfig(uint8_t GPIO_PortSource, uint8_t GPIO_PinSource)
{
    uint32_t tmp = 0x00;

    tmp = ((uint32_t)0x0F) << (0x04 * (GPIO_PinSource & (uint8_t)0x03));
    d58c:	0fc5f793          	andi	a5,a1,252
    d590:	40010737          	lui	a4,0x40010
    d594:	973e                	add	a4,a4,a5
    d596:	898d                	andi	a1,a1,3
C:/Repository/RISKYKVM/firmware/src/Peripheral/src/ch32v20x_gpio.c:641
    AFIO->EXTICR[GPIO_PinSource >> 0x02] &= ~tmp;
    d598:	4714                	lw	a3,8(a4)
C:/Repository/RISKYKVM/firmware/src/Peripheral/src/ch32v20x_gpio.c:640
    tmp = ((uint32_t)0x0F) << (0x04 * (GPIO_PinSource & (uint8_t)0x03));
    d59a:	058a                	slli	a1,a1,0x2
    d59c:	47bd                	li	a5,15
    d59e:	00b797b3          	sll	a5,a5,a1
C:/Repository/RISKYKVM/firmware/src/Peripheral/src/ch32v20x_gpio.c:641
    AFIO->EXTICR[GPIO_PinSource >> 0x02] &= ~tmp;
    d5a2:	fff7c793          	not	a5,a5
    d5a6:	8ff5                	and	a5,a5,a3
    d5a8:	c71c                	sw	a5,8(a4)
C:/Repository/RISKYKVM/firmware/src/Peripheral/src/ch32v20x_gpio.c:642
    AFIO->EXTICR[GPIO_PinSource >> 0x02] |= (((uint32_t)GPIO_PortSource) << (0x04 * (GPIO_PinSource & (uint8_t)0x03)));
    d5aa:	471c                	lw	a5,8(a4)
    d5ac:	00b515b3          	sll	a1,a0,a1
    d5b0:	8ddd                	or	a1,a1,a5
    d5b2:	c70c                	sw	a1,8(a4)
C:/Repository/RISKYKVM/firmware/src/Peripheral/src/ch32v20x_gpio.c:643
}
    d5b4:	8082                	ret

0000d5b6 <NVIC_Init>:
NVIC_Init():
C:/Repository/RISKYKVM/firmware/src/Peripheral/src/ch32v20x_misc.c:55
 */
void NVIC_Init(NVIC_InitTypeDef *NVIC_InitStruct)
{
    uint8_t tmppre = 0;

    if(NVIC_Priority_Group == NVIC_PriorityGroup_0)
    d5b6:	88018793          	addi	a5,gp,-1920 # 20000080 <NVIC_Priority_Group>
    d5ba:	4398                	lw	a4,0(a5)
    d5bc:	00054683          	lbu	a3,0(a0)
    d5c0:	e331                	bnez	a4,d604 <NVIC_Init+0x4e>
C:/Repository/RISKYKVM/firmware/src/Peripheral/src/ch32v20x_misc.c:57
    {
        NVIC_SetPriority(NVIC_InitStruct->NVIC_IRQChannel, NVIC_InitStruct->NVIC_IRQChannelSubPriority << 4);
    d5c2:	00254783          	lbu	a5,2(a0)
NVIC_SetPriority():
C:\Repository\RISKYKVM\firmware\src\Core/core_riscv.h:273
 *
 * @return  none
 */
RV_STATIC_INLINE void NVIC_SetPriority(IRQn_Type IRQn, uint8_t priority)
{
  NVIC->IPRIOR[(uint32_t)(IRQn)] = priority;
    d5c6:	e000e737          	lui	a4,0xe000e
NVIC_Init():
C:/Repository/RISKYKVM/firmware/src/Peripheral/src/ch32v20x_misc.c:98
            NVIC_SetPriority(NVIC_InitStruct->NVIC_IRQChannel, (1 << 7) | (tmppre << 4));
        }
    }
    else if(NVIC_Priority_Group == NVIC_PriorityGroup_4)
    {
        NVIC_SetPriority(NVIC_InitStruct->NVIC_IRQChannel, NVIC_InitStruct->NVIC_IRQChannelPreemptionPriority << 4);
    d5ca:	0792                	slli	a5,a5,0x4
NVIC_SetPriority():
C:\Repository\RISKYKVM\firmware\src\Core/core_riscv.h:273
    d5cc:	9736                	add	a4,a4,a3
NVIC_Init():
C:/Repository/RISKYKVM/firmware/src/Peripheral/src/ch32v20x_misc.c:98
    d5ce:	0ff7f793          	andi	a5,a5,255
NVIC_SetPriority():
C:\Repository\RISKYKVM\firmware\src\Core/core_riscv.h:273
    d5d2:	40f70023          	sb	a5,1024(a4) # e000e400 <_eusrstack+0xc0009400>
NVIC_Init():
C:/Repository/RISKYKVM/firmware/src/Peripheral/src/ch32v20x_misc.c:101
    }

    if(NVIC_InitStruct->NVIC_IRQChannelCmd != DISABLE)
    d5d6:	4150                	lw	a2,4(a0)
    d5d8:	4705                	li	a4,1
    d5da:	0056d793          	srli	a5,a3,0x5
    d5de:	00d71733          	sll	a4,a4,a3
    d5e2:	ca09                	beqz	a2,d5f4 <NVIC_Init+0x3e>
NVIC_EnableIRQ():
C:\Repository\RISKYKVM\firmware\src\Core/core_riscv.h:170
  NVIC->IENR[((uint32_t)(IRQn) >> 5)] = (1 << ((uint32_t)(IRQn) & 0x1F));
    d5e4:	04078793          	addi	a5,a5,64 # 40011040 <_eusrstack+0x2000c040>
    d5e8:	078a                	slli	a5,a5,0x2
    d5ea:	e000e6b7          	lui	a3,0xe000e
    d5ee:	97b6                	add	a5,a5,a3
    d5f0:	c398                	sw	a4,0(a5)
    d5f2:	8082                	ret
NVIC_DisableIRQ():
C:\Repository\RISKYKVM\firmware\src\Core/core_riscv.h:184
  NVIC->IRER[((uint32_t)(IRQn) >> 5)] = (1 << ((uint32_t)(IRQn) & 0x1F));
    d5f4:	06078793          	addi	a5,a5,96
    d5f8:	078a                	slli	a5,a5,0x2
    d5fa:	e000e6b7          	lui	a3,0xe000e
    d5fe:	97b6                	add	a5,a5,a3
    d600:	c398                	sw	a4,0(a5)
NVIC_Init():
C:/Repository/RISKYKVM/firmware/src/Peripheral/src/ch32v20x_misc.c:109
    }
    else
    {
        NVIC_DisableIRQ(NVIC_InitStruct->NVIC_IRQChannel);
    }
}
    d602:	8082                	ret
C:/Repository/RISKYKVM/firmware/src/Peripheral/src/ch32v20x_misc.c:59
    else if(NVIC_Priority_Group == NVIC_PriorityGroup_1)
    d604:	4398                	lw	a4,0(a5)
    d606:	4605                	li	a2,1
    d608:	02c70b63          	beq	a4,a2,d63e <NVIC_Init+0x88>
C:/Repository/RISKYKVM/firmware/src/Peripheral/src/ch32v20x_misc.c:70
    else if(NVIC_Priority_Group == NVIC_PriorityGroup_2)
    d60c:	438c                	lw	a1,0(a5)
    d60e:	4709                	li	a4,2
    d610:	04e58663          	beq	a1,a4,d65c <NVIC_Init+0xa6>
C:/Repository/RISKYKVM/firmware/src/Peripheral/src/ch32v20x_misc.c:83
    else if(NVIC_Priority_Group == NVIC_PriorityGroup_3)
    d614:	4398                	lw	a4,0(a5)
    d616:	460d                	li	a2,3
    d618:	00c70963          	beq	a4,a2,d62a <NVIC_Init+0x74>
C:/Repository/RISKYKVM/firmware/src/Peripheral/src/ch32v20x_misc.c:96
    else if(NVIC_Priority_Group == NVIC_PriorityGroup_4)
    d61c:	4398                	lw	a4,0(a5)
    d61e:	4791                	li	a5,4
    d620:	faf71be3          	bne	a4,a5,d5d6 <NVIC_Init+0x20>
C:/Repository/RISKYKVM/firmware/src/Peripheral/src/ch32v20x_misc.c:98
        NVIC_SetPriority(NVIC_InitStruct->NVIC_IRQChannel, NVIC_InitStruct->NVIC_IRQChannelPreemptionPriority << 4);
    d624:	00154783          	lbu	a5,1(a0)
    d628:	bf79                	j	d5c6 <NVIC_Init+0x10>
C:/Repository/RISKYKVM/firmware/src/Peripheral/src/ch32v20x_misc.c:85
        if(NVIC_InitStruct->NVIC_IRQChannelPreemptionPriority <= 3)
    d62a:	00154603          	lbu	a2,1(a0)
    d62e:	00254783          	lbu	a5,2(a0)
    d632:	04c76c63          	bltu	a4,a2,d68a <NVIC_Init+0xd4>
C:/Repository/RISKYKVM/firmware/src/Peripheral/src/ch32v20x_misc.c:87
            tmppre = NVIC_InitStruct->NVIC_IRQChannelSubPriority + (2 * NVIC_InitStruct->NVIC_IRQChannelPreemptionPriority);
    d636:	0606                	slli	a2,a2,0x1
    d638:	97b2                	add	a5,a5,a2
C:/Repository/RISKYKVM/firmware/src/Peripheral/src/ch32v20x_misc.c:75
            NVIC_SetPriority(NVIC_InitStruct->NVIC_IRQChannel, (0 << 7) | (tmppre << 4));
    d63a:	0792                	slli	a5,a5,0x4
    d63c:	a801                	j	d64c <NVIC_Init+0x96>
C:/Repository/RISKYKVM/firmware/src/Peripheral/src/ch32v20x_misc.c:61
        if(NVIC_InitStruct->NVIC_IRQChannelPreemptionPriority == 1)
    d63e:	00254783          	lbu	a5,2(a0)
    d642:	00154603          	lbu	a2,1(a0)
C:/Repository/RISKYKVM/firmware/src/Peripheral/src/ch32v20x_misc.c:63
            NVIC_SetPriority(NVIC_InitStruct->NVIC_IRQChannel, (1 << 7) | (NVIC_InitStruct->NVIC_IRQChannelSubPriority << 4));
    d646:	0792                	slli	a5,a5,0x4
C:/Repository/RISKYKVM/firmware/src/Peripheral/src/ch32v20x_misc.c:61
        if(NVIC_InitStruct->NVIC_IRQChannelPreemptionPriority == 1)
    d648:	02e60763          	beq	a2,a4,d676 <NVIC_Init+0xc0>
NVIC_SetPriority():
C:\Repository\RISKYKVM\firmware\src\Core/core_riscv.h:273
  NVIC->IPRIOR[(uint32_t)(IRQn)] = priority;
    d64c:	e000e737          	lui	a4,0xe000e
NVIC_Init():
C:/Repository/RISKYKVM/firmware/src/Peripheral/src/ch32v20x_misc.c:75
            NVIC_SetPriority(NVIC_InitStruct->NVIC_IRQChannel, (0 << 7) | (tmppre << 4));
    d650:	0ff7f793          	andi	a5,a5,255
NVIC_SetPriority():
C:\Repository\RISKYKVM\firmware\src\Core/core_riscv.h:273
    d654:	9736                	add	a4,a4,a3
    d656:	40f70023          	sb	a5,1024(a4) # e000e400 <_eusrstack+0xc0009400>
    d65a:	bfb5                	j	d5d6 <NVIC_Init+0x20>
NVIC_Init():
C:/Repository/RISKYKVM/firmware/src/Peripheral/src/ch32v20x_misc.c:72
        if(NVIC_InitStruct->NVIC_IRQChannelPreemptionPriority <= 1)
    d65c:	00154703          	lbu	a4,1(a0)
    d660:	00254783          	lbu	a5,2(a0)
    d664:	02e67863          	bgeu	a2,a4,d694 <NVIC_Init+0xde>
C:/Repository/RISKYKVM/firmware/src/Peripheral/src/ch32v20x_misc.c:79
            tmppre = NVIC_InitStruct->NVIC_IRQChannelSubPriority + (4 * (NVIC_InitStruct->NVIC_IRQChannelPreemptionPriority - 2));
    d668:	03e70713          	addi	a4,a4,62
    d66c:	070a                	slli	a4,a4,0x2
    d66e:	97ba                	add	a5,a5,a4
C:/Repository/RISKYKVM/firmware/src/Peripheral/src/ch32v20x_misc.c:80
            NVIC_SetPriority(NVIC_InitStruct->NVIC_IRQChannel, (1 << 7) | (tmppre << 4));
    d670:	0ff7f793          	andi	a5,a5,255
    d674:	0792                	slli	a5,a5,0x4
    d676:	f807e793          	ori	a5,a5,-128
NVIC_SetPriority():
C:\Repository\RISKYKVM\firmware\src\Core/core_riscv.h:273
    d67a:	e000e737          	lui	a4,0xe000e
NVIC_Init():
C:/Repository/RISKYKVM/firmware/src/Peripheral/src/ch32v20x_misc.c:80
    d67e:	0ff7f793          	andi	a5,a5,255
NVIC_SetPriority():
C:\Repository\RISKYKVM\firmware\src\Core/core_riscv.h:273
    d682:	9736                	add	a4,a4,a3
    d684:	40f70023          	sb	a5,1024(a4) # e000e400 <_eusrstack+0xc0009400>
    d688:	b7b9                	j	d5d6 <NVIC_Init+0x20>
NVIC_Init():
C:/Repository/RISKYKVM/firmware/src/Peripheral/src/ch32v20x_misc.c:92
            tmppre = NVIC_InitStruct->NVIC_IRQChannelSubPriority + (2 * (NVIC_InitStruct->NVIC_IRQChannelPreemptionPriority - 4));
    d68a:	07c60613          	addi	a2,a2,124
    d68e:	0606                	slli	a2,a2,0x1
    d690:	97b2                	add	a5,a5,a2
    d692:	bff9                	j	d670 <NVIC_Init+0xba>
C:/Repository/RISKYKVM/firmware/src/Peripheral/src/ch32v20x_misc.c:74
            tmppre = NVIC_InitStruct->NVIC_IRQChannelSubPriority + (4 * NVIC_InitStruct->NVIC_IRQChannelPreemptionPriority);
    d694:	070a                	slli	a4,a4,0x2
    d696:	97ba                	add	a5,a5,a4
C:/Repository/RISKYKVM/firmware/src/Peripheral/src/ch32v20x_misc.c:75
            NVIC_SetPriority(NVIC_InitStruct->NVIC_IRQChannel, (0 << 7) | (tmppre << 4));
    d698:	0792                	slli	a5,a5,0x4
    d69a:	bf4d                	j	d64c <NVIC_Init+0x96>

0000d69c <RCC_USBCLKConfig>:
RCC_USBCLKConfig():
C:/Repository/RISKYKVM/firmware/src/Peripheral/src/ch32v20x_rcc.c:419
 *
 * @return  none
 */
void RCC_USBCLKConfig(uint32_t RCC_USBCLKSource)
{
    RCC->CFGR0 &= ~((uint32_t)3<<22);
    d69c:	400217b7          	lui	a5,0x40021
    d6a0:	43d8                	lw	a4,4(a5)
    d6a2:	ff4006b7          	lui	a3,0xff400
    d6a6:	16fd                	addi	a3,a3,-1
    d6a8:	8f75                	and	a4,a4,a3
    d6aa:	c3d8                	sw	a4,4(a5)
C:/Repository/RISKYKVM/firmware/src/Peripheral/src/ch32v20x_rcc.c:420
    RCC->CFGR0 |= RCC_USBCLKSource<<22;
    d6ac:	43d8                	lw	a4,4(a5)
    d6ae:	055a                	slli	a0,a0,0x16
    d6b0:	8d59                	or	a0,a0,a4
    d6b2:	c3c8                	sw	a0,4(a5)
C:/Repository/RISKYKVM/firmware/src/Peripheral/src/ch32v20x_rcc.c:421
}
    d6b4:	8082                	ret

0000d6b6 <RCC_AHBPeriphClockCmd>:
RCC_AHBPeriphClockCmd():
C:/Repository/RISKYKVM/firmware/src/Peripheral/src/ch32v20x_rcc.c:657
 *
 * @return  none
 */
void RCC_AHBPeriphClockCmd(uint32_t RCC_AHBPeriph, FunctionalState NewState)
{
  if (NewState != DISABLE)
    d6b6:	c599                	beqz	a1,d6c4 <RCC_AHBPeriphClockCmd+0xe>
C:/Repository/RISKYKVM/firmware/src/Peripheral/src/ch32v20x_rcc.c:659
  {
    RCC->AHBPCENR |= RCC_AHBPeriph;
    d6b8:	40021737          	lui	a4,0x40021
    d6bc:	4b5c                	lw	a5,20(a4)
    d6be:	8d5d                	or	a0,a0,a5
    d6c0:	cb48                	sw	a0,20(a4)
    d6c2:	8082                	ret
C:/Repository/RISKYKVM/firmware/src/Peripheral/src/ch32v20x_rcc.c:663
  }
  else
  {
    RCC->AHBPCENR &= ~RCC_AHBPeriph;
    d6c4:	400217b7          	lui	a5,0x40021
    d6c8:	4bd8                	lw	a4,20(a5)
    d6ca:	fff54513          	not	a0,a0
    d6ce:	8d79                	and	a0,a0,a4
    d6d0:	cbc8                	sw	a0,20(a5)
C:/Repository/RISKYKVM/firmware/src/Peripheral/src/ch32v20x_rcc.c:665
  }
}
    d6d2:	8082                	ret

0000d6d4 <RCC_APB2PeriphClockCmd>:
RCC_APB2PeriphClockCmd():
C:/Repository/RISKYKVM/firmware/src/Peripheral/src/ch32v20x_rcc.c:691
 *
 * @return  none
 */
void RCC_APB2PeriphClockCmd(uint32_t RCC_APB2Periph, FunctionalState NewState)
{
  if (NewState != DISABLE)
    d6d4:	c599                	beqz	a1,d6e2 <RCC_APB2PeriphClockCmd+0xe>
C:/Repository/RISKYKVM/firmware/src/Peripheral/src/ch32v20x_rcc.c:693
  {
    RCC->APB2PCENR |= RCC_APB2Periph;
    d6d6:	40021737          	lui	a4,0x40021
    d6da:	4f1c                	lw	a5,24(a4)
    d6dc:	8d5d                	or	a0,a0,a5
    d6de:	cf08                	sw	a0,24(a4)
    d6e0:	8082                	ret
C:/Repository/RISKYKVM/firmware/src/Peripheral/src/ch32v20x_rcc.c:697
  }
  else
  {
    RCC->APB2PCENR &= ~RCC_APB2Periph;
    d6e2:	400217b7          	lui	a5,0x40021
    d6e6:	4f98                	lw	a4,24(a5)
    d6e8:	fff54513          	not	a0,a0
    d6ec:	8d79                	and	a0,a0,a4
    d6ee:	cf88                	sw	a0,24(a5)
C:/Repository/RISKYKVM/firmware/src/Peripheral/src/ch32v20x_rcc.c:699
  }
}
    d6f0:	8082                	ret

0000d6f2 <RCC_APB1PeriphClockCmd>:
RCC_APB1PeriphClockCmd():
C:/Repository/RISKYKVM/firmware/src/Peripheral/src/ch32v20x_rcc.c:728
 *
 * @return  none
 */
void RCC_APB1PeriphClockCmd(uint32_t RCC_APB1Periph, FunctionalState NewState)
{
  if (NewState != DISABLE)
    d6f2:	c599                	beqz	a1,d700 <RCC_APB1PeriphClockCmd+0xe>
C:/Repository/RISKYKVM/firmware/src/Peripheral/src/ch32v20x_rcc.c:730
  {
    RCC->APB1PCENR |= RCC_APB1Periph;
    d6f4:	40021737          	lui	a4,0x40021
    d6f8:	4f5c                	lw	a5,28(a4)
    d6fa:	8d5d                	or	a0,a0,a5
    d6fc:	cf48                	sw	a0,28(a4)
    d6fe:	8082                	ret
C:/Repository/RISKYKVM/firmware/src/Peripheral/src/ch32v20x_rcc.c:734
  }
  else
  {
    RCC->APB1PCENR &= ~RCC_APB1Periph;
    d700:	400217b7          	lui	a5,0x40021
    d704:	4fd8                	lw	a4,28(a5)
    d706:	fff54513          	not	a0,a0
    d70a:	8d79                	and	a0,a0,a4
    d70c:	cfc8                	sw	a0,28(a5)
C:/Repository/RISKYKVM/firmware/src/Peripheral/src/ch32v20x_rcc.c:736
  }
}
    d70e:	8082                	ret

0000d710 <TIM_TimeBaseInit>:
TIM_TimeBaseInit():
C:/Repository/RISKYKVM/firmware/src/Peripheral/src/ch32v20x_tim.c:85
 */
void TIM_TimeBaseInit(TIM_TypeDef *TIMx, TIM_TimeBaseInitTypeDef *TIM_TimeBaseInitStruct)
{
    uint16_t tmpcr1 = 0;

    tmpcr1 = TIMx->CTLR1;
    d710:	00055783          	lhu	a5,0(a0)
C:/Repository/RISKYKVM/firmware/src/Peripheral/src/ch32v20x_tim.c:87

    if((TIMx == TIM1) || (TIMx == TIM2) || (TIMx == TIM3) || (TIMx == TIM4) || (TIMx == TIM5))
    d714:	400136b7          	lui	a3,0x40013
    d718:	c0068693          	addi	a3,a3,-1024 # 40012c00 <_eusrstack+0x2000dc00>
C:/Repository/RISKYKVM/firmware/src/Peripheral/src/ch32v20x_tim.c:85
    tmpcr1 = TIMx->CTLR1;
    d71c:	07c2                	slli	a5,a5,0x10
    d71e:	83c1                	srli	a5,a5,0x10
C:/Repository/RISKYKVM/firmware/src/Peripheral/src/ch32v20x_tim.c:87
    if((TIMx == TIM1) || (TIMx == TIM2) || (TIMx == TIM3) || (TIMx == TIM4) || (TIMx == TIM5))
    d720:	0065d603          	lhu	a2,6(a1) # f1000006 <_eusrstack+0xd0ffb006>
    d724:	0045d883          	lhu	a7,4(a1)
    d728:	0005d803          	lhu	a6,0(a1)
    d72c:	04d50663          	beq	a0,a3,d778 <TIM_TimeBaseInit+0x68>
C:/Repository/RISKYKVM/firmware/src/Peripheral/src/ch32v20x_tim.c:87 (discriminator 1)
    d730:	40000737          	lui	a4,0x40000
    d734:	02e50063          	beq	a0,a4,d754 <TIM_TimeBaseInit+0x44>
C:/Repository/RISKYKVM/firmware/src/Peripheral/src/ch32v20x_tim.c:87 (discriminator 2)
    d738:	40070713          	addi	a4,a4,1024 # 40000400 <_eusrstack+0x1fffb400>
    d73c:	00e50c63          	beq	a0,a4,d754 <TIM_TimeBaseInit+0x44>
C:/Repository/RISKYKVM/firmware/src/Peripheral/src/ch32v20x_tim.c:87 (discriminator 3)
    d740:	40001737          	lui	a4,0x40001
    d744:	80070693          	addi	a3,a4,-2048 # 40000800 <_eusrstack+0x1fffb800>
    d748:	00d50663          	beq	a0,a3,d754 <TIM_TimeBaseInit+0x44>
C:/Repository/RISKYKVM/firmware/src/Peripheral/src/ch32v20x_tim.c:87 (discriminator 4)
    d74c:	c0070713          	addi	a4,a4,-1024
    d750:	00e51763          	bne	a0,a4,d75e <TIM_TimeBaseInit+0x4e>
C:/Repository/RISKYKVM/firmware/src/Peripheral/src/ch32v20x_tim.c:90
    {
        tmpcr1 &= (uint16_t)(~((uint16_t)(TIM_DIR | TIM_CMS)));
        tmpcr1 |= (uint32_t)TIM_TimeBaseInitStruct->TIM_CounterMode;
    d754:	0025d703          	lhu	a4,2(a1)
C:/Repository/RISKYKVM/firmware/src/Peripheral/src/ch32v20x_tim.c:89
        tmpcr1 &= (uint16_t)(~((uint16_t)(TIM_DIR | TIM_CMS)));
    d758:	f8f7f793          	andi	a5,a5,-113
C:/Repository/RISKYKVM/firmware/src/Peripheral/src/ch32v20x_tim.c:90
        tmpcr1 |= (uint32_t)TIM_TimeBaseInitStruct->TIM_CounterMode;
    d75c:	8fd9                	or	a5,a5,a4
C:/Repository/RISKYKVM/firmware/src/Peripheral/src/ch32v20x_tim.c:93
    }

    tmpcr1 &= (uint16_t)(~((uint16_t)TIM_CTLR1_CKD));
    d75e:	cff7f793          	andi	a5,a5,-769
C:/Repository/RISKYKVM/firmware/src/Peripheral/src/ch32v20x_tim.c:94
    tmpcr1 |= (uint32_t)TIM_TimeBaseInitStruct->TIM_ClockDivision;
    d762:	8fd1                	or	a5,a5,a2
C:/Repository/RISKYKVM/firmware/src/Peripheral/src/ch32v20x_tim.c:96

    TIMx->CTLR1 = tmpcr1;
    d764:	00f51023          	sh	a5,0(a0)
C:/Repository/RISKYKVM/firmware/src/Peripheral/src/ch32v20x_tim.c:97
    TIMx->ATRLR = TIM_TimeBaseInitStruct->TIM_Period;
    d768:	03151623          	sh	a7,44(a0)
C:/Repository/RISKYKVM/firmware/src/Peripheral/src/ch32v20x_tim.c:98
    TIMx->PSC = TIM_TimeBaseInitStruct->TIM_Prescaler;
    d76c:	03051423          	sh	a6,40(a0)
C:/Repository/RISKYKVM/firmware/src/Peripheral/src/ch32v20x_tim.c:105
    if((TIMx == TIM1))
    {
        TIMx->RPTCR = TIM_TimeBaseInitStruct->TIM_RepetitionCounter;
    }

    TIMx->SWEVGR = TIM_PSCReloadMode_Immediate;
    d770:	4785                	li	a5,1
    d772:	00f51a23          	sh	a5,20(a0)
C:/Repository/RISKYKVM/firmware/src/Peripheral/src/ch32v20x_tim.c:106
}
    d776:	8082                	ret
C:/Repository/RISKYKVM/firmware/src/Peripheral/src/ch32v20x_tim.c:90
        tmpcr1 |= (uint32_t)TIM_TimeBaseInitStruct->TIM_CounterMode;
    d778:	0025d703          	lhu	a4,2(a1)
C:/Repository/RISKYKVM/firmware/src/Peripheral/src/ch32v20x_tim.c:89
        tmpcr1 &= (uint16_t)(~((uint16_t)(TIM_DIR | TIM_CMS)));
    d77c:	f8f7f793          	andi	a5,a5,-113
C:/Repository/RISKYKVM/firmware/src/Peripheral/src/ch32v20x_tim.c:90
        tmpcr1 |= (uint32_t)TIM_TimeBaseInitStruct->TIM_CounterMode;
    d780:	8f5d                	or	a4,a4,a5
C:/Repository/RISKYKVM/firmware/src/Peripheral/src/ch32v20x_tim.c:93
    tmpcr1 &= (uint16_t)(~((uint16_t)TIM_CTLR1_CKD));
    d782:	cff77713          	andi	a4,a4,-769
C:/Repository/RISKYKVM/firmware/src/Peripheral/src/ch32v20x_tim.c:94
    tmpcr1 |= (uint32_t)TIM_TimeBaseInitStruct->TIM_ClockDivision;
    d786:	8f51                	or	a4,a4,a2
C:/Repository/RISKYKVM/firmware/src/Peripheral/src/ch32v20x_tim.c:96
    TIMx->CTLR1 = tmpcr1;
    d788:	00e51023          	sh	a4,0(a0)
C:/Repository/RISKYKVM/firmware/src/Peripheral/src/ch32v20x_tim.c:97
    TIMx->ATRLR = TIM_TimeBaseInitStruct->TIM_Period;
    d78c:	03151623          	sh	a7,44(a0)
C:/Repository/RISKYKVM/firmware/src/Peripheral/src/ch32v20x_tim.c:98
    TIMx->PSC = TIM_TimeBaseInitStruct->TIM_Prescaler;
    d790:	03051423          	sh	a6,40(a0)
C:/Repository/RISKYKVM/firmware/src/Peripheral/src/ch32v20x_tim.c:102
        TIMx->RPTCR = TIM_TimeBaseInitStruct->TIM_RepetitionCounter;
    d794:	0085c783          	lbu	a5,8(a1)
    d798:	02f51823          	sh	a5,48(a0)
C:/Repository/RISKYKVM/firmware/src/Peripheral/src/ch32v20x_tim.c:105
    TIMx->SWEVGR = TIM_PSCReloadMode_Immediate;
    d79c:	4785                	li	a5,1
    d79e:	00f51a23          	sh	a5,20(a0)
C:/Repository/RISKYKVM/firmware/src/Peripheral/src/ch32v20x_tim.c:106
}
    d7a2:	8082                	ret

0000d7a4 <TIM_Cmd>:
TIM_Cmd():
C:/Repository/RISKYKVM/firmware/src/Peripheral/src/ch32v20x_tim.c:487
 */
void TIM_Cmd(TIM_TypeDef *TIMx, FunctionalState NewState)
{
    if(NewState != DISABLE)
    {
        TIMx->CTLR1 |= TIM_CEN;
    d7a4:	00055783          	lhu	a5,0(a0)
C:/Repository/RISKYKVM/firmware/src/Peripheral/src/ch32v20x_tim.c:485
    if(NewState != DISABLE)
    d7a8:	c591                	beqz	a1,d7b4 <TIM_Cmd+0x10>
C:/Repository/RISKYKVM/firmware/src/Peripheral/src/ch32v20x_tim.c:487
        TIMx->CTLR1 |= TIM_CEN;
    d7aa:	0017e793          	ori	a5,a5,1
    d7ae:	00f51023          	sh	a5,0(a0)
    d7b2:	8082                	ret
C:/Repository/RISKYKVM/firmware/src/Peripheral/src/ch32v20x_tim.c:491
    }
    else
    {
        TIMx->CTLR1 &= (uint16_t)(~((uint16_t)TIM_CEN));
    d7b4:	07c2                	slli	a5,a5,0x10
    d7b6:	83c1                	srli	a5,a5,0x10
    d7b8:	9bf9                	andi	a5,a5,-2
    d7ba:	07c2                	slli	a5,a5,0x10
    d7bc:	83c1                	srli	a5,a5,0x10
    d7be:	00f51023          	sh	a5,0(a0)
C:/Repository/RISKYKVM/firmware/src/Peripheral/src/ch32v20x_tim.c:493
    }
}
    d7c2:	8082                	ret

0000d7c4 <TIM_ITConfig>:
TIM_ITConfig():
C:/Repository/RISKYKVM/firmware/src/Peripheral/src/ch32v20x_tim.c:540
 */
void TIM_ITConfig(TIM_TypeDef *TIMx, uint16_t TIM_IT, FunctionalState NewState)
{
    if(NewState != DISABLE)
    {
        TIMx->DMAINTENR |= TIM_IT;
    d7c4:	00c55783          	lhu	a5,12(a0)
C:/Repository/RISKYKVM/firmware/src/Peripheral/src/ch32v20x_tim.c:538
    if(NewState != DISABLE)
    d7c8:	c609                	beqz	a2,d7d2 <TIM_ITConfig+0xe>
C:/Repository/RISKYKVM/firmware/src/Peripheral/src/ch32v20x_tim.c:540
        TIMx->DMAINTENR |= TIM_IT;
    d7ca:	8ddd                	or	a1,a1,a5
    d7cc:	00b51623          	sh	a1,12(a0)
    d7d0:	8082                	ret
C:/Repository/RISKYKVM/firmware/src/Peripheral/src/ch32v20x_tim.c:544
    }
    else
    {
        TIMx->DMAINTENR &= (uint16_t)~TIM_IT;
    d7d2:	fff5c593          	not	a1,a1
    d7d6:	8dfd                	and	a1,a1,a5
    d7d8:	00b51623          	sh	a1,12(a0)
C:/Repository/RISKYKVM/firmware/src/Peripheral/src/ch32v20x_tim.c:546
    }
}
    d7dc:	8082                	ret

0000d7de <TIM_GetITStatus>:
TIM_GetITStatus():
C:/Repository/RISKYKVM/firmware/src/Peripheral/src/ch32v20x_tim.c:2124
ITStatus TIM_GetITStatus(TIM_TypeDef *TIMx, uint16_t TIM_IT)
{
    ITStatus bitstatus = RESET;
    uint16_t itstatus = 0x0, itenable = 0x0;

    itstatus = TIMx->INTFR & TIM_IT;
    d7de:	01055783          	lhu	a5,16(a0)
C:/Repository/RISKYKVM/firmware/src/Peripheral/src/ch32v20x_tim.c:2126

    itenable = TIMx->DMAINTENR & TIM_IT;
    d7e2:	00c55503          	lhu	a0,12(a0)
C:/Repository/RISKYKVM/firmware/src/Peripheral/src/ch32v20x_tim.c:2127
    if((itstatus != (uint16_t)RESET) && (itenable != (uint16_t)RESET))
    d7e6:	8fed                	and	a5,a5,a1
C:/Repository/RISKYKVM/firmware/src/Peripheral/src/ch32v20x_tim.c:2126
    itenable = TIMx->DMAINTENR & TIM_IT;
    d7e8:	0542                	slli	a0,a0,0x10
    d7ea:	8141                	srli	a0,a0,0x10
C:/Repository/RISKYKVM/firmware/src/Peripheral/src/ch32v20x_tim.c:2127
    if((itstatus != (uint16_t)RESET) && (itenable != (uint16_t)RESET))
    d7ec:	c789                	beqz	a5,d7f6 <TIM_GetITStatus+0x18>
C:/Repository/RISKYKVM/firmware/src/Peripheral/src/ch32v20x_tim.c:2127 (discriminator 1)
    d7ee:	8d6d                	and	a0,a0,a1
    d7f0:	00a03533          	snez	a0,a0
    d7f4:	8082                	ret
C:/Repository/RISKYKVM/firmware/src/Peripheral/src/ch32v20x_tim.c:2133
    {
        bitstatus = SET;
    }
    else
    {
        bitstatus = RESET;
    d7f6:	4501                	li	a0,0
C:/Repository/RISKYKVM/firmware/src/Peripheral/src/ch32v20x_tim.c:2137
    }

    return bitstatus;
}
    d7f8:	8082                	ret

0000d7fa <TIM_ClearITPendingBit>:
TIM_ClearITPendingBit():
    d7fa:	fff5c593          	not	a1,a1
    d7fe:	05c2                	slli	a1,a1,0x10
    d800:	81c1                	srli	a1,a1,0x10
    d802:	00b51823          	sh	a1,16(a0)
    d806:	8082                	ret

0000d808 <Delay_Init>:
Delay_Init():
C:/Repository/RISKYKVM/firmware/src/Debug/debug.c:26
 *
 * @return  none
 */
void Delay_Init(void)
{
    p_us = SystemCoreClock / 8000000;
    d808:	200007b7          	lui	a5,0x20000
    d80c:	0047a783          	lw	a5,4(a5) # 20000004 <SystemCoreClock>
    d810:	007a1737          	lui	a4,0x7a1
    d814:	20070713          	addi	a4,a4,512 # 7a1200 <_data_lma+0x793768>
    d818:	02e7d7b3          	divu	a5,a5,a4
C:/Repository/RISKYKVM/firmware/src/Debug/debug.c:27
    p_ms = (uint16_t)p_us * 1000;
    d81c:	3e800713          	li	a4,1000
C:/Repository/RISKYKVM/firmware/src/Debug/debug.c:26
    p_us = SystemCoreClock / 8000000;
    d820:	0ff7f793          	andi	a5,a5,255
C:/Repository/RISKYKVM/firmware/src/Debug/debug.c:27
    p_ms = (uint16_t)p_us * 1000;
    d824:	02e78733          	mul	a4,a5,a4
C:/Repository/RISKYKVM/firmware/src/Debug/debug.c:26
    p_us = SystemCoreClock / 8000000;
    d828:	88f18323          	sb	a5,-1914(gp) # 20000086 <p_us>
C:/Repository/RISKYKVM/firmware/src/Debug/debug.c:27
    p_ms = (uint16_t)p_us * 1000;
    d82c:	88e19223          	sh	a4,-1916(gp) # 20000084 <p_ms>
C:/Repository/RISKYKVM/firmware/src/Debug/debug.c:28
}
    d830:	8082                	ret

0000d832 <Delay_Us>:
Delay_Us():
C:/Repository/RISKYKVM/firmware/src/Debug/debug.c:43
 */
void Delay_Us(uint32_t n)
{
    uint32_t i;

    SysTick->SR &= ~(1 << 0);
    d832:	e000f7b7          	lui	a5,0xe000f
    d836:	43d8                	lw	a4,4(a5)
C:/Repository/RISKYKVM/firmware/src/Debug/debug.c:46
    i = (uint32_t)n * p_us;

    SysTick->CMP = i;
    d838:	4681                	li	a3,0
C:/Repository/RISKYKVM/firmware/src/Debug/debug.c:43
    SysTick->SR &= ~(1 << 0);
    d83a:	9b79                	andi	a4,a4,-2
    d83c:	c3d8                	sw	a4,4(a5)
C:/Repository/RISKYKVM/firmware/src/Debug/debug.c:44
    i = (uint32_t)n * p_us;
    d83e:	8861c583          	lbu	a1,-1914(gp) # 20000086 <p_us>
C:/Repository/RISKYKVM/firmware/src/Debug/debug.c:50
    SysTick->CTLR |= (1 << 4);
    SysTick->CTLR |= (1 << 5) | (1 << 0);

    while((SysTick->SR & (1 << 0)) != (1 << 0));
    d842:	e000f737          	lui	a4,0xe000f
C:/Repository/RISKYKVM/firmware/src/Debug/debug.c:46
    SysTick->CMP = i;
    d846:	02a58633          	mul	a2,a1,a0
    d84a:	cb90                	sw	a2,16(a5)
    d84c:	cbd4                	sw	a3,20(a5)
C:/Repository/RISKYKVM/firmware/src/Debug/debug.c:47
    SysTick->CTLR |= (1 << 4);
    d84e:	4394                	lw	a3,0(a5)
    d850:	0106e693          	ori	a3,a3,16
    d854:	c394                	sw	a3,0(a5)
C:/Repository/RISKYKVM/firmware/src/Debug/debug.c:48
    SysTick->CTLR |= (1 << 5) | (1 << 0);
    d856:	4394                	lw	a3,0(a5)
    d858:	0216e693          	ori	a3,a3,33
    d85c:	c394                	sw	a3,0(a5)
C:/Repository/RISKYKVM/firmware/src/Debug/debug.c:50 (discriminator 1)
    while((SysTick->SR & (1 << 0)) != (1 << 0));
    d85e:	435c                	lw	a5,4(a4)
    d860:	8b85                	andi	a5,a5,1
    d862:	dff5                	beqz	a5,d85e <Delay_Us+0x2c>
C:/Repository/RISKYKVM/firmware/src/Debug/debug.c:51
    SysTick->CTLR &= ~(1 << 0);
    d864:	431c                	lw	a5,0(a4)
    d866:	9bf9                	andi	a5,a5,-2
    d868:	c31c                	sw	a5,0(a4)
C:/Repository/RISKYKVM/firmware/src/Debug/debug.c:52
}
    d86a:	8082                	ret

0000d86c <Delay_Ms>:
Delay_Ms():
C:/Repository/RISKYKVM/firmware/src/Debug/debug.c:67
 */
void Delay_Ms(uint32_t n)
{
    uint32_t i;

    SysTick->SR &= ~(1 << 0);
    d86c:	e000f7b7          	lui	a5,0xe000f
    d870:	43d8                	lw	a4,4(a5)
C:/Repository/RISKYKVM/firmware/src/Debug/debug.c:70
    i = (uint32_t)n * p_ms;

    SysTick->CMP = i;
    d872:	4681                	li	a3,0
C:/Repository/RISKYKVM/firmware/src/Debug/debug.c:67
    SysTick->SR &= ~(1 << 0);
    d874:	9b79                	andi	a4,a4,-2
    d876:	c3d8                	sw	a4,4(a5)
C:/Repository/RISKYKVM/firmware/src/Debug/debug.c:68
    i = (uint32_t)n * p_ms;
    d878:	8841d583          	lhu	a1,-1916(gp) # 20000084 <p_ms>
C:/Repository/RISKYKVM/firmware/src/Debug/debug.c:74
    SysTick->CTLR |= (1 << 4);
    SysTick->CTLR |= (1 << 5) | (1 << 0);

    while((SysTick->SR & (1 << 0)) != (1 << 0));
    d87c:	e000f737          	lui	a4,0xe000f
C:/Repository/RISKYKVM/firmware/src/Debug/debug.c:70
    SysTick->CMP = i;
    d880:	02a58633          	mul	a2,a1,a0
    d884:	cb90                	sw	a2,16(a5)
    d886:	cbd4                	sw	a3,20(a5)
C:/Repository/RISKYKVM/firmware/src/Debug/debug.c:71
    SysTick->CTLR |= (1 << 4);
    d888:	4394                	lw	a3,0(a5)
    d88a:	0106e693          	ori	a3,a3,16
    d88e:	c394                	sw	a3,0(a5)
C:/Repository/RISKYKVM/firmware/src/Debug/debug.c:72
    SysTick->CTLR |= (1 << 5) | (1 << 0);
    d890:	4394                	lw	a3,0(a5)
    d892:	0216e693          	ori	a3,a3,33
    d896:	c394                	sw	a3,0(a5)
C:/Repository/RISKYKVM/firmware/src/Debug/debug.c:74 (discriminator 1)
    while((SysTick->SR & (1 << 0)) != (1 << 0));
    d898:	435c                	lw	a5,4(a4)
    d89a:	8b85                	andi	a5,a5,1
    d89c:	dff5                	beqz	a5,d898 <Delay_Ms+0x2c>
C:/Repository/RISKYKVM/firmware/src/Debug/debug.c:75
    SysTick->CTLR &= ~(1 << 0);
    d89e:	431c                	lw	a5,0(a4)
    d8a0:	9bf9                	andi	a5,a5,-2
    d8a2:	c31c                	sw	a5,0(a4)
C:/Repository/RISKYKVM/firmware/src/Debug/debug.c:76
}
    d8a4:	8082                	ret

0000d8a6 <memchr>:
memchr():
    d8a6:	0ff5f593          	andi	a1,a1,255
    d8aa:	962a                	add	a2,a2,a0
    d8ac:	00c51463          	bne	a0,a2,d8b4 <memchr+0xe>
    d8b0:	4501                	li	a0,0
    d8b2:	8082                	ret
    d8b4:	00054783          	lbu	a5,0(a0)
    d8b8:	feb78de3          	beq	a5,a1,d8b2 <memchr+0xc>
    d8bc:	0505                	addi	a0,a0,1
    d8be:	b7fd                	j	d8ac <memchr+0x6>

0000d8c0 <memcpy>:
memcpy():
    d8c0:	00a5c7b3          	xor	a5,a1,a0
    d8c4:	8b8d                	andi	a5,a5,3
    d8c6:	00c50733          	add	a4,a0,a2
    d8ca:	e781                	bnez	a5,d8d2 <memcpy+0x12>
    d8cc:	478d                	li	a5,3
    d8ce:	00c7ee63          	bltu	a5,a2,d8ea <memcpy+0x2a>
    d8d2:	87aa                	mv	a5,a0
    d8d4:	0ae57063          	bgeu	a0,a4,d974 <memcpy+0xb4>
    d8d8:	0005c683          	lbu	a3,0(a1)
    d8dc:	0785                	addi	a5,a5,1
    d8de:	0585                	addi	a1,a1,1
    d8e0:	fed78fa3          	sb	a3,-1(a5) # e000efff <_eusrstack+0xc0009fff>
    d8e4:	fee7eae3          	bltu	a5,a4,d8d8 <memcpy+0x18>
    d8e8:	8082                	ret
    d8ea:	00357693          	andi	a3,a0,3
    d8ee:	87aa                	mv	a5,a0
    d8f0:	ca91                	beqz	a3,d904 <memcpy+0x44>
    d8f2:	0005c683          	lbu	a3,0(a1)
    d8f6:	0785                	addi	a5,a5,1
    d8f8:	0585                	addi	a1,a1,1
    d8fa:	fed78fa3          	sb	a3,-1(a5)
    d8fe:	0037f693          	andi	a3,a5,3
    d902:	b7fd                	j	d8f0 <memcpy+0x30>
    d904:	ffc77693          	andi	a3,a4,-4
    d908:	fe068613          	addi	a2,a3,-32
    d90c:	06c7f063          	bgeu	a5,a2,d96c <memcpy+0xac>
    d910:	0005a383          	lw	t2,0(a1)
    d914:	0045a283          	lw	t0,4(a1)
    d918:	0085af83          	lw	t6,8(a1)
    d91c:	00c5af03          	lw	t5,12(a1)
    d920:	0105ae83          	lw	t4,16(a1)
    d924:	0145ae03          	lw	t3,20(a1)
    d928:	0185a303          	lw	t1,24(a1)
    d92c:	01c5a883          	lw	a7,28(a1)
    d930:	02458593          	addi	a1,a1,36
    d934:	0077a023          	sw	t2,0(a5)
    d938:	ffc5a803          	lw	a6,-4(a1)
    d93c:	0057a223          	sw	t0,4(a5)
    d940:	01f7a423          	sw	t6,8(a5)
    d944:	01e7a623          	sw	t5,12(a5)
    d948:	01d7a823          	sw	t4,16(a5)
    d94c:	01c7aa23          	sw	t3,20(a5)
    d950:	0067ac23          	sw	t1,24(a5)
    d954:	0117ae23          	sw	a7,28(a5)
    d958:	02478793          	addi	a5,a5,36
    d95c:	ff07ae23          	sw	a6,-4(a5)
    d960:	b775                	j	d90c <memcpy+0x4c>
    d962:	4190                	lw	a2,0(a1)
    d964:	0791                	addi	a5,a5,4
    d966:	0591                	addi	a1,a1,4
    d968:	fec7ae23          	sw	a2,-4(a5)
    d96c:	fed7ebe3          	bltu	a5,a3,d962 <memcpy+0xa2>
    d970:	f6e7e4e3          	bltu	a5,a4,d8d8 <memcpy+0x18>
    d974:	8082                	ret
    d976:	0000                	unimp
    d978:	ac2c                	fsd	fa1,88(s0)
    d97a:	0000                	unimp
    d97c:	ac1e                	fsd	ft7,24(sp)
    d97e:	0000                	unimp
    d980:	ac06                	fsd	ft1,24(sp)
    d982:	0000                	unimp
    d984:	aa80                	fsd	fs0,16(a3)
    d986:	0000                	unimp
    d988:	aa80                	fsd	fs0,16(a3)
    d98a:	0000                	unimp
    d98c:	aa80                	fsd	fs0,16(a3)
    d98e:	0000                	unimp
    d990:	aa80                	fsd	fs0,16(a3)
    d992:	0000                	unimp
    d994:	ac4c                	fsd	fa1,152(s0)
    d996:	0000                	unimp
    d998:	ac14                	fsd	fa3,24(s0)
    d99a:	0000                	unimp
    d99c:	abfa                	fsd	ft10,464(sp)
    d99e:	0000                	unimp
    d9a0:	ab4a                	fsd	fs2,400(sp)
    d9a2:	0000                	unimp
    d9a4:	aa80                	fsd	fs0,16(a3)
    d9a6:	0000                	unimp
    d9a8:	ab2e                	fsd	fa1,400(sp)
    d9aa:	0000                	unimp
    d9ac:	aa80                	fsd	fs0,16(a3)
    d9ae:	0000                	unimp
    d9b0:	abb6                	fsd	fa3,464(sp)
	...

0000d9b4 <scancodeamiga>:
    d9b4:	0035 011e 021f 0320 0421 0522 0623 0724     5..... .!.".#.$.
    d9c4:	0825 0926 0a27 0b2d 0c2e 0d31 0d64 0f62     %.&.'.-...1.d.b.
    d9d4:	1014 111a 1208 1315 1417 151c 1618 170c     ................
    d9e4:	1812 1913 1a2f 1b30 1d59 1e5a 1f5b 2004     ..../.0.Y.Z.[.. 
    d9f4:	2116 2207 2309 240a 250b 260d 270e 280f     .!.".#.$.%.&.'.(
    da04:	2933 2a34 4428 2d5c 2e5d 2f5e 3088 311d     3)4*(D\-].^/.0.1
    da14:	321b 3306 3419 3505 3611 3710 3836 3885     .2.3.4.5.6.768.8
    da24:	3937 3a38 3d5f 3e60 3f61 402c 412a 422b     798:_=`>a?,@*A+B
    da34:	4358 2b9e 4529 464c 4a56 4c52 4d51 4e4f     XC.+)ELFVJRLQMON
    da44:	4f50 503a 513b 523c 533d 543e 553f 5640     PO:P;Q<R=S>T?U@V
    da54:	5741 5842 5943 5a4a 5b4d 5c54 5d55 5e57     AWBXCYJZM[T\U]W^
    da64:	5f45 60e1 61e5 6239 63e0 64e2 65e6 66e3     E_.`.a9b.c.d.e.f
    da74:	67e7 67e4 5f65 3c63 6853 0e46 1c47 2c48     .g.ge_c<ShF.G.H,
    da84:	3f4b 1f4e 4b49 5b00 6a00 6b00 6c00 6d00     K?N.IK.[.j.k.l.m
    da94:	6e00 6f00                                   .n.o
