
RISKYKVM.elf:     file format elf32-littleriscv
RISKYKVM.elf
architecture: riscv:rv32, flags 0x00000112:
EXEC_P, HAS_SYMS, D_PAGED
start address 0x00000000

Program Header:
    LOAD off    0x00001000 vaddr 0x00000000 paddr 0x00000000 align 2**12
         filesz 0x00004250 memsz 0x00004250 flags r-x
    LOAD off    0x00006000 vaddr 0x20000000 paddr 0x00004250 align 2**12
         filesz 0x00000070 memsz 0x00001ba4 flags rw-
    LOAD off    0x00006800 vaddr 0x20004800 paddr 0x20004800 align 2**12
         filesz 0x00000000 memsz 0x00000800 flags rw-

Sections:
Idx Name           Size      VMA       LMA       File off  Algn  Flags
  0 .init          00000038  00000000  00000000  00001000  2**1  CONTENTS, ALLOC, LOAD, READONLY, CODE
  1 .vector        00000108  00000038  00000038  00001038  2**1  CONTENTS, ALLOC, LOAD, READONLY, CODE
  2 .text          00004110  00000140  00000140  00001140  2**2  CONTENTS, ALLOC, LOAD, READONLY, CODE
  3 .fini          00000000  00004250  00004250  00006070  2**0  CONTENTS, ALLOC, LOAD, CODE
  4 .dalign        00000000  20000000  20000000  00006070  2**0  CONTENTS
  5 .dlalign       00000000  00004250  00004250  00006070  2**0  CONTENTS
  6 .data          00000070  20000000  00004250  00006000  2**2  CONTENTS, ALLOC, LOAD, DATA
  7 .bss           00001b34  20000070  000042c0  00006070  2**2  ALLOC
  8 .stack         00000800  20004800  20004800  00006800  2**0  ALLOC
  9 .debug_info    0001d496  00000000  00000000  00006070  2**0  CONTENTS, READONLY, DEBUGGING
 10 .debug_abbrev  000046f0  00000000  00000000  00023506  2**0  CONTENTS, READONLY, DEBUGGING
 11 .debug_loc     00006322  00000000  00000000  00027bf6  2**0  CONTENTS, READONLY, DEBUGGING
 12 .debug_aranges 000009a0  00000000  00000000  0002df18  2**3  CONTENTS, READONLY, DEBUGGING
 13 .debug_ranges  00000ac0  00000000  00000000  0002e8b8  2**3  CONTENTS, READONLY, DEBUGGING
 14 .debug_line    0001203b  00000000  00000000  0002f378  2**0  CONTENTS, READONLY, DEBUGGING
 15 .debug_str     00003a7d  00000000  00000000  000413b3  2**0  CONTENTS, READONLY, DEBUGGING
 16 .comment       00000033  00000000  00000000  00044e30  2**0  CONTENTS, READONLY
 17 .debug_frame   000017e0  00000000  00000000  00044e64  2**2  CONTENTS, READONLY, DEBUGGING
SYMBOL TABLE:
00000000 l    d  .init	00000000 .init
00000038 l    d  .vector	00000000 .vector
00000140 l    d  .text	00000000 .text
00004250 l    d  .fini	00000000 .fini
20000000 l    d  .dalign	00000000 .dalign
00004250 l    d  .dlalign	00000000 .dlalign
20000000 l    d  .data	00000000 .data
20000070 l    d  .bss	00000000 .bss
20004800 l    d  .stack	00000000 .stack
00000000 l    d  .debug_info	00000000 .debug_info
00000000 l    d  .debug_abbrev	00000000 .debug_abbrev
00000000 l    d  .debug_loc	00000000 .debug_loc
00000000 l    d  .debug_aranges	00000000 .debug_aranges
00000000 l    d  .debug_ranges	00000000 .debug_ranges
00000000 l    d  .debug_line	00000000 .debug_line
00000000 l    d  .debug_str	00000000 .debug_str
00000000 l    d  .comment	00000000 .comment
00000000 l    d  .debug_frame	00000000 .debug_frame
00000000 l    df *ABS*	00000000 ./Startup/startup_ch32v20x_D6.o
00000038 l       .vector	00000000 _vector_base
00000000 l    df *ABS*	00000000 app_km.c
00000000 l    df *ABS*	00000000 ch32v20x_usbfs_host.c
00001644 l     F .text	00000032 USBFSH_SetSelfSpeed.part.0
20000008 l     O .data	00000008 SetupClearEndpStall
20000010 l     O .data	00000008 SetupGetCfgDesc
20000018 l     O .data	00000008 SetupGetDevDesc
20000020 l     O .data	00000008 SetupGetStrDesc
20000028 l     O .data	00000008 SetupSetAddr
20000030 l     O .data	00000008 SetupSetConfig
00000000 l    df *ABS*	00000000 usb_gamepad.c
20000088 l     O .bss	00000040 gamepad_report_data
00000000 l    df *ABS*	00000000 usb_hid_reportparser.c
00000000 l    df *ABS*	00000000 usb_host_hid.c
20000038 l     O .data	00000008 SetupGetHidDes
20000040 l     O .data	00000008 SetupSetReport
20000048 l     O .data	00000008 SetupSetidle
00000000 l    df *ABS*	00000000 usb_host_hub.c
20000050 l     O .data	00000008 ClearPortFeature
20000058 l     O .data	00000008 GetHubDescr
20000060 l     O .data	00000008 GetPortStatus
20000068 l     O .data	00000008 SetPortFeature
00000000 l    df *ABS*	00000000 usb_keyboard.c
00000000 l    df *ABS*	00000000 usb_mouse.c
00000000 l    df *ABS*	00000000 ch32v20x_it.c
00000000 l    df *ABS*	00000000 gamepad.c
00000000 l    df *ABS*	00000000 gpio.c
00000000 l    df *ABS*	00000000 keyboard.c
00002a9a l     F .text	0000002c scancode_to_amiga
00002ac6 l     F .text	000001aa amikb_send
200000c8 l     O .bss	0000000e prevkeycode
0000416c l     O .text	000000e4 scancodeamiga
20000070 l     O .bss	00000001 capslk
20000072 l     O .bss	00000001 numlk
20000073 l     O .bss	00000001 scrolllk
20000000 l     O .data	00000001 prev_keycode
00000000 l    df *ABS*	00000000 main.c
00000000 l    df *ABS*	00000000 mouse.c
00000000 l    df *ABS*	00000000 system_ch32v20x.c
00000000 l    df *ABS*	00000000 tim.c
00000000 l    df *ABS*	00000000 utils.c
00000000 l    df *ABS*	00000000 ch32v20x_exti.c
00000000 l    df *ABS*	00000000 ch32v20x_gpio.c
00000000 l    df *ABS*	00000000 ch32v20x_misc.c
00000000 l    df *ABS*	00000000 ch32v20x_rcc.c
00000000 l    df *ABS*	00000000 ch32v20x_tim.c
00000000 l    df *ABS*	00000000 debug.c
20000084 l     O .bss	00000002 p_ms
20000086 l     O .bss	00000001 p_us
00000000 l    df *ABS*	00000000 memchr.c
00000000 l    df *ABS*	00000000 memcpy.c
00003ad0  w      .text	00000000 EXTI2_IRQHandler
20001ae4 g     O .bss	00000010 keybd_report_data
20000800 g       .data	00000000 __global_pointer$
00003af6  w      .text	00000000 TIM1_CC_IRQHandler
000027de g     F .text	00000002 HardFault_Handler
000027c0 g     F .text	0000001a USB_GetMouseInfo
00001d3a g     F .text	00000020 USBFSH_ClearEndpStall
20001af4 g     O .bss	0000000e keybd_info
00000d2e g     F .text	00000036 HUB_CheckPortSpeed
00003abc  w      .text	00000000 SysTick_Handler
00003dc2 g     F .text	000000b8 NVIC_Init
00003976 g     F .text	00000070 FifoWrite
00001db4 g     F .text	0000004c USBFSH_SendEndpData
00003ac2  w      .text	00000000 PVD_IRQHandler
00001cd6 g     F .text	00000044 USBFSH_SetUsbAddress
000038fc g     F .text	00000018 FifoInit
000027da g     F .text	00000004 NMI_Handler
00003ad2  w      .text	00000000 EXTI3_IRQHandler
00002cc8 g     F .text	000001ee amikb_process
00001676 g     F .text	00000046 USBFS_RCC_Init
00001bc2 g     F .text	0000009a USBFSH_GetConfigDescr
20001a60 g     O .bss	00000040 USBFS_RX_Buf
20000070 g       .bss	00000000 _sbss
00000800 g       *ABS*	00000000 __stack_size
200000d8 g     O .bss	00001554 HostCtl
0000038c g     F .text	00000048 USBH_AnalyseType
00001d1a g     F .text	00000020 USBFSH_SetUsbConfig
20001b04 g     O .bss	0000000a mouse_info
20000076 g     O .bss	00000002 mouseDistanceX
000027fa g     F .text	000000a2 ProcessGamepad
0000407a g     F .text	000000b6 memcpy
00003850 g     F .text	0000006c TIM4_Init
00002438 g     F .text	0000002c HID_GetHidDesr
00003acc  w      .text	00000000 EXTI0_IRQHandler
00003b02  w      .text	00000000 I2C2_EV_IRQHandler
00003f6e g     F .text	0000001c TIM_Cmd
00002464 g     F .text	00000024 HID_SetReport
20000075 g     O .bss	00000001 mouseDirectionY
20000004 g     O .data	00000004 SystemCoreClock
20000002 g     O .data	00000001 yTimerTop
20001ae0 g     O .bss	00000002 gamepad_info
2000007c g     O .bss	00000001 previousMMB
00000038 g       .init	00000000 _einit
00003fbc g     F .text	0000000e TIM_ClearITPendingBit
00003eb2 g     F .text	0000001e RCC_APB2PeriphClockCmd
00003ae4  w      .text	00000000 ADC1_2_IRQHandler
00003c3a g     F .text	000000f8 GPIO_Init
00003aba  w      .text	00000000 Break_Point_Handler
20000080 g     O .bss	00000004 NVIC_Priority_Group
00003b06  w      .text	00000000 SPI1_IRQHandler
00003ac4  w      .text	00000000 TAMPER_IRQHandler
00003d82 g     F .text	00000014 GPIO_Write
00000d64 g     F .text	0000010e USBH_EnumHubPortDevice
00003d4c g     F .text	0000001c GPIO_ReadOutputData
00002012 g     F .text	00000030 report_is_usable
00003ed0 g     F .text	0000001e RCC_APB1PeriphClockCmd
00003ab6  w      .text	00000000 Ecall_M_Mode_Handler
20004800 g       .stack	00000000 _heap_end
2000162c g     O .bss	00000012 DevDesc_Buf
00003ff4 g     F .text	00000036 Delay_Us
00003e94 g     F .text	0000001e RCC_AHBPeriphClockCmd
00003adc  w      .text	00000000 DMA1_Channel4_IRQHandler
00003b0e  w      .text	00000000 USART3_IRQHandler
00003c30 g     F .text	0000000a EXTI_ClearITPendingBit
00003ac6  w      .text	00000000 RTC_IRQHandler
20001ba4 g       .bss	00000000 _ebss
2000007a g     O .bss	00000001 mouseEncoderPhaseX
000024b4 g     F .text	00000030 HUB_GetPortStatus
00003ae2  w      .text	00000000 DMA1_Channel7_IRQHandler
0000090e g     F .text	000000e4 KM_DealHidReportDesc
00003aea  w      .text	00000000 CAN1_RX1_IRQHandler
00003fca g     F .text	0000002a Delay_Init
0000250a g     F .text	00000026 HUB_SetPortFeature
000038d6 g     F .text	00000026 TIM4_IRQHandler
00003d68 g     F .text	0000001a GPIO_WriteBit
0000262e g     F .text	00000192 USB_MouseDecode
00001ff8 g     F .text	0000001a GetGamepadInfo
20000074 g     O .bss	00000001 mouseDirectionX
00003afe  w      .text	00000000 I2C1_EV_IRQHandler
00003fa0 g     F .text	0000001c TIM_GetITStatus
00003b16  w      .text	00000000 USBHD_IRQHandler
20001640 g     O .bss	0000001f RootHubDev
20000071 g     O .bss	00000001 i
000003d4 g     F .text	0000013e USBH_EnumRootDevice
00003ae0  w      .text	00000000 DMA1_Channel6_IRQHandler
20001b10 g     O .bss	00000008 mouse_report_data
00003b1a  w      .text	00000000 UART4_IRQHandler
00004060 g     F .text	0000001a memchr
00000268 g     F .text	00000124 TIM3_IRQHandler
00003aca  w      .text	00000000 RCC_IRQHandler
00003af4  w      .text	00000000 TIM1_TRG_COM_IRQHandler
00000764 g     F .text	000001aa KM_AnalyzeHidReportDesc
00003ad6  w      .text	00000000 DMA1_Channel1_IRQHandler
00000000 g       .init	00000000 _start
20001660 g     O .bss	00000400 Com_Buf
00000e72 g     F .text	000000d4 KB_AnalyzeKeyValue
000027e0 g     F .text	0000001a EXTI15_10_IRQHandler
00003f8a g     F .text	00000016 TIM_ITConfig
00003ba8 g     F .text	0000006a EXTI_Init
00000bd0 g     F .text	0000009c HUB_Port_PreEnum1
00000fea g     F .text	000000de USBH_EnumHidDevice
00003b1c  w      .text	00000000 DMA1_Channel8_IRQHandler
20000000 g       .dalign	00000000 _data_vma
2000007d g     O .bss	00000001 MCU_Version
0000177a g     F .text	00000032 USBFSH_SetSelfSpeed
000010c8 g     F .text	0000057c USBH_MainDeal
00003aee  w      .text	00000000 EXTI9_5_IRQHandler
20000001 g     O .data	00000001 xTimerTop
0000258e g     F .text	000000a0 USBH_HID_GetKeyboardInfo
00003d96 g     F .text	0000002c GPIO_EXTILineConfig
00003054 g     F .text	00000102 processMouseMovement
00003c12 g     F .text	0000001e EXTI_GetITStatus
00003b08  w      .text	00000000 SPI2_IRQHandler
00003048 g     F .text	0000000c InitMouse
00003156 g     F .text	000001ce ProcessMouse
00000140 g     F .text	000000a8 memset
00002eb6 g     F .text	00000192 main
000001e8 g     F .text	00000080 TIM3_Init
000039e6 g     F .text	000000cc collect_bits
00001810 g     F .text	00000050 USBFSH_EnableRootHubPort
00003464 g     F .text	00000140 ProcessY_IRQ
00003ade  w      .text	00000000 DMA1_Channel5_IRQHandler
00003e7a g     F .text	0000001a RCC_USBCLKConfig
00003ad4  w      .text	00000000 EXTI4_IRQHandler
0000402a g     F .text	00000036 Delay_Ms
00003ae8  w      .text	00000000 USB_LP_CAN1_RX0_IRQHandler
00003324 g     F .text	00000140 ProcessX_IRQ
00001c5c g     F .text	0000007a USBFSH_GetStrDescr
00003744 g     F .text	000000a8 SystemInit
00003ae6  w      .text	00000000 USB_HP_CAN1_TX_IRQHandler
00000000 g       .init	00000000 _sinit
20001aa0 g     O .bss	00000040 USBFS_TX_Buf
00000512 g     F .text	00000252 KM_AnalyzeConfigDesc
00003b18  w      .text	00000000 USBHDWakeUp_IRQHandler
00003ada  w      .text	00000000 DMA1_Channel3_IRQHandler
00003af2  w      .text	00000000 TIM1_UP_IRQHandler
00002c70 g     F .text	00000058 amikb_reset
2000007b g     O .bss	00000001 mouseEncoderPhaseY
00001b6a g     F .text	00000058 USBFSH_GetDeviceDescr
00001d5a g     F .text	0000005a USBFSH_GetEndpData
00003ac0  w      .text	00000000 WWDG_IRQHandler
000024e4 g     F .text	00000026 HUB_ClearPortFeature
00003ab8  w      .text	00000000 Ecall_U_Mode_Handler
000038bc g     F .text	0000001a TIM2_IRQHandler
20005000 g       .stack	00000000 _eusrstack
00001750 g     F .text	00000012 USBFSH_CheckRootHubPortSpeed
00003abe  w      .text	00000000 SW_Handler
00002530 g     F .text	0000005e HUB_GetClassDevDescr
20000078 g     O .bss	00000002 mouseDistanceY
000009f2 g     F .text	000000d4 HUB_AnalyzeConfigDesc
00003af0  w      .text	00000000 TIM1_BRK_IRQHandler
0000171a g     F .text	00000036 USBFSH_CheckRootHubPortStatus
00003ace  w      .text	00000000 EXTI1_IRQHandler
20000070 g       .data	00000000 _edata
20001b18 g     O .bss	0000008c ScrollBuffer
20001ba4 g       .bss	00000000 _end
00003914 g     F .text	00000062 FifoRead
00003eee g     F .text	00000080 TIM_TimeBaseInit
00003b12  w      .text	00000000 RTCAlarm_IRQHandler
00000c6c g     F .text	000000c2 HUB_Port_PreEnum2
00004250 g       .dlalign	00000000 _data_lma
000016bc g     F .text	0000005e USBFS_Host_Init
00002488 g     F .text	0000002c HID_SetIdle
00003b0c  w      .text	00000000 USART2_IRQHandler
000017ac g     F .text	00000064 USBFSH_ResetRootHubPort
00003b04  w      .text	00000000 I2C2_ER_IRQHandler
00000f46 g     F .text	000000a4 KB_SetReport
00003ad8  w      .text	00000000 DMA1_Channel2_IRQHandler
0000289c g     F .text	000001fe GPIO_Config
00003b1e  w      .text	00000000 handle_reset
00003aec  w      .text	00000000 CAN1_SCE_IRQHandler
00003ac8  w      .text	00000000 FLASH_IRQHandler
00000ac6 g     F .text	0000010a USBH_EnumHubDevice
000037ec g     F .text	00000064 TIM2_Init
00003b0a  w      .text	00000000 USART1_IRQHandler
00001762 g     F .text	00000018 USBFSH_SetSelfAddr
000035a4 g     F .text	000001a0 ProcessScrollIRQ
00003b00  w      .text	00000000 I2C1_ER_IRQHandler
00001860 g     F .text	00000130 USBFSH_Transact
00002042 g     F .text	000003f6 parse_report_descriptor
00003d32 g     F .text	0000001a GPIO_ReadInputDataBit
00003b14  w      .text	00000000 USBWakeUp_IRQHandler
00001e00 g     F .text	000001f8 GamepadDecode
00001990 g     F .text	000001da USBFSH_CtrlTransfer



Disassembly of section .init:

00000000 <_sinit>:
_start():
C:/Repository/RISKYKVM/firmware/src/Startup/startup_ch32v20x_D6.S:18

	.section	.init,"ax",@progbits
	.global	_start
	.align	1
_start:
	j	handle_reset
   0:	31f0306f          	j	3b1e <handle_reset>
   4:	00000013          	nop
   8:	00000013          	nop
   c:	00000013          	nop
  10:	00000013          	nop
  14:	00000013          	nop
  18:	00000013          	nop
  1c:	00000013          	nop
  20:	00000013          	nop
  24:	00000013          	nop
  28:	00000013          	nop
  2c:	00000013          	nop
  30:	00000013          	nop
  34:	00100073          	ebreak

Disassembly of section .vector:

00000038 <_vector_base>:
	...
_vector_base():
  40:	27da                	fld	fa5,400(sp)
  42:	0000                	unimp
  44:	27de                	fld	fa5,464(sp)
  46:	0000                	unimp
  48:	0000                	unimp
  4a:	0000                	unimp
  4c:	3ab6                	fld	fs5,360(sp)
	...
  56:	0000                	unimp
  58:	3ab8                	fld	fa4,112(a3)
  5a:	0000                	unimp
  5c:	3aba                	fld	fs5,424(sp)
	...
  66:	0000                	unimp
  68:	3abc                	fld	fa5,112(a3)
  6a:	0000                	unimp
  6c:	0000                	unimp
  6e:	0000                	unimp
  70:	3abe                	fld	fs5,488(sp)
  72:	0000                	unimp
  74:	0000                	unimp
  76:	0000                	unimp
  78:	3ac0                	fld	fs0,176(a3)
  7a:	0000                	unimp
  7c:	3ac2                	fld	fs5,48(sp)
  7e:	0000                	unimp
  80:	3ac4                	fld	fs1,176(a3)
  82:	0000                	unimp
  84:	3ac6                	fld	fs5,112(sp)
  86:	0000                	unimp
  88:	3ac8                	fld	fa0,176(a3)
  8a:	0000                	unimp
  8c:	3aca                	fld	fs5,176(sp)
  8e:	0000                	unimp
  90:	3acc                	fld	fa1,176(a3)
  92:	0000                	unimp
  94:	3ace                	fld	fs5,240(sp)
  96:	0000                	unimp
  98:	3ad0                	fld	fa2,176(a3)
  9a:	0000                	unimp
  9c:	3ad2                	fld	fs5,304(sp)
  9e:	0000                	unimp
  a0:	3ad4                	fld	fa3,176(a3)
  a2:	0000                	unimp
  a4:	3ad6                	fld	fs5,368(sp)
  a6:	0000                	unimp
  a8:	3ad8                	fld	fa4,176(a3)
  aa:	0000                	unimp
  ac:	3ada                	fld	fs5,432(sp)
  ae:	0000                	unimp
  b0:	3adc                	fld	fa5,176(a3)
  b2:	0000                	unimp
  b4:	3ade                	fld	fs5,496(sp)
  b6:	0000                	unimp
  b8:	3ae0                	fld	fs0,240(a3)
  ba:	0000                	unimp
  bc:	3ae2                	fld	fs5,56(sp)
  be:	0000                	unimp
  c0:	3ae4                	fld	fs1,240(a3)
  c2:	0000                	unimp
  c4:	3ae6                	fld	fs5,120(sp)
  c6:	0000                	unimp
  c8:	3ae8                	fld	fa0,240(a3)
  ca:	0000                	unimp
  cc:	3aea                	fld	fs5,184(sp)
  ce:	0000                	unimp
  d0:	3aec                	fld	fa1,240(a3)
  d2:	0000                	unimp
  d4:	3aee                	fld	fs5,248(sp)
  d6:	0000                	unimp
  d8:	3af0                	fld	fa2,240(a3)
  da:	0000                	unimp
  dc:	3af2                	fld	fs5,312(sp)
  de:	0000                	unimp
  e0:	3af4                	fld	fa3,240(a3)
  e2:	0000                	unimp
  e4:	3af6                	fld	fs5,376(sp)
  e6:	0000                	unimp
  e8:	38bc                	fld	fa5,112(s1)
  ea:	0000                	unimp
  ec:	0268                	addi	a0,sp,268
  ee:	0000                	unimp
  f0:	38d6                	fld	fa7,368(sp)
  f2:	0000                	unimp
  f4:	3afe                	fld	fs5,504(sp)
  f6:	0000                	unimp
  f8:	3b00                	fld	fs0,48(a4)
  fa:	0000                	unimp
  fc:	3b02                	fld	fs6,32(sp)
  fe:	0000                	unimp
 100:	3b04                	fld	fs1,48(a4)
 102:	0000                	unimp
 104:	3b06                	fld	fs6,96(sp)
 106:	0000                	unimp
 108:	3b08                	fld	fa0,48(a4)
 10a:	0000                	unimp
 10c:	3b0a                	fld	fs6,160(sp)
 10e:	0000                	unimp
 110:	3b0c                	fld	fa1,48(a4)
 112:	0000                	unimp
 114:	3b0e                	fld	fs6,224(sp)
 116:	0000                	unimp
 118:	27e0                	fld	fs0,200(a5)
 11a:	0000                	unimp
 11c:	3b12                	fld	fs6,288(sp)
 11e:	0000                	unimp
 120:	3b14                	fld	fa3,48(a4)
 122:	0000                	unimp
 124:	3b16                	fld	fs6,352(sp)
 126:	0000                	unimp
 128:	3b18                	fld	fa4,48(a4)
 12a:	0000                	unimp
 12c:	3b1a                	fld	fs6,416(sp)
 12e:	0000                	unimp
 130:	3b1c                	fld	fa5,48(a4)
	...

Disassembly of section .text:

00000140 <memset>:
memset():
     140:	433d                	li	t1,15
     142:	872a                	mv	a4,a0
     144:	02c37363          	bgeu	t1,a2,16a <memset+0x2a>
     148:	00f77793          	andi	a5,a4,15
     14c:	efbd                	bnez	a5,1ca <memset+0x8a>
     14e:	e5ad                	bnez	a1,1b8 <memset+0x78>
     150:	ff067693          	andi	a3,a2,-16
     154:	8a3d                	andi	a2,a2,15
     156:	96ba                	add	a3,a3,a4
     158:	c30c                	sw	a1,0(a4)
     15a:	c34c                	sw	a1,4(a4)
     15c:	c70c                	sw	a1,8(a4)
     15e:	c74c                	sw	a1,12(a4)
     160:	0741                	addi	a4,a4,16
     162:	fed76be3          	bltu	a4,a3,158 <memset+0x18>
     166:	e211                	bnez	a2,16a <memset+0x2a>
     168:	8082                	ret
     16a:	40c306b3          	sub	a3,t1,a2
     16e:	068a                	slli	a3,a3,0x2
     170:	00000297          	auipc	t0,0x0
     174:	9696                	add	a3,a3,t0
     176:	00a68067          	jr	10(a3)
     17a:	00b70723          	sb	a1,14(a4)
     17e:	00b706a3          	sb	a1,13(a4)
     182:	00b70623          	sb	a1,12(a4)
     186:	00b705a3          	sb	a1,11(a4)
     18a:	00b70523          	sb	a1,10(a4)
     18e:	00b704a3          	sb	a1,9(a4)
     192:	00b70423          	sb	a1,8(a4)
     196:	00b703a3          	sb	a1,7(a4)
     19a:	00b70323          	sb	a1,6(a4)
     19e:	00b702a3          	sb	a1,5(a4)
     1a2:	00b70223          	sb	a1,4(a4)
     1a6:	00b701a3          	sb	a1,3(a4)
     1aa:	00b70123          	sb	a1,2(a4)
     1ae:	00b700a3          	sb	a1,1(a4)
     1b2:	00b70023          	sb	a1,0(a4)
     1b6:	8082                	ret
     1b8:	0ff5f593          	andi	a1,a1,255
     1bc:	00859693          	slli	a3,a1,0x8
     1c0:	8dd5                	or	a1,a1,a3
     1c2:	01059693          	slli	a3,a1,0x10
     1c6:	8dd5                	or	a1,a1,a3
     1c8:	b761                	j	150 <memset+0x10>
     1ca:	00279693          	slli	a3,a5,0x2
     1ce:	00000297          	auipc	t0,0x0
     1d2:	9696                	add	a3,a3,t0
     1d4:	8286                	mv	t0,ra
     1d6:	fa8680e7          	jalr	-88(a3)
     1da:	8096                	mv	ra,t0
     1dc:	17c1                	addi	a5,a5,-16
     1de:	8f1d                	sub	a4,a4,a5
     1e0:	963e                	add	a2,a2,a5
     1e2:	f8c374e3          	bgeu	t1,a2,16a <memset+0x2a>
     1e6:	b7a5                	j	14e <memset+0xe>

000001e8 <TIM3_Init>:
TIM3_Init():
C:/Repository/RISKYKVM/firmware/src/User/USB_Host/app_km.c:41
 *          psc - The specifies prescaler value.
 *
 * @return  none
 */
void TIM3_Init( uint16_t arr, uint16_t psc )
{
     1e8:	7179                	addi	sp,sp,-48
     1ea:	d422                	sw	s0,40(sp)
     1ec:	d226                	sw	s1,36(sp)
     1ee:	842e                	mv	s0,a1
     1f0:	84aa                	mv	s1,a0
C:/Repository/RISKYKVM/firmware/src/User/USB_Host/app_km.c:46
    TIM_TimeBaseInitTypeDef TIM_TimeBaseStructure = { 0 };
    NVIC_InitTypeDef NVIC_InitStructure = { 0 };

    /* Enable timer3 clock */
    RCC_APB1PeriphClockCmd( RCC_APB1Periph_TIM3, ENABLE );
     1f2:	4585                	li	a1,1
     1f4:	4509                	li	a0,2
C:/Repository/RISKYKVM/firmware/src/User/USB_Host/app_km.c:41
{
     1f6:	d606                	sw	ra,44(sp)
C:/Repository/RISKYKVM/firmware/src/User/USB_Host/app_km.c:42
    TIM_TimeBaseInitTypeDef TIM_TimeBaseStructure = { 0 };
     1f8:	ca02                	sw	zero,20(sp)
     1fa:	cc02                	sw	zero,24(sp)
     1fc:	00011e23          	sh	zero,28(sp)
C:/Repository/RISKYKVM/firmware/src/User/USB_Host/app_km.c:43
    NVIC_InitTypeDef NVIC_InitStructure = { 0 };
     200:	c602                	sw	zero,12(sp)
     202:	c802                	sw	zero,16(sp)
C:/Repository/RISKYKVM/firmware/src/User/USB_Host/app_km.c:46
    RCC_APB1PeriphClockCmd( RCC_APB1Periph_TIM3, ENABLE );
     204:	4cd030ef          	jal	ra,3ed0 <RCC_APB1PeriphClockCmd>
C:/Repository/RISKYKVM/firmware/src/User/USB_Host/app_km.c:50

    /* Initialize timer3 */
    TIM_TimeBaseStructure.TIM_Period = arr;
    TIM_TimeBaseStructure.TIM_Prescaler = psc;
     208:	00811a23          	sh	s0,20(sp)
C:/Repository/RISKYKVM/firmware/src/User/USB_Host/app_km.c:53
    TIM_TimeBaseStructure.TIM_ClockDivision = TIM_CKD_DIV1;
    TIM_TimeBaseStructure.TIM_CounterMode = TIM_CounterMode_Up;
    TIM_TimeBaseInit( TIM3, &TIM_TimeBaseStructure );
     20c:	40000437          	lui	s0,0x40000
     210:	084c                	addi	a1,sp,20
     212:	40040513          	addi	a0,s0,1024 # 40000400 <_eusrstack+0x1fffb400>
C:/Repository/RISKYKVM/firmware/src/User/USB_Host/app_km.c:49
    TIM_TimeBaseStructure.TIM_Period = arr;
     216:	00911c23          	sh	s1,24(sp)
C:/Repository/RISKYKVM/firmware/src/User/USB_Host/app_km.c:51
    TIM_TimeBaseStructure.TIM_ClockDivision = TIM_CKD_DIV1;
     21a:	00011d23          	sh	zero,26(sp)
C:/Repository/RISKYKVM/firmware/src/User/USB_Host/app_km.c:52
    TIM_TimeBaseStructure.TIM_CounterMode = TIM_CounterMode_Up;
     21e:	00011b23          	sh	zero,22(sp)
C:/Repository/RISKYKVM/firmware/src/User/USB_Host/app_km.c:53
    TIM_TimeBaseInit( TIM3, &TIM_TimeBaseStructure );
     222:	4cd030ef          	jal	ra,3eee <TIM_TimeBaseInit>
C:/Repository/RISKYKVM/firmware/src/User/USB_Host/app_km.c:56

    /* Enable updating timer3 interrupt */
    TIM_ITConfig( TIM3, TIM_IT_Update, ENABLE );
     226:	4605                	li	a2,1
     228:	4585                	li	a1,1
     22a:	40040513          	addi	a0,s0,1024
     22e:	55d030ef          	jal	ra,3f8a <TIM_ITConfig>
C:/Repository/RISKYKVM/firmware/src/User/USB_Host/app_km.c:59

    /* Configure timer3 interrupt */
    NVIC_InitStructure.NVIC_IRQChannel = TIM3_IRQn;
     232:	12d00793          	li	a5,301
     236:	00f11623          	sh	a5,12(sp)
C:/Repository/RISKYKVM/firmware/src/User/USB_Host/app_km.c:61
    NVIC_InitStructure.NVIC_IRQChannelPreemptionPriority = 1;
    NVIC_InitStructure.NVIC_IRQChannelSubPriority = 2;
     23a:	4789                	li	a5,2
     23c:	00f10723          	sb	a5,14(sp)
C:/Repository/RISKYKVM/firmware/src/User/USB_Host/app_km.c:63
    NVIC_InitStructure.NVIC_IRQChannelCmd = ENABLE;
    NVIC_Init( &NVIC_InitStructure );
     240:	0068                	addi	a0,sp,12
C:/Repository/RISKYKVM/firmware/src/User/USB_Host/app_km.c:62
    NVIC_InitStructure.NVIC_IRQChannelCmd = ENABLE;
     242:	4785                	li	a5,1
     244:	c83e                	sw	a5,16(sp)
C:/Repository/RISKYKVM/firmware/src/User/USB_Host/app_km.c:63
    NVIC_Init( &NVIC_InitStructure );
     246:	37d030ef          	jal	ra,3dc2 <NVIC_Init>
C:/Repository/RISKYKVM/firmware/src/User/USB_Host/app_km.c:66

    /* Enable timer3 */
    TIM_Cmd( TIM3, ENABLE );
     24a:	40040513          	addi	a0,s0,1024
     24e:	4585                	li	a1,1
     250:	51f030ef          	jal	ra,3f6e <TIM_Cmd>
C:/Repository/RISKYKVM/firmware/src/User/USB_Host/app_km.c:70

    /* Enable timer3 interrupt */
    NVIC_EnableIRQ( TIM3_IRQn );
}
     254:	50b2                	lw	ra,44(sp)
     256:	5422                	lw	s0,40(sp)
NVIC_EnableIRQ():
C:\Repository\RISKYKVM\firmware\src\Core/core_riscv.h:170
 *
 * @return  none
 */
RV_STATIC_INLINE void NVIC_EnableIRQ(IRQn_Type IRQn)
{
  NVIC->IENR[((uint32_t)(IRQn) >> 5)] = (1 << ((uint32_t)(IRQn) & 0x1F));
     258:	e000e7b7          	lui	a5,0xe000e
     25c:	6709                	lui	a4,0x2
     25e:	10e7a223          	sw	a4,260(a5) # e000e104 <_eusrstack+0xc0009104>
TIM3_Init():
C:/Repository/RISKYKVM/firmware/src/User/USB_Host/app_km.c:70
     262:	5492                	lw	s1,36(sp)
     264:	6145                	addi	sp,sp,48
     266:	8082                	ret

00000268 <TIM3_IRQHandler>:
TIM3_IRQHandler():
C:/Repository/RISKYKVM/firmware/src/User/USB_Host/app_km.c:80
 * @brief   This function handles TIM3 global interrupt request.
 *
 * @return  none
 */
void TIM3_IRQHandler( void )
{
     268:	1141                	addi	sp,sp,-16
     26a:	c622                	sw	s0,12(sp)
C:/Repository/RISKYKVM/firmware/src/User/USB_Host/app_km.c:85
    uint8_t index;
    uint8_t hub_port;
    uint8_t intf_num, in_num;

    if( TIM_GetITStatus( TIM3, TIM_IT_Update ) != RESET )
     26c:	40000437          	lui	s0,0x40000
     270:	4585                	li	a1,1
     272:	40040513          	addi	a0,s0,1024 # 40000400 <_eusrstack+0x1fffb400>
     276:	52b030ef          	jal	ra,3fa0 <TIM_GetITStatus>
     27a:	c945                	beqz	a0,32a <TIM3_IRQHandler+0xc2>
C:/Repository/RISKYKVM/firmware/src/User/USB_Host/app_km.c:88
    {
        /* Clear interrupt flag */
        TIM_ClearITPendingBit( TIM3, TIM_IT_Update );
     27c:	4585                	li	a1,1
     27e:	40040513          	addi	a0,s0,1024
     282:	53b030ef          	jal	ra,3fbc <TIM_ClearITPendingBit>
C:/Repository/RISKYKVM/firmware/src/User/USB_Host/app_km.c:91

        /* USB HID Device Input Endpoint Timing */
        if( RootHubDev.bStatus >= ROOT_DEV_SUCCESS )
     286:	20001737          	lui	a4,0x20001
     28a:	64074683          	lbu	a3,1600(a4) # 20001640 <RootHubDev>
     28e:	4789                	li	a5,2
     290:	08d7fd63          	bgeu	a5,a3,32a <TIM3_IRQHandler+0xc2>
C:/Repository/RISKYKVM/firmware/src/User/USB_Host/app_km.c:93
        {
            index = RootHubDev.DeviceIndex;
     294:	64070593          	addi	a1,a4,1600
C:/Repository/RISKYKVM/firmware/src/User/USB_Host/app_km.c:94
            if( RootHubDev.bType == USB_DEV_CLASS_HID )
     298:	0015c683          	lbu	a3,1(a1)
     29c:	460d                	li	a2,3
C:/Repository/RISKYKVM/firmware/src/User/USB_Host/app_km.c:93
            index = RootHubDev.DeviceIndex;
     29e:	0055c783          	lbu	a5,5(a1)
C:/Repository/RISKYKVM/firmware/src/User/USB_Host/app_km.c:94
            if( RootHubDev.bType == USB_DEV_CLASS_HID )
     2a2:	04c69663          	bne	a3,a2,2ee <TIM3_IRQHandler+0x86>
C:/Repository/RISKYKVM/firmware/src/User/USB_Host/app_km.c:96
            {
                for( intf_num = 0; intf_num < HostCtl[ index ].InterfaceNum; intf_num++ )
     2a6:	44400713          	li	a4,1092
     2aa:	02e787b3          	mul	a5,a5,a4
     2ae:	20000737          	lui	a4,0x20000
     2b2:	0d870713          	addi	a4,a4,216 # 200000d8 <HostCtl>
     2b6:	4681                	li	a3,0
     2b8:	97ba                	add	a5,a5,a4
     2ba:	0007c803          	lbu	a6,0(a5)
C:/Repository/RISKYKVM/firmware/src/User/USB_Host/app_km.c:96 (discriminator 1)
     2be:	06d80663          	beq	a6,a3,32a <TIM3_IRQHandler+0xc2>
C:/Repository/RISKYKVM/firmware/src/User/USB_Host/app_km.c:98
                {
                    for( in_num = 0; in_num < HostCtl[ index ].Interface[ intf_num ].InEndpNum; in_num++ )
     2c2:	00a7c503          	lbu	a0,10(a5)
     2c6:	863e                	mv	a2,a5
     2c8:	4701                	li	a4,0
     2ca:	a809                	j	2dc <TIM3_IRQHandler+0x74>
C:/Repository/RISKYKVM/firmware/src/User/USB_Host/app_km.c:100 (discriminator 3)
                    {
                        HostCtl[ index ].Interface[ intf_num ].InEndpTimeCount[ in_num ]++;
     2cc:	02364583          	lbu	a1,35(a2)
C:/Repository/RISKYKVM/firmware/src/User/USB_Host/app_km.c:98 (discriminator 3)
                    for( in_num = 0; in_num < HostCtl[ index ].Interface[ intf_num ].InEndpNum; in_num++ )
     2d0:	0705                	addi	a4,a4,1
     2d2:	0ff77713          	andi	a4,a4,255
C:/Repository/RISKYKVM/firmware/src/User/USB_Host/app_km.c:100 (discriminator 3)
                        HostCtl[ index ].Interface[ intf_num ].InEndpTimeCount[ in_num ]++;
     2d6:	0585                	addi	a1,a1,1
     2d8:	02b601a3          	sb	a1,35(a2)
     2dc:	0605                	addi	a2,a2,1
C:/Repository/RISKYKVM/firmware/src/User/USB_Host/app_km.c:98 (discriminator 1)
                    for( in_num = 0; in_num < HostCtl[ index ].Interface[ intf_num ].InEndpNum; in_num++ )
     2de:	fee517e3          	bne	a0,a4,2cc <TIM3_IRQHandler+0x64>
C:/Repository/RISKYKVM/firmware/src/User/USB_Host/app_km.c:96 (discriminator 2)
                for( intf_num = 0; intf_num < HostCtl[ index ].InterfaceNum; intf_num++ )
     2e2:	0685                	addi	a3,a3,1
     2e4:	0ff6f693          	andi	a3,a3,255
     2e8:	11078793          	addi	a5,a5,272
     2ec:	bfc9                	j	2be <TIM3_IRQHandler+0x56>
C:/Repository/RISKYKVM/firmware/src/User/USB_Host/app_km.c:104
                    }
                }
            }
            else if( RootHubDev.bType == USB_DEV_CLASS_HUB )
     2ee:	4625                	li	a2,9
     2f0:	02c69d63          	bne	a3,a2,32a <TIM3_IRQHandler+0xc2>
C:/Repository/RISKYKVM/firmware/src/User/USB_Host/app_km.c:106
            {
                HostCtl[ index ].Interface[ 0 ].InEndpTimeCount[ 0 ]++;
     2f4:	44400513          	li	a0,1092
     2f8:	02a787b3          	mul	a5,a5,a0
     2fc:	20000637          	lui	a2,0x20000
     300:	0d860693          	addi	a3,a2,216 # 200000d8 <HostCtl>
C:/Repository/RISKYKVM/firmware/src/User/USB_Host/app_km.c:107
                for( hub_port = 0; hub_port < RootHubDev.bPortNum; hub_port++ )
     304:	0065c303          	lbu	t1,6(a1)
     308:	64070713          	addi	a4,a4,1600
     30c:	0d860513          	addi	a0,a2,216
C:/Repository/RISKYKVM/firmware/src/User/USB_Host/app_km.c:109
                {
                    if( RootHubDev.Device[ hub_port ].bStatus >= ROOT_DEV_SUCCESS )
     310:	4e09                	li	t3,2
C:/Repository/RISKYKVM/firmware/src/User/USB_Host/app_km.c:113
                    {
                        index = RootHubDev.Device[ hub_port ].DeviceIndex;

                        if( RootHubDev.Device[ hub_port ].bType == USB_DEV_CLASS_HID )
     312:	4e8d                	li	t4,3
C:/Repository/RISKYKVM/firmware/src/User/USB_Host/app_km.c:115
                        {
                            for( intf_num = 0; intf_num < HostCtl[ index ].InterfaceNum; intf_num++ )
     314:	44400f13          	li	t5,1092
C:/Repository/RISKYKVM/firmware/src/User/USB_Host/app_km.c:106
                HostCtl[ index ].Interface[ 0 ].InEndpTimeCount[ 0 ]++;
     318:	97b6                	add	a5,a5,a3
     31a:	0247c683          	lbu	a3,36(a5)
     31e:	0685                	addi	a3,a3,1
     320:	02d78223          	sb	a3,36(a5)
C:/Repository/RISKYKVM/firmware/src/User/USB_Host/app_km.c:107
                for( hub_port = 0; hub_port < RootHubDev.bPortNum; hub_port++ )
     324:	4681                	li	a3,0
C:/Repository/RISKYKVM/firmware/src/User/USB_Host/app_km.c:107 (discriminator 1)
     326:	00d31663          	bne	t1,a3,332 <TIM3_IRQHandler+0xca>
C:/Repository/RISKYKVM/firmware/src/User/USB_Host/app_km.c:128
                    }
                }
            }
        }
    }
}
     32a:	4432                	lw	s0,12(sp)
     32c:	0141                	addi	sp,sp,16
     32e:	30200073          	mret
C:/Repository/RISKYKVM/firmware/src/User/USB_Host/app_km.c:109
                    if( RootHubDev.Device[ hub_port ].bStatus >= ROOT_DEV_SUCCESS )
     332:	00774783          	lbu	a5,7(a4)
     336:	04fe7663          	bgeu	t3,a5,382 <TIM3_IRQHandler+0x11a>
C:/Repository/RISKYKVM/firmware/src/User/USB_Host/app_km.c:113
                        if( RootHubDev.Device[ hub_port ].bType == USB_DEV_CLASS_HID )
     33a:	00874783          	lbu	a5,8(a4)
     33e:	05d79263          	bne	a5,t4,382 <TIM3_IRQHandler+0x11a>
C:/Repository/RISKYKVM/firmware/src/User/USB_Host/app_km.c:111
                        index = RootHubDev.Device[ hub_port ].DeviceIndex;
     342:	00c74783          	lbu	a5,12(a4)
C:/Repository/RISKYKVM/firmware/src/User/USB_Host/app_km.c:115
                            for( intf_num = 0; intf_num < HostCtl[ index ].InterfaceNum; intf_num++ )
     346:	4581                	li	a1,0
     348:	03e787b3          	mul	a5,a5,t5
     34c:	97aa                	add	a5,a5,a0
     34e:	0007c283          	lbu	t0,0(a5)
C:/Repository/RISKYKVM/firmware/src/User/USB_Host/app_km.c:115 (discriminator 1)
     352:	02b28863          	beq	t0,a1,382 <TIM3_IRQHandler+0x11a>
C:/Repository/RISKYKVM/firmware/src/User/USB_Host/app_km.c:117
                                for( in_num = 0; in_num < HostCtl[ index ].Interface[ intf_num ].InEndpNum; in_num++ )
     356:	00a7cf83          	lbu	t6,10(a5)
     35a:	883e                	mv	a6,a5
     35c:	4601                	li	a2,0
     35e:	a809                	j	370 <TIM3_IRQHandler+0x108>
C:/Repository/RISKYKVM/firmware/src/User/USB_Host/app_km.c:119 (discriminator 3)
                                    HostCtl[ index ].Interface[ intf_num ].InEndpTimeCount[ in_num ]++;
     360:	02384883          	lbu	a7,35(a6)
C:/Repository/RISKYKVM/firmware/src/User/USB_Host/app_km.c:117 (discriminator 3)
                                for( in_num = 0; in_num < HostCtl[ index ].Interface[ intf_num ].InEndpNum; in_num++ )
     364:	0605                	addi	a2,a2,1
     366:	0ff67613          	andi	a2,a2,255
C:/Repository/RISKYKVM/firmware/src/User/USB_Host/app_km.c:119 (discriminator 3)
                                    HostCtl[ index ].Interface[ intf_num ].InEndpTimeCount[ in_num ]++;
     36a:	0885                	addi	a7,a7,1
     36c:	031801a3          	sb	a7,35(a6)
     370:	0805                	addi	a6,a6,1
C:/Repository/RISKYKVM/firmware/src/User/USB_Host/app_km.c:117 (discriminator 1)
                                for( in_num = 0; in_num < HostCtl[ index ].Interface[ intf_num ].InEndpNum; in_num++ )
     372:	fecf97e3          	bne	t6,a2,360 <TIM3_IRQHandler+0xf8>
C:/Repository/RISKYKVM/firmware/src/User/USB_Host/app_km.c:115 (discriminator 2)
                            for( intf_num = 0; intf_num < HostCtl[ index ].InterfaceNum; intf_num++ )
     376:	0585                	addi	a1,a1,1
     378:	0ff5f593          	andi	a1,a1,255
     37c:	11078793          	addi	a5,a5,272
     380:	bfc9                	j	352 <TIM3_IRQHandler+0xea>
C:/Repository/RISKYKVM/firmware/src/User/USB_Host/app_km.c:107
                for( hub_port = 0; hub_port < RootHubDev.bPortNum; hub_port++ )
     382:	0685                	addi	a3,a3,1
     384:	0ff6f693          	andi	a3,a3,255
     388:	0719                	addi	a4,a4,6
     38a:	bf71                	j	326 <TIM3_IRQHandler+0xbe>

0000038c <USBH_AnalyseType>:
USBH_AnalyseType():
C:/Repository/RISKYKVM/firmware/src/User/USB_Host/app_km.c:145
 */
void USBH_AnalyseType( uint8_t *pdev_buf, uint8_t *pcfg_buf, uint8_t *ptype )
{
    uint8_t  dv_cls, if_cls;

    dv_cls = ( (PUSB_DEV_DESCR)pdev_buf )->bDeviceClass;
     38c:	00454703          	lbu	a4,4(a0)
C:/Repository/RISKYKVM/firmware/src/User/USB_Host/app_km.c:147
    if_cls = ( (PUSB_CFG_DESCR_LONG)pcfg_buf )->itf_descr.bInterfaceClass;
    if( ( dv_cls == USB_DEV_CLASS_STORAGE ) || ( if_cls == USB_DEV_CLASS_STORAGE ) )
     390:	46a1                	li	a3,8
     392:	00d70663          	beq	a4,a3,39e <USBH_AnalyseType+0x12>
C:/Repository/RISKYKVM/firmware/src/User/USB_Host/app_km.c:146 (discriminator 1)
    if_cls = ( (PUSB_CFG_DESCR_LONG)pcfg_buf )->itf_descr.bInterfaceClass;
     396:	00e5c783          	lbu	a5,14(a1)
C:/Repository/RISKYKVM/firmware/src/User/USB_Host/app_km.c:147 (discriminator 1)
    if( ( dv_cls == USB_DEV_CLASS_STORAGE ) || ( if_cls == USB_DEV_CLASS_STORAGE ) )
     39a:	00d79663          	bne	a5,a3,3a6 <USBH_AnalyseType+0x1a>
C:/Repository/RISKYKVM/firmware/src/User/USB_Host/app_km.c:149
    {
        *ptype = USB_DEV_CLASS_STORAGE;
     39e:	47a1                	li	a5,8
C:/Repository/RISKYKVM/firmware/src/User/USB_Host/app_km.c:165
    {
        *ptype = USB_DEV_CLASS_HUB;
    }
    else
    {
        *ptype = DEF_DEV_TYPE_UNKNOWN;
     3a0:	00f60023          	sb	a5,0(a2)
C:/Repository/RISKYKVM/firmware/src/User/USB_Host/app_km.c:167
    }
}
     3a4:	8082                	ret
C:/Repository/RISKYKVM/firmware/src/User/USB_Host/app_km.c:151
    else if( ( dv_cls == USB_DEV_CLASS_PRINTER ) || ( if_cls == USB_DEV_CLASS_PRINTER ) )
     3a6:	469d                	li	a3,7
     3a8:	00d70463          	beq	a4,a3,3b0 <USBH_AnalyseType+0x24>
C:/Repository/RISKYKVM/firmware/src/User/USB_Host/app_km.c:151 (discriminator 1)
     3ac:	00d79463          	bne	a5,a3,3b4 <USBH_AnalyseType+0x28>
C:/Repository/RISKYKVM/firmware/src/User/USB_Host/app_km.c:153
        *ptype = USB_DEV_CLASS_PRINTER;
     3b0:	479d                	li	a5,7
     3b2:	b7fd                	j	3a0 <USBH_AnalyseType+0x14>
C:/Repository/RISKYKVM/firmware/src/User/USB_Host/app_km.c:155
    else if( ( dv_cls == USB_DEV_CLASS_HID ) || ( if_cls == USB_DEV_CLASS_HID ) )
     3b4:	468d                	li	a3,3
     3b6:	00d70463          	beq	a4,a3,3be <USBH_AnalyseType+0x32>
C:/Repository/RISKYKVM/firmware/src/User/USB_Host/app_km.c:155 (discriminator 1)
     3ba:	00d79463          	bne	a5,a3,3c2 <USBH_AnalyseType+0x36>
C:/Repository/RISKYKVM/firmware/src/User/USB_Host/app_km.c:157
        *ptype = USB_DEV_CLASS_HID;
     3be:	478d                	li	a5,3
     3c0:	b7c5                	j	3a0 <USBH_AnalyseType+0x14>
C:/Repository/RISKYKVM/firmware/src/User/USB_Host/app_km.c:159
    else if( ( dv_cls == USB_DEV_CLASS_HUB ) || ( if_cls == USB_DEV_CLASS_HUB ) )
     3c2:	46a5                	li	a3,9
     3c4:	00d70463          	beq	a4,a3,3cc <USBH_AnalyseType+0x40>
C:/Repository/RISKYKVM/firmware/src/User/USB_Host/app_km.c:159 (discriminator 1)
     3c8:	00d79463          	bne	a5,a3,3d0 <USBH_AnalyseType+0x44>
C:/Repository/RISKYKVM/firmware/src/User/USB_Host/app_km.c:161
        *ptype = USB_DEV_CLASS_HUB;
     3cc:	47a5                	li	a5,9
     3ce:	bfc9                	j	3a0 <USBH_AnalyseType+0x14>
C:/Repository/RISKYKVM/firmware/src/User/USB_Host/app_km.c:165
        *ptype = DEF_DEV_TYPE_UNKNOWN;
     3d0:	57fd                	li	a5,-1
     3d2:	b7f9                	j	3a0 <USBH_AnalyseType+0x14>

000003d4 <USBH_EnumRootDevice>:
USBH_EnumRootDevice():
C:/Repository/RISKYKVM/firmware/src/User/USB_Host/app_km.c:179
 * @para    index: USB host port
 *
 * @return  Enumeration result
 */
uint8_t USBH_EnumRootDevice( void )
{
     3d4:	7139                	addi	sp,sp,-64
     3d6:	da26                	sw	s1,52(sp)
C:/Repository/RISKYKVM/firmware/src/User/USB_Host/app_km.c:247
        return DEF_DEV_DESCR_GETFAIL;
    }

    /* Set the USB device address */
    DUG_PRINTF("Set DevAddr: ");
    RootHubDev.bAddress = (uint8_t)( USB_DEVICE_ADDR );
     3d8:	200014b7          	lui	s1,0x20001
C:/Repository/RISKYKVM/firmware/src/User/USB_Host/app_km.c:179
{
     3dc:	dc22                	sw	s0,56(sp)
     3de:	d452                	sw	s4,40(sp)
     3e0:	d256                	sw	s5,36(sp)
     3e2:	d05a                	sw	s6,32(sp)
     3e4:	ce5e                	sw	s7,28(sp)
     3e6:	cc62                	sw	s8,24(sp)
     3e8:	de06                	sw	ra,60(sp)
     3ea:	d84a                	sw	s2,48(sp)
     3ec:	d64e                	sw	s3,44(sp)
     3ee:	ca66                	sw	s9,20(sp)
     3f0:	c86a                	sw	s10,16(sp)
C:/Repository/RISKYKVM/firmware/src/User/USB_Host/app_km.c:188
    enum_cnt = 0;
     3f2:	4401                	li	s0,0
C:/Repository/RISKYKVM/firmware/src/User/USB_Host/app_km.c:199
        if( USBFSH_EnableRootHubPort( &RootHubDev.bSpeed ) == ERR_SUCCESS )
     3f4:	20001b37          	lui	s6,0x20001
C:/Repository/RISKYKVM/firmware/src/User/USB_Host/app_km.c:222
    s = USBFSH_GetDeviceDescr( &RootHubDev.bEp0MaxPks, DevDesc_Buf );
     3f8:	20001ab7          	lui	s5,0x20001
     3fc:	20001bb7          	lui	s7,0x20001
C:/Repository/RISKYKVM/firmware/src/User/USB_Host/app_km.c:247
    RootHubDev.bAddress = (uint8_t)( USB_DEVICE_ADDR );
     400:	64048493          	addi	s1,s1,1600 # 20001640 <RootHubDev>
C:/Repository/RISKYKVM/firmware/src/User/USB_Host/app_km.c:269
    }
    Delay_Ms( 5 );

    /* Get the USB device configuration descriptor */
    DUG_PRINTF("Get CfgDesc: ");
    s = USBFSH_GetConfigDescr( RootHubDev.bEp0MaxPks, Com_Buf, DEF_COM_BUF_LEN, &len );
     404:	20001a37          	lui	s4,0x20001
C:/Repository/RISKYKVM/firmware/src/User/USB_Host/app_km.c:284
        }
        DUG_PRINTF("\r\n");
#endif

        /* Simply analyze USB device type  */
        USBH_AnalyseType( DevDesc_Buf, Com_Buf, &RootHubDev.bType );
     408:	20001c37          	lui	s8,0x20001
C:/Repository/RISKYKVM/firmware/src/User/USB_Host/app_km.c:191
    Delay_Ms( 100 );
     40c:	06400513          	li	a0,100
     410:	41b030ef          	jal	ra,402a <Delay_Ms>
C:/Repository/RISKYKVM/firmware/src/User/USB_Host/app_km.c:192
    enum_cnt++;
     414:	0405                	addi	s0,s0,1
     416:	0ff47413          	andi	s0,s0,255
C:/Repository/RISKYKVM/firmware/src/User/USB_Host/app_km.c:193
    Delay_Ms( 8 << enum_cnt );
     41a:	4521                	li	a0,8
     41c:	00851533          	sll	a0,a0,s0
     420:	40b030ef          	jal	ra,402a <Delay_Ms>
C:/Repository/RISKYKVM/firmware/src/User/USB_Host/app_km.c:196
    USBFSH_ResetRootHubPort( 0 );
     424:	4501                	li	a0,0
     426:	386010ef          	jal	ra,17ac <USBFSH_ResetRootHubPort>
C:/Repository/RISKYKVM/firmware/src/User/USB_Host/app_km.c:197
    for( i = 0, s = 0; i < DEF_RE_ATTACH_TIMEOUT; i++ )
     42a:	4901                	li	s2,0
     42c:	4981                	li	s3,0
C:/Repository/RISKYKVM/firmware/src/User/USB_Host/app_km.c:203
            if( s > 6 )
     42e:	4d19                	li	s10,6
C:/Repository/RISKYKVM/firmware/src/User/USB_Host/app_km.c:197
    for( i = 0, s = 0; i < DEF_RE_ATTACH_TIMEOUT; i++ )
     430:	06400c93          	li	s9,100
C:/Repository/RISKYKVM/firmware/src/User/USB_Host/app_km.c:199
        if( USBFSH_EnableRootHubPort( &RootHubDev.bSpeed ) == ERR_SUCCESS )
     434:	643b0513          	addi	a0,s6,1603 # 20001643 <RootHubDev+0x3>
     438:	3d8010ef          	jal	ra,1810 <USBFSH_EnableRootHubPort>
     43c:	e519                	bnez	a0,44a <USBH_EnumRootDevice+0x76>
C:/Repository/RISKYKVM/firmware/src/User/USB_Host/app_km.c:202
            s++;
     43e:	0985                	addi	s3,s3,1
     440:	0ff9f993          	andi	s3,s3,255
C:/Repository/RISKYKVM/firmware/src/User/USB_Host/app_km.c:203
            if( s > 6 )
     444:	073d6063          	bltu	s10,s3,4a4 <USBH_EnumRootDevice+0xd0>
C:/Repository/RISKYKVM/firmware/src/User/USB_Host/app_km.c:201
            i = 0;
     448:	4901                	li	s2,0
C:/Repository/RISKYKVM/firmware/src/User/USB_Host/app_km.c:197 (discriminator 2)
    for( i = 0, s = 0; i < DEF_RE_ATTACH_TIMEOUT; i++ )
     44a:	0905                	addi	s2,s2,1
     44c:	0942                	slli	s2,s2,0x10
C:/Repository/RISKYKVM/firmware/src/User/USB_Host/app_km.c:208 (discriminator 2)
        Delay_Ms( 1 );
     44e:	4505                	li	a0,1
C:/Repository/RISKYKVM/firmware/src/User/USB_Host/app_km.c:197 (discriminator 2)
    for( i = 0, s = 0; i < DEF_RE_ATTACH_TIMEOUT; i++ )
     450:	01095913          	srli	s2,s2,0x10
C:/Repository/RISKYKVM/firmware/src/User/USB_Host/app_km.c:208 (discriminator 2)
        Delay_Ms( 1 );
     454:	3d7030ef          	jal	ra,402a <Delay_Ms>
C:/Repository/RISKYKVM/firmware/src/User/USB_Host/app_km.c:197 (discriminator 2)
    for( i = 0, s = 0; i < DEF_RE_ATTACH_TIMEOUT; i++ )
     458:	fd991ee3          	bne	s2,s9,434 <USBH_EnumRootDevice+0x60>
C:/Repository/RISKYKVM/firmware/src/User/USB_Host/app_km.c:213
        if( enum_cnt <= 5 )
     45c:	4795                	li	a5,5
     45e:	fa87f7e3          	bgeu	a5,s0,40c <USBH_EnumRootDevice+0x38>
C:/Repository/RISKYKVM/firmware/src/User/USB_Host/app_km.c:217
        return ERR_USB_DISCON;
     462:	4559                	li	a0,22
     464:	a031                	j	470 <USBH_EnumRootDevice+0x9c>
C:/Repository/RISKYKVM/firmware/src/User/USB_Host/app_km.c:238 (discriminator 3)
        if( enum_cnt <= 5 )
     466:	4795                	li	a5,5
     468:	fa87f2e3          	bgeu	a5,s0,40c <USBH_EnumRootDevice+0x38>
C:/Repository/RISKYKVM/firmware/src/User/USB_Host/app_km.c:242
        return DEF_DEV_DESCR_GETFAIL;
     46c:	04500513          	li	a0,69
C:/Repository/RISKYKVM/firmware/src/User/USB_Host/app_km.c:317
        }
        return ERR_USB_UNSUPPORT;
    }

    return ERR_SUCCESS;
}
     470:	50f2                	lw	ra,60(sp)
     472:	5462                	lw	s0,56(sp)
     474:	54d2                	lw	s1,52(sp)
     476:	5942                	lw	s2,48(sp)
     478:	59b2                	lw	s3,44(sp)
     47a:	5a22                	lw	s4,40(sp)
     47c:	5a92                	lw	s5,36(sp)
     47e:	5b02                	lw	s6,32(sp)
     480:	4bf2                	lw	s7,28(sp)
     482:	4c62                	lw	s8,24(sp)
     484:	4cd2                	lw	s9,20(sp)
     486:	4d42                	lw	s10,16(sp)
     488:	6121                	addi	sp,sp,64
     48a:	8082                	ret
C:/Repository/RISKYKVM/firmware/src/User/USB_Host/app_km.c:259 (discriminator 3)
        if( enum_cnt <= 5 )
     48c:	4795                	li	a5,5
     48e:	f687ffe3          	bgeu	a5,s0,40c <USBH_EnumRootDevice+0x38>
C:/Repository/RISKYKVM/firmware/src/User/USB_Host/app_km.c:263
        return DEF_DEV_ADDR_SETFAIL;
     492:	04600513          	li	a0,70
     496:	bfe9                	j	470 <USBH_EnumRootDevice+0x9c>
C:/Repository/RISKYKVM/firmware/src/User/USB_Host/app_km.c:291 (discriminator 3)
        if( enum_cnt <= 5 )
     498:	4795                	li	a5,5
     49a:	f687f9e3          	bgeu	a5,s0,40c <USBH_EnumRootDevice+0x38>
C:/Repository/RISKYKVM/firmware/src/User/USB_Host/app_km.c:295
        return DEF_CFG_DESCR_GETFAIL;
     49e:	04700513          	li	a0,71
     4a2:	b7f9                	j	470 <USBH_EnumRootDevice+0x9c>
C:/Repository/RISKYKVM/firmware/src/User/USB_Host/app_km.c:222
    s = USBFSH_GetDeviceDescr( &RootHubDev.bEp0MaxPks, DevDesc_Buf );
     4a4:	62ca8593          	addi	a1,s5,1580 # 2000162c <DevDesc_Buf>
     4a8:	644b8513          	addi	a0,s7,1604 # 20001644 <RootHubDev+0x4>
     4ac:	6be010ef          	jal	ra,1b6a <USBFSH_GetDeviceDescr>
C:/Repository/RISKYKVM/firmware/src/User/USB_Host/app_km.c:223
    if( s == ERR_SUCCESS )
     4b0:	f95d                	bnez	a0,466 <USBH_EnumRootDevice+0x92>
C:/Repository/RISKYKVM/firmware/src/User/USB_Host/app_km.c:248 (discriminator 3)
    s = USBFSH_SetUsbAddress( RootHubDev.bEp0MaxPks, RootHubDev.bAddress );
     4b2:	0044c503          	lbu	a0,4(s1)
C:/Repository/RISKYKVM/firmware/src/User/USB_Host/app_km.c:247 (discriminator 3)
    RootHubDev.bAddress = (uint8_t)( USB_DEVICE_ADDR );
     4b6:	4909                	li	s2,2
C:/Repository/RISKYKVM/firmware/src/User/USB_Host/app_km.c:248 (discriminator 3)
    s = USBFSH_SetUsbAddress( RootHubDev.bEp0MaxPks, RootHubDev.bAddress );
     4b8:	4589                	li	a1,2
C:/Repository/RISKYKVM/firmware/src/User/USB_Host/app_km.c:247 (discriminator 3)
    RootHubDev.bAddress = (uint8_t)( USB_DEVICE_ADDR );
     4ba:	01248123          	sb	s2,2(s1)
C:/Repository/RISKYKVM/firmware/src/User/USB_Host/app_km.c:248 (discriminator 3)
    s = USBFSH_SetUsbAddress( RootHubDev.bEp0MaxPks, RootHubDev.bAddress );
     4be:	019010ef          	jal	ra,1cd6 <USBFSH_SetUsbAddress>
C:/Repository/RISKYKVM/firmware/src/User/USB_Host/app_km.c:249 (discriminator 3)
    if( s == ERR_SUCCESS )
     4c2:	f569                	bnez	a0,48c <USBH_EnumRootDevice+0xb8>
C:/Repository/RISKYKVM/firmware/src/User/USB_Host/app_km.c:265 (discriminator 3)
    Delay_Ms( 5 );
     4c4:	4515                	li	a0,5
C:/Repository/RISKYKVM/firmware/src/User/USB_Host/app_km.c:253 (discriminator 3)
        RootHubDev.bAddress = USB_DEVICE_ADDR;
     4c6:	01248123          	sb	s2,2(s1)
C:/Repository/RISKYKVM/firmware/src/User/USB_Host/app_km.c:265 (discriminator 3)
    Delay_Ms( 5 );
     4ca:	361030ef          	jal	ra,402a <Delay_Ms>
C:/Repository/RISKYKVM/firmware/src/User/USB_Host/app_km.c:269 (discriminator 3)
    s = USBFSH_GetConfigDescr( RootHubDev.bEp0MaxPks, Com_Buf, DEF_COM_BUF_LEN, &len );
     4ce:	0044c503          	lbu	a0,4(s1)
     4d2:	00e10693          	addi	a3,sp,14
     4d6:	40000613          	li	a2,1024
     4da:	660a0593          	addi	a1,s4,1632 # 20001660 <Com_Buf>
     4de:	6e4010ef          	jal	ra,1bc2 <USBFSH_GetConfigDescr>
C:/Repository/RISKYKVM/firmware/src/User/USB_Host/app_km.c:270 (discriminator 3)
    if( s == ERR_SUCCESS )
     4e2:	f95d                	bnez	a0,498 <USBH_EnumRootDevice+0xc4>
C:/Repository/RISKYKVM/firmware/src/User/USB_Host/app_km.c:272
        cfg_val = ( (PUSB_CFG_DESCR)Com_Buf )->bConfigurationValue;
     4e4:	660a0793          	addi	a5,s4,1632
C:/Repository/RISKYKVM/firmware/src/User/USB_Host/app_km.c:284
        USBH_AnalyseType( DevDesc_Buf, Com_Buf, &RootHubDev.bType );
     4e8:	660a0593          	addi	a1,s4,1632
     4ec:	62ca8513          	addi	a0,s5,1580
     4f0:	641c0613          	addi	a2,s8,1601 # 20001641 <RootHubDev+0x1>
C:/Repository/RISKYKVM/firmware/src/User/USB_Host/app_km.c:272
        cfg_val = ( (PUSB_CFG_DESCR)Com_Buf )->bConfigurationValue;
     4f4:	0057c903          	lbu	s2,5(a5)
C:/Repository/RISKYKVM/firmware/src/User/USB_Host/app_km.c:284
        USBH_AnalyseType( DevDesc_Buf, Com_Buf, &RootHubDev.bType );
     4f8:	3d51                	jal	38c <USBH_AnalyseType>
C:/Repository/RISKYKVM/firmware/src/User/USB_Host/app_km.c:300
    s = USBFSH_SetUsbConfig( RootHubDev.bEp0MaxPks, cfg_val );
     4fa:	0044c503          	lbu	a0,4(s1)
     4fe:	85ca                	mv	a1,s2
     500:	01b010ef          	jal	ra,1d1a <USBFSH_SetUsbConfig>
C:/Repository/RISKYKVM/firmware/src/User/USB_Host/app_km.c:301
    if( s == ERR_SUCCESS )
     504:	d535                	beqz	a0,470 <USBH_EnumRootDevice+0x9c>
C:/Repository/RISKYKVM/firmware/src/User/USB_Host/app_km.c:309 (discriminator 3)
        if( enum_cnt <= 5 )
     506:	4795                	li	a5,5
     508:	f087f2e3          	bgeu	a5,s0,40c <USBH_EnumRootDevice+0x38>
C:/Repository/RISKYKVM/firmware/src/User/USB_Host/app_km.c:313
        return ERR_USB_UNSUPPORT;
     50c:	0fb00513          	li	a0,251
     510:	b785                	j	470 <USBH_EnumRootDevice+0x9c>

00000512 <KM_AnalyzeConfigDesc>:
KM_AnalyzeConfigDesc():
C:/Repository/RISKYKVM/firmware/src/User/USB_Host/app_km.c:329
 * @para    index: USB host port
 *
 * @return  The result of the analysis.
 */
uint8_t KM_AnalyzeConfigDesc( uint8_t index, uint8_t ep0_size  )
{
     512:	7179                	addi	sp,sp,-48
     514:	cc52                	sw	s4,24(sp)
C:/Repository/RISKYKVM/firmware/src/User/USB_Host/app_km.c:435
                        HostCtl[ index ].Interface[ num ].SetReport_Swi = 0xFF;
                    }
                }
                else
                {
                    HostCtl[ index ].Interface[ num ].Type = DEC_UNKNOW;
     516:	44400a13          	li	s4,1092
     51a:	03450a33          	mul	s4,a0,s4
C:/Repository/RISKYKVM/firmware/src/User/USB_Host/app_km.c:329
{
     51e:	ce4e                	sw	s3,28(sp)
C:/Repository/RISKYKVM/firmware/src/User/USB_Host/app_km.c:435
                    HostCtl[ index ].Interface[ num ].Type = DEC_UNKNOW;
     520:	200009b7          	lui	s3,0x20000
C:/Repository/RISKYKVM/firmware/src/User/USB_Host/app_km.c:329
{
     524:	d04a                	sw	s2,32(sp)
C:/Repository/RISKYKVM/firmware/src/User/USB_Host/app_km.c:435
                    HostCtl[ index ].Interface[ num ].Type = DEC_UNKNOW;
     526:	0d898993          	addi	s3,s3,216 # 200000d8 <HostCtl>
C:/Repository/RISKYKVM/firmware/src/User/USB_Host/app_km.c:335
    for( i = 0; i < ( Com_Buf[ 2 ] + ( (uint16_t)Com_Buf[ 3 ] << 8 ) ); )
     52a:	20001937          	lui	s2,0x20001
C:/Repository/RISKYKVM/firmware/src/User/USB_Host/app_km.c:329
{
     52e:	d422                	sw	s0,40(sp)
     530:	d226                	sw	s1,36(sp)
     532:	ca56                	sw	s5,20(sp)
     534:	c85a                	sw	s6,16(sp)
     536:	c65e                	sw	s7,12(sp)
     538:	c462                	sw	s8,8(sp)
     53a:	d606                	sw	ra,44(sp)
     53c:	8c2a                	mv	s8,a0
     53e:	8aae                	mv	s5,a1
C:/Repository/RISKYKVM/firmware/src/User/USB_Host/app_km.c:334
    num = 0;
     540:	4481                	li	s1,0
C:/Repository/RISKYKVM/firmware/src/User/USB_Host/app_km.c:335
    for( i = 0; i < ( Com_Buf[ 2 ] + ( (uint16_t)Com_Buf[ 3 ] << 8 ) ); )
     542:	4401                	li	s0,0
     544:	66090913          	addi	s2,s2,1632 # 20001660 <Com_Buf>
C:/Repository/RISKYKVM/firmware/src/User/USB_Host/app_km.c:337
        if( Com_Buf[ i + 1 ] == DEF_DECR_CONFIG )
     548:	4b89                	li	s7,2
C:/Repository/RISKYKVM/firmware/src/User/USB_Host/app_km.c:346
                HostCtl[ index ].InterfaceNum = ( (PUSB_CFG_DESCR)( &Com_Buf[ i ] ) )->bNumInterfaces;
     54a:	01498b33          	add	s6,s3,s4
C:/Repository/RISKYKVM/firmware/src/User/USB_Host/app_km.c:335 (discriminator 1)
    for( i = 0; i < ( Com_Buf[ 2 ] + ( (uint16_t)Com_Buf[ 3 ] << 8 ) ); )
     54e:	00394783          	lbu	a5,3(s2)
     552:	00294703          	lbu	a4,2(s2)
     556:	07a2                	slli	a5,a5,0x8
     558:	97ba                	add	a5,a5,a4
     55a:	1ef45863          	bge	s0,a5,74a <KM_AnalyzeConfigDesc+0x238>
C:/Repository/RISKYKVM/firmware/src/User/USB_Host/app_km.c:337
        if( Com_Buf[ i + 1 ] == DEF_DECR_CONFIG )
     55e:	012407b3          	add	a5,s0,s2
     562:	0017c703          	lbu	a4,1(a5)
     566:	03771463          	bne	a4,s7,58e <KM_AnalyzeConfigDesc+0x7c>
C:/Repository/RISKYKVM/firmware/src/User/USB_Host/app_km.c:340
            if( ( (PUSB_CFG_DESCR)( &Com_Buf[ i ] ) )->bNumInterfaces > DEF_INTERFACE_NUM_MAX )
     56a:	0047c783          	lbu	a5,4(a5)
     56e:	4711                	li	a4,4
     570:	00f77c63          	bgeu	a4,a5,588 <KM_AnalyzeConfigDesc+0x76>
C:/Repository/RISKYKVM/firmware/src/User/USB_Host/app_km.c:342
                HostCtl[ index ].InterfaceNum = DEF_INTERFACE_NUM_MAX;
     574:	00eb0023          	sb	a4,0(s6)
C:/Repository/RISKYKVM/firmware/src/User/USB_Host/app_km.c:348
            i += Com_Buf[ i ];
     578:	008907b3          	add	a5,s2,s0
C:/Repository/RISKYKVM/firmware/src/User/USB_Host/app_km.c:452
                  
            num++;
        }
        else
        {
            i += Com_Buf[ i ];
     57c:	0007c783          	lbu	a5,0(a5)
     580:	943e                	add	s0,s0,a5
     582:	0442                	slli	s0,s0,0x10
     584:	8041                	srli	s0,s0,0x10
     586:	b7e1                	j	54e <KM_AnalyzeConfigDesc+0x3c>
C:/Repository/RISKYKVM/firmware/src/User/USB_Host/app_km.c:346
                HostCtl[ index ].InterfaceNum = ( (PUSB_CFG_DESCR)( &Com_Buf[ i ] ) )->bNumInterfaces;
     588:	00fb0023          	sb	a5,0(s6)
     58c:	b7f5                	j	578 <KM_AnalyzeConfigDesc+0x66>
C:/Repository/RISKYKVM/firmware/src/User/USB_Host/app_km.c:350
        else if( Com_Buf[ i + 1 ] == DEF_DECR_INTERFACE )
     58e:	4691                	li	a3,4
     590:	fed716e3          	bne	a4,a3,57c <KM_AnalyzeConfigDesc+0x6a>
C:/Repository/RISKYKVM/firmware/src/User/USB_Host/app_km.c:352
            if( num == DEF_INTERFACE_NUM_MAX )
     594:	1ae48b63          	beq	s1,a4,74a <KM_AnalyzeConfigDesc+0x238>
C:/Repository/RISKYKVM/firmware/src/User/USB_Host/app_km.c:356
            if( ( (PUSB_ITF_DESCR)( &Com_Buf[ i ] ) )->bInterfaceClass == 0x03 )
     598:	0057c683          	lbu	a3,5(a5)
     59c:	470d                	li	a4,3
     59e:	18e69563          	bne	a3,a4,728 <KM_AnalyzeConfigDesc+0x216>
C:/Repository/RISKYKVM/firmware/src/User/USB_Host/app_km.c:359
                if( ( (PUSB_ITF_DESCR)( &Com_Buf[ i ] ) )->bInterfaceSubClass <= 0x01 &&
     5a2:	0067c703          	lbu	a4,6(a5)
     5a6:	4685                	li	a3,1
     5a8:	14e6ef63          	bltu	a3,a4,706 <KM_AnalyzeConfigDesc+0x1f4>
C:/Repository/RISKYKVM/firmware/src/User/USB_Host/app_km.c:360 (discriminator 1)
                    ( (PUSB_ITF_DESCR)( &Com_Buf[ i ] ) )->bInterfaceProtocol <= 2 )
     5ac:	0077c703          	lbu	a4,7(a5)
C:/Repository/RISKYKVM/firmware/src/User/USB_Host/app_km.c:359 (discriminator 1)
                if( ( (PUSB_ITF_DESCR)( &Com_Buf[ i ] ) )->bInterfaceSubClass <= 0x01 &&
     5b0:	14ebeb63          	bltu	s7,a4,706 <KM_AnalyzeConfigDesc+0x1f4>
C:/Repository/RISKYKVM/firmware/src/User/USB_Host/app_km.c:362
                    if( ( (PUSB_ITF_DESCR)( &Com_Buf[ i ] ) )->bInterfaceProtocol == 0x01 ) // Keyboard
     5b4:	0cd71963          	bne	a4,a3,686 <KM_AnalyzeConfigDesc+0x174>
C:/Repository/RISKYKVM/firmware/src/User/USB_Host/app_km.c:364
                        HostCtl[ index ].Interface[ num ].Type = DEC_KEY;
     5b8:	11000793          	li	a5,272
     5bc:	02f487b3          	mul	a5,s1,a5
     5c0:	97d2                	add	a5,a5,s4
     5c2:	97ce                	add	a5,a5,s3
     5c4:	00e78223          	sb	a4,4(a5)
C:/Repository/RISKYKVM/firmware/src/User/USB_Host/app_km.c:370
                        HID_SetIdle( ep0_size, num, 0, 0 );
     5c8:	4681                	li	a3,0
     5ca:	4601                	li	a2,0
     5cc:	85a6                	mv	a1,s1
     5ce:	8556                	mv	a0,s5
     5d0:	6b9010ef          	jal	ra,2488 <HID_SetIdle>
C:/Repository/RISKYKVM/firmware/src/User/USB_Host/app_km.c:373
                    i += Com_Buf[ i ];
     5d4:	008907b3          	add	a5,s2,s0
     5d8:	0007c783          	lbu	a5,0(a5)
C:/Repository/RISKYKVM/firmware/src/User/USB_Host/app_km.c:405
                                    HostCtl[ index ].Interface[ num ].OutEndpSize[ outnum ] = ( (PUSB_ENDP_DESCR)( &Com_Buf[ i ] ) )->wMaxPacketSizeL +
     5dc:	08800813          	li	a6,136
     5e0:	22200713          	li	a4,546
C:/Repository/RISKYKVM/firmware/src/User/USB_Host/app_km.c:373
                    i += Com_Buf[ i ];
     5e4:	943e                	add	s0,s0,a5
C:/Repository/RISKYKVM/firmware/src/User/USB_Host/app_km.c:417
                                HostCtl[ index ].Interface[ num ].HidDescLen = ( (PUSB_HID_DESCR)( &Com_Buf[ i ] ) )->wDescriptorLengthL | \
     5e6:	11000793          	li	a5,272
     5ea:	02f487b3          	mul	a5,s1,a5
C:/Repository/RISKYKVM/firmware/src/User/USB_Host/app_km.c:378
                        if( ( Com_Buf[ i + 1 ] == DEF_DECR_INTERFACE ) || ( i >= Com_Buf[ 2 ] ) )
     5ee:	00294883          	lbu	a7,2(s2)
C:/Repository/RISKYKVM/firmware/src/User/USB_Host/app_km.c:373
                    i += Com_Buf[ i ];
     5f2:	0442                	slli	s0,s0,0x10
     5f4:	8041                	srli	s0,s0,0x10
C:/Repository/RISKYKVM/firmware/src/User/USB_Host/app_km.c:375
                    outnum = 0;
     5f6:	4681                	li	a3,0
C:/Repository/RISKYKVM/firmware/src/User/USB_Host/app_km.c:374
                    innum = 0;
     5f8:	4501                	li	a0,0
C:/Repository/RISKYKVM/firmware/src/User/USB_Host/app_km.c:378
                        if( ( Com_Buf[ i + 1 ] == DEF_DECR_INTERFACE ) || ( i >= Com_Buf[ 2 ] ) )
     5fa:	4311                	li	t1,4
C:/Repository/RISKYKVM/firmware/src/User/USB_Host/app_km.c:385
                            if( Com_Buf[ i + 1 ] == DEF_DECR_ENDPOINT )
     5fc:	4e15                	li	t3,5
C:/Repository/RISKYKVM/firmware/src/User/USB_Host/app_km.c:414
                            else if( Com_Buf[ i + 1 ] == DEF_DECR_HID )
     5fe:	02100e93          	li	t4,33
C:/Repository/RISKYKVM/firmware/src/User/USB_Host/app_km.c:405
                                    HostCtl[ index ].Interface[ num ].OutEndpSize[ outnum ] = ( (PUSB_ENDP_DESCR)( &Com_Buf[ i ] ) )->wMaxPacketSizeL +
     602:	03048833          	mul	a6,s1,a6
C:/Repository/RISKYKVM/firmware/src/User/USB_Host/app_km.c:417
                                HostCtl[ index ].Interface[ num ].HidDescLen = ( (PUSB_HID_DESCR)( &Com_Buf[ i ] ) )->wDescriptorLengthL | \
     606:	97d2                	add	a5,a5,s4
     608:	97ce                	add	a5,a5,s3
C:/Repository/RISKYKVM/firmware/src/User/USB_Host/app_km.c:405
                                    HostCtl[ index ].Interface[ num ].OutEndpSize[ outnum ] = ( (PUSB_ENDP_DESCR)( &Com_Buf[ i ] ) )->wMaxPacketSizeL +
     60a:	02ec0733          	mul	a4,s8,a4
     60e:	983a                	add	a6,a6,a4
C:/Repository/RISKYKVM/firmware/src/User/USB_Host/app_km.c:378
                        if( ( Com_Buf[ i + 1 ] == DEF_DECR_INTERFACE ) || ( i >= Com_Buf[ 2 ] ) )
     610:	00890733          	add	a4,s2,s0
     614:	00174603          	lbu	a2,1(a4)
     618:	0c660363          	beq	a2,t1,6de <KM_AnalyzeConfigDesc+0x1cc>
C:/Repository/RISKYKVM/firmware/src/User/USB_Host/app_km.c:378 (discriminator 1)
     61c:	0d147163          	bgeu	s0,a7,6de <KM_AnalyzeConfigDesc+0x1cc>
C:/Repository/RISKYKVM/firmware/src/User/USB_Host/app_km.c:385
                            if( Com_Buf[ i + 1 ] == DEF_DECR_ENDPOINT )
     620:	00074583          	lbu	a1,0(a4)
     624:	942e                	add	s0,s0,a1
     626:	0442                	slli	s0,s0,0x10
     628:	8041                	srli	s0,s0,0x10
     62a:	09c61f63          	bne	a2,t3,6c8 <KM_AnalyzeConfigDesc+0x1b6>
C:/Repository/RISKYKVM/firmware/src/User/USB_Host/app_km.c:388
                                if( ( (PUSB_ENDP_DESCR)( &Com_Buf[ i ] ) )->bEndpointAddress & 0x80 )
     62e:	00574603          	lbu	a2,5(a4)
     632:	00274583          	lbu	a1,2(a4)
     636:	00474f03          	lbu	t5,4(a4)
     63a:	0622                	slli	a2,a2,0x8
     63c:	00f5f293          	andi	t0,a1,15
     640:	967a                	add	a2,a2,t5
     642:	05e2                	slli	a1,a1,0x18
     644:	0642                	slli	a2,a2,0x10
     646:	85e1                	srai	a1,a1,0x18
     648:	00374f83          	lbu	t6,3(a4)
     64c:	8241                	srli	a2,a2,0x10
     64e:	0405d763          	bgez	a1,69c <KM_AnalyzeConfigDesc+0x18a>
C:/Repository/RISKYKVM/firmware/src/User/USB_Host/app_km.c:395
                                    HostCtl[ index ].Interface[ num ].InEndpInterval[ innum ] = ( (PUSB_ENDP_DESCR)( &Com_Buf[ i ] ) )->bInterval;
     652:	00674703          	lbu	a4,6(a4)
C:/Repository/RISKYKVM/firmware/src/User/USB_Host/app_km.c:391
                                    HostCtl[ index ].Interface[ num ].InEndpAddr[ innum ] = ( (PUSB_ENDP_DESCR)( &Com_Buf[ i ] ) )->bEndpointAddress & 0x0F;
     656:	00a78f33          	add	t5,a5,a0
C:/Repository/RISKYKVM/firmware/src/User/USB_Host/app_km.c:393
                                    HostCtl[ index ].Interface[ num ].InEndpSize[ innum ] = ( (PUSB_ENDP_DESCR)( &Com_Buf[ i ] ) )->wMaxPacketSizeL +
     65a:	00a805b3          	add	a1,a6,a0
C:/Repository/RISKYKVM/firmware/src/User/USB_Host/app_km.c:395
                                    HostCtl[ index ].Interface[ num ].InEndpInterval[ innum ] = ( (PUSB_ENDP_DESCR)( &Com_Buf[ i ] ) )->bInterval;
     65e:	02ef0023          	sb	a4,32(t5)
C:/Repository/RISKYKVM/firmware/src/User/USB_Host/app_km.c:396
                                    HostCtl[ index ].Interface[ num ].InEndpNum++;
     662:	00a7c703          	lbu	a4,10(a5)
C:/Repository/RISKYKVM/firmware/src/User/USB_Host/app_km.c:393
                                    HostCtl[ index ].Interface[ num ].InEndpSize[ innum ] = ( (PUSB_ENDP_DESCR)( &Com_Buf[ i ] ) )->wMaxPacketSizeL +
     666:	05a1                	addi	a1,a1,8
     668:	0586                	slli	a1,a1,0x1
     66a:	95ce                	add	a1,a1,s3
C:/Repository/RISKYKVM/firmware/src/User/USB_Host/app_km.c:396
                                    HostCtl[ index ].Interface[ num ].InEndpNum++;
     66c:	0705                	addi	a4,a4,1
C:/Repository/RISKYKVM/firmware/src/User/USB_Host/app_km.c:398
                                    innum++;
     66e:	0505                	addi	a0,a0,1
C:/Repository/RISKYKVM/firmware/src/User/USB_Host/app_km.c:391
                                    HostCtl[ index ].Interface[ num ].InEndpAddr[ innum ] = ( (PUSB_ENDP_DESCR)( &Com_Buf[ i ] ) )->bEndpointAddress & 0x0F;
     670:	005f05a3          	sb	t0,11(t5)
C:/Repository/RISKYKVM/firmware/src/User/USB_Host/app_km.c:392
                                    HostCtl[ index ].Interface[ num ].InEndpType[ innum ] = ( (PUSB_ENDP_DESCR)( &Com_Buf[ i ] ) )->bmAttributes;
     674:	01ff07a3          	sb	t6,15(t5)
C:/Repository/RISKYKVM/firmware/src/User/USB_Host/app_km.c:393
                                    HostCtl[ index ].Interface[ num ].InEndpSize[ innum ] = ( (PUSB_ENDP_DESCR)( &Com_Buf[ i ] ) )->wMaxPacketSizeL +
     678:	00c59223          	sh	a2,4(a1)
C:/Repository/RISKYKVM/firmware/src/User/USB_Host/app_km.c:396
                                    HostCtl[ index ].Interface[ num ].InEndpNum++;
     67c:	00e78523          	sb	a4,10(a5)
C:/Repository/RISKYKVM/firmware/src/User/USB_Host/app_km.c:398
                                    innum++;
     680:	0ff57513          	andi	a0,a0,255
     684:	b771                	j	610 <KM_AnalyzeConfigDesc+0xfe>
C:/Repository/RISKYKVM/firmware/src/User/USB_Host/app_km.c:367
                    else if( ( (PUSB_ITF_DESCR)( &Com_Buf[ i ] ) )->bInterfaceProtocol == 0x02 ) // Mouse
     686:	f57717e3          	bne	a4,s7,5d4 <KM_AnalyzeConfigDesc+0xc2>
C:/Repository/RISKYKVM/firmware/src/User/USB_Host/app_km.c:369
                        HostCtl[ index ].Interface[ num ].Type = DEC_MOUSE;
     68a:	11000793          	li	a5,272
     68e:	02f487b3          	mul	a5,s1,a5
     692:	97d2                	add	a5,a5,s4
     694:	97ce                	add	a5,a5,s3
     696:	01778223          	sb	s7,4(a5)
     69a:	b73d                	j	5c8 <KM_AnalyzeConfigDesc+0xb6>
C:/Repository/RISKYKVM/firmware/src/User/USB_Host/app_km.c:403
                                    HostCtl[ index ].Interface[ num ].OutEndpAddr[ outnum ] = ( (PUSB_ENDP_DESCR)( &Com_Buf[ i ] ) )->bEndpointAddress & 0x0f;
     69c:	00d78733          	add	a4,a5,a3
     6a0:	025704a3          	sb	t0,41(a4)
C:/Repository/RISKYKVM/firmware/src/User/USB_Host/app_km.c:404
                                    HostCtl[ index ].Interface[ num ].OutEndpType[ outnum ] = ( (PUSB_ENDP_DESCR)( &Com_Buf[ i ] ) )->bmAttributes;
     6a4:	03f706a3          	sb	t6,45(a4)
C:/Repository/RISKYKVM/firmware/src/User/USB_Host/app_km.c:405
                                    HostCtl[ index ].Interface[ num ].OutEndpSize[ outnum ] = ( (PUSB_ENDP_DESCR)( &Com_Buf[ i ] ) )->wMaxPacketSizeL +
     6a8:	00d80733          	add	a4,a6,a3
     6ac:	0741                	addi	a4,a4,16
     6ae:	0706                	slli	a4,a4,0x1
     6b0:	974e                	add	a4,a4,s3
     6b2:	00c71923          	sh	a2,18(a4)
C:/Repository/RISKYKVM/firmware/src/User/USB_Host/app_km.c:407
                                    HostCtl[ index ].Interface[ num ].OutEndpNum++;
     6b6:	0287c703          	lbu	a4,40(a5)
C:/Repository/RISKYKVM/firmware/src/User/USB_Host/app_km.c:409
                                    outnum++;
     6ba:	0685                	addi	a3,a3,1
     6bc:	0ff6f693          	andi	a3,a3,255
C:/Repository/RISKYKVM/firmware/src/User/USB_Host/app_km.c:407
                                    HostCtl[ index ].Interface[ num ].OutEndpNum++;
     6c0:	0705                	addi	a4,a4,1
     6c2:	02e78423          	sb	a4,40(a5)
C:/Repository/RISKYKVM/firmware/src/User/USB_Host/app_km.c:412
                                i += Com_Buf[ i ];
     6c6:	b7a9                	j	610 <KM_AnalyzeConfigDesc+0xfe>
C:/Repository/RISKYKVM/firmware/src/User/USB_Host/app_km.c:414
                            else if( Com_Buf[ i + 1 ] == DEF_DECR_HID )
     6c8:	f5d614e3          	bne	a2,t4,610 <KM_AnalyzeConfigDesc+0xfe>
C:/Repository/RISKYKVM/firmware/src/User/USB_Host/app_km.c:418
                                                                               ( (uint16_t)( ( (PUSB_HID_DESCR)( &Com_Buf[ i ] ) )->wDescriptorLengthH ) << 8 );
     6cc:	00874603          	lbu	a2,8(a4)
C:/Repository/RISKYKVM/firmware/src/User/USB_Host/app_km.c:417
                                HostCtl[ index ].Interface[ num ].HidDescLen = ( (PUSB_HID_DESCR)( &Com_Buf[ i ] ) )->wDescriptorLengthL | \
     6d0:	00774703          	lbu	a4,7(a4)
C:/Repository/RISKYKVM/firmware/src/User/USB_Host/app_km.c:418
                                                                               ( (uint16_t)( ( (PUSB_HID_DESCR)( &Com_Buf[ i ] ) )->wDescriptorLengthH ) << 8 );
     6d4:	0622                	slli	a2,a2,0x8
C:/Repository/RISKYKVM/firmware/src/User/USB_Host/app_km.c:417
                                HostCtl[ index ].Interface[ num ].HidDescLen = ( (PUSB_HID_DESCR)( &Com_Buf[ i ] ) )->wDescriptorLengthL | \
     6d6:	8f51                	or	a4,a4,a2
     6d8:	00e79323          	sh	a4,6(a5)
C:/Repository/RISKYKVM/firmware/src/User/USB_Host/app_km.c:419
                                i += Com_Buf[ i ];
     6dc:	bf15                	j	610 <KM_AnalyzeConfigDesc+0xfe>
C:/Repository/RISKYKVM/firmware/src/User/USB_Host/app_km.c:428
                    if( ( outnum == 1 ) && ( HostCtl[ index ].Interface[ num ].Type == DEC_KEY ) )
     6de:	4785                	li	a5,1
     6e0:	00f69f63          	bne	a3,a5,6fe <KM_AnalyzeConfigDesc+0x1ec>
C:/Repository/RISKYKVM/firmware/src/User/USB_Host/app_km.c:428 (discriminator 1)
     6e4:	11000793          	li	a5,272
     6e8:	02f487b3          	mul	a5,s1,a5
     6ec:	97d2                	add	a5,a5,s4
     6ee:	97ce                	add	a5,a5,s3
     6f0:	0047c703          	lbu	a4,4(a5)
     6f4:	00d71563          	bne	a4,a3,6fe <KM_AnalyzeConfigDesc+0x1ec>
C:/Repository/RISKYKVM/firmware/src/User/USB_Host/app_km.c:430
                        HostCtl[ index ].Interface[ num ].SetReport_Swi = 0xFF;
     6f8:	577d                	li	a4,-1
     6fa:	04e78123          	sb	a4,66(a5)
C:/Repository/RISKYKVM/firmware/src/User/USB_Host/app_km.c:448
            num++;
     6fe:	0485                	addi	s1,s1,1
     700:	0ff4f493          	andi	s1,s1,255
     704:	b5a9                	j	54e <KM_AnalyzeConfigDesc+0x3c>
C:/Repository/RISKYKVM/firmware/src/User/USB_Host/app_km.c:435
                    HostCtl[ index ].Interface[ num ].Type = DEC_UNKNOW;
     706:	11000793          	li	a5,272
     70a:	02f487b3          	mul	a5,s1,a5
     70e:	577d                	li	a4,-1
     710:	97d2                	add	a5,a5,s4
     712:	97ce                	add	a5,a5,s3
     714:	00e78223          	sb	a4,4(a5)
C:/Repository/RISKYKVM/firmware/src/User/USB_Host/app_km.c:436
                    i += Com_Buf[ i ];
     718:	008907b3          	add	a5,s2,s0
     71c:	0007c783          	lbu	a5,0(a5)
     720:	943e                	add	s0,s0,a5
     722:	0442                	slli	s0,s0,0x10
     724:	8041                	srli	s0,s0,0x10
     726:	bfe1                	j	6fe <KM_AnalyzeConfigDesc+0x1ec>
C:/Repository/RISKYKVM/firmware/src/User/USB_Host/app_km.c:442
                HostCtl[ index ].Interface[ num ].Type = DEC_UNKNOW;
     728:	11000713          	li	a4,272
     72c:	02e484b3          	mul	s1,s1,a4
     730:	44400713          	li	a4,1092
     734:	200007b7          	lui	a5,0x20000
     738:	02ec0c33          	mul	s8,s8,a4
     73c:	9c26                	add	s8,s8,s1
     73e:	0d878493          	addi	s1,a5,216 # 200000d8 <HostCtl>
     742:	94e2                	add	s1,s1,s8
     744:	57fd                	li	a5,-1
     746:	00f48223          	sb	a5,4(s1)
C:/Repository/RISKYKVM/firmware/src/User/USB_Host/app_km.c:457
        }
    }
    
    return s;
}
     74a:	50b2                	lw	ra,44(sp)
     74c:	5422                	lw	s0,40(sp)
     74e:	5492                	lw	s1,36(sp)
     750:	5902                	lw	s2,32(sp)
     752:	49f2                	lw	s3,28(sp)
     754:	4a62                	lw	s4,24(sp)
     756:	4ad2                	lw	s5,20(sp)
     758:	4b42                	lw	s6,16(sp)
     75a:	4bb2                	lw	s7,12(sp)
     75c:	4c22                	lw	s8,8(sp)
     75e:	4501                	li	a0,0
     760:	6145                	addi	sp,sp,48
     762:	8082                	ret

00000764 <KM_AnalyzeHidReportDesc>:
KM_AnalyzeHidReportDesc():
C:/Repository/RISKYKVM/firmware/src/User/USB_Host/app_km.c:480
    uint16_t report_bits;

    uint16_t i = 0;

    /* Usage Page(Generic Desktop), Usage(Kyeboard) */
    if( ( Com_Buf[ i + 0 ] == 0x05 ) && ( Com_Buf[ i + 1 ] == 0x01 ) &&
     764:	20001737          	lui	a4,0x20001
     768:	66074683          	lbu	a3,1632(a4) # 20001660 <Com_Buf>
     76c:	4795                	li	a5,5
     76e:	18f69f63          	bne	a3,a5,90c <__stack_size+0x10c>
C:/Repository/RISKYKVM/firmware/src/User/USB_Host/app_km.c:480 (discriminator 1)
     772:	66070793          	addi	a5,a4,1632
     776:	0017c683          	lbu	a3,1(a5)
     77a:	4785                	li	a5,1
     77c:	66070713          	addi	a4,a4,1632
     780:	18f69663          	bne	a3,a5,90c <__stack_size+0x10c>
C:/Repository/RISKYKVM/firmware/src/User/USB_Host/app_km.c:480 (discriminator 2)
     784:	00274683          	lbu	a3,2(a4)
     788:	47a5                	li	a5,9
     78a:	18f69163          	bne	a3,a5,90c <__stack_size+0x10c>
C:/Repository/RISKYKVM/firmware/src/User/USB_Host/app_km.c:481
        ( Com_Buf[ i + 2 ] == 0x09 ) && ( Com_Buf[ i + 3 ] == 0x06 ) )
     78e:	00374683          	lbu	a3,3(a4)
     792:	4799                	li	a5,6
     794:	16f69c63          	bne	a3,a5,90c <__stack_size+0x10c>
C:/Repository/RISKYKVM/firmware/src/User/USB_Host/app_km.c:488
        i += 4;
        report_size = 0;
        report_cnt = 0;
        report_bits = 0;

        while( i < HostCtl[ index ].Interface[ intf_num ].HidDescLen )
     798:	11000693          	li	a3,272
     79c:	44400813          	li	a6,1092
     7a0:	03050833          	mul	a6,a0,a6
     7a4:	200008b7          	lui	a7,0x20000
     7a8:	0d888613          	addi	a2,a7,216 # 200000d8 <HostCtl>
C:/Repository/RISKYKVM/firmware/src/User/USB_Host/app_km.c:469
{
     7ac:	1101                	addi	sp,sp,-32
     7ae:	ce22                	sw	s0,28(sp)
     7b0:	cc26                	sw	s1,24(sp)
     7b2:	ca4a                	sw	s2,20(sp)
     7b4:	c84e                	sw	s3,16(sp)
     7b6:	c652                	sw	s4,12(sp)
     7b8:	c456                	sw	s5,8(sp)
C:/Repository/RISKYKVM/firmware/src/User/USB_Host/app_km.c:488
        while( i < HostCtl[ index ].Interface[ intf_num ].HidDescLen )
     7ba:	02d586b3          	mul	a3,a1,a3
C:/Repository/RISKYKVM/firmware/src/User/USB_Host/app_km.c:469
{
     7be:	c25a                	sw	s6,4(sp)
     7c0:	c05e                	sw	s7,0(sp)
C:/Repository/RISKYKVM/firmware/src/User/USB_Host/app_km.c:483
        i += 4;
     7c2:	4791                	li	a5,4
C:/Repository/RISKYKVM/firmware/src/User/USB_Host/app_km.c:486
        report_bits = 0;
     7c4:	4301                	li	t1,0
C:/Repository/RISKYKVM/firmware/src/User/USB_Host/app_km.c:485
        report_cnt = 0;
     7c6:	4e81                	li	t4,0
C:/Repository/RISKYKVM/firmware/src/User/USB_Host/app_km.c:484
        report_size = 0;
     7c8:	4f01                	li	t5,0
C:/Repository/RISKYKVM/firmware/src/User/USB_Host/app_km.c:470
    uint8_t  id = 0x00;
     7ca:	4e01                	li	t3,0
     7cc:	0d888893          	addi	a7,a7,216
     7d0:	4411                	li	s0,4
C:/Repository/RISKYKVM/firmware/src/User/USB_Host/app_km.c:488
        while( i < HostCtl[ index ].Interface[ intf_num ].HidDescLen )
     7d2:	96c2                	add	a3,a3,a6
     7d4:	9636                	add	a2,a2,a3
     7d6:	00665383          	lhu	t2,6(a2)
C:/Repository/RISKYKVM/firmware/src/User/USB_Host/app_km.c:471
    uint8_t  led = 0x00;
     7da:	4801                	li	a6,0
     7dc:	07000f93          	li	t6,112
     7e0:	08000493          	li	s1,128
     7e4:	09000293          	li	t0,144
     7e8:	4921                	li	s2,8
     7ea:	49c1                	li	s3,16
     7ec:	02000a13          	li	s4,32
C:/Repository/RISKYKVM/firmware/src/User/USB_Host/app_km.c:510
                                report_bits += report_cnt * report_size;

                                /* Save report ID for output */
                                if( ( id != 0 ) && ( HostCtl[ index ].Interface[ intf_num ].IDFlag == 0 ) )
                                {
                                    HostCtl[ index ].Interface[ intf_num ].IDFlag = 1;
     7f0:	4a85                	li	s5,1
C:/Repository/RISKYKVM/firmware/src/User/USB_Host/app_km.c:488
        while( i < HostCtl[ index ].Interface[ intf_num ].HidDescLen )
     7f2:	0477e063          	bltu	a5,t2,832 <__stack_size+0x32>
C:/Repository/RISKYKVM/firmware/src/User/USB_Host/app_km.c:599
                    break;
            }
            i += size;
        }

        if( report_bits == 8 )
     7f6:	47a1                	li	a5,8
     7f8:	0ef31d63          	bne	t1,a5,8f2 <__stack_size+0xf2>
C:/Repository/RISKYKVM/firmware/src/User/USB_Host/app_km.c:601
        {
            if( HostCtl[ index ].Interface[ intf_num ].SetReport_Swi == 0 )
     7fc:	11000793          	li	a5,272
     800:	44400713          	li	a4,1092
     804:	02f587b3          	mul	a5,a1,a5
     808:	02e50733          	mul	a4,a0,a4
     80c:	97ba                	add	a5,a5,a4
     80e:	00f885b3          	add	a1,a7,a5
     812:	0425c783          	lbu	a5,66(a1)
     816:	e781                	bnez	a5,81e <__stack_size+0x1e>
C:/Repository/RISKYKVM/firmware/src/User/USB_Host/app_km.c:603
            {
                HostCtl[ index ].Interface[ intf_num ].SetReport_Swi = 1;
     818:	4785                	li	a5,1
     81a:	04f58123          	sb	a5,66(a1)
C:/Repository/RISKYKVM/firmware/src/User/USB_Host/app_km.c:611
        else
        {
            HostCtl[ index ].Interface[ intf_num ].SetReport_Swi = 0;
        }
    }
}
     81e:	4472                	lw	s0,28(sp)
     820:	44e2                	lw	s1,24(sp)
     822:	4952                	lw	s2,20(sp)
     824:	49c2                	lw	s3,16(sp)
     826:	4a32                	lw	s4,12(sp)
     828:	4aa2                	lw	s5,8(sp)
     82a:	4b12                	lw	s6,4(sp)
     82c:	4b82                	lw	s7,0(sp)
     82e:	6105                	addi	sp,sp,32
     830:	8082                	ret
C:/Repository/RISKYKVM/firmware/src/User/USB_Host/app_km.c:491
            size = Com_Buf[ i ] & 0x03;
     832:	00f706b3          	add	a3,a4,a5
     836:	0006c683          	lbu	a3,0(a3)
     83a:	0785                	addi	a5,a5,1
     83c:	07c2                	slli	a5,a5,0x10
C:/Repository/RISKYKVM/firmware/src/User/USB_Host/app_km.c:492
            type = Com_Buf[ i ] & 0x0C;
     83e:	00c6fb93          	andi	s7,a3,12
C:/Repository/RISKYKVM/firmware/src/User/USB_Host/app_km.c:491
            size = Com_Buf[ i ] & 0x03;
     842:	0036fb13          	andi	s6,a3,3
C:/Repository/RISKYKVM/firmware/src/User/USB_Host/app_km.c:493
            tag = Com_Buf[ i ] & 0xF0;
     846:	83c1                	srli	a5,a5,0x10
     848:	0f06f693          	andi	a3,a3,240
C:/Repository/RISKYKVM/firmware/src/User/USB_Host/app_km.c:495
            switch( type )
     84c:	028b8d63          	beq	s7,s0,886 <__stack_size+0x86>
     850:	072b8b63          	beq	s7,s2,8c6 <__stack_size+0xc6>
     854:	020b9563          	bnez	s7,87e <__stack_size+0x7e>
C:/Repository/RISKYKVM/firmware/src/User/USB_Host/app_km.c:499
                    switch( tag )
     858:	02569363          	bne	a3,t0,87e <__stack_size+0x7e>
C:/Repository/RISKYKVM/firmware/src/User/USB_Host/app_km.c:503
                            if( led )
     85c:	02080163          	beqz	a6,87e <__stack_size+0x7e>
C:/Repository/RISKYKVM/firmware/src/User/USB_Host/app_km.c:505
                                report_bits += report_cnt * report_size;
     860:	03ee86b3          	mul	a3,t4,t5
     864:	9336                	add	t1,t1,a3
     866:	0342                	slli	t1,t1,0x10
     868:	01035313          	srli	t1,t1,0x10
C:/Repository/RISKYKVM/firmware/src/User/USB_Host/app_km.c:508
                                if( ( id != 0 ) && ( HostCtl[ index ].Interface[ intf_num ].IDFlag == 0 ) )
     86c:	000e0963          	beqz	t3,87e <__stack_size+0x7e>
     870:	03e64683          	lbu	a3,62(a2)
     874:	e689                	bnez	a3,87e <__stack_size+0x7e>
C:/Repository/RISKYKVM/firmware/src/User/USB_Host/app_km.c:510
                                    HostCtl[ index ].Interface[ intf_num ].IDFlag = 1;
     876:	03560f23          	sb	s5,62(a2)
C:/Repository/RISKYKVM/firmware/src/User/USB_Host/app_km.c:511
                                    HostCtl[ index ].Interface[ intf_num ].ReportID = id;
     87a:	03c60fa3          	sb	t3,63(a2)
C:/Repository/RISKYKVM/firmware/src/User/USB_Host/app_km.c:596
            i += size;
     87e:	97da                	add	a5,a5,s6
     880:	07c2                	slli	a5,a5,0x10
     882:	83c1                	srli	a5,a5,0x10
     884:	b7bd                	j	7f2 <KM_AnalyzeHidReportDesc+0x8e>
C:/Repository/RISKYKVM/firmware/src/User/USB_Host/app_km.c:525
                    switch( tag )
     886:	03f68b63          	beq	a3,t6,8bc <__stack_size+0xbc>
     88a:	00dfeb63          	bltu	t6,a3,8a0 <__stack_size+0xa0>
     88e:	fae5                	bnez	a3,87e <__stack_size+0x7e>
C:/Repository/RISKYKVM/firmware/src/User/USB_Host/app_km.c:548
                            if( Com_Buf[ i ] == 0x08 )      // LED
     890:	00f706b3          	add	a3,a4,a5
     894:	0006c803          	lbu	a6,0(a3)
     898:	1861                	addi	a6,a6,-8
     89a:	00183813          	seqz	a6,a6
     89e:	b7c5                	j	87e <__stack_size+0x7e>
     8a0:	00968963          	beq	a3,s1,8b2 <__stack_size+0xb2>
     8a4:	fc569de3          	bne	a3,t0,87e <__stack_size+0x7e>
C:/Repository/RISKYKVM/firmware/src/User/USB_Host/app_km.c:536
                            report_cnt = Com_Buf[ i ];
     8a8:	00f706b3          	add	a3,a4,a5
     8ac:	0006ce83          	lbu	t4,0(a3)
C:/Repository/RISKYKVM/firmware/src/User/USB_Host/app_km.c:537
                            break;
     8b0:	b7f9                	j	87e <__stack_size+0x7e>
C:/Repository/RISKYKVM/firmware/src/User/USB_Host/app_km.c:530
                            id = Com_Buf[ i ];
     8b2:	00f706b3          	add	a3,a4,a5
     8b6:	0006ce03          	lbu	t3,0(a3)
C:/Repository/RISKYKVM/firmware/src/User/USB_Host/app_km.c:531
                            break;
     8ba:	b7d1                	j	87e <__stack_size+0x7e>
C:/Repository/RISKYKVM/firmware/src/User/USB_Host/app_km.c:542
                            report_size = Com_Buf[ i ];
     8bc:	00f706b3          	add	a3,a4,a5
     8c0:	0006cf03          	lbu	t5,0(a3)
C:/Repository/RISKYKVM/firmware/src/User/USB_Host/app_km.c:543
                            break;
     8c4:	bf6d                	j	87e <__stack_size+0x7e>
C:/Repository/RISKYKVM/firmware/src/User/USB_Host/app_km.c:566
                    switch( tag )
     8c6:	01368d63          	beq	a3,s3,8e0 <__stack_size+0xe0>
     8ca:	fb469ae3          	bne	a3,s4,87e <__stack_size+0x7e>
C:/Repository/RISKYKVM/firmware/src/User/USB_Host/app_km.c:580
                            if( led )
     8ce:	fa0808e3          	beqz	a6,87e <__stack_size+0x7e>
C:/Repository/RISKYKVM/firmware/src/User/USB_Host/app_km.c:582
                                HostCtl[ index ].Interface[ intf_num ].LED_Usage_Max = Com_Buf[ i ];
     8d2:	00f706b3          	add	a3,a4,a5
     8d6:	0006c683          	lbu	a3,0(a3)
     8da:	04d600a3          	sb	a3,65(a2)
     8de:	b745                	j	87e <__stack_size+0x7e>
C:/Repository/RISKYKVM/firmware/src/User/USB_Host/app_km.c:571
                            if( led )
     8e0:	f8080fe3          	beqz	a6,87e <__stack_size+0x7e>
C:/Repository/RISKYKVM/firmware/src/User/USB_Host/app_km.c:573
                                HostCtl[ index ].Interface[ intf_num ].LED_Usage_Min = Com_Buf[ i ];
     8e4:	00f706b3          	add	a3,a4,a5
     8e8:	0006c683          	lbu	a3,0(a3)
     8ec:	04d60023          	sb	a3,64(a2)
     8f0:	b779                	j	87e <__stack_size+0x7e>
C:/Repository/RISKYKVM/firmware/src/User/USB_Host/app_km.c:608
            HostCtl[ index ].Interface[ intf_num ].SetReport_Swi = 0;
     8f2:	11000793          	li	a5,272
     8f6:	02f587b3          	mul	a5,a1,a5
     8fa:	44400593          	li	a1,1092
     8fe:	02b50533          	mul	a0,a0,a1
     902:	97aa                	add	a5,a5,a0
     904:	97c6                	add	a5,a5,a7
     906:	04078123          	sb	zero,66(a5)
C:/Repository/RISKYKVM/firmware/src/User/USB_Host/app_km.c:611
}
     90a:	bf11                	j	81e <__stack_size+0x1e>
     90c:	8082                	ret

0000090e <KM_DealHidReportDesc>:
KM_DealHidReportDesc():
C:/Repository/RISKYKVM/firmware/src/User/USB_Host/app_km.c:623
 * @para    index: USB host port
 *
 * @return  The result of the acquisition and analysis.
 */
uint8_t KM_DealHidReportDesc( uint8_t index, uint8_t ep0_size )
{
     90e:	715d                	addi	sp,sp,-80
C:/Repository/RISKYKVM/firmware/src/User/USB_Host/app_km.c:632
#if DEF_DEBUG_PRINTF
    uint16_t i;
#endif

    getrep_cnt = 0;
    num_tmp = HostCtl[ index ].InterfaceNum;
     910:	44400793          	li	a5,1092
C:/Repository/RISKYKVM/firmware/src/User/USB_Host/app_km.c:623
{
     914:	d65e                	sw	s7,44(sp)
C:/Repository/RISKYKVM/firmware/src/User/USB_Host/app_km.c:632
    num_tmp = HostCtl[ index ].InterfaceNum;
     916:	02f50bb3          	mul	s7,a0,a5
C:/Repository/RISKYKVM/firmware/src/User/USB_Host/app_km.c:623
{
     91a:	c2a6                	sw	s1,68(sp)
C:/Repository/RISKYKVM/firmware/src/User/USB_Host/app_km.c:632
    num_tmp = HostCtl[ index ].InterfaceNum;
     91c:	200004b7          	lui	s1,0x20000
C:/Repository/RISKYKVM/firmware/src/User/USB_Host/app_km.c:623
{
     920:	c0ca                	sw	s2,64(sp)
C:/Repository/RISKYKVM/firmware/src/User/USB_Host/app_km.c:632
    num_tmp = HostCtl[ index ].InterfaceNum;
     922:	0d848913          	addi	s2,s1,216 # 200000d8 <HostCtl>
C:/Repository/RISKYKVM/firmware/src/User/USB_Host/app_km.c:623
{
     926:	de4e                	sw	s3,60(sp)
     928:	dc52                	sw	s4,56(sp)
     92a:	da56                	sw	s5,52(sp)
     92c:	d85a                	sw	s6,48(sp)
     92e:	d462                	sw	s8,40(sp)
     930:	ce6e                	sw	s11,28(sp)
     932:	c686                	sw	ra,76(sp)
     934:	c4a2                	sw	s0,72(sp)
     936:	d266                	sw	s9,36(sp)
     938:	d06a                	sw	s10,32(sp)
C:/Repository/RISKYKVM/firmware/src/User/USB_Host/app_km.c:632
    num_tmp = HostCtl[ index ].InterfaceNum;
     93a:	995e                	add	s2,s2,s7
     93c:	00094d03          	lbu	s10,0(s2)
C:/Repository/RISKYKVM/firmware/src/User/USB_Host/app_km.c:623
{
     940:	89aa                	mv	s3,a0
     942:	c42e                	sw	a1,8(sp)
C:/Repository/RISKYKVM/firmware/src/User/USB_Host/app_km.c:631
    getrep_cnt = 0;
     944:	4d81                	li	s11,0
     946:	0d848493          	addi	s1,s1,216
C:/Repository/RISKYKVM/firmware/src/User/USB_Host/app_km.c:635
    while( num_tmp )
    {
        num = HostCtl[ index ].InterfaceNum - num_tmp;
     94a:	8a5e                	mv	s4,s7
C:/Repository/RISKYKVM/firmware/src/User/USB_Host/app_km.c:636
        if( HostCtl[ index ].Interface[ num ].HidDescLen )
     94c:	11000a93          	li	s5,272
C:/Repository/RISKYKVM/firmware/src/User/USB_Host/app_km.c:643
GETREP_START:
            getrep_cnt++;
            
            /* Get HID report descriptor */
            DUG_PRINTF("Get Interface%x RepDesc: ", num );
            s = HID_GetHidDesr( ep0_size, num, Com_Buf, &HostCtl[ index ].Interface[ num ].HidDescLen );
     950:	20001b37          	lui	s6,0x20001
C:/Repository/RISKYKVM/firmware/src/User/USB_Host/app_km.c:667
                num_tmp--;
            }
            else
            {
                DUG_PRINTF( "Err(%02x)\r\n", s );
                if( getrep_cnt <= 5 )
     954:	4c15                	li	s8,5
C:/Repository/RISKYKVM/firmware/src/User/USB_Host/app_km.c:633
    while( num_tmp )
     956:	060d0e63          	beqz	s10,9d2 <KM_DealHidReportDesc+0xc4>
C:/Repository/RISKYKVM/firmware/src/User/USB_Host/app_km.c:635
        num = HostCtl[ index ].InterfaceNum - num_tmp;
     95a:	00094403          	lbu	s0,0(s2)
     95e:	41a40433          	sub	s0,s0,s10
     962:	0ff47413          	andi	s0,s0,255
C:/Repository/RISKYKVM/firmware/src/User/USB_Host/app_km.c:636
        if( HostCtl[ index ].Interface[ num ].HidDescLen )
     966:	03540cb3          	mul	s9,s0,s5
     96a:	014c8733          	add	a4,s9,s4
     96e:	9726                	add	a4,a4,s1
     970:	00675703          	lhu	a4,6(a4)
     974:	c739                	beqz	a4,9c2 <KM_DealHidReportDesc+0xb4>
     976:	9cde                	add	s9,s9,s7
C:/Repository/RISKYKVM/firmware/src/User/USB_Host/app_km.c:643
            s = HID_GetHidDesr( ep0_size, num, Com_Buf, &HostCtl[ index ].Interface[ num ].HidDescLen );
     978:	006c8713          	addi	a4,s9,6
     97c:	9726                	add	a4,a4,s1
     97e:	4522                	lw	a0,8(sp)
     980:	86ba                	mv	a3,a4
     982:	660b0613          	addi	a2,s6,1632 # 20001660 <Com_Buf>
     986:	85a2                	mv	a1,s0
     988:	c63a                	sw	a4,12(sp)
C:/Repository/RISKYKVM/firmware/src/User/USB_Host/app_km.c:639
            getrep_cnt++;
     98a:	0d85                	addi	s11,s11,1
C:/Repository/RISKYKVM/firmware/src/User/USB_Host/app_km.c:643
            s = HID_GetHidDesr( ep0_size, num, Com_Buf, &HostCtl[ index ].Interface[ num ].HidDescLen );
     98c:	2ad010ef          	jal	ra,2438 <HID_GetHidDesr>
C:/Repository/RISKYKVM/firmware/src/User/USB_Host/app_km.c:639
            getrep_cnt++;
     990:	0ffdfd93          	andi	s11,s11,255
C:/Repository/RISKYKVM/firmware/src/User/USB_Host/app_km.c:644
            if( s == ERR_SUCCESS )
     994:	4732                	lw	a4,12(sp)
     996:	e915                	bnez	a0,9ca <KM_DealHidReportDesc+0xbc>
C:/Repository/RISKYKVM/firmware/src/User/USB_Host/app_km.c:656
                KM_AnalyzeHidReportDesc( index, num );
     998:	85a2                	mv	a1,s0
C:/Repository/RISKYKVM/firmware/src/User/USB_Host/app_km.c:657
                parse_report_descriptor(Com_Buf, (uint16_t)HostCtl[ index ].Interface[ num ].HidDescLen , &HostCtl[ index ].Interface[ num ].HIDRptDesc);
     99a:	03540433          	mul	s0,s0,s5
C:/Repository/RISKYKVM/firmware/src/User/USB_Host/app_km.c:656
                KM_AnalyzeHidReportDesc( index, num );
     99e:	854e                	mv	a0,s3
     9a0:	33d1                	jal	764 <KM_AnalyzeHidReportDesc>
C:/Repository/RISKYKVM/firmware/src/User/USB_Host/app_km.c:657
                parse_report_descriptor(Com_Buf, (uint16_t)HostCtl[ index ].Interface[ num ].HidDescLen , &HostCtl[ index ].Interface[ num ].HIDRptDesc);
     9a2:	046c8613          	addi	a2,s9,70
     9a6:	9626                	add	a2,a2,s1
     9a8:	660b0513          	addi	a0,s6,1632
     9ac:	9452                	add	s0,s0,s4
     9ae:	9426                	add	s0,s0,s1
     9b0:	00645583          	lhu	a1,6(s0)
     9b4:	68e010ef          	jal	ra,2042 <parse_report_descriptor>
C:/Repository/RISKYKVM/firmware/src/User/USB_Host/app_km.c:660
                FifoInit(&HostCtl[ index ].Interface[ num ].buffer);
     9b8:	084c8513          	addi	a0,s9,132
     9bc:	9526                	add	a0,a0,s1
     9be:	73f020ef          	jal	ra,38fc <FifoInit>
C:/Repository/RISKYKVM/firmware/src/User/USB_Host/app_km.c:662
                num_tmp--;
     9c2:	1d7d                	addi	s10,s10,-1
     9c4:	0ffd7d13          	andi	s10,s10,255
     9c8:	b779                	j	956 <KM_DealHidReportDesc+0x48>
C:/Repository/RISKYKVM/firmware/src/User/USB_Host/app_km.c:667 (discriminator 3)
                if( getrep_cnt <= 5 )
     9ca:	fbbc7ae3          	bgeu	s8,s11,97e <KM_DealHidReportDesc+0x70>
C:/Repository/RISKYKVM/firmware/src/User/USB_Host/app_km.c:672
                {
                    goto GETREP_START;
                }

                return DEF_REP_DESCR_GETFAIL;
     9ce:	04800d13          	li	s10,72
C:/Repository/RISKYKVM/firmware/src/User/USB_Host/app_km.c:682
            num_tmp--;
        }
    }

    return s;
}
     9d2:	40b6                	lw	ra,76(sp)
     9d4:	4426                	lw	s0,72(sp)
     9d6:	856a                	mv	a0,s10
     9d8:	4496                	lw	s1,68(sp)
     9da:	4906                	lw	s2,64(sp)
     9dc:	59f2                	lw	s3,60(sp)
     9de:	5a62                	lw	s4,56(sp)
     9e0:	5ad2                	lw	s5,52(sp)
     9e2:	5b42                	lw	s6,48(sp)
     9e4:	5bb2                	lw	s7,44(sp)
     9e6:	5c22                	lw	s8,40(sp)
     9e8:	5c92                	lw	s9,36(sp)
     9ea:	5d02                	lw	s10,32(sp)
     9ec:	4df2                	lw	s11,28(sp)
     9ee:	6161                	addi	sp,sp,80
     9f0:	8082                	ret

000009f2 <HUB_AnalyzeConfigDesc>:
HUB_AnalyzeConfigDesc():
C:/Repository/RISKYKVM/firmware/src/User/USB_Host/app_km.c:870
                        {
                            /* Save endpoint related information (endpoint address, attribute, max packet size, polling interval) */
                            if( ( (PUSB_ENDP_DESCR)( &Com_Buf[ i ] ) )->bEndpointAddress & 0x80 )
                            {
                                /* IN */
                                HostCtl[ index ].Interface[ 0 ].InEndpAddr[ 0 ] = ( (PUSB_ENDP_DESCR)( &Com_Buf[ i ] ) )->bEndpointAddress & 0x0F;
     9f2:	44400713          	li	a4,1092
     9f6:	02e50533          	mul	a0,a0,a4
C:/Repository/RISKYKVM/firmware/src/User/USB_Host/app_km.c:835
    for( i = 0; i < ( Com_Buf[ 2 ] + ( (uint16_t)Com_Buf[ 3 ] << 8 ) ); )
     9fa:	200015b7          	lui	a1,0x20001
     9fe:	66058793          	addi	a5,a1,1632 # 20001660 <Com_Buf>
     a02:	0037c603          	lbu	a2,3(a5)
     a06:	0027c783          	lbu	a5,2(a5)
C:/Repository/RISKYKVM/firmware/src/User/USB_Host/app_km.c:870
                                HostCtl[ index ].Interface[ 0 ].InEndpAddr[ 0 ] = ( (PUSB_ENDP_DESCR)( &Com_Buf[ i ] ) )->bEndpointAddress & 0x0F;
     a0a:	200006b7          	lui	a3,0x20000
C:/Repository/RISKYKVM/firmware/src/User/USB_Host/app_km.c:835
    for( i = 0; i < ( Com_Buf[ 2 ] + ( (uint16_t)Com_Buf[ 3 ] << 8 ) ); )
     a0e:	0622                	slli	a2,a2,0x8
C:/Repository/RISKYKVM/firmware/src/User/USB_Host/app_km.c:870
                                HostCtl[ index ].Interface[ 0 ].InEndpAddr[ 0 ] = ( (PUSB_ENDP_DESCR)( &Com_Buf[ i ] ) )->bEndpointAddress & 0x0F;
     a10:	0d868693          	addi	a3,a3,216 # 200000d8 <HostCtl>
C:/Repository/RISKYKVM/firmware/src/User/USB_Host/app_km.c:835
    for( i = 0; i < ( Com_Buf[ 2 ] + ( (uint16_t)Com_Buf[ 3 ] << 8 ) ); )
     a14:	963e                	add	a2,a2,a5
     a16:	66058593          	addi	a1,a1,1632
     a1a:	4781                	li	a5,0
C:/Repository/RISKYKVM/firmware/src/User/USB_Host/app_km.c:837
        if( Com_Buf[ i + 1 ] == DEF_DECR_CONFIG )
     a1c:	4309                	li	t1,2
C:/Repository/RISKYKVM/firmware/src/User/USB_Host/app_km.c:850
        else if( Com_Buf[ i + 1 ] == DEF_DECR_INTERFACE )
     a1e:	4811                	li	a6,4
C:/Repository/RISKYKVM/firmware/src/User/USB_Host/app_km.c:852
            if( ( (PUSB_ITF_DESCR)( &Com_Buf[ i ] ) )->bInterfaceClass == 0x09 )
     a20:	4e25                	li	t3,9
C:/Repository/RISKYKVM/firmware/src/User/USB_Host/app_km.c:864
                        if( Com_Buf[ i + 1 ] == DEF_DECR_ENDPOINT )
     a22:	4e95                	li	t4,5
C:/Repository/RISKYKVM/firmware/src/User/USB_Host/app_km.c:870
                                HostCtl[ index ].Interface[ 0 ].InEndpAddr[ 0 ] = ( (PUSB_ENDP_DESCR)( &Com_Buf[ i ] ) )->bEndpointAddress & 0x0F;
     a24:	9536                	add	a0,a0,a3
C:/Repository/RISKYKVM/firmware/src/User/USB_Host/app_km.c:840
            if( ( (PUSB_CFG_DESCR)( &Com_Buf[ i ] ) )->bNumInterfaces > 1 )
     a26:	4885                	li	a7,1
C:/Repository/RISKYKVM/firmware/src/User/USB_Host/app_km.c:835 (discriminator 1)
    for( i = 0; i < ( Com_Buf[ 2 ] + ( (uint16_t)Com_Buf[ 3 ] << 8 ) ); )
     a28:	00c7c463          	blt	a5,a2,a30 <HUB_AnalyzeConfigDesc+0x3e>
C:/Repository/RISKYKVM/firmware/src/User/USB_Host/app_km.c:899
        {
            i += Com_Buf[ i ];
        }
    }
    return s;
}
     a2c:	4501                	li	a0,0
     a2e:	8082                	ret
C:/Repository/RISKYKVM/firmware/src/User/USB_Host/app_km.c:837
        if( Com_Buf[ i + 1 ] == DEF_DECR_CONFIG )
     a30:	00f58733          	add	a4,a1,a5
     a34:	00074f03          	lbu	t5,0(a4)
     a38:	00174683          	lbu	a3,1(a4)
     a3c:	97fa                	add	a5,a5,t5
     a3e:	07c2                	slli	a5,a5,0x10
     a40:	83c1                	srli	a5,a5,0x10
     a42:	00669c63          	bne	a3,t1,a5a <HUB_AnalyzeConfigDesc+0x68>
C:/Repository/RISKYKVM/firmware/src/User/USB_Host/app_km.c:840
            if( ( (PUSB_CFG_DESCR)( &Com_Buf[ i ] ) )->bNumInterfaces > 1 )
     a46:	00474703          	lbu	a4,4(a4)
     a4a:	00e8f563          	bgeu	a7,a4,a54 <HUB_AnalyzeConfigDesc+0x62>
C:/Repository/RISKYKVM/firmware/src/User/USB_Host/app_km.c:842
                HostCtl[ index ].InterfaceNum = 1;
     a4e:	01150023          	sb	a7,0(a0)
     a52:	bfd9                	j	a28 <HUB_AnalyzeConfigDesc+0x36>
C:/Repository/RISKYKVM/firmware/src/User/USB_Host/app_km.c:846
                HostCtl[ index ].InterfaceNum = ( (PUSB_CFG_DESCR)( &Com_Buf[ i ] ) )->bNumInterfaces;
     a54:	00e50023          	sb	a4,0(a0)
C:/Repository/RISKYKVM/firmware/src/User/USB_Host/app_km.c:848
            i += Com_Buf[ i ];
     a58:	bfc1                	j	a28 <HUB_AnalyzeConfigDesc+0x36>
C:/Repository/RISKYKVM/firmware/src/User/USB_Host/app_km.c:850
        else if( Com_Buf[ i + 1 ] == DEF_DECR_INTERFACE )
     a5a:	fd0697e3          	bne	a3,a6,a28 <HUB_AnalyzeConfigDesc+0x36>
C:/Repository/RISKYKVM/firmware/src/User/USB_Host/app_km.c:852
            if( ( (PUSB_ITF_DESCR)( &Com_Buf[ i ] ) )->bInterfaceClass == 0x09 )
     a5e:	00574703          	lbu	a4,5(a4)
     a62:	fdc713e3          	bne	a4,t3,a28 <HUB_AnalyzeConfigDesc+0x36>
C:/Repository/RISKYKVM/firmware/src/User/USB_Host/app_km.c:857
                    if( ( Com_Buf[ i + 1 ] == DEF_DECR_INTERFACE ) || ( i >= ( Com_Buf[ 2 ] + ( (uint16_t)Com_Buf[ 3 ] << 8 ) ) ) )
     a66:	00f58733          	add	a4,a1,a5
     a6a:	00174683          	lbu	a3,1(a4)
     a6e:	fb068de3          	beq	a3,a6,a28 <HUB_AnalyzeConfigDesc+0x36>
C:/Repository/RISKYKVM/firmware/src/User/USB_Host/app_km.c:857 (discriminator 1)
     a72:	fac7dbe3          	bge	a5,a2,a28 <HUB_AnalyzeConfigDesc+0x36>
C:/Repository/RISKYKVM/firmware/src/User/USB_Host/app_km.c:864
                        if( Com_Buf[ i + 1 ] == DEF_DECR_ENDPOINT )
     a76:	00074f03          	lbu	t5,0(a4)
     a7a:	97fa                	add	a5,a5,t5
     a7c:	07c2                	slli	a5,a5,0x10
     a7e:	83c1                	srli	a5,a5,0x10
     a80:	ffd693e3          	bne	a3,t4,a66 <HUB_AnalyzeConfigDesc+0x74>
C:/Repository/RISKYKVM/firmware/src/User/USB_Host/app_km.c:867
                            if( ( (PUSB_ENDP_DESCR)( &Com_Buf[ i ] ) )->bEndpointAddress & 0x80 )
     a84:	00274683          	lbu	a3,2(a4)
     a88:	01869f13          	slli	t5,a3,0x18
     a8c:	418f5f13          	srai	t5,t5,0x18
     a90:	fc0f5be3          	bgez	t5,a66 <HUB_AnalyzeConfigDesc+0x74>
C:/Repository/RISKYKVM/firmware/src/User/USB_Host/app_km.c:870
                                HostCtl[ index ].Interface[ 0 ].InEndpAddr[ 0 ] = ( (PUSB_ENDP_DESCR)( &Com_Buf[ i ] ) )->bEndpointAddress & 0x0F;
     a94:	8abd                	andi	a3,a3,15
     a96:	00d505a3          	sb	a3,11(a0)
C:/Repository/RISKYKVM/firmware/src/User/USB_Host/app_km.c:871
                                HostCtl[ index ].Interface[ 0 ].InEndpType[ 0 ] = ( (PUSB_ENDP_DESCR)( &Com_Buf[ i ] ) )->bmAttributes;
     a9a:	00374683          	lbu	a3,3(a4)
C:/Repository/RISKYKVM/firmware/src/User/USB_Host/app_km.c:872
                                HostCtl[ index ].Interface[ 0 ].InEndpSize[ 0 ] = ( (PUSB_ENDP_DESCR)( &Com_Buf[ i ] ) )->wMaxPacketSizeL + \
     a9e:	00474f03          	lbu	t5,4(a4)
C:/Repository/RISKYKVM/firmware/src/User/USB_Host/app_km.c:871
                                HostCtl[ index ].Interface[ 0 ].InEndpType[ 0 ] = ( (PUSB_ENDP_DESCR)( &Com_Buf[ i ] ) )->bmAttributes;
     aa2:	00d507a3          	sb	a3,15(a0)
C:/Repository/RISKYKVM/firmware/src/User/USB_Host/app_km.c:873
                                                                                  (uint16_t)( ( ( (PUSB_ENDP_DESCR)( &Com_Buf[ i ] ) )->wMaxPacketSizeH ) << 8 );
     aa6:	00574683          	lbu	a3,5(a4)
C:/Repository/RISKYKVM/firmware/src/User/USB_Host/app_km.c:874
                                HostCtl[ index ].Interface[ 0 ].InEndpInterval[ 0 ] = ( (PUSB_ENDP_DESCR)( &Com_Buf[ i ] ) )->bInterval;
     aaa:	00674703          	lbu	a4,6(a4)
C:/Repository/RISKYKVM/firmware/src/User/USB_Host/app_km.c:873
                                                                                  (uint16_t)( ( ( (PUSB_ENDP_DESCR)( &Com_Buf[ i ] ) )->wMaxPacketSizeH ) << 8 );
     aae:	06a2                	slli	a3,a3,0x8
C:/Repository/RISKYKVM/firmware/src/User/USB_Host/app_km.c:874
                                HostCtl[ index ].Interface[ 0 ].InEndpInterval[ 0 ] = ( (PUSB_ENDP_DESCR)( &Com_Buf[ i ] ) )->bInterval;
     ab0:	02e50023          	sb	a4,32(a0)
C:/Repository/RISKYKVM/firmware/src/User/USB_Host/app_km.c:875
                                HostCtl[ index ].Interface[ 0 ].InEndpNum++;
     ab4:	00a54703          	lbu	a4,10(a0)
C:/Repository/RISKYKVM/firmware/src/User/USB_Host/app_km.c:872
                                HostCtl[ index ].Interface[ 0 ].InEndpSize[ 0 ] = ( (PUSB_ENDP_DESCR)( &Com_Buf[ i ] ) )->wMaxPacketSizeL + \
     ab8:	96fa                	add	a3,a3,t5
     aba:	00d51a23          	sh	a3,20(a0)
C:/Repository/RISKYKVM/firmware/src/User/USB_Host/app_km.c:875
                                HostCtl[ index ].Interface[ 0 ].InEndpNum++;
     abe:	0705                	addi	a4,a4,1
     ac0:	00e50523          	sb	a4,10(a0)
C:/Repository/RISKYKVM/firmware/src/User/USB_Host/app_km.c:878
                            i += Com_Buf[ i ];
     ac4:	b74d                	j	a66 <HUB_AnalyzeConfigDesc+0x74>

00000ac6 <USBH_EnumHubDevice>:
USBH_EnumHubDevice():
C:/Repository/RISKYKVM/firmware/src/User/USB_Host/app_km.c:911
 * @para    index: USB host port
 *
 * @return  The result of the enumeration.
 */
uint8_t USBH_EnumHubDevice( void )
{
     ac6:	7179                	addi	sp,sp,-48
     ac8:	d422                	sw	s0,40(sp)
C:/Repository/RISKYKVM/firmware/src/User/USB_Host/app_km.c:920

    DUG_PRINTF( "Enum Hub:\r\n" );

    /* Analyze HID class device configuration descriptor and save relevant parameters */
    DUG_PRINTF("Analyze CfgDesc: ");
    s = HUB_AnalyzeConfigDesc( RootHubDev.DeviceIndex );
     aca:	20001437          	lui	s0,0x20001
C:/Repository/RISKYKVM/firmware/src/User/USB_Host/app_km.c:911
{
     ace:	d04a                	sw	s2,32(sp)
     ad0:	d606                	sw	ra,44(sp)
     ad2:	d226                	sw	s1,36(sp)
     ad4:	ce4e                	sw	s3,28(sp)
     ad6:	cc52                	sw	s4,24(sp)
C:/Repository/RISKYKVM/firmware/src/User/USB_Host/app_km.c:920
    s = HUB_AnalyzeConfigDesc( RootHubDev.DeviceIndex );
     ad8:	64040793          	addi	a5,s0,1600 # 20001640 <RootHubDev>
     adc:	0057c503          	lbu	a0,5(a5)
     ae0:	3f09                	jal	9f2 <HUB_AnalyzeConfigDesc>
     ae2:	892a                	mv	s2,a0
C:/Repository/RISKYKVM/firmware/src/User/USB_Host/app_km.c:921
    if( s == ERR_SUCCESS )
     ae4:	ed69                	bnez	a0,bbe <USBH_EnumHubDevice+0xf8>
C:/Repository/RISKYKVM/firmware/src/User/USB_Host/app_km.c:932
        DUG_PRINTF( "Err(%02x)\r\n", s );
        return s;
    }

    /* Get the string descriptor contained in the configuration descriptor if it exists */
    if( Com_Buf[ 6 ] )
     ae6:	200014b7          	lui	s1,0x20001
     aea:	66048793          	addi	a5,s1,1632 # 20001660 <Com_Buf>
     aee:	0067c583          	lbu	a1,6(a5)
     af2:	64040413          	addi	s0,s0,1600
     af6:	66048a13          	addi	s4,s1,1632
     afa:	c599                	beqz	a1,b08 <USBH_EnumHubDevice+0x42>
C:/Repository/RISKYKVM/firmware/src/User/USB_Host/app_km.c:935
    {
        DUG_PRINTF("Get StringDesc4: ");
        s = USBFSH_GetStrDescr( RootHubDev.bEp0MaxPks, Com_Buf[ 6 ], Com_Buf );
     afc:	00444503          	lbu	a0,4(s0)
     b00:	66048613          	addi	a2,s1,1632
     b04:	158010ef          	jal	ra,1c5c <USBFSH_GetStrDescr>
C:/Repository/RISKYKVM/firmware/src/User/USB_Host/app_km.c:954
            DUG_PRINTF( "Err(%02x)\r\n", s );
        }
    }

    /* Get USB vendor string descriptor  */
    if( DevDesc_Buf[ 14 ] )
     b08:	20001937          	lui	s2,0x20001
     b0c:	62c90793          	addi	a5,s2,1580 # 2000162c <DevDesc_Buf>
     b10:	00e7c583          	lbu	a1,14(a5)
     b14:	62c90913          	addi	s2,s2,1580
     b18:	c599                	beqz	a1,b26 <USBH_EnumHubDevice+0x60>
C:/Repository/RISKYKVM/firmware/src/User/USB_Host/app_km.c:957
    {
        DUG_PRINTF("Get StringDesc1: ");
        s = USBFSH_GetStrDescr( RootHubDev.bEp0MaxPks, DevDesc_Buf[ 14 ], Com_Buf );
     b1a:	00444503          	lbu	a0,4(s0)
     b1e:	66048613          	addi	a2,s1,1632
     b22:	13a010ef          	jal	ra,1c5c <USBFSH_GetStrDescr>
C:/Repository/RISKYKVM/firmware/src/User/USB_Host/app_km.c:976
            DUG_PRINTF( "Err(%02x)\r\n", s );
        }
    }

    /* Get USB product string descriptor */
    if( DevDesc_Buf[ 15 ] )
     b26:	00f94583          	lbu	a1,15(s2)
     b2a:	c599                	beqz	a1,b38 <USBH_EnumHubDevice+0x72>
C:/Repository/RISKYKVM/firmware/src/User/USB_Host/app_km.c:979
    {
        DUG_PRINTF("Get StringDesc2: ");
        s = USBFSH_GetStrDescr( RootHubDev.bEp0MaxPks, DevDesc_Buf[ 15 ], Com_Buf );
     b2c:	00444503          	lbu	a0,4(s0)
     b30:	66048613          	addi	a2,s1,1632
     b34:	128010ef          	jal	ra,1c5c <USBFSH_GetStrDescr>
C:/Repository/RISKYKVM/firmware/src/User/USB_Host/app_km.c:998
            DUG_PRINTF( "Err(%02x)\r\n", s );
        }
    }

    /* Get USB serial number string descriptor */
    if( DevDesc_Buf[ 16 ] )
     b38:	01094583          	lbu	a1,16(s2)
     b3c:	c599                	beqz	a1,b4a <USBH_EnumHubDevice+0x84>
C:/Repository/RISKYKVM/firmware/src/User/USB_Host/app_km.c:1001
    {
        DUG_PRINTF("Get StringDesc3: ");
        s = USBFSH_GetStrDescr( RootHubDev.bEp0MaxPks, DevDesc_Buf[ 16 ], Com_Buf );
     b3e:	00444503          	lbu	a0,4(s0)
     b42:	66048613          	addi	a2,s1,1632
     b46:	116010ef          	jal	ra,1c5c <USBFSH_GetStrDescr>
C:/Repository/RISKYKVM/firmware/src/User/USB_Host/app_km.c:911
{
     b4a:	4995                	li	s3,5
C:/Repository/RISKYKVM/firmware/src/User/USB_Host/app_km.c:1023

    /* Get hub descriptor */
    DUG_PRINTF("Get Hub Desc: ");
    for( retry = 0; retry < 5; retry++ )
    {
        s = HUB_GetClassDevDescr( RootHubDev.bEp0MaxPks, Com_Buf, &len );
     b4c:	00444503          	lbu	a0,4(s0)
     b50:	00e10613          	addi	a2,sp,14
     b54:	66048593          	addi	a1,s1,1632
     b58:	1d9010ef          	jal	ra,2530 <HUB_GetClassDevDescr>
     b5c:	892a                	mv	s2,a0
C:/Repository/RISKYKVM/firmware/src/User/USB_Host/app_km.c:1024
        if( s == ERR_SUCCESS )
     b5e:	e929                	bnez	a0,bb0 <USBH_EnumHubDevice+0xea>
C:/Repository/RISKYKVM/firmware/src/User/USB_Host/app_km.c:1035
                DUG_PRINTF( "%02x ", Com_Buf[ i ] );
            }
            DUG_PRINTF("\r\n");
#endif

            RootHubDev.bPortNum = ( (PUSB_HUB_DESCR)Com_Buf)->bNbrPorts;
     b60:	002a4703          	lbu	a4,2(s4)
C:/Repository/RISKYKVM/firmware/src/User/USB_Host/app_km.c:1036
            if( RootHubDev.bPortNum > DEF_NEXT_HUB_PORT_NUM_MAX )
     b64:	4791                	li	a5,4
     b66:	04e7e263          	bltu	a5,a4,baa <USBH_EnumHubDevice+0xe4>
C:/Repository/RISKYKVM/firmware/src/User/USB_Host/app_km.c:1035
            RootHubDev.bPortNum = ( (PUSB_HUB_DESCR)Com_Buf)->bNbrPorts;
     b6a:	00e40323          	sb	a4,6(s0)
C:/Repository/RISKYKVM/firmware/src/User/USB_Host/app_km.c:911
{
     b6e:	4981                	li	s3,0
     b70:	4485                	li	s1,1
C:/Repository/RISKYKVM/firmware/src/User/USB_Host/app_km.c:1069
        {
            Delay_Ms( 5 );

            i--;
            retry++;
            if( retry >= 5 )
     b72:	4a11                	li	s4,4
C:/Repository/RISKYKVM/firmware/src/User/USB_Host/app_km.c:1056
    for( retry = 0, i = 1; i <= RootHubDev.bPortNum; i++ )
     b74:	00644783          	lbu	a5,6(s0)
     b78:	0497e363          	bltu	a5,s1,bbe <USBH_EnumHubDevice+0xf8>
C:/Repository/RISKYKVM/firmware/src/User/USB_Host/app_km.c:1058
        s = HUB_SetPortFeature( RootHubDev.bEp0MaxPks, i, HUB_PORT_POWER );
     b7c:	00444503          	lbu	a0,4(s0)
     b80:	4621                	li	a2,8
     b82:	0ff4f593          	andi	a1,s1,255
     b86:	185010ef          	jal	ra,250a <HUB_SetPortFeature>
C:/Repository/RISKYKVM/firmware/src/User/USB_Host/app_km.c:1059
        if( s == ERR_SUCCESS )
     b8a:	cd01                	beqz	a0,ba2 <USBH_EnumHubDevice+0xdc>
C:/Repository/RISKYKVM/firmware/src/User/USB_Host/app_km.c:1067
            i--;
     b8c:	14fd                	addi	s1,s1,-1
C:/Repository/RISKYKVM/firmware/src/User/USB_Host/app_km.c:1068
            retry++;
     b8e:	0985                	addi	s3,s3,1
C:/Repository/RISKYKVM/firmware/src/User/USB_Host/app_km.c:1065
            Delay_Ms( 5 );
     b90:	4515                	li	a0,5
C:/Repository/RISKYKVM/firmware/src/User/USB_Host/app_km.c:1067
            i--;
     b92:	04c2                	slli	s1,s1,0x10
C:/Repository/RISKYKVM/firmware/src/User/USB_Host/app_km.c:1068
            retry++;
     b94:	0ff9f993          	andi	s3,s3,255
C:/Repository/RISKYKVM/firmware/src/User/USB_Host/app_km.c:1065
            Delay_Ms( 5 );
     b98:	492030ef          	jal	ra,402a <Delay_Ms>
C:/Repository/RISKYKVM/firmware/src/User/USB_Host/app_km.c:1067
            i--;
     b9c:	80c1                	srli	s1,s1,0x10
C:/Repository/RISKYKVM/firmware/src/User/USB_Host/app_km.c:1069
            if( retry >= 5 )
     b9e:	013a6e63          	bltu	s4,s3,bba <USBH_EnumHubDevice+0xf4>
C:/Repository/RISKYKVM/firmware/src/User/USB_Host/app_km.c:1056
    for( retry = 0, i = 1; i <= RootHubDev.bPortNum; i++ )
     ba2:	0485                	addi	s1,s1,1
     ba4:	04c2                	slli	s1,s1,0x10
     ba6:	80c1                	srli	s1,s1,0x10
     ba8:	b7f1                	j	b74 <USBH_EnumHubDevice+0xae>
C:/Repository/RISKYKVM/firmware/src/User/USB_Host/app_km.c:1038
                RootHubDev.bPortNum = DEF_NEXT_HUB_PORT_NUM_MAX;
     baa:	00f40323          	sb	a5,6(s0)
     bae:	b7c1                	j	b6e <USBH_EnumHubDevice+0xa8>
C:/Repository/RISKYKVM/firmware/src/User/USB_Host/app_km.c:1048
            if( retry == 4 )
     bb0:	19fd                	addi	s3,s3,-1
     bb2:	0ff9f993          	andi	s3,s3,255
     bb6:	f8099be3          	bnez	s3,b4c <USBH_EnumHubDevice+0x86>
C:/Repository/RISKYKVM/firmware/src/User/USB_Host/app_km.c:1050
                return ERR_USB_UNKNOWN;
     bba:	0fe00913          	li	s2,254
C:/Repository/RISKYKVM/firmware/src/User/USB_Host/app_km.c:1077
            }
        }
    }

    return ERR_SUCCESS;
}
     bbe:	50b2                	lw	ra,44(sp)
     bc0:	5422                	lw	s0,40(sp)
     bc2:	854a                	mv	a0,s2
     bc4:	5492                	lw	s1,36(sp)
     bc6:	5902                	lw	s2,32(sp)
     bc8:	49f2                	lw	s3,28(sp)
     bca:	4a62                	lw	s4,24(sp)
     bcc:	6145                	addi	sp,sp,48
     bce:	8082                	ret

00000bd0 <HUB_Port_PreEnum1>:
HUB_Port_PreEnum1():
C:/Repository/RISKYKVM/firmware/src/User/USB_Host/app_km.c:1089
 * @para
 *
 * @return  none
 */
uint8_t HUB_Port_PreEnum1( uint8_t hub_port, uint8_t *pbuf )
{
     bd0:	7179                	addi	sp,sp,-48
     bd2:	d606                	sw	ra,44(sp)
     bd4:	d422                	sw	s0,40(sp)
     bd6:	d226                	sw	s1,36(sp)
     bd8:	d04a                	sw	s2,32(sp)
     bda:	ce4e                	sw	s3,28(sp)
C:/Repository/RISKYKVM/firmware/src/User/USB_Host/app_km.c:1094
    uint8_t  s;
    uint8_t  buf[ 4 ];
    uint8_t  retry;

    if( ( *pbuf ) & ( 1 << hub_port ) )
     bdc:	0005c783          	lbu	a5,0(a1)
     be0:	40a7d7b3          	sra	a5,a5,a0
     be4:	8b85                	andi	a5,a5,1
     be6:	c785                	beqz	a5,c0e <HUB_Port_PreEnum1+0x3e>
C:/Repository/RISKYKVM/firmware/src/User/USB_Host/app_km.c:1096
    {
        s = HUB_GetPortStatus( RootHubDev.bEp0MaxPks, hub_port, &buf[ 0 ] );
     be8:	20001937          	lui	s2,0x20001
     bec:	64090793          	addi	a5,s2,1600 # 20001640 <RootHubDev>
     bf0:	85aa                	mv	a1,a0
     bf2:	84aa                	mv	s1,a0
     bf4:	0047c503          	lbu	a0,4(a5)
     bf8:	0070                	addi	a2,sp,12
     bfa:	64090913          	addi	s2,s2,1600
     bfe:	0b7010ef          	jal	ra,24b4 <HUB_GetPortStatus>
     c02:	842a                	mv	s0,a0
C:/Repository/RISKYKVM/firmware/src/User/USB_Host/app_km.c:1097
        if( s != ERR_SUCCESS )
     c04:	e931                	bnez	a0,c58 <HUB_Port_PreEnum1+0x88>
C:/Repository/RISKYKVM/firmware/src/User/USB_Host/app_km.c:1104
            DUG_PRINTF( "HUB_PE1_ERR1:%x\r\n", s );
            return s;
        }
        else
        {
            if( buf[ 2 ] & 0x01 )
     c06:	00e14783          	lbu	a5,14(sp)
     c0a:	8b85                	andi	a5,a5,1
     c0c:	e781                	bnez	a5,c14 <HUB_Port_PreEnum1+0x44>
C:/Repository/RISKYKVM/firmware/src/User/USB_Host/app_km.c:1137
                }
            }
        }
    }

    return ERR_USB_UNKNOWN;
     c0e:	0fe00413          	li	s0,254
     c12:	a099                	j	c58 <HUB_Port_PreEnum1+0x88>
C:/Repository/RISKYKVM/firmware/src/User/USB_Host/app_km.c:1106
                s = HUB_ClearPortFeature( RootHubDev.bEp0MaxPks, hub_port, HUB_C_PORT_CONNECTION );
     c14:	00494503          	lbu	a0,4(s2)
     c18:	4641                	li	a2,16
     c1a:	85a6                	mv	a1,s1
     c1c:	0c9010ef          	jal	ra,24e4 <HUB_ClearPortFeature>
     c20:	842a                	mv	s0,a0
C:/Repository/RISKYKVM/firmware/src/User/USB_Host/app_km.c:1107
                if( s != ERR_SUCCESS )
     c22:	e91d                	bnez	a0,c58 <HUB_Port_PreEnum1+0x88>
C:/Repository/RISKYKVM/firmware/src/User/USB_Host/app_km.c:1123
                }while( ( buf[ 2 ] & 0x01 ) && ( retry < 10 ) );
     c24:	49a9                	li	s3,10
C:/Repository/RISKYKVM/firmware/src/User/USB_Host/app_km.c:1116
                    s = HUB_GetPortStatus( RootHubDev.bEp0MaxPks, hub_port, &buf[ 0 ] );
     c26:	00494503          	lbu	a0,4(s2)
     c2a:	0070                	addi	a2,sp,12
     c2c:	85a6                	mv	a1,s1
     c2e:	087010ef          	jal	ra,24b4 <HUB_GetPortStatus>
C:/Repository/RISKYKVM/firmware/src/User/USB_Host/app_km.c:1117
                    if( s != ERR_SUCCESS )
     c32:	e91d                	bnez	a0,c68 <HUB_Port_PreEnum1+0x98>
C:/Repository/RISKYKVM/firmware/src/User/USB_Host/app_km.c:1123
                }while( ( buf[ 2 ] & 0x01 ) && ( retry < 10 ) );
     c34:	00e14783          	lbu	a5,14(sp)
C:/Repository/RISKYKVM/firmware/src/User/USB_Host/app_km.c:1122
                    retry++;
     c38:	0405                	addi	s0,s0,1
     c3a:	0ff47413          	andi	s0,s0,255
C:/Repository/RISKYKVM/firmware/src/User/USB_Host/app_km.c:1123
                }while( ( buf[ 2 ] & 0x01 ) && ( retry < 10 ) );
     c3e:	8b85                	andi	a5,a5,1
     c40:	c781                	beqz	a5,c48 <HUB_Port_PreEnum1+0x78>
     c42:	ff3412e3          	bne	s0,s3,c26 <HUB_Port_PreEnum1+0x56>
     c46:	b7e1                	j	c0e <HUB_Port_PreEnum1+0x3e>
C:/Repository/RISKYKVM/firmware/src/User/USB_Host/app_km.c:1125
                if( retry != 10 )
     c48:	47a9                	li	a5,10
     c4a:	fcf402e3          	beq	s0,a5,c0e <HUB_Port_PreEnum1+0x3e>
C:/Repository/RISKYKVM/firmware/src/User/USB_Host/app_km.c:1127
                    if( !( buf[ 0 ] & 0x01 ) )
     c4e:	00c14783          	lbu	a5,12(sp)
C:/Repository/RISKYKVM/firmware/src/User/USB_Host/app_km.c:1130
                        return ERR_USB_DISCON;
     c52:	4459                	li	s0,22
C:/Repository/RISKYKVM/firmware/src/User/USB_Host/app_km.c:1127
                    if( !( buf[ 0 ] & 0x01 ) )
     c54:	8b85                	andi	a5,a5,1
     c56:	ffc5                	bnez	a5,c0e <HUB_Port_PreEnum1+0x3e>
C:/Repository/RISKYKVM/firmware/src/User/USB_Host/app_km.c:1138
}
     c58:	8522                	mv	a0,s0
     c5a:	50b2                	lw	ra,44(sp)
     c5c:	5422                	lw	s0,40(sp)
     c5e:	5492                	lw	s1,36(sp)
     c60:	5902                	lw	s2,32(sp)
     c62:	49f2                	lw	s3,28(sp)
     c64:	6145                	addi	sp,sp,48
     c66:	8082                	ret
C:/Repository/RISKYKVM/firmware/src/User/USB_Host/app_km.c:1116
                    s = HUB_GetPortStatus( RootHubDev.bEp0MaxPks, hub_port, &buf[ 0 ] );
     c68:	842a                	mv	s0,a0
     c6a:	b7fd                	j	c58 <HUB_Port_PreEnum1+0x88>

00000c6c <HUB_Port_PreEnum2>:
HUB_Port_PreEnum2():
C:/Repository/RISKYKVM/firmware/src/User/USB_Host/app_km.c:1150
 * @para
 *
 * @return  none
 */
uint8_t HUB_Port_PreEnum2( uint8_t hub_port, uint8_t *pbuf )
{
     c6c:	7179                	addi	sp,sp,-48
     c6e:	d422                	sw	s0,40(sp)
     c70:	d606                	sw	ra,44(sp)
     c72:	d226                	sw	s1,36(sp)
     c74:	d04a                	sw	s2,32(sp)
     c76:	ce4e                	sw	s3,28(sp)
C:/Repository/RISKYKVM/firmware/src/User/USB_Host/app_km.c:1155
    uint8_t  s;
    uint8_t  buf[ 4 ];
    uint8_t  retry = 0;

    if( ( *pbuf ) & ( 1 << hub_port ) )
     c78:	0005c783          	lbu	a5,0(a1)
C:/Repository/RISKYKVM/firmware/src/User/USB_Host/app_km.c:1203
                }
            }
        }
    }

    return ERR_USB_UNKNOWN;
     c7c:	0fe00413          	li	s0,254
C:/Repository/RISKYKVM/firmware/src/User/USB_Host/app_km.c:1155
    if( ( *pbuf ) & ( 1 << hub_port ) )
     c80:	40a7d7b3          	sra	a5,a5,a0
     c84:	8b85                	andi	a5,a5,1
     c86:	cbc1                	beqz	a5,d16 <HUB_Port_PreEnum2+0xaa>
C:/Repository/RISKYKVM/firmware/src/User/USB_Host/app_km.c:1157
        s = HUB_SetPortFeature( RootHubDev.bEp0MaxPks, hub_port, HUB_PORT_RESET );
     c88:	20001937          	lui	s2,0x20001
     c8c:	64090793          	addi	a5,s2,1600 # 20001640 <RootHubDev>
     c90:	85aa                	mv	a1,a0
     c92:	84aa                	mv	s1,a0
     c94:	0047c503          	lbu	a0,4(a5)
     c98:	4611                	li	a2,4
     c9a:	64090913          	addi	s2,s2,1600
     c9e:	06d010ef          	jal	ra,250a <HUB_SetPortFeature>
     ca2:	842a                	mv	s0,a0
C:/Repository/RISKYKVM/firmware/src/User/USB_Host/app_km.c:1158
        if( s != ERR_SUCCESS )
     ca4:	e92d                	bnez	a0,d16 <HUB_Port_PreEnum2+0xaa>
C:/Repository/RISKYKVM/firmware/src/User/USB_Host/app_km.c:1164
        Delay_Ms( 10 );
     ca6:	4529                	li	a0,10
     ca8:	382030ef          	jal	ra,402a <Delay_Ms>
C:/Repository/RISKYKVM/firmware/src/User/USB_Host/app_km.c:1174
        }while( ( !( buf[ 2 ] & 0x10 ) ) && ( retry <= 10 ) );
     cac:	49ad                	li	s3,11
C:/Repository/RISKYKVM/firmware/src/User/USB_Host/app_km.c:1167
            s = HUB_GetPortStatus( RootHubDev.bEp0MaxPks, hub_port, &buf[ 0 ] );
     cae:	00494503          	lbu	a0,4(s2)
     cb2:	0070                	addi	a2,sp,12
     cb4:	85a6                	mv	a1,s1
     cb6:	7fe010ef          	jal	ra,24b4 <HUB_GetPortStatus>
C:/Repository/RISKYKVM/firmware/src/User/USB_Host/app_km.c:1168
            if( s != ERR_SUCCESS )
     cba:	ed29                	bnez	a0,d14 <HUB_Port_PreEnum2+0xa8>
C:/Repository/RISKYKVM/firmware/src/User/USB_Host/app_km.c:1174
        }while( ( !( buf[ 2 ] & 0x10 ) ) && ( retry <= 10 ) );
     cbc:	00e14783          	lbu	a5,14(sp)
C:/Repository/RISKYKVM/firmware/src/User/USB_Host/app_km.c:1173
            retry++;
     cc0:	0405                	addi	s0,s0,1
     cc2:	0ff47413          	andi	s0,s0,255
C:/Repository/RISKYKVM/firmware/src/User/USB_Host/app_km.c:1174
        }while( ( !( buf[ 2 ] & 0x10 ) ) && ( retry <= 10 ) );
     cc6:	8bc1                	andi	a5,a5,16
     cc8:	e3a9                	bnez	a5,d0a <HUB_Port_PreEnum2+0x9e>
     cca:	ff3412e3          	bne	s0,s3,cae <HUB_Port_PreEnum2+0x42>
C:/Repository/RISKYKVM/firmware/src/User/USB_Host/app_km.c:1179
            s = HUB_ClearPortFeature( RootHubDev.bEp0MaxPks, hub_port, HUB_C_PORT_RESET  );
     cce:	00494503          	lbu	a0,4(s2)
     cd2:	4651                	li	a2,20
     cd4:	85a6                	mv	a1,s1
     cd6:	00f010ef          	jal	ra,24e4 <HUB_ClearPortFeature>
C:/Repository/RISKYKVM/firmware/src/User/USB_Host/app_km.c:1178
            retry = 0;
     cda:	4401                	li	s0,0
C:/Repository/RISKYKVM/firmware/src/User/USB_Host/app_km.c:1190
            }while( ( buf[ 2 ] & 0x10 ) && ( retry <= 10 ) );
     cdc:	49ad                	li	s3,11
C:/Repository/RISKYKVM/firmware/src/User/USB_Host/app_km.c:1183
                s = HUB_GetPortStatus( RootHubDev.bEp0MaxPks, hub_port, &buf[ 0 ] );
     cde:	00494503          	lbu	a0,4(s2)
     ce2:	0070                	addi	a2,sp,12
     ce4:	85a6                	mv	a1,s1
     ce6:	7ce010ef          	jal	ra,24b4 <HUB_GetPortStatus>
C:/Repository/RISKYKVM/firmware/src/User/USB_Host/app_km.c:1184
                if( s != ERR_SUCCESS )
     cea:	e50d                	bnez	a0,d14 <HUB_Port_PreEnum2+0xa8>
C:/Repository/RISKYKVM/firmware/src/User/USB_Host/app_km.c:1190
            }while( ( buf[ 2 ] & 0x10 ) && ( retry <= 10 ) );
     cec:	00e14783          	lbu	a5,14(sp)
C:/Repository/RISKYKVM/firmware/src/User/USB_Host/app_km.c:1189
                retry++;
     cf0:	0405                	addi	s0,s0,1
     cf2:	0ff47413          	andi	s0,s0,255
C:/Repository/RISKYKVM/firmware/src/User/USB_Host/app_km.c:1190
            }while( ( buf[ 2 ] & 0x10 ) && ( retry <= 10 ) );
     cf6:	8bc1                	andi	a5,a5,16
     cf8:	c79d                	beqz	a5,d26 <HUB_Port_PreEnum2+0xba>
     cfa:	ff3412e3          	bne	s0,s3,cde <HUB_Port_PreEnum2+0x72>
C:/Repository/RISKYKVM/firmware/src/User/USB_Host/app_km.c:1194
                if( buf[ 0 ] & 0x01 )
     cfe:	00c14783          	lbu	a5,12(sp)
     d02:	8b85                	andi	a5,a5,1
     d04:	c791                	beqz	a5,d10 <HUB_Port_PreEnum2+0xa4>
C:/Repository/RISKYKVM/firmware/src/User/USB_Host/app_km.c:1197
                    return ERR_USB_CONNECT;
     d06:	4555                	li	a0,21
     d08:	a031                	j	d14 <HUB_Port_PreEnum2+0xa8>
C:/Repository/RISKYKVM/firmware/src/User/USB_Host/app_km.c:1176
        if( retry != 10 )
     d0a:	47a9                	li	a5,10
     d0c:	fcf411e3          	bne	s0,a5,cce <HUB_Port_PreEnum2+0x62>
C:/Repository/RISKYKVM/firmware/src/User/USB_Host/app_km.c:1203
    return ERR_USB_UNKNOWN;
     d10:	0fe00513          	li	a0,254
     d14:	842a                	mv	s0,a0
C:/Repository/RISKYKVM/firmware/src/User/USB_Host/app_km.c:1204
}
     d16:	8522                	mv	a0,s0
     d18:	50b2                	lw	ra,44(sp)
     d1a:	5422                	lw	s0,40(sp)
     d1c:	5492                	lw	s1,36(sp)
     d1e:	5902                	lw	s2,32(sp)
     d20:	49f2                	lw	s3,28(sp)
     d22:	6145                	addi	sp,sp,48
     d24:	8082                	ret
C:/Repository/RISKYKVM/firmware/src/User/USB_Host/app_km.c:1192
            if( retry != 10 )
     d26:	47a9                	li	a5,10
     d28:	fef404e3          	beq	s0,a5,d10 <HUB_Port_PreEnum2+0xa4>
     d2c:	bfc9                	j	cfe <HUB_Port_PreEnum2+0x92>

00000d2e <HUB_CheckPortSpeed>:
HUB_CheckPortSpeed():
C:/Repository/RISKYKVM/firmware/src/User/USB_Host/app_km.c:1216
 * @para
 *
 * @return  none
 */
uint8_t HUB_CheckPortSpeed( uint8_t hub_port, uint8_t *pbuf )
{
     d2e:	1141                	addi	sp,sp,-16
C:/Repository/RISKYKVM/firmware/src/User/USB_Host/app_km.c:1219
    uint8_t  s;

    s = HUB_GetPortStatus( RootHubDev.bEp0MaxPks, hub_port, pbuf );
     d30:	200017b7          	lui	a5,0x20001
C:/Repository/RISKYKVM/firmware/src/User/USB_Host/app_km.c:1216
{
     d34:	c422                	sw	s0,8(sp)
C:/Repository/RISKYKVM/firmware/src/User/USB_Host/app_km.c:1219
    s = HUB_GetPortStatus( RootHubDev.bEp0MaxPks, hub_port, pbuf );
     d36:	862e                	mv	a2,a1
C:/Repository/RISKYKVM/firmware/src/User/USB_Host/app_km.c:1216
{
     d38:	842e                	mv	s0,a1
C:/Repository/RISKYKVM/firmware/src/User/USB_Host/app_km.c:1219
    s = HUB_GetPortStatus( RootHubDev.bEp0MaxPks, hub_port, pbuf );
     d3a:	85aa                	mv	a1,a0
     d3c:	6447c503          	lbu	a0,1604(a5) # 20001644 <RootHubDev+0x4>
C:/Repository/RISKYKVM/firmware/src/User/USB_Host/app_km.c:1216
{
     d40:	c606                	sw	ra,12(sp)
C:/Repository/RISKYKVM/firmware/src/User/USB_Host/app_km.c:1219
    s = HUB_GetPortStatus( RootHubDev.bEp0MaxPks, hub_port, pbuf );
     d42:	772010ef          	jal	ra,24b4 <HUB_GetPortStatus>
C:/Repository/RISKYKVM/firmware/src/User/USB_Host/app_km.c:1220
    if( s )
     d46:	e919                	bnez	a0,d5c <HUB_CheckPortSpeed+0x2e>
C:/Repository/RISKYKVM/firmware/src/User/USB_Host/app_km.c:1225
    {
        return s;
    }

    if( pbuf[ 1 ] & 0x02 )
     d48:	00144783          	lbu	a5,1(s0)
     d4c:	0027f713          	andi	a4,a5,2
     d50:	e711                	bnez	a4,d5c <HUB_CheckPortSpeed+0x2e>
C:/Repository/RISKYKVM/firmware/src/User/USB_Host/app_km.c:1231
    {
        return USB_LOW_SPEED;
    }
    else
    {
        if( pbuf[ 1 ] & 0x04 )
     d52:	0047f513          	andi	a0,a5,4
C:/Repository/RISKYKVM/firmware/src/User/USB_Host/app_km.c:1237
        {
            return USB_HIGH_SPEED;
        }
        else
        {
            return USB_FULL_SPEED;
     d56:	00a03533          	snez	a0,a0
     d5a:	0505                	addi	a0,a0,1
C:/Repository/RISKYKVM/firmware/src/User/USB_Host/app_km.c:1240
        }
    }
}
     d5c:	40b2                	lw	ra,12(sp)
     d5e:	4422                	lw	s0,8(sp)
     d60:	0141                	addi	sp,sp,16
     d62:	8082                	ret

00000d64 <USBH_EnumHubPortDevice>:
USBH_EnumHubPortDevice():
C:/Repository/RISKYKVM/firmware/src/User/USB_Host/app_km.c:1252
 * @para
 *
 * @return  none
 */
uint8_t USBH_EnumHubPortDevice( uint8_t hub_port, uint8_t *paddr, uint8_t *ptype )
{
     d64:	7139                	addi	sp,sp,-64
     d66:	da26                	sw	s1,52(sp)
C:/Repository/RISKYKVM/firmware/src/User/USB_Host/app_km.c:1267
    DUG_PRINTF("(S1)Get DevDesc: \r\n");
    enum_cnt = 0;
    do
    {
        enum_cnt++;
        s = USBFSH_GetDeviceDescr( &RootHubDev.Device[ hub_port ].bEp0MaxPks, DevDesc_Buf );
     d68:	4499                	li	s1,6
     d6a:	029504b3          	mul	s1,a0,s1
C:/Repository/RISKYKVM/firmware/src/User/USB_Host/app_km.c:1252
{
     d6e:	dc22                	sw	s0,56(sp)
C:/Repository/RISKYKVM/firmware/src/User/USB_Host/app_km.c:1267
        s = USBFSH_GetDeviceDescr( &RootHubDev.Device[ hub_port ].bEp0MaxPks, DevDesc_Buf );
     d70:	20001437          	lui	s0,0x20001
     d74:	64040793          	addi	a5,s0,1600 # 20001640 <RootHubDev>
C:/Repository/RISKYKVM/firmware/src/User/USB_Host/app_km.c:1252
{
     d78:	ce5e                	sw	s7,28(sp)
C:/Repository/RISKYKVM/firmware/src/User/USB_Host/app_km.c:1267
        s = USBFSH_GetDeviceDescr( &RootHubDev.Device[ hub_port ].bEp0MaxPks, DevDesc_Buf );
     d7a:	20001bb7          	lui	s7,0x20001
C:/Repository/RISKYKVM/firmware/src/User/USB_Host/app_km.c:1252
{
     d7e:	d84a                	sw	s2,48(sp)
     d80:	d64e                	sw	s3,44(sp)
     d82:	d452                	sw	s4,40(sp)
     d84:	d256                	sw	s5,36(sp)
C:/Repository/RISKYKVM/firmware/src/User/USB_Host/app_km.c:1267
        s = USBFSH_GetDeviceDescr( &RootHubDev.Device[ hub_port ].bEp0MaxPks, DevDesc_Buf );
     d86:	04ad                	addi	s1,s1,11
C:/Repository/RISKYKVM/firmware/src/User/USB_Host/app_km.c:1252
{
     d88:	d05a                	sw	s6,32(sp)
     d8a:	de06                	sw	ra,60(sp)
     d8c:	892a                	mv	s2,a0
     d8e:	8a2e                	mv	s4,a1
     d90:	89b2                	mv	s3,a2
C:/Repository/RISKYKVM/firmware/src/User/USB_Host/app_km.c:1267
        s = USBFSH_GetDeviceDescr( &RootHubDev.Device[ hub_port ].bEp0MaxPks, DevDesc_Buf );
     d92:	94be                	add	s1,s1,a5
     d94:	4b29                	li	s6,10
     d96:	64040413          	addi	s0,s0,1600
     d9a:	8ade                	mv	s5,s7
     d9c:	62cb8593          	addi	a1,s7,1580 # 2000162c <DevDesc_Buf>
     da0:	8526                	mv	a0,s1
     da2:	5c9000ef          	jal	ra,1b6a <USBFSH_GetDeviceDescr>
C:/Repository/RISKYKVM/firmware/src/User/USB_Host/app_km.c:1268
        if( s == ERR_SUCCESS )
     da6:	c11d                	beqz	a0,dcc <USBH_EnumHubPortDevice+0x68>
C:/Repository/RISKYKVM/firmware/src/User/USB_Host/app_km.c:1281 (discriminator 3)
#endif
        }
        else
        {
            DUG_PRINTF( "Err(%02x)\r\n", s );
            if( enum_cnt >= 10 )
     da8:	1b7d                	addi	s6,s6,-1
     daa:	0ffb7b13          	andi	s6,s6,255
     dae:	fe0b17e3          	bnez	s6,d9c <USBH_EnumHubPortDevice+0x38>
C:/Repository/RISKYKVM/firmware/src/User/USB_Host/app_km.c:1283
            {
                return DEF_DEV_DESCR_GETFAIL;
     db2:	04500513          	li	a0,69
C:/Repository/RISKYKVM/firmware/src/User/USB_Host/app_km.c:1364
            }
        }
    }while( ( s != ERR_SUCCESS ) && ( enum_cnt < 10 ) );

    return( ERR_SUCCESS );
}
     db6:	50f2                	lw	ra,60(sp)
     db8:	5462                	lw	s0,56(sp)
     dba:	54d2                	lw	s1,52(sp)
     dbc:	5942                	lw	s2,48(sp)
     dbe:	59b2                	lw	s3,44(sp)
     dc0:	5a22                	lw	s4,40(sp)
     dc2:	5a92                	lw	s5,36(sp)
     dc4:	5b02                	lw	s6,32(sp)
     dc6:	4bf2                	lw	s7,28(sp)
     dc8:	6121                	addi	sp,sp,64
     dca:	8082                	ret
C:/Repository/RISKYKVM/firmware/src/User/USB_Host/app_km.c:1295
                                  RootHubDev.Device[ hub_port ].DeviceIndex + USB_DEVICE_ADDR );
     dcc:	4499                	li	s1,6
     dce:	029904b3          	mul	s1,s2,s1
     dd2:	4b29                	li	s6,10
     dd4:	94a2                	add	s1,s1,s0
C:/Repository/RISKYKVM/firmware/src/User/USB_Host/app_km.c:1294
        s = USBFSH_SetUsbAddress( RootHubDev.Device[ hub_port ].bEp0MaxPks, \
     dd6:	00c4c583          	lbu	a1,12(s1)
     dda:	00b4c503          	lbu	a0,11(s1)
     dde:	0589                	addi	a1,a1,2
     de0:	0ff5f593          	andi	a1,a1,255
     de4:	6f3000ef          	jal	ra,1cd6 <USBFSH_SetUsbAddress>
C:/Repository/RISKYKVM/firmware/src/User/USB_Host/app_km.c:1296
        if( s == ERR_SUCCESS )
     de8:	e925                	bnez	a0,e58 <USBH_EnumHubPortDevice+0xf4>
C:/Repository/RISKYKVM/firmware/src/User/USB_Host/app_km.c:1299
            *paddr = RootHubDev.Device[ hub_port ].DeviceIndex + USB_DEVICE_ADDR;
     dea:	00c4c783          	lbu	a5,12(s1)
C:/Repository/RISKYKVM/firmware/src/User/USB_Host/app_km.c:1310
    Delay_Ms( 5 );
     dee:	4515                	li	a0,5
     df0:	44a9                	li	s1,10
C:/Repository/RISKYKVM/firmware/src/User/USB_Host/app_km.c:1299
            *paddr = RootHubDev.Device[ hub_port ].DeviceIndex + USB_DEVICE_ADDR;
     df2:	0789                	addi	a5,a5,2
     df4:	00fa0023          	sb	a5,0(s4)
C:/Repository/RISKYKVM/firmware/src/User/USB_Host/app_km.c:1318
        s = USBFSH_GetConfigDescr( RootHubDev.Device[ hub_port ].bEp0MaxPks, Com_Buf, DEF_COM_BUF_LEN, &len );
     df8:	4a19                	li	s4,6
     dfa:	03490a33          	mul	s4,s2,s4
C:/Repository/RISKYKVM/firmware/src/User/USB_Host/app_km.c:1310
    Delay_Ms( 5 );
     dfe:	22c030ef          	jal	ra,402a <Delay_Ms>
C:/Repository/RISKYKVM/firmware/src/User/USB_Host/app_km.c:1318
        s = USBFSH_GetConfigDescr( RootHubDev.Device[ hub_port ].bEp0MaxPks, Com_Buf, DEF_COM_BUF_LEN, &len );
     e02:	20001b37          	lui	s6,0x20001
     e06:	9a22                	add	s4,s4,s0
     e08:	00ba4503          	lbu	a0,11(s4)
     e0c:	00e10693          	addi	a3,sp,14
     e10:	40000613          	li	a2,1024
     e14:	660b0593          	addi	a1,s6,1632 # 20001660 <Com_Buf>
     e18:	5ab000ef          	jal	ra,1bc2 <USBFSH_GetConfigDescr>
C:/Repository/RISKYKVM/firmware/src/User/USB_Host/app_km.c:1319
        if( s == ERR_SUCCESS )
     e1c:	e531                	bnez	a0,e68 <USBH_EnumHubPortDevice+0x104>
C:/Repository/RISKYKVM/firmware/src/User/USB_Host/app_km.c:1330
            cfg_val = ( (PUSB_CFG_DESCR)Com_Buf )->bConfigurationValue;
     e1e:	660b0793          	addi	a5,s6,1632
C:/Repository/RISKYKVM/firmware/src/User/USB_Host/app_km.c:1333
            USBH_AnalyseType( DevDesc_Buf, Com_Buf, ptype );
     e22:	864e                	mv	a2,s3
     e24:	660b0593          	addi	a1,s6,1632
     e28:	62ca8513          	addi	a0,s5,1580
C:/Repository/RISKYKVM/firmware/src/User/USB_Host/app_km.c:1330
            cfg_val = ( (PUSB_CFG_DESCR)Com_Buf )->bConfigurationValue;
     e2c:	0057ca03          	lbu	s4,5(a5)
C:/Repository/RISKYKVM/firmware/src/User/USB_Host/app_km.c:1333
            USBH_AnalyseType( DevDesc_Buf, Com_Buf, ptype );
     e30:	d5cff0ef          	jal	ra,38c <USBH_AnalyseType>
C:/Repository/RISKYKVM/firmware/src/User/USB_Host/app_km.c:1352
        s = USBFSH_SetUsbConfig( RootHubDev.Device[ hub_port ].bEp0MaxPks, cfg_val );
     e34:	4799                	li	a5,6
     e36:	02f90933          	mul	s2,s2,a5
C:/Repository/RISKYKVM/firmware/src/User/USB_Host/app_km.c:1333
            USBH_AnalyseType( DevDesc_Buf, Com_Buf, ptype );
     e3a:	44a9                	li	s1,10
C:/Repository/RISKYKVM/firmware/src/User/USB_Host/app_km.c:1352
        s = USBFSH_SetUsbConfig( RootHubDev.Device[ hub_port ].bEp0MaxPks, cfg_val );
     e3c:	944a                	add	s0,s0,s2
     e3e:	00b44503          	lbu	a0,11(s0)
     e42:	85d2                	mv	a1,s4
     e44:	6d7000ef          	jal	ra,1d1a <USBFSH_SetUsbConfig>
C:/Repository/RISKYKVM/firmware/src/User/USB_Host/app_km.c:1353
        if( s != ERR_SUCCESS )
     e48:	d53d                	beqz	a0,db6 <USBH_EnumHubPortDevice+0x52>
C:/Repository/RISKYKVM/firmware/src/User/USB_Host/app_km.c:1356 (discriminator 3)
            if( enum_cnt >= 10 )
     e4a:	14fd                	addi	s1,s1,-1
     e4c:	0ff4f493          	andi	s1,s1,255
     e50:	f4fd                	bnez	s1,e3e <USBH_EnumHubPortDevice+0xda>
C:/Repository/RISKYKVM/firmware/src/User/USB_Host/app_km.c:1358
                return DEF_CFG_VALUE_SETFAIL;
     e52:	04900513          	li	a0,73
     e56:	b785                	j	db6 <USBH_EnumHubPortDevice+0x52>
C:/Repository/RISKYKVM/firmware/src/User/USB_Host/app_km.c:1304 (discriminator 3)
            if( enum_cnt >= 10 )
     e58:	1b7d                	addi	s6,s6,-1
     e5a:	0ffb7b13          	andi	s6,s6,255
     e5e:	f60b1ce3          	bnez	s6,dd6 <USBH_EnumHubPortDevice+0x72>
C:/Repository/RISKYKVM/firmware/src/User/USB_Host/app_km.c:1306
                return DEF_DEV_ADDR_SETFAIL;
     e62:	04600513          	li	a0,70
     e66:	bf81                	j	db6 <USBH_EnumHubPortDevice+0x52>
C:/Repository/RISKYKVM/firmware/src/User/USB_Host/app_km.c:1339 (discriminator 3)
            if( enum_cnt >= 10 )
     e68:	14fd                	addi	s1,s1,-1
     e6a:	0ff4f493          	andi	s1,s1,255
     e6e:	fcc9                	bnez	s1,e08 <USBH_EnumHubPortDevice+0xa4>
     e70:	b789                	j	db2 <USBH_EnumHubPortDevice+0x4e>

00000e72 <KB_AnalyzeKeyValue>:
KB_AnalyzeKeyValue():
C:/Repository/RISKYKVM/firmware/src/User/USB_Host/app_km.c:1379
 *          len: Data length.
 *
 * @return  The result of the analysis.
 */
void KB_AnalyzeKeyValue( uint8_t index, uint8_t intf_num, uint8_t *pbuf, uint16_t len )
{
     e72:	7139                	addi	sp,sp,-64
     e74:	c86a                	sw	s10,16(sp)
C:/Repository/RISKYKVM/firmware/src/User/USB_Host/app_km.c:1384
    uint8_t  i;
    uint8_t  value;
    uint8_t  bit_pos = 0x00;

    value = HostCtl[ index ].Interface[ intf_num ].SetReport_Value;
     e76:	11000d13          	li	s10,272
     e7a:	03a58d33          	mul	s10,a1,s10
     e7e:	44400593          	li	a1,1092
     e82:	200007b7          	lui	a5,0x20000
C:/Repository/RISKYKVM/firmware/src/User/USB_Host/app_km.c:1379
{
     e86:	d84a                	sw	s2,48(sp)
     e88:	d64e                	sw	s3,44(sp)
     e8a:	d05a                	sw	s6,32(sp)
     e8c:	ce5e                	sw	s7,28(sp)
     e8e:	cc62                	sw	s8,24(sp)
     e90:	c66e                	sw	s11,12(sp)
     e92:	de06                	sw	ra,60(sp)
C:/Repository/RISKYKVM/firmware/src/User/USB_Host/app_km.c:1384
    value = HostCtl[ index ].Interface[ intf_num ].SetReport_Value;
     e94:	02b50533          	mul	a0,a0,a1
C:/Repository/RISKYKVM/firmware/src/User/USB_Host/app_km.c:1379
{
     e98:	dc22                	sw	s0,56(sp)
     e9a:	da26                	sw	s1,52(sp)
     e9c:	d452                	sw	s4,40(sp)
     e9e:	d256                	sw	s5,36(sp)
     ea0:	ca66                	sw	s9,20(sp)
     ea2:	8932                	mv	s2,a2
     ea4:	8c36                	mv	s8,a3
C:/Repository/RISKYKVM/firmware/src/User/USB_Host/app_km.c:1388

    for( i = HostCtl[ index ].Interface[ intf_num ].LED_Usage_Min; i <= HostCtl[ index ].Interface[ intf_num ].LED_Usage_Max; i++ )
    {
        if( i == 0x01 )
     ea6:	4985                	li	s3,1
C:/Repository/RISKYKVM/firmware/src/User/USB_Host/app_km.c:1395
            if( memchr( pbuf, DEF_KEY_NUM, len ) )
            {
                HostCtl[ index ].Interface[ intf_num ].SetReport_Value ^= ( 1 << bit_pos );
            }
        }
        else if( i == 0x02 )
     ea8:	4b09                	li	s6,2
C:/Repository/RISKYKVM/firmware/src/User/USB_Host/app_km.c:1384
    value = HostCtl[ index ].Interface[ intf_num ].SetReport_Value;
     eaa:	956a                	add	a0,a0,s10
     eac:	0d878d13          	addi	s10,a5,216 # 200000d8 <HostCtl>
     eb0:	9d2a                	add	s10,s10,a0
C:/Repository/RISKYKVM/firmware/src/User/USB_Host/app_km.c:1386
    for( i = HostCtl[ index ].Interface[ intf_num ].LED_Usage_Min; i <= HostCtl[ index ].Interface[ intf_num ].LED_Usage_Max; i++ )
     eb2:	040d4a03          	lbu	s4,64(s10)
C:/Repository/RISKYKVM/firmware/src/User/USB_Host/app_km.c:1384
    value = HostCtl[ index ].Interface[ intf_num ].SetReport_Value;
     eb6:	043d4483          	lbu	s1,67(s10)
C:/Repository/RISKYKVM/firmware/src/User/USB_Host/app_km.c:1386
    for( i = HostCtl[ index ].Interface[ intf_num ].LED_Usage_Min; i <= HostCtl[ index ].Interface[ intf_num ].LED_Usage_Max; i++ )
     eba:	041d4a83          	lbu	s5,65(s10)
     ebe:	8dd2                	mv	s11,s4
C:/Repository/RISKYKVM/firmware/src/User/USB_Host/app_km.c:1402
            if( memchr( pbuf, DEF_KEY_CAPS, len ) )
            {
                HostCtl[ index ].Interface[ intf_num ].SetReport_Value ^= ( 1 << bit_pos );
            }
        }
        else if( i == 0x03 )
     ec0:	4b8d                	li	s7,3
     ec2:	414d8433          	sub	s0,s11,s4
     ec6:	0ff47413          	andi	s0,s0,255
     eca:	043d4c83          	lbu	s9,67(s10)
C:/Repository/RISKYKVM/firmware/src/User/USB_Host/app_km.c:1386 (discriminator 1)
    for( i = HostCtl[ index ].Interface[ intf_num ].LED_Usage_Min; i <= HostCtl[ index ].Interface[ intf_num ].LED_Usage_Max; i++ )
     ece:	03baf763          	bgeu	s5,s11,efc <KB_AnalyzeKeyValue+0x8a>
C:/Repository/RISKYKVM/firmware/src/User/USB_Host/app_km.c:1413
        }

        bit_pos++;
    }

    if( value != HostCtl[ index ].Interface[ intf_num ].SetReport_Value )
     ed2:	41948433          	sub	s0,s1,s9
     ed6:	00803433          	snez	s0,s0
     eda:	048d0223          	sb	s0,68(s10)
C:/Repository/RISKYKVM/firmware/src/User/USB_Host/app_km.c:1421
    }
    else
    {
        HostCtl[ index ].Interface[ intf_num ].SetReport_Flag = 0;
    }
}
     ede:	50f2                	lw	ra,60(sp)
     ee0:	5462                	lw	s0,56(sp)
     ee2:	54d2                	lw	s1,52(sp)
     ee4:	5942                	lw	s2,48(sp)
     ee6:	59b2                	lw	s3,44(sp)
     ee8:	5a22                	lw	s4,40(sp)
     eea:	5a92                	lw	s5,36(sp)
     eec:	5b02                	lw	s6,32(sp)
     eee:	4bf2                	lw	s7,28(sp)
     ef0:	4c62                	lw	s8,24(sp)
     ef2:	4cd2                	lw	s9,20(sp)
     ef4:	4d42                	lw	s10,16(sp)
     ef6:	4db2                	lw	s11,12(sp)
     ef8:	6121                	addi	sp,sp,64
     efa:	8082                	ret
C:/Repository/RISKYKVM/firmware/src/User/USB_Host/app_km.c:1388
        if( i == 0x01 )
     efc:	013d9f63          	bne	s11,s3,f1a <KB_AnalyzeKeyValue+0xa8>
C:/Repository/RISKYKVM/firmware/src/User/USB_Host/app_km.c:1390
            if( memchr( pbuf, DEF_KEY_NUM, len ) )
     f00:	8662                	mv	a2,s8
     f02:	05300593          	li	a1,83
     f06:	854a                	mv	a0,s2
     f08:	158030ef          	jal	ra,4060 <memchr>
C:/Repository/RISKYKVM/firmware/src/User/USB_Host/app_km.c:1392
                HostCtl[ index ].Interface[ intf_num ].SetReport_Value ^= ( 1 << bit_pos );
     f0c:	008d9433          	sll	s0,s11,s0
C:/Repository/RISKYKVM/firmware/src/User/USB_Host/app_km.c:1390
            if( memchr( pbuf, DEF_KEY_NUM, len ) )
     f10:	e105                	bnez	a0,f30 <KB_AnalyzeKeyValue+0xbe>
C:/Repository/RISKYKVM/firmware/src/User/USB_Host/app_km.c:1386 (discriminator 2)
    for( i = HostCtl[ index ].Interface[ intf_num ].LED_Usage_Min; i <= HostCtl[ index ].Interface[ intf_num ].LED_Usage_Max; i++ )
     f12:	0d85                	addi	s11,s11,1
     f14:	0ffdfd93          	andi	s11,s11,255
     f18:	b76d                	j	ec2 <KB_AnalyzeKeyValue+0x50>
C:/Repository/RISKYKVM/firmware/src/User/USB_Host/app_km.c:1395
        else if( i == 0x02 )
     f1a:	036d9063          	bne	s11,s6,f3a <KB_AnalyzeKeyValue+0xc8>
C:/Repository/RISKYKVM/firmware/src/User/USB_Host/app_km.c:1397
            if( memchr( pbuf, DEF_KEY_CAPS, len ) )
     f1e:	8662                	mv	a2,s8
     f20:	03900593          	li	a1,57
C:/Repository/RISKYKVM/firmware/src/User/USB_Host/app_km.c:1404
            if( memchr( pbuf, DEF_KEY_SCROLL, len ) )
     f24:	854a                	mv	a0,s2
     f26:	13a030ef          	jal	ra,4060 <memchr>
     f2a:	d565                	beqz	a0,f12 <KB_AnalyzeKeyValue+0xa0>
C:/Repository/RISKYKVM/firmware/src/User/USB_Host/app_km.c:1406
                HostCtl[ index ].Interface[ intf_num ].SetReport_Value ^= ( 1 << bit_pos );
     f2c:	00899433          	sll	s0,s3,s0
     f30:	01944433          	xor	s0,s0,s9
     f34:	048d01a3          	sb	s0,67(s10)
     f38:	bfe9                	j	f12 <KB_AnalyzeKeyValue+0xa0>
C:/Repository/RISKYKVM/firmware/src/User/USB_Host/app_km.c:1402
        else if( i == 0x03 )
     f3a:	fd7d9ce3          	bne	s11,s7,f12 <KB_AnalyzeKeyValue+0xa0>
C:/Repository/RISKYKVM/firmware/src/User/USB_Host/app_km.c:1404
            if( memchr( pbuf, DEF_KEY_SCROLL, len ) )
     f3e:	8662                	mv	a2,s8
     f40:	04700593          	li	a1,71
     f44:	b7c5                	j	f24 <KB_AnalyzeKeyValue+0xb2>

00000f46 <KB_SetReport>:
KB_SetReport():
C:/Repository/RISKYKVM/firmware/src/User/USB_Host/app_km.c:1434
 *          intf_num: Interface number.
 *
 * @return  The result of the handling keyboard lighting.
 */
uint8_t KB_SetReport( uint8_t index, uint8_t ep0_size, uint8_t intf_num )
{
     f46:	86aa                	mv	a3,a0
     f48:	44400813          	li	a6,1092
     f4c:	852e                	mv	a0,a1
     f4e:	85b2                	mv	a1,a2
     f50:	11000613          	li	a2,272
     f54:	03068833          	mul	a6,a3,a6
     f58:	20000737          	lui	a4,0x20000
     f5c:	0d870793          	addi	a5,a4,216 # 200000d8 <HostCtl>
     f60:	1101                	addi	sp,sp,-32
     f62:	ce06                	sw	ra,28(sp)
     f64:	0d870713          	addi	a4,a4,216
     f68:	02c58633          	mul	a2,a1,a2
     f6c:	9642                	add	a2,a2,a6
     f6e:	97b2                	add	a5,a5,a2
C:/Repository/RISKYKVM/firmware/src/User/USB_Host/app_km.c:1439
    uint8_t  dat[ 2 ];
    uint16_t len;
    uint8_t  s = ERR_SUCCESS;

    if( HostCtl[ index ].Interface[ intf_num ].IDFlag )
     f70:	03e7c803          	lbu	a6,62(a5)
     f74:	0437c603          	lbu	a2,67(a5)
     f78:	04080363          	beqz	a6,fbe <KB_SetReport+0x78>
C:/Repository/RISKYKVM/firmware/src/User/USB_Host/app_km.c:1441
    {
        dat[ 0 ] = HostCtl[ index ].Interface[ intf_num ].ReportID;
     f7c:	03f7c783          	lbu	a5,63(a5)
C:/Repository/RISKYKVM/firmware/src/User/USB_Host/app_km.c:1442
        dat[ 1 ] = HostCtl[ index ].Interface[ intf_num ].SetReport_Value;
     f80:	00c106a3          	sb	a2,13(sp)
C:/Repository/RISKYKVM/firmware/src/User/USB_Host/app_km.c:1441
        dat[ 0 ] = HostCtl[ index ].Interface[ intf_num ].ReportID;
     f84:	00f10623          	sb	a5,12(sp)
C:/Repository/RISKYKVM/firmware/src/User/USB_Host/app_km.c:1443
        len = 2;
     f88:	4789                	li	a5,2
C:/Repository/RISKYKVM/firmware/src/User/USB_Host/app_km.c:1451
    {
        dat[ 0 ] = HostCtl[ index ].Interface[ intf_num ].SetReport_Value;
        len = 1;
    }

    if( HostCtl[ index ].Interface[ intf_num ].SetReport_Swi == 1 ) // Perform lighting operation through endpoint0
     f8a:	44400613          	li	a2,1092
C:/Repository/RISKYKVM/firmware/src/User/USB_Host/app_km.c:1448
        len = 1;
     f8e:	00f11723          	sh	a5,14(sp)
C:/Repository/RISKYKVM/firmware/src/User/USB_Host/app_km.c:1451
    if( HostCtl[ index ].Interface[ intf_num ].SetReport_Swi == 1 ) // Perform lighting operation through endpoint0
     f92:	11000793          	li	a5,272
     f96:	02c686b3          	mul	a3,a3,a2
     f9a:	4885                	li	a7,1
     f9c:	02f587b3          	mul	a5,a1,a5
     fa0:	00d78833          	add	a6,a5,a3
     fa4:	983a                	add	a6,a6,a4
     fa6:	04284603          	lbu	a2,66(a6)
     faa:	01161e63          	bne	a2,a7,fc6 <KB_SetReport+0x80>
C:/Repository/RISKYKVM/firmware/src/User/USB_Host/app_km.c:1454
    {
        /* Send set report command */
        s = HID_SetReport( ep0_size, intf_num, dat, &len );
     fae:	00e10693          	addi	a3,sp,14
     fb2:	0070                	addi	a2,sp,12
     fb4:	4b0010ef          	jal	ra,2464 <HID_SetReport>
C:/Repository/RISKYKVM/firmware/src/User/USB_Host/app_km.c:1463
        s = USBFSH_SendEndpData( HostCtl[ index ].Interface[ intf_num ].OutEndpAddr[ 0 ],
                                 &HostCtl[ index ].Interface[ intf_num ].OutEndpTog[ 0 ], dat, len);
    }

    return s;
}
     fb8:	40f2                	lw	ra,28(sp)
     fba:	6105                	addi	sp,sp,32
     fbc:	8082                	ret
C:/Repository/RISKYKVM/firmware/src/User/USB_Host/app_km.c:1447
        dat[ 0 ] = HostCtl[ index ].Interface[ intf_num ].SetReport_Value;
     fbe:	00c10623          	sb	a2,12(sp)
C:/Repository/RISKYKVM/firmware/src/User/USB_Host/app_km.c:1448
        len = 1;
     fc2:	4785                	li	a5,1
     fc4:	b7d9                	j	f8a <KB_SetReport+0x44>
C:/Repository/RISKYKVM/firmware/src/User/USB_Host/app_km.c:1456
    else if( HostCtl[ index ].Interface[ intf_num ].SetReport_Swi == 0xFF )  // Perform lighting operation through other endpoint
     fc6:	0ff00593          	li	a1,255
C:/Repository/RISKYKVM/firmware/src/User/USB_Host/app_km.c:1437
    uint8_t  s = ERR_SUCCESS;
     fca:	4501                	li	a0,0
C:/Repository/RISKYKVM/firmware/src/User/USB_Host/app_km.c:1456
    else if( HostCtl[ index ].Interface[ intf_num ].SetReport_Swi == 0xFF )  // Perform lighting operation through other endpoint
     fcc:	feb616e3          	bne	a2,a1,fb8 <KB_SetReport+0x72>
C:/Repository/RISKYKVM/firmware/src/User/USB_Host/app_km.c:1458
        s = USBFSH_SendEndpData( HostCtl[ index ].Interface[ intf_num ].OutEndpAddr[ 0 ],
     fd0:	03a78793          	addi	a5,a5,58
     fd4:	97b6                	add	a5,a5,a3
     fd6:	02984503          	lbu	a0,41(a6)
     fda:	00e15683          	lhu	a3,14(sp)
     fde:	0070                	addi	a2,sp,12
     fe0:	00f705b3          	add	a1,a4,a5
     fe4:	5d1000ef          	jal	ra,1db4 <USBFSH_SendEndpData>
     fe8:	bfc1                	j	fb8 <KB_SetReport+0x72>

00000fea <USBH_EnumHidDevice>:
USBH_EnumHidDevice():
C:/Repository/RISKYKVM/firmware/src/User/USB_Host/app_km.c:694
{
     fea:	7179                	addi	sp,sp,-48
     fec:	d226                	sw	s1,36(sp)
     fee:	ce4e                	sw	s3,28(sp)
     ff0:	cc52                	sw	s4,24(sp)
     ff2:	d606                	sw	ra,44(sp)
     ff4:	d422                	sw	s0,40(sp)
     ff6:	d04a                	sw	s2,32(sp)
     ff8:	ca56                	sw	s5,20(sp)
     ffa:	c85a                	sw	s6,16(sp)
     ffc:	c65e                	sw	s7,12(sp)
     ffe:	c462                	sw	s8,8(sp)
    1000:	89aa                	mv	s3,a0
    1002:	84ae                	mv	s1,a1
C:/Repository/RISKYKVM/firmware/src/User/USB_Host/app_km.c:706
    s = KM_AnalyzeConfigDesc( index, ep0_size );
    1004:	d0eff0ef          	jal	ra,512 <KM_AnalyzeConfigDesc>
    1008:	8a2a                	mv	s4,a0
C:/Repository/RISKYKVM/firmware/src/User/USB_Host/app_km.c:707
    if( s == ERR_SUCCESS )
    100a:	e141                	bnez	a0,108a <USBH_EnumHidDevice+0xa0>
C:/Repository/RISKYKVM/firmware/src/User/USB_Host/app_km.c:718
    if( Com_Buf[ 6 ] )
    100c:	20001437          	lui	s0,0x20001
    1010:	66040793          	addi	a5,s0,1632 # 20001660 <Com_Buf>
    1014:	0067c583          	lbu	a1,6(a5)
    1018:	c591                	beqz	a1,1024 <USBH_EnumHidDevice+0x3a>
C:/Repository/RISKYKVM/firmware/src/User/USB_Host/app_km.c:721
        s = USBFSH_GetStrDescr( ep0_size, Com_Buf[ 6 ], Com_Buf );
    101a:	66040613          	addi	a2,s0,1632
    101e:	8526                	mv	a0,s1
    1020:	43d000ef          	jal	ra,1c5c <USBFSH_GetStrDescr>
C:/Repository/RISKYKVM/firmware/src/User/USB_Host/app_km.c:740
    s = KM_DealHidReportDesc( index, ep0_size );
    1024:	85a6                	mv	a1,s1
    1026:	854e                	mv	a0,s3
    1028:	30dd                	jal	90e <KM_DealHidReportDesc>
C:/Repository/RISKYKVM/firmware/src/User/USB_Host/app_km.c:743
    if( DevDesc_Buf[ 14 ] )
    102a:	20001937          	lui	s2,0x20001
    102e:	62c90793          	addi	a5,s2,1580 # 2000162c <DevDesc_Buf>
    1032:	00e7c583          	lbu	a1,14(a5)
    1036:	62c90913          	addi	s2,s2,1580
    103a:	c591                	beqz	a1,1046 <USBH_EnumHidDevice+0x5c>
C:/Repository/RISKYKVM/firmware/src/User/USB_Host/app_km.c:746
        s = USBFSH_GetStrDescr( ep0_size, DevDesc_Buf[ 14 ], Com_Buf );
    103c:	66040613          	addi	a2,s0,1632
    1040:	8526                	mv	a0,s1
    1042:	41b000ef          	jal	ra,1c5c <USBFSH_GetStrDescr>
C:/Repository/RISKYKVM/firmware/src/User/USB_Host/app_km.c:765
    if( DevDesc_Buf[ 15 ] )
    1046:	00f94583          	lbu	a1,15(s2)
    104a:	c591                	beqz	a1,1056 <USBH_EnumHidDevice+0x6c>
C:/Repository/RISKYKVM/firmware/src/User/USB_Host/app_km.c:768
        s = USBFSH_GetStrDescr( ep0_size, DevDesc_Buf[ 15 ], Com_Buf );
    104c:	66040613          	addi	a2,s0,1632
    1050:	8526                	mv	a0,s1
    1052:	40b000ef          	jal	ra,1c5c <USBFSH_GetStrDescr>
C:/Repository/RISKYKVM/firmware/src/User/USB_Host/app_km.c:787
    if( DevDesc_Buf[ 16 ] )
    1056:	01094583          	lbu	a1,16(s2)
    105a:	c591                	beqz	a1,1066 <USBH_EnumHidDevice+0x7c>
C:/Repository/RISKYKVM/firmware/src/User/USB_Host/app_km.c:790
        s = USBFSH_GetStrDescr( ep0_size, DevDesc_Buf[ 16 ], Com_Buf );
    105c:	66040613          	addi	a2,s0,1632
    1060:	8526                	mv	a0,s1
    1062:	3fb000ef          	jal	ra,1c5c <USBFSH_GetStrDescr>
C:/Repository/RISKYKVM/firmware/src/User/USB_Host/app_km.c:809
    for( intf_num = 0; intf_num < HostCtl[ index ].InterfaceNum; intf_num++ )
    1066:	44400913          	li	s2,1092
    106a:	03298933          	mul	s2,s3,s2
    106e:	20000ab7          	lui	s5,0x20000
    1072:	0d8a8a93          	addi	s5,s5,216 # 200000d8 <HostCtl>
C:/Repository/RISKYKVM/firmware/src/User/USB_Host/app_km.c:694
{
    1076:	4401                	li	s0,0
C:/Repository/RISKYKVM/firmware/src/User/USB_Host/app_km.c:811
        if( HostCtl[ index ].Interface[ intf_num ].Type == DEC_KEY )
    1078:	11000b93          	li	s7,272
    107c:	4c05                	li	s8,1
C:/Repository/RISKYKVM/firmware/src/User/USB_Host/app_km.c:809
    for( intf_num = 0; intf_num < HostCtl[ index ].InterfaceNum; intf_num++ )
    107e:	01590b33          	add	s6,s2,s5
    1082:	000b4783          	lbu	a5,0(s6)
    1086:	00f46f63          	bltu	s0,a5,10a4 <USBH_EnumHidDevice+0xba>
C:/Repository/RISKYKVM/firmware/src/User/USB_Host/app_km.c:819
}
    108a:	50b2                	lw	ra,44(sp)
    108c:	5422                	lw	s0,40(sp)
    108e:	8552                	mv	a0,s4
    1090:	5492                	lw	s1,36(sp)
    1092:	5902                	lw	s2,32(sp)
    1094:	49f2                	lw	s3,28(sp)
    1096:	4a62                	lw	s4,24(sp)
    1098:	4ad2                	lw	s5,20(sp)
    109a:	4b42                	lw	s6,16(sp)
    109c:	4bb2                	lw	s7,12(sp)
    109e:	4c22                	lw	s8,8(sp)
    10a0:	6145                	addi	sp,sp,48
    10a2:	8082                	ret
C:/Repository/RISKYKVM/firmware/src/User/USB_Host/app_km.c:811
        if( HostCtl[ index ].Interface[ intf_num ].Type == DEC_KEY )
    10a4:	037407b3          	mul	a5,s0,s7
    10a8:	97ca                	add	a5,a5,s2
    10aa:	97d6                	add	a5,a5,s5
    10ac:	0047c703          	lbu	a4,4(a5)
    10b0:	01871863          	bne	a4,s8,10c0 <USBH_EnumHidDevice+0xd6>
C:/Repository/RISKYKVM/firmware/src/User/USB_Host/app_km.c:813
            HostCtl[ index ].Interface[ intf_num ].SetReport_Value = 0x00;
    10b4:	040781a3          	sb	zero,67(a5)
C:/Repository/RISKYKVM/firmware/src/User/USB_Host/app_km.c:814
            KB_SetReport( index, ep0_size, intf_num );
    10b8:	8622                	mv	a2,s0
    10ba:	85a6                	mv	a1,s1
    10bc:	854e                	mv	a0,s3
    10be:	3561                	jal	f46 <KB_SetReport>
C:/Repository/RISKYKVM/firmware/src/User/USB_Host/app_km.c:809
    for( intf_num = 0; intf_num < HostCtl[ index ].InterfaceNum; intf_num++ )
    10c0:	0405                	addi	s0,s0,1
    10c2:	0ff47413          	andi	s0,s0,255
    10c6:	bf75                	j	1082 <USBH_EnumHidDevice+0x98>

000010c8 <USBH_MainDeal>:
USBH_MainDeal():
C:/Repository/RISKYKVM/firmware/src/User/USB_Host/app_km.c:1474
 *          obtain keyboard and mouse data at regular intervals.
 *
 * @return  none
 */
void USBH_MainDeal( void )
{
    10c8:	7159                	addi	sp,sp,-112
    10ca:	d2a6                	sw	s1,100(sp)
C:/Repository/RISKYKVM/firmware/src/User/USB_Host/app_km.c:1485
    uint16_t len;
#if DEF_DEBUG_PRINTF
    uint16_t i;
#endif
    
    s = USBFSH_CheckRootHubPortStatus( RootHubDev.bStatus ); // Check USB device connection or disconnection
    10cc:	200014b7          	lui	s1,0x20001
    10d0:	6404c503          	lbu	a0,1600(s1) # 20001640 <RootHubDev>
C:/Repository/RISKYKVM/firmware/src/User/USB_Host/app_km.c:1474
{
    10d4:	c0ea                	sw	s10,64(sp)
    10d6:	d686                	sw	ra,108(sp)
    10d8:	d4a2                	sw	s0,104(sp)
    10da:	d0ca                	sw	s2,96(sp)
    10dc:	cece                	sw	s3,92(sp)
    10de:	ccd2                	sw	s4,88(sp)
    10e0:	cad6                	sw	s5,84(sp)
    10e2:	c8da                	sw	s6,80(sp)
    10e4:	c6de                	sw	s7,76(sp)
    10e6:	c4e2                	sw	s8,72(sp)
    10e8:	c2e6                	sw	s9,68(sp)
    10ea:	de6e                	sw	s11,60(sp)
C:/Repository/RISKYKVM/firmware/src/User/USB_Host/app_km.c:1485
    s = USBFSH_CheckRootHubPortStatus( RootHubDev.bStatus ); // Check USB device connection or disconnection
    10ec:	253d                	jal	171a <USBFSH_CheckRootHubPortStatus>
C:/Repository/RISKYKVM/firmware/src/User/USB_Host/app_km.c:1486
    if( s == ROOT_DEV_CONNECTED )
    10ee:	4705                	li	a4,1
C:/Repository/RISKYKVM/firmware/src/User/USB_Host/app_km.c:1485
    s = USBFSH_CheckRootHubPortStatus( RootHubDev.bStatus ); // Check USB device connection or disconnection
    10f0:	8d2a                	mv	s10,a0
C:/Repository/RISKYKVM/firmware/src/User/USB_Host/app_km.c:1486
    if( s == ROOT_DEV_CONNECTED )
    10f2:	0ee51363          	bne	a0,a4,11d8 <USBH_MainDeal+0x110>
C:/Repository/RISKYKVM/firmware/src/User/USB_Host/app_km.c:1492 (discriminator 3)
    {
        DUG_PRINTF( "USB Port Dev In.\r\n" );

        /* Set root device state parameters */
        RootHubDev.bStatus = ROOT_DEV_CONNECTED;
        RootHubDev.DeviceIndex = DEF_USBFS_PORT_INDEX * DEF_ONE_USB_SUP_DEV_TOTAL;
    10f6:	64048413          	addi	s0,s1,1600
C:/Repository/RISKYKVM/firmware/src/User/USB_Host/app_km.c:1491 (discriminator 3)
        RootHubDev.bStatus = ROOT_DEV_CONNECTED;
    10fa:	64a48023          	sb	a0,1600(s1)
C:/Repository/RISKYKVM/firmware/src/User/USB_Host/app_km.c:1492 (discriminator 3)
        RootHubDev.DeviceIndex = DEF_USBFS_PORT_INDEX * DEF_ONE_USB_SUP_DEV_TOTAL;
    10fe:	000402a3          	sb	zero,5(s0)
C:/Repository/RISKYKVM/firmware/src/User/USB_Host/app_km.c:1494 (discriminator 3)

        s = USBH_EnumRootDevice( ); // Simply enumerate root device
    1102:	ad2ff0ef          	jal	ra,3d4 <USBH_EnumRootDevice>
    1106:	8d2a                	mv	s10,a0
C:/Repository/RISKYKVM/firmware/src/User/USB_Host/app_km.c:1495 (discriminator 3)
        if( s == ERR_SUCCESS )
    1108:	e169                	bnez	a0,11ca <USBH_MainDeal+0x102>
C:/Repository/RISKYKVM/firmware/src/User/USB_Host/app_km.c:1497
        {
            if( RootHubDev.bType == USB_DEV_CLASS_HID ) // Further enumerate it if this device is a HID device
    110a:	00144683          	lbu	a3,1(s0)
    110e:	470d                	li	a4,3
    1110:	02e69263          	bne	a3,a4,1134 <USBH_MainDeal+0x6c>
C:/Repository/RISKYKVM/firmware/src/User/USB_Host/app_km.c:1501 (discriminator 3)
            {
                DUG_PRINTF("Root Device Is HID. ");

                s = USBH_EnumHidDevice( RootHubDev.DeviceIndex, RootHubDev.bEp0MaxPks );
    1114:	00444583          	lbu	a1,4(s0)
    1118:	00544503          	lbu	a0,5(s0)
    111c:	35f9                	jal	fea <USBH_EnumHidDevice>
C:/Repository/RISKYKVM/firmware/src/User/USB_Host/app_km.c:1503 (discriminator 3)
                DUG_PRINTF( "Further Enum Result: " );
                if( s == ERR_SUCCESS )
    111e:	e105                	bnez	a0,113e <USBH_MainDeal+0x76>
C:/Repository/RISKYKVM/firmware/src/User/USB_Host/app_km.c:1508 (discriminator 3)
                {
                    DUG_PRINTF( "OK\r\n" );

                    /* Set the connection status of the device  */
                    RootHubDev.bStatus = ROOT_DEV_SUCCESS;
    1120:	470d                	li	a4,3
    1122:	64e48023          	sb	a4,1600(s1)
C:/Repository/RISKYKVM/firmware/src/User/USB_Host/app_km.c:1509 (discriminator 3)
                    GPIO_WriteBit(LED_GPIO_Port,LED_Pin, Bit_RESET);
    1126:	4601                	li	a2,0
C:/Repository/RISKYKVM/firmware/src/User/USB_Host/app_km.c:1577 (discriminator 3)

        /* Clear parameters */
        index = RootHubDev.DeviceIndex;
        memset( &RootHubDev.bStatus, 0, sizeof( ROOT_HUB_DEVICE ) );
        memset( &HostCtl[ index ].InterfaceNum, 0, sizeof( HOST_CTL ) );
        GPIO_WriteBit(LED_GPIO_Port,LED_Pin, Bit_SET);
    1128:	6591                	lui	a1,0x4
    112a:	40011537          	lui	a0,0x40011
    112e:	43b020ef          	jal	ra,3d68 <GPIO_WriteBit>
    1132:	a831                	j	114e <USBH_MainDeal+0x86>
C:/Repository/RISKYKVM/firmware/src/User/USB_Host/app_km.c:1518
            else if( RootHubDev.bType == USB_DEV_CLASS_HUB )
    1134:	4625                	li	a2,9
    1136:	08c69e63          	bne	a3,a2,11d2 <USBH_MainDeal+0x10a>
C:/Repository/RISKYKVM/firmware/src/User/USB_Host/app_km.c:1522 (discriminator 3)
                s = USBH_EnumHubDevice( );
    113a:	3271                	jal	ac6 <USBH_EnumHubDevice>
C:/Repository/RISKYKVM/firmware/src/User/USB_Host/app_km.c:1524 (discriminator 3)
                if( s == ERR_SUCCESS )
    113c:	b7cd                	j	111e <USBH_MainDeal+0x56>
C:/Repository/RISKYKVM/firmware/src/User/USB_Host/app_km.c:1532
                else if( s != ERR_USB_DISCON )
    113e:	4759                	li	a4,22
    1140:	4d59                	li	s10,22
    1142:	00e50663          	beq	a0,a4,114e <USBH_MainDeal+0x86>
C:/Repository/RISKYKVM/firmware/src/User/USB_Host/app_km.c:1536 (discriminator 3)
                    RootHubDev.bStatus = ROOT_DEV_FAILED;
    1146:	4789                	li	a5,2
    1148:	64f48023          	sb	a5,1600(s1)
    114c:	8d2a                	mv	s10,a0
C:/Repository/RISKYKVM/firmware/src/User/USB_Host/app_km.c:1581
    }

    /* Get the data of the HID device connected to the USB host port */
    if( RootHubDev.bStatus >= ROOT_DEV_SUCCESS )
    114e:	6404c683          	lbu	a3,1600(s1)
    1152:	4709                	li	a4,2
    1154:	20d77e63          	bgeu	a4,a3,1370 <USBH_MainDeal+0x2a8>
C:/Repository/RISKYKVM/firmware/src/User/USB_Host/app_km.c:1583
    {
        index = RootHubDev.DeviceIndex;
    1158:	64048713          	addi	a4,s1,1600
    115c:	00574903          	lbu	s2,5(a4)
C:/Repository/RISKYKVM/firmware/src/User/USB_Host/app_km.c:1585

        if( RootHubDev.bType == USB_DEV_CLASS_HID )
    1160:	00174703          	lbu	a4,1(a4)
    1164:	20001437          	lui	s0,0x20001
    1168:	468d                	li	a3,3
    116a:	64040413          	addi	s0,s0,1600 # 20001640 <RootHubDev>
    116e:	1cd71663          	bne	a4,a3,133a <USBH_MainDeal+0x272>
    1172:	44400b93          	li	s7,1092
    1176:	03790bb3          	mul	s7,s2,s7
C:/Repository/RISKYKVM/firmware/src/User/USB_Host/app_km.c:1663
                                    HostCtl[ index ].ErrorCount = 0x00;

                                    RootHubDev.bStatus = ROOT_DEV_CONNECTED;
                                    RootHubDev.DeviceIndex = DEF_USBFS_PORT_INDEX * DEF_ONE_USB_SUP_DEV_TOTAL;

                                    memset( &HostCtl[ index ].InterfaceNum, 0, sizeof( struct __HOST_CTL ) );
    117a:	20000b37          	lui	s6,0x20000
    117e:	0d8b0c13          	addi	s8,s6,216 # 200000d8 <HostCtl>
C:/Repository/RISKYKVM/firmware/src/User/USB_Host/app_km.c:1587
            for( intf_num = 0; intf_num < HostCtl[ index ].InterfaceNum; intf_num++ )
    1182:	4981                	li	s3,0
    1184:	0d8b0b13          	addi	s6,s6,216
C:/Repository/RISKYKVM/firmware/src/User/USB_Host/app_km.c:1597
                        s = USBFSH_GetEndpData( HostCtl[ index ].Interface[ intf_num ].InEndpAddr[ in_num ],
    1188:	20001db7          	lui	s11,0x20001
C:/Repository/RISKYKVM/firmware/src/User/USB_Host/app_km.c:1663
                                    memset( &HostCtl[ index ].InterfaceNum, 0, sizeof( struct __HOST_CTL ) );
    118c:	018b87b3          	add	a5,s7,s8
    1190:	c63e                	sw	a5,12(sp)
C:/Repository/RISKYKVM/firmware/src/User/USB_Host/app_km.c:1587
            for( intf_num = 0; intf_num < HostCtl[ index ].InterfaceNum; intf_num++ )
    1192:	8cbe                	mv	s9,a5
C:/Repository/RISKYKVM/firmware/src/User/USB_Host/app_km.c:1597
                        s = USBFSH_GetEndpData( HostCtl[ index ].Interface[ intf_num ].InEndpAddr[ in_num ],
    1194:	01cb8793          	addi	a5,s7,28
C:/Repository/RISKYKVM/firmware/src/User/USB_Host/app_km.c:1587
            for( intf_num = 0; intf_num < HostCtl[ index ].InterfaceNum; intf_num++ )
    1198:	ca5e                	sw	s7,20(sp)
C:/Repository/RISKYKVM/firmware/src/User/USB_Host/app_km.c:1597
                        s = USBFSH_GetEndpData( HostCtl[ index ].Interface[ intf_num ].InEndpAddr[ in_num ],
    119a:	ce3e                	sw	a5,28(sp)
C:/Repository/RISKYKVM/firmware/src/User/USB_Host/app_km.c:1587 (discriminator 1)
            for( intf_num = 0; intf_num < HostCtl[ index ].InterfaceNum; intf_num++ )
    119c:	000cc703          	lbu	a4,0(s9)
    11a0:	1ce9f863          	bgeu	s3,a4,1370 <USBH_MainDeal+0x2a8>
    11a4:	11000713          	li	a4,272
    11a8:	02e98733          	mul	a4,s3,a4
C:/Repository/RISKYKVM/firmware/src/User/USB_Host/app_km.c:1604
                        	FifoWrite(&HostCtl[ index ].Interface[ intf_num ].buffer, &Com_Buf, len);
    11ac:	084b8693          	addi	a3,s7,132
C:/Repository/RISKYKVM/firmware/src/User/USB_Host/app_km.c:1589
                for( in_num = 0; in_num < HostCtl[ index ].Interface[ intf_num ].InEndpNum; in_num++ )
    11b0:	4a81                	li	s5,0
C:/Repository/RISKYKVM/firmware/src/User/USB_Host/app_km.c:1604
                        	FifoWrite(&HostCtl[ index ].Interface[ intf_num ].buffer, &Com_Buf, len);
    11b2:	96ba                	add	a3,a3,a4
    11b4:	00db07b3          	add	a5,s6,a3
    11b8:	c83e                	sw	a5,16(sp)
C:/Repository/RISKYKVM/firmware/src/User/USB_Host/app_km.c:1589
                for( in_num = 0; in_num < HostCtl[ index ].Interface[ intf_num ].InEndpNum; in_num++ )
    11ba:	47d2                	lw	a5,20(sp)
    11bc:	00f70a33          	add	s4,a4,a5
C:/Repository/RISKYKVM/firmware/src/User/USB_Host/app_km.c:1597
                        s = USBFSH_GetEndpData( HostCtl[ index ].Interface[ intf_num ].InEndpAddr[ in_num ],
    11c0:	47f2                	lw	a5,28(sp)
C:/Repository/RISKYKVM/firmware/src/User/USB_Host/app_km.c:1589
                for( in_num = 0; in_num < HostCtl[ index ].Interface[ intf_num ].InEndpNum; in_num++ )
    11c2:	9a5a                	add	s4,s4,s6
C:/Repository/RISKYKVM/firmware/src/User/USB_Host/app_km.c:1597
                        s = USBFSH_GetEndpData( HostCtl[ index ].Interface[ intf_num ].InEndpAddr[ in_num ],
    11c4:	97ba                	add	a5,a5,a4
    11c6:	cc3e                	sw	a5,24(sp)
    11c8:	a86d                	j	1282 <USBH_MainDeal+0x1ba>
C:/Repository/RISKYKVM/firmware/src/User/USB_Host/app_km.c:1562
        else if( s != ERR_USB_DISCON )
    11ca:	4759                	li	a4,22
    11cc:	f8e501e3          	beq	a0,a4,114e <USBH_MainDeal+0x86>
C:/Repository/RISKYKVM/firmware/src/User/USB_Host/app_km.c:1566 (discriminator 3)
            RootHubDev.bStatus = ROOT_DEV_FAILED;
    11d0:	4709                	li	a4,2
    11d2:	64e48023          	sb	a4,1600(s1)
    11d6:	bfa5                	j	114e <USBH_MainDeal+0x86>
C:/Repository/RISKYKVM/firmware/src/User/USB_Host/app_km.c:1569
    else if( s == ROOT_DEV_DISCONNECT )
    11d8:	f93d                	bnez	a0,114e <USBH_MainDeal+0x86>
C:/Repository/RISKYKVM/firmware/src/User/USB_Host/app_km.c:1574 (discriminator 3)
        index = RootHubDev.DeviceIndex;
    11da:	64048713          	addi	a4,s1,1600
    11de:	00574403          	lbu	s0,5(a4)
C:/Repository/RISKYKVM/firmware/src/User/USB_Host/app_km.c:1575 (discriminator 3)
        memset( &RootHubDev.bStatus, 0, sizeof( ROOT_HUB_DEVICE ) );
    11e2:	467d                	li	a2,31
    11e4:	4581                	li	a1,0
    11e6:	64048513          	addi	a0,s1,1600
    11ea:	f57fe0ef          	jal	ra,140 <memset>
C:/Repository/RISKYKVM/firmware/src/User/USB_Host/app_km.c:1576 (discriminator 3)
        memset( &HostCtl[ index ].InterfaceNum, 0, sizeof( HOST_CTL ) );
    11ee:	44400513          	li	a0,1092
    11f2:	02a40433          	mul	s0,s0,a0
    11f6:	20000537          	lui	a0,0x20000
    11fa:	0d850513          	addi	a0,a0,216 # 200000d8 <HostCtl>
    11fe:	44400613          	li	a2,1092
    1202:	4581                	li	a1,0
    1204:	9522                	add	a0,a0,s0
    1206:	f3bfe0ef          	jal	ra,140 <memset>
C:/Repository/RISKYKVM/firmware/src/User/USB_Host/app_km.c:1577 (discriminator 3)
        GPIO_WriteBit(LED_GPIO_Port,LED_Pin, Bit_SET);
    120a:	4605                	li	a2,1
    120c:	bf31                	j	1128 <USBH_MainDeal+0x60>
C:/Repository/RISKYKVM/firmware/src/User/USB_Host/app_km.c:1592
                    if( HostCtl[ index ].Interface[ intf_num ].InEndpTimeCount[ in_num ] >= HostCtl[ index ].Interface[ intf_num ].InEndpInterval[ in_num ] )
    120e:	015a0c33          	add	s8,s4,s5
    1212:	024c4683          	lbu	a3,36(s8)
    1216:	020c4603          	lbu	a2,32(s8)
    121a:	06c6e163          	bltu	a3,a2,127c <USBH_MainDeal+0x1b4>
C:/Repository/RISKYKVM/firmware/src/User/USB_Host/app_km.c:1594
                        HostCtl[ index ].Interface[ intf_num ].InEndpTimeCount[ in_num ] %= HostCtl[ index ].Interface[ intf_num ].InEndpInterval[ in_num ];
    121e:	02c6f6b3          	remu	a3,a3,a2
C:/Repository/RISKYKVM/firmware/src/User/USB_Host/app_km.c:1597
                        s = USBFSH_GetEndpData( HostCtl[ index ].Interface[ intf_num ].InEndpAddr[ in_num ],
    1222:	47e2                	lw	a5,24(sp)
    1224:	00bc4503          	lbu	a0,11(s8)
    1228:	660d8613          	addi	a2,s11,1632 # 20001660 <Com_Buf>
    122c:	015785b3          	add	a1,a5,s5
    1230:	95da                	add	a1,a1,s6
C:/Repository/RISKYKVM/firmware/src/User/USB_Host/app_km.c:1594
                        HostCtl[ index ].Interface[ intf_num ].InEndpTimeCount[ in_num ] %= HostCtl[ index ].Interface[ intf_num ].InEndpInterval[ in_num ];
    1232:	02dc0223          	sb	a3,36(s8)
C:/Repository/RISKYKVM/firmware/src/User/USB_Host/app_km.c:1597
                        s = USBFSH_GetEndpData( HostCtl[ index ].Interface[ intf_num ].InEndpAddr[ in_num ],
    1236:	02e10693          	addi	a3,sp,46
    123a:	321000ef          	jal	ra,1d5a <USBFSH_GetEndpData>
    123e:	8d2a                	mv	s10,a0
C:/Repository/RISKYKVM/firmware/src/User/USB_Host/app_km.c:1599
                        if( s == ERR_SUCCESS )
    1240:	ed21                	bnez	a0,1298 <USBH_MainDeal+0x1d0>
C:/Repository/RISKYKVM/firmware/src/User/USB_Host/app_km.c:1603
                        	HostCtl[ index ].Interface[ intf_num ].HidRptLen = len;
    1242:	02e15603          	lhu	a2,46(sp)
C:/Repository/RISKYKVM/firmware/src/User/USB_Host/app_km.c:1604
                        	FifoWrite(&HostCtl[ index ].Interface[ intf_num ].buffer, &Com_Buf, len);
    1246:	4542                	lw	a0,16(sp)
    1248:	660d8593          	addi	a1,s11,1632
C:/Repository/RISKYKVM/firmware/src/User/USB_Host/app_km.c:1603
                        	HostCtl[ index ].Interface[ intf_num ].HidRptLen = len;
    124c:	10ca0823          	sb	a2,272(s4)
C:/Repository/RISKYKVM/firmware/src/User/USB_Host/app_km.c:1604
                        	FifoWrite(&HostCtl[ index ].Interface[ intf_num ].buffer, &Com_Buf, len);
    1250:	726020ef          	jal	ra,3976 <FifoWrite>
C:/Repository/RISKYKVM/firmware/src/User/USB_Host/app_km.c:1625
                            if( HostCtl[ index ].Interface[ intf_num ].Type == DEC_KEY )
    1254:	004a4683          	lbu	a3,4(s4)
    1258:	4705                	li	a4,1
    125a:	02e69163          	bne	a3,a4,127c <USBH_MainDeal+0x1b4>
C:/Repository/RISKYKVM/firmware/src/User/USB_Host/app_km.c:1627
                                KB_AnalyzeKeyValue( index, intf_num, Com_Buf, len );
    125e:	02e15683          	lhu	a3,46(sp)
    1262:	660d8613          	addi	a2,s11,1632
    1266:	85ce                	mv	a1,s3
    1268:	854a                	mv	a0,s2
    126a:	3121                	jal	e72 <KB_AnalyzeKeyValue>
C:/Repository/RISKYKVM/firmware/src/User/USB_Host/app_km.c:1629
                                if( HostCtl[ index ].Interface[ intf_num ].SetReport_Flag )
    126c:	044a4703          	lbu	a4,68(s4)
    1270:	c711                	beqz	a4,127c <USBH_MainDeal+0x1b4>
C:/Repository/RISKYKVM/firmware/src/User/USB_Host/app_km.c:1631
                                    KB_SetReport( index, RootHubDev.bEp0MaxPks, intf_num );
    1272:	00444583          	lbu	a1,4(s0)
    1276:	864e                	mv	a2,s3
    1278:	854a                	mv	a0,s2
    127a:	31f1                	jal	f46 <KB_SetReport>
C:/Repository/RISKYKVM/firmware/src/User/USB_Host/app_km.c:1589 (discriminator 2)
                for( in_num = 0; in_num < HostCtl[ index ].Interface[ intf_num ].InEndpNum; in_num++ )
    127c:	0a85                	addi	s5,s5,1
    127e:	0ffafa93          	andi	s5,s5,255
C:/Repository/RISKYKVM/firmware/src/User/USB_Host/app_km.c:1589 (discriminator 1)
    1282:	00aa4703          	lbu	a4,10(s4)
    1286:	f8eae4e3          	bltu	s5,a4,120e <USBH_MainDeal+0x146>
C:/Repository/RISKYKVM/firmware/src/User/USB_Host/app_km.c:1684
                            }
                        }
                    }
                }

                if( s == ERR_USB_DISCON )
    128a:	4759                	li	a4,22
    128c:	0eed0263          	beq	s10,a4,1370 <USBH_MainDeal+0x2a8>
C:/Repository/RISKYKVM/firmware/src/User/USB_Host/app_km.c:1587 (discriminator 2)
            for( intf_num = 0; intf_num < HostCtl[ index ].InterfaceNum; intf_num++ )
    1290:	0985                	addi	s3,s3,1
    1292:	0ff9f993          	andi	s3,s3,255
    1296:	b719                	j	119c <USBH_MainDeal+0xd4>
C:/Repository/RISKYKVM/firmware/src/User/USB_Host/app_km.c:1635
                        else if( s == ERR_USB_DISCON )
    1298:	47d9                	li	a5,22
    129a:	0cf50b63          	beq	a0,a5,1370 <USBH_MainDeal+0x2a8>
C:/Repository/RISKYKVM/firmware/src/User/USB_Host/app_km.c:1639
                        else if( s == ( USB_PID_STALL | ERR_USB_TRANSFER ) )
    129e:	02e00693          	li	a3,46
    12a2:	fcd51de3          	bne	a0,a3,127c <USBH_MainDeal+0x1b4>
C:/Repository/RISKYKVM/firmware/src/User/USB_Host/app_km.c:1645 (discriminator 3)
                            USBFSH_ClearEndpStall( RootHubDev.bEp0MaxPks, HostCtl[ index ].Interface[ intf_num ].InEndpAddr[ in_num ] | 0x80 );
    12a6:	00bc4583          	lbu	a1,11(s8)
    12aa:	00444503          	lbu	a0,4(s0)
    12ae:	0805e593          	ori	a1,a1,128
    12b2:	289000ef          	jal	ra,1d3a <USBFSH_ClearEndpStall>
C:/Repository/RISKYKVM/firmware/src/User/USB_Host/app_km.c:1649 (discriminator 3)
                            HostCtl[ index ].ErrorCount++;
    12b6:	001cc683          	lbu	a3,1(s9)
C:/Repository/RISKYKVM/firmware/src/User/USB_Host/app_km.c:1646 (discriminator 3)
                            HostCtl[ index ].Interface[ intf_num ].InEndpTog[ in_num ] = 0x00;
    12ba:	000c0e23          	sb	zero,28(s8)
C:/Repository/RISKYKVM/firmware/src/User/USB_Host/app_km.c:1650 (discriminator 3)
                            if( HostCtl[ index ].ErrorCount >= 10 )
    12be:	4625                	li	a2,9
C:/Repository/RISKYKVM/firmware/src/User/USB_Host/app_km.c:1649 (discriminator 3)
                            HostCtl[ index ].ErrorCount++;
    12c0:	0685                	addi	a3,a3,1
    12c2:	0ff6f693          	andi	a3,a3,255
    12c6:	00dc80a3          	sb	a3,1(s9)
C:/Repository/RISKYKVM/firmware/src/User/USB_Host/app_km.c:1650 (discriminator 3)
                            if( HostCtl[ index ].ErrorCount >= 10 )
    12ca:	fad679e3          	bgeu	a2,a3,127c <USBH_MainDeal+0x1b4>
C:/Repository/RISKYKVM/firmware/src/User/USB_Host/app_km.c:1653
                                memset( &RootHubDev.bStatus, 0, sizeof( struct _ROOT_HUB_DEVICE ) );
    12ce:	467d                	li	a2,31
    12d0:	4581                	li	a1,0
    12d2:	64048513          	addi	a0,s1,1600
    12d6:	e6bfe0ef          	jal	ra,140 <memset>
C:/Repository/RISKYKVM/firmware/src/User/USB_Host/app_km.c:1654
                                s = USBH_EnumRootDevice( );
    12da:	8faff0ef          	jal	ra,3d4 <USBH_EnumRootDevice>
    12de:	8d2a                	mv	s10,a0
C:/Repository/RISKYKVM/firmware/src/User/USB_Host/app_km.c:1655
                                if( s == ERR_SUCCESS )
    12e0:	e531                	bnez	a0,132c <USBH_MainDeal+0x264>
C:/Repository/RISKYKVM/firmware/src/User/USB_Host/app_km.c:1657
                                    USBFSH_ClearEndpStall( RootHubDev.bEp0MaxPks, HostCtl[ index ].Interface[ intf_num ].InEndpAddr[ in_num ] | 0x80 );
    12e2:	00bc4583          	lbu	a1,11(s8)
    12e6:	00444503          	lbu	a0,4(s0)
    12ea:	0805e593          	ori	a1,a1,128
    12ee:	24d000ef          	jal	ra,1d3a <USBFSH_ClearEndpStall>
C:/Repository/RISKYKVM/firmware/src/User/USB_Host/app_km.c:1663
                                    memset( &HostCtl[ index ].InterfaceNum, 0, sizeof( struct __HOST_CTL ) );
    12f2:	4532                	lw	a0,12(sp)
C:/Repository/RISKYKVM/firmware/src/User/USB_Host/app_km.c:1660
                                    RootHubDev.bStatus = ROOT_DEV_CONNECTED;
    12f4:	4785                	li	a5,1
C:/Repository/RISKYKVM/firmware/src/User/USB_Host/app_km.c:1663
                                    memset( &HostCtl[ index ].InterfaceNum, 0, sizeof( struct __HOST_CTL ) );
    12f6:	44400613          	li	a2,1092
    12fa:	4581                	li	a1,0
C:/Repository/RISKYKVM/firmware/src/User/USB_Host/app_km.c:1658
                                    HostCtl[ index ].ErrorCount = 0x00;
    12fc:	000c80a3          	sb	zero,1(s9)
C:/Repository/RISKYKVM/firmware/src/User/USB_Host/app_km.c:1660
                                    RootHubDev.bStatus = ROOT_DEV_CONNECTED;
    1300:	64f48023          	sb	a5,1600(s1)
C:/Repository/RISKYKVM/firmware/src/User/USB_Host/app_km.c:1661
                                    RootHubDev.DeviceIndex = DEF_USBFS_PORT_INDEX * DEF_ONE_USB_SUP_DEV_TOTAL;
    1304:	000402a3          	sb	zero,5(s0)
C:/Repository/RISKYKVM/firmware/src/User/USB_Host/app_km.c:1663
                                    memset( &HostCtl[ index ].InterfaceNum, 0, sizeof( struct __HOST_CTL ) );
    1308:	e39fe0ef          	jal	ra,140 <memset>
C:/Repository/RISKYKVM/firmware/src/User/USB_Host/app_km.c:1664
                                    s = USBH_EnumHidDevice( index, RootHubDev.bEp0MaxPks );
    130c:	00444583          	lbu	a1,4(s0)
    1310:	854a                	mv	a0,s2
    1312:	39e1                	jal	fea <USBH_EnumHidDevice>
    1314:	8d2a                	mv	s10,a0
C:/Repository/RISKYKVM/firmware/src/User/USB_Host/app_km.c:1665
                                    if( s == ERR_SUCCESS )
    1316:	e919                	bnez	a0,132c <USBH_MainDeal+0x264>
C:/Repository/RISKYKVM/firmware/src/User/USB_Host/app_km.c:1667
                                        RootHubDev.bStatus = ROOT_DEV_SUCCESS; 
    1318:	470d                	li	a4,3
C:/Repository/RISKYKVM/firmware/src/User/USB_Host/app_km.c:1668
                                        GPIO_WriteBit(LED_GPIO_Port,LED_Pin, Bit_RESET);
    131a:	4601                	li	a2,0
    131c:	6591                	lui	a1,0x4
    131e:	40011537          	lui	a0,0x40011
C:/Repository/RISKYKVM/firmware/src/User/USB_Host/app_km.c:1667
                                        RootHubDev.bStatus = ROOT_DEV_SUCCESS; 
    1322:	64e48023          	sb	a4,1600(s1)
C:/Repository/RISKYKVM/firmware/src/User/USB_Host/app_km.c:1668
                                        GPIO_WriteBit(LED_GPIO_Port,LED_Pin, Bit_RESET);
    1326:	243020ef          	jal	ra,3d68 <GPIO_WriteBit>
    132a:	bf89                	j	127c <USBH_MainDeal+0x1b4>
C:/Repository/RISKYKVM/firmware/src/User/USB_Host/app_km.c:1675
                                else if( s != ERR_USB_DISCON )
    132c:	47d9                	li	a5,22
    132e:	f4fd07e3          	beq	s10,a5,127c <USBH_MainDeal+0x1b4>
C:/Repository/RISKYKVM/firmware/src/User/USB_Host/app_km.c:1677
                                    RootHubDev.bStatus = ROOT_DEV_FAILED;
    1332:	4709                	li	a4,2
    1334:	64e48023          	sb	a4,1600(s1)
    1338:	b791                	j	127c <USBH_MainDeal+0x1b4>
C:/Repository/RISKYKVM/firmware/src/User/USB_Host/app_km.c:1690
                {
                    break;
                }
            }
        }
        else if( RootHubDev.bType == USB_DEV_CLASS_HUB )
    133a:	46a5                	li	a3,9
    133c:	02d71a63          	bne	a4,a3,1370 <USBH_MainDeal+0x2a8>
C:/Repository/RISKYKVM/firmware/src/User/USB_Host/app_km.c:1693
        {
           /* Query port status change */
           if( HostCtl[ index ].Interface[ 0 ].InEndpTimeCount[ 0 ] >= HostCtl[ index ].Interface[ 0 ].InEndpInterval[ 0 ] )
    1340:	44400593          	li	a1,1092
    1344:	02b90933          	mul	s2,s2,a1
    1348:	200009b7          	lui	s3,0x20000
    134c:	0d898a13          	addi	s4,s3,216 # 200000d8 <HostCtl>
    1350:	0d898993          	addi	s3,s3,216
    1354:	9a4a                	add	s4,s4,s2
    1356:	024a4703          	lbu	a4,36(s4)
    135a:	020a4683          	lbu	a3,32(s4)
    135e:	02d77863          	bgeu	a4,a3,138e <USBH_MainDeal+0x2c6>
C:/Repository/RISKYKVM/firmware/src/User/USB_Host/app_km.c:1813 (discriminator 1)
               {
                   index = RootHubDev.Device[ hub_port ].DeviceIndex;

                   if( RootHubDev.Device[ hub_port ].bType == USB_DEV_CLASS_HID )
                   {
                       for( intf_num = 0; intf_num < HostCtl[ index ].InterfaceNum; intf_num++ )
    1362:	4b01                	li	s6,0
C:/Repository/RISKYKVM/firmware/src/User/USB_Host/app_km.c:1831 (discriminator 1)
                                   {
                                       USBOTG_H_FS->HOST_CTRL &= ~USBFS_UH_LOW_SPEED;
                                   }

                                   /* Get endpoint data */
                                   s = USBFSH_GetEndpData( HostCtl[ index ].Interface[ intf_num ].InEndpAddr[ in_num ], \
    1364:	20001c37          	lui	s8,0x20001
C:/Repository/RISKYKVM/firmware/src/User/USB_Host/app_km.c:1805 (discriminator 1)
           for( hub_port = 0; hub_port < RootHubDev.bPortNum; hub_port++ )
    1368:	00644703          	lbu	a4,6(s0)
    136c:	1aeb6863          	bltu	s6,a4,151c <USBH_MainDeal+0x454>
C:/Repository/RISKYKVM/firmware/src/User/USB_Host/app_km.c:1880
                   }
               }
           }
        }
    }
}
    1370:	50b6                	lw	ra,108(sp)
    1372:	5426                	lw	s0,104(sp)
    1374:	5496                	lw	s1,100(sp)
    1376:	5906                	lw	s2,96(sp)
    1378:	49f6                	lw	s3,92(sp)
    137a:	4a66                	lw	s4,88(sp)
    137c:	4ad6                	lw	s5,84(sp)
    137e:	4b46                	lw	s6,80(sp)
    1380:	4bb6                	lw	s7,76(sp)
    1382:	4c26                	lw	s8,72(sp)
    1384:	4c96                	lw	s9,68(sp)
    1386:	4d06                	lw	s10,64(sp)
    1388:	5df2                	lw	s11,60(sp)
    138a:	6165                	addi	sp,sp,112
    138c:	8082                	ret
C:/Repository/RISKYKVM/firmware/src/User/USB_Host/app_km.c:1695
               HostCtl[ index ].Interface[ 0 ].InEndpTimeCount[ 0 ] %= HostCtl[ index ].Interface[ 0 ].InEndpInterval[ 0 ];
    138e:	02d77733          	remu	a4,a4,a3
C:/Repository/RISKYKVM/firmware/src/User/USB_Host/app_km.c:1698
               USBFSH_SetSelfAddr( RootHubDev.bAddress );
    1392:	00244503          	lbu	a0,2(s0)
C:/Repository/RISKYKVM/firmware/src/User/USB_Host/app_km.c:1702
               s = USBFSH_GetEndpData( HostCtl[ index ].Interface[ 0 ].InEndpAddr[ 0 ], &HostCtl[ index ].Interface[ 0 ].InEndpTog[ 0 ], Com_Buf, &len );
    1396:	0971                	addi	s2,s2,28
    1398:	200014b7          	lui	s1,0x20001
C:/Repository/RISKYKVM/firmware/src/User/USB_Host/app_km.c:1695
               HostCtl[ index ].Interface[ 0 ].InEndpTimeCount[ 0 ] %= HostCtl[ index ].Interface[ 0 ].InEndpInterval[ 0 ];
    139c:	02ea0223          	sb	a4,36(s4)
C:/Repository/RISKYKVM/firmware/src/User/USB_Host/app_km.c:1698
               USBFSH_SetSelfAddr( RootHubDev.bAddress );
    13a0:	26c9                	jal	1762 <USBFSH_SetSelfAddr>
C:/Repository/RISKYKVM/firmware/src/User/USB_Host/app_km.c:1699
               USBFSH_SetSelfSpeed( RootHubDev.bSpeed );
    13a2:	00344503          	lbu	a0,3(s0)
    13a6:	2ed1                	jal	177a <USBFSH_SetSelfSpeed>
C:/Repository/RISKYKVM/firmware/src/User/USB_Host/app_km.c:1702
               s = USBFSH_GetEndpData( HostCtl[ index ].Interface[ 0 ].InEndpAddr[ 0 ], &HostCtl[ index ].Interface[ 0 ].InEndpTog[ 0 ], Com_Buf, &len );
    13a8:	00ba4503          	lbu	a0,11(s4)
    13ac:	02e10693          	addi	a3,sp,46
    13b0:	66048613          	addi	a2,s1,1632 # 20001660 <Com_Buf>
    13b4:	012985b3          	add	a1,s3,s2
    13b8:	1a3000ef          	jal	ra,1d5a <USBFSH_GetEndpData>
    13bc:	8d2a                	mv	s10,a0
C:/Repository/RISKYKVM/firmware/src/User/USB_Host/app_km.c:1703
               if( s == ERR_SUCCESS )
    13be:	f155                	bnez	a0,1362 <USBH_MainDeal+0x29a>
C:/Repository/RISKYKVM/firmware/src/User/USB_Host/app_km.c:1705
                   hub_dat = Com_Buf[ 0 ];
    13c0:	6604c703          	lbu	a4,1632(s1)
C:/Repository/RISKYKVM/firmware/src/User/USB_Host/app_km.c:1708
                   for( hub_port = 0; hub_port < RootHubDev.bPortNum; hub_port++ )
    13c4:	4d81                	li	s11,0
C:/Repository/RISKYKVM/firmware/src/User/USB_Host/app_km.c:1725
                       if( s == ERR_USB_CONNECT )
    13c6:	4c55                	li	s8,21
C:/Repository/RISKYKVM/firmware/src/User/USB_Host/app_km.c:1705
                   hub_dat = Com_Buf[ 0 ];
    13c8:	02e106a3          	sb	a4,45(sp)
C:/Repository/RISKYKVM/firmware/src/User/USB_Host/app_km.c:1741
                           RootHubDev.Device[ hub_port ].bSpeed = HUB_CheckPortSpeed( ( hub_port + 1 ), Com_Buf );
    13cc:	4919                	li	s2,6
C:/Repository/RISKYKVM/firmware/src/User/USB_Host/app_km.c:1795
                               RootHubDev.Device[ hub_port ].bStatus = ROOT_DEV_FAILED;
    13ce:	4c89                	li	s9,2
C:/Repository/RISKYKVM/firmware/src/User/USB_Host/app_km.c:1758
                               if( RootHubDev.Device[ hub_port ].bType == USB_DEV_CLASS_HID )
    13d0:	4a8d                	li	s5,3
C:/Repository/RISKYKVM/firmware/src/User/USB_Host/app_km.c:1749
                               USBOTG_H_FS->HOST_CTRL &= ~USBFS_UH_LOW_SPEED;
    13d2:	50000b37          	lui	s6,0x50000
C:/Repository/RISKYKVM/firmware/src/User/USB_Host/app_km.c:1708 (discriminator 1)
                   for( hub_port = 0; hub_port < RootHubDev.bPortNum; hub_port++ )
    13d6:	00644703          	lbu	a4,6(s0)
    13da:	f8edf4e3          	bgeu	s11,a4,1362 <USBH_MainDeal+0x29a>
C:/Repository/RISKYKVM/firmware/src/User/USB_Host/app_km.c:1711
                       s = HUB_Port_PreEnum1( ( hub_port + 1 ), &hub_dat );
    13de:	001d8b93          	addi	s7,s11,1
    13e2:	0ffbfa13          	andi	s4,s7,255
    13e6:	02d10593          	addi	a1,sp,45
    13ea:	8552                	mv	a0,s4
    13ec:	fe4ff0ef          	jal	ra,bd0 <HUB_Port_PreEnum1>
C:/Repository/RISKYKVM/firmware/src/User/USB_Host/app_km.c:1712
                       if( s == ERR_USB_DISCON )
    13f0:	47d9                	li	a5,22
C:/Repository/RISKYKVM/firmware/src/User/USB_Host/app_km.c:1711
                       s = HUB_Port_PreEnum1( ( hub_port + 1 ), &hub_dat );
    13f2:	8d2a                	mv	s10,a0
C:/Repository/RISKYKVM/firmware/src/User/USB_Host/app_km.c:1712
                       if( s == ERR_USB_DISCON )
    13f4:	04f51563          	bne	a0,a5,143e <USBH_MainDeal+0x376>
C:/Repository/RISKYKVM/firmware/src/User/USB_Host/app_km.c:1717
                           memset( &HostCtl[ RootHubDev.Device[ hub_port ].DeviceIndex ], 0, sizeof( HOST_CTL ) );
    13f8:	032d8db3          	mul	s11,s11,s2
C:/Repository/RISKYKVM/firmware/src/User/USB_Host/app_km.c:1714
                           hub_dat &= ~( 1 << ( hub_port + 1 ) );
    13fc:	4685                	li	a3,1
    13fe:	01769733          	sll	a4,a3,s7
    1402:	02d14683          	lbu	a3,45(sp)
    1406:	fff74713          	not	a4,a4
C:/Repository/RISKYKVM/firmware/src/User/USB_Host/app_km.c:1717
                           memset( &HostCtl[ RootHubDev.Device[ hub_port ].DeviceIndex ], 0, sizeof( HOST_CTL ) );
    140a:	44400613          	li	a2,1092
C:/Repository/RISKYKVM/firmware/src/User/USB_Host/app_km.c:1714
                           hub_dat &= ~( 1 << ( hub_port + 1 ) );
    140e:	8f75                	and	a4,a4,a3
    1410:	02e106a3          	sb	a4,45(sp)
C:/Repository/RISKYKVM/firmware/src/User/USB_Host/app_km.c:1717
                           memset( &HostCtl[ RootHubDev.Device[ hub_port ].DeviceIndex ], 0, sizeof( HOST_CTL ) );
    1414:	4581                	li	a1,0
    1416:	01b40733          	add	a4,s0,s11
    141a:	00c74503          	lbu	a0,12(a4)
    141e:	44400713          	li	a4,1092
C:/Repository/RISKYKVM/firmware/src/User/USB_Host/app_km.c:1718
                           memset( &RootHubDev.Device[ hub_port ].bStatus, 0, sizeof( HUB_DEVICE ) );
    1422:	0d9d                	addi	s11,s11,7
C:/Repository/RISKYKVM/firmware/src/User/USB_Host/app_km.c:1717
                           memset( &HostCtl[ RootHubDev.Device[ hub_port ].DeviceIndex ], 0, sizeof( HOST_CTL ) );
    1424:	02e50533          	mul	a0,a0,a4
    1428:	954e                	add	a0,a0,s3
    142a:	d17fe0ef          	jal	ra,140 <memset>
C:/Repository/RISKYKVM/firmware/src/User/USB_Host/app_km.c:1718
                           memset( &RootHubDev.Device[ hub_port ].bStatus, 0, sizeof( HUB_DEVICE ) );
    142e:	4619                	li	a2,6
    1430:	4581                	li	a1,0
    1432:	01b40533          	add	a0,s0,s11
    1436:	d0bfe0ef          	jal	ra,140 <memset>
C:/Repository/RISKYKVM/firmware/src/User/USB_Host/app_km.c:1587 (discriminator 1)
            for( intf_num = 0; intf_num < HostCtl[ index ].InterfaceNum; intf_num++ )
    143a:	8dd2                	mv	s11,s4
    143c:	bf69                	j	13d6 <USBH_MainDeal+0x30e>
C:/Repository/RISKYKVM/firmware/src/User/USB_Host/app_km.c:1723
                       Delay_Ms( 100 );
    143e:	06400513          	li	a0,100
    1442:	3e9020ef          	jal	ra,402a <Delay_Ms>
C:/Repository/RISKYKVM/firmware/src/User/USB_Host/app_km.c:1724
                       s = HUB_Port_PreEnum2( ( hub_port + 1 ), &hub_dat );
    1446:	02d10593          	addi	a1,sp,45
    144a:	8552                	mv	a0,s4
    144c:	821ff0ef          	jal	ra,c6c <HUB_Port_PreEnum2>
    1450:	8d2a                	mv	s10,a0
C:/Repository/RISKYKVM/firmware/src/User/USB_Host/app_km.c:1725
                       if( s == ERR_USB_CONNECT )
    1452:	09851c63          	bne	a0,s8,14ea <USBH_MainDeal+0x422>
C:/Repository/RISKYKVM/firmware/src/User/USB_Host/app_km.c:1728
                           RootHubDev.Device[ hub_port ].bStatus = ROOT_DEV_CONNECTED;
    1456:	032d87b3          	mul	a5,s11,s2
    145a:	4705                	li	a4,1
    145c:	97a2                	add	a5,a5,s0
    145e:	00e783a3          	sb	a4,7(a5)
C:/Repository/RISKYKVM/firmware/src/User/USB_Host/app_km.c:1729
                           RootHubDev.Device[ hub_port ].bEp0MaxPks = DEFAULT_ENDP0_SIZE;
    1462:	4721                	li	a4,8
    1464:	00e785a3          	sb	a4,11(a5)
C:/Repository/RISKYKVM/firmware/src/User/USB_Host/app_km.c:1730
                           RootHubDev.Device[ hub_port ].DeviceIndex = DEF_USBFS_PORT_INDEX * DEF_ONE_USB_SUP_DEV_TOTAL + hub_port + 1;
    1468:	01478623          	sb	s4,12(a5)
C:/Repository/RISKYKVM/firmware/src/User/USB_Host/app_km.c:1741
                           RootHubDev.Device[ hub_port ].bSpeed = HUB_CheckPortSpeed( ( hub_port + 1 ), Com_Buf );
    146c:	66048593          	addi	a1,s1,1632
    1470:	8552                	mv	a0,s4
    1472:	8bdff0ef          	jal	ra,d2e <HUB_CheckPortSpeed>
    1476:	032d87b3          	mul	a5,s11,s2
    147a:	00f40d33          	add	s10,s0,a5
    147e:	00ad0523          	sb	a0,10(s10)
C:/Repository/RISKYKVM/firmware/src/User/USB_Host/app_km.c:1745
                           USBFSH_SetSelfAddr( RootHubDev.Device[ hub_port ].bAddress );
    1482:	009d4503          	lbu	a0,9(s10)
    1486:	2cf1                	jal	1762 <USBFSH_SetSelfAddr>
C:/Repository/RISKYKVM/firmware/src/User/USB_Host/app_km.c:1746
                           USBFSH_SetSelfSpeed( RootHubDev.Device[ hub_port ].bSpeed );
    1488:	00ad4503          	lbu	a0,10(s10)
    148c:	24fd                	jal	177a <USBFSH_SetSelfSpeed>
C:/Repository/RISKYKVM/firmware/src/User/USB_Host/app_km.c:1747
                           if( RootHubDev.bSpeed != USB_LOW_SPEED )
    148e:	00344783          	lbu	a5,3(s0)
    1492:	c799                	beqz	a5,14a0 <USBH_MainDeal+0x3d8>
C:/Repository/RISKYKVM/firmware/src/User/USB_Host/app_km.c:1749
                               USBOTG_H_FS->HOST_CTRL &= ~USBFS_UH_LOW_SPEED;
    1494:	001b4783          	lbu	a5,1(s6) # 50000001 <_eusrstack+0x2fffb001>
    1498:	0fb7f793          	andi	a5,a5,251
    149c:	00fb00a3          	sb	a5,1(s6)
C:/Repository/RISKYKVM/firmware/src/User/USB_Host/app_km.c:1754 (discriminator 3)
                           s = USBH_EnumHubPortDevice( hub_port, &RootHubDev.Device[ hub_port ].bAddress, \
    14a0:	032d8733          	mul	a4,s11,s2
    14a4:	856e                	mv	a0,s11
    14a6:	00870613          	addi	a2,a4,8
    14aa:	00970593          	addi	a1,a4,9
    14ae:	9622                	add	a2,a2,s0
    14b0:	95a2                	add	a1,a1,s0
    14b2:	c63a                	sw	a4,12(sp)
    14b4:	8b1ff0ef          	jal	ra,d64 <USBH_EnumHubPortDevice>
C:/Repository/RISKYKVM/firmware/src/User/USB_Host/app_km.c:1756 (discriminator 3)
                           if( s == ERR_SUCCESS )
    14b8:	4732                	lw	a4,12(sp)
C:/Repository/RISKYKVM/firmware/src/User/USB_Host/app_km.c:1754 (discriminator 3)
                           s = USBH_EnumHubPortDevice( hub_port, &RootHubDev.Device[ hub_port ].bAddress, \
    14ba:	8d2a                	mv	s10,a0
C:/Repository/RISKYKVM/firmware/src/User/USB_Host/app_km.c:1758 (discriminator 3)
                               if( RootHubDev.Device[ hub_port ].bType == USB_DEV_CLASS_HID )
    14bc:	00e40db3          	add	s11,s0,a4
C:/Repository/RISKYKVM/firmware/src/User/USB_Host/app_km.c:1756 (discriminator 3)
                           if( s == ERR_SUCCESS )
    14c0:	e931                	bnez	a0,1514 <USBH_MainDeal+0x44c>
C:/Repository/RISKYKVM/firmware/src/User/USB_Host/app_km.c:1758
                               if( RootHubDev.Device[ hub_port ].bType == USB_DEV_CLASS_HID )
    14c2:	008dc703          	lbu	a4,8(s11)
    14c6:	05571463          	bne	a4,s5,150e <USBH_MainDeal+0x446>
C:/Repository/RISKYKVM/firmware/src/User/USB_Host/app_km.c:1763 (discriminator 3)
                                   s = USBH_EnumHidDevice( RootHubDev.Device[ hub_port ].DeviceIndex, \
    14ca:	00bdc583          	lbu	a1,11(s11)
    14ce:	00cdc503          	lbu	a0,12(s11)
    14d2:	3e21                	jal	fea <USBH_EnumHidDevice>
    14d4:	8d2a                	mv	s10,a0
C:/Repository/RISKYKVM/firmware/src/User/USB_Host/app_km.c:1765 (discriminator 3)
                                   if( s == ERR_SUCCESS )
    14d6:	f135                	bnez	a0,143a <USBH_MainDeal+0x372>
C:/Repository/RISKYKVM/firmware/src/User/USB_Host/app_km.c:1767
                                        RootHubDev.Device[ hub_port ].bStatus = ROOT_DEV_SUCCESS;
    14d8:	015d83a3          	sb	s5,7(s11)
C:/Repository/RISKYKVM/firmware/src/User/USB_Host/app_km.c:1768
					GPIO_WriteBit(LED_GPIO_Port,LED_Pin, Bit_RESET);                                       
    14dc:	4601                	li	a2,0
C:/Repository/RISKYKVM/firmware/src/User/USB_Host/app_km.c:1797
			       GPIO_WriteBit(LED_GPIO_Port,LED_Pin, Bit_SET);
    14de:	6591                	lui	a1,0x4
    14e0:	40011537          	lui	a0,0x40011
    14e4:	085020ef          	jal	ra,3d68 <GPIO_WriteBit>
    14e8:	bf89                	j	143a <USBH_MainDeal+0x372>
C:/Repository/RISKYKVM/firmware/src/User/USB_Host/app_km.c:1734
                           hub_dat &= ~( 1 << ( hub_port + 1 ) );
    14ea:	02d14603          	lbu	a2,45(sp)
    14ee:	4685                	li	a3,1
    14f0:	01769733          	sll	a4,a3,s7
    14f4:	fff74713          	not	a4,a4
    14f8:	8f71                	and	a4,a4,a2
    14fa:	02e106a3          	sb	a4,45(sp)
C:/Repository/RISKYKVM/firmware/src/User/USB_Host/app_km.c:1738
                       if( RootHubDev.Device[ hub_port ].bStatus == ROOT_DEV_CONNECTED )
    14fe:	032d8733          	mul	a4,s11,s2
    1502:	9722                	add	a4,a4,s0
    1504:	00774703          	lbu	a4,7(a4)
    1508:	f2d719e3          	bne	a4,a3,143a <USBH_MainDeal+0x372>
    150c:	b785                	j	146c <USBH_MainDeal+0x3a4>
C:/Repository/RISKYKVM/firmware/src/User/USB_Host/app_km.c:1790 (discriminator 3)
                                   RootHubDev.Device[ hub_port ].bStatus = ROOT_DEV_SUCCESS;
    150e:	015d83a3          	sb	s5,7(s11)
    1512:	b725                	j	143a <USBH_MainDeal+0x372>
C:/Repository/RISKYKVM/firmware/src/User/USB_Host/app_km.c:1795
                               RootHubDev.Device[ hub_port ].bStatus = ROOT_DEV_FAILED;
    1514:	019d83a3          	sb	s9,7(s11)
C:/Repository/RISKYKVM/firmware/src/User/USB_Host/app_km.c:1797
			       GPIO_WriteBit(LED_GPIO_Port,LED_Pin, Bit_SET);
    1518:	4605                	li	a2,1
    151a:	b7d1                	j	14de <USBH_MainDeal+0x416>
C:/Repository/RISKYKVM/firmware/src/User/USB_Host/app_km.c:1807
               if( RootHubDev.Device[ hub_port ].bStatus == ROOT_DEV_SUCCESS )
    151c:	4799                	li	a5,6
    151e:	02fb04b3          	mul	s1,s6,a5
    1522:	468d                	li	a3,3
    1524:	94a2                	add	s1,s1,s0
    1526:	0074c703          	lbu	a4,7(s1)
    152a:	10d71963          	bne	a4,a3,163c <USBH_MainDeal+0x574>
C:/Repository/RISKYKVM/firmware/src/User/USB_Host/app_km.c:1811
                   if( RootHubDev.Device[ hub_port ].bType == USB_DEV_CLASS_HID )
    152e:	0084c683          	lbu	a3,8(s1)
    1532:	10e69563          	bne	a3,a4,163c <USBH_MainDeal+0x574>
C:/Repository/RISKYKVM/firmware/src/User/USB_Host/app_km.c:1809
                   index = RootHubDev.Device[ hub_port ].DeviceIndex;
    1536:	00c4cc83          	lbu	s9,12(s1)
    153a:	44400793          	li	a5,1092
C:/Repository/RISKYKVM/firmware/src/User/USB_Host/app_km.c:1813
                       for( intf_num = 0; intf_num < HostCtl[ index ].InterfaceNum; intf_num++ )
    153e:	4a81                	li	s5,0
    1540:	02fc8bb3          	mul	s7,s9,a5
C:/Repository/RISKYKVM/firmware/src/User/USB_Host/app_km.c:1837
                                    	FifoWrite(&HostCtl[ index ].Interface[ intf_num ].buffer, &Com_Buf, len);
    1544:	084b8793          	addi	a5,s7,132
C:/Repository/RISKYKVM/firmware/src/User/USB_Host/app_km.c:1813
                       for( intf_num = 0; intf_num < HostCtl[ index ].InterfaceNum; intf_num++ )
    1548:	c85e                	sw	s7,16(sp)
    154a:	01798db3          	add	s11,s3,s7
C:/Repository/RISKYKVM/firmware/src/User/USB_Host/app_km.c:1837
                                    	FifoWrite(&HostCtl[ index ].Interface[ intf_num ].buffer, &Com_Buf, len);
    154e:	cc3e                	sw	a5,24(sp)
C:/Repository/RISKYKVM/firmware/src/User/USB_Host/app_km.c:1813 (discriminator 1)
                       for( intf_num = 0; intf_num < HostCtl[ index ].InterfaceNum; intf_num++ )
    1550:	000dc703          	lbu	a4,0(s11)
    1554:	0eeaf463          	bgeu	s5,a4,163c <USBH_MainDeal+0x574>
    1558:	11000713          	li	a4,272
    155c:	02ea8733          	mul	a4,s5,a4
C:/Repository/RISKYKVM/firmware/src/User/USB_Host/app_km.c:1837
                                    	FifoWrite(&HostCtl[ index ].Interface[ intf_num ].buffer, &Com_Buf, len);
    1560:	47e2                	lw	a5,24(sp)
C:/Repository/RISKYKVM/firmware/src/User/USB_Host/app_km.c:1815
                           for( in_num = 0; in_num < HostCtl[ index ].Interface[ intf_num ].InEndpNum; in_num++ )
    1562:	4a01                	li	s4,0
C:/Repository/RISKYKVM/firmware/src/User/USB_Host/app_km.c:1837
                                    	FifoWrite(&HostCtl[ index ].Interface[ intf_num ].buffer, &Com_Buf, len);
    1564:	00e786b3          	add	a3,a5,a4
    1568:	00d987b3          	add	a5,s3,a3
    156c:	c63e                	sw	a5,12(sp)
C:/Repository/RISKYKVM/firmware/src/User/USB_Host/app_km.c:1815
                           for( in_num = 0; in_num < HostCtl[ index ].Interface[ intf_num ].InEndpNum; in_num++ )
    156e:	47c2                	lw	a5,16(sp)
C:/Repository/RISKYKVM/firmware/src/User/USB_Host/app_km.c:1831
                                   s = USBFSH_GetEndpData( HostCtl[ index ].Interface[ intf_num ].InEndpAddr[ in_num ], \
    1570:	01cb8693          	addi	a3,s7,28
C:/Repository/RISKYKVM/firmware/src/User/USB_Host/app_km.c:1815
                           for( in_num = 0; in_num < HostCtl[ index ].Interface[ intf_num ].InEndpNum; in_num++ )
    1574:	00f70933          	add	s2,a4,a5
C:/Repository/RISKYKVM/firmware/src/User/USB_Host/app_km.c:1831
                                   s = USBFSH_GetEndpData( HostCtl[ index ].Interface[ intf_num ].InEndpAddr[ in_num ], \
    1578:	00e687b3          	add	a5,a3,a4
C:/Repository/RISKYKVM/firmware/src/User/USB_Host/app_km.c:1815
                           for( in_num = 0; in_num < HostCtl[ index ].Interface[ intf_num ].InEndpNum; in_num++ )
    157c:	994e                	add	s2,s2,s3
C:/Repository/RISKYKVM/firmware/src/User/USB_Host/app_km.c:1831
                                   s = USBFSH_GetEndpData( HostCtl[ index ].Interface[ intf_num ].InEndpAddr[ in_num ], \
    157e:	ca3e                	sw	a5,20(sp)
    1580:	a879                	j	161e <USBH_MainDeal+0x556>
C:/Repository/RISKYKVM/firmware/src/User/USB_Host/app_km.c:1818
                               if( HostCtl[ index ].Interface[ intf_num ].InEndpTimeCount[ in_num ] >= HostCtl[ index ].Interface[ intf_num ].InEndpInterval[ in_num ] )
    1582:	014906b3          	add	a3,s2,s4
    1586:	0246c703          	lbu	a4,36(a3)
    158a:	0206c603          	lbu	a2,32(a3)
    158e:	08c76563          	bltu	a4,a2,1618 <USBH_MainDeal+0x550>
C:/Repository/RISKYKVM/firmware/src/User/USB_Host/app_km.c:1820
                                   HostCtl[ index ].Interface[ intf_num ].InEndpTimeCount[ in_num ] %= HostCtl[ index ].Interface[ intf_num ].InEndpInterval[ in_num ];
    1592:	02c77733          	remu	a4,a4,a2
C:/Repository/RISKYKVM/firmware/src/User/USB_Host/app_km.c:1823
                                   USBFSH_SetSelfAddr( RootHubDev.Device[ hub_port ].bAddress );
    1596:	0094c503          	lbu	a0,9(s1)
C:/Repository/RISKYKVM/firmware/src/User/USB_Host/app_km.c:1820
                                   HostCtl[ index ].Interface[ intf_num ].InEndpTimeCount[ in_num ] %= HostCtl[ index ].Interface[ intf_num ].InEndpInterval[ in_num ];
    159a:	02e68223          	sb	a4,36(a3)
C:/Repository/RISKYKVM/firmware/src/User/USB_Host/app_km.c:1823
                                   USBFSH_SetSelfAddr( RootHubDev.Device[ hub_port ].bAddress );
    159e:	22d1                	jal	1762 <USBFSH_SetSelfAddr>
C:/Repository/RISKYKVM/firmware/src/User/USB_Host/app_km.c:1824
                                   USBFSH_SetSelfSpeed( RootHubDev.Device[ hub_port ].bSpeed );
    15a0:	00a4c503          	lbu	a0,10(s1)
    15a4:	2ad9                	jal	177a <USBFSH_SetSelfSpeed>
C:/Repository/RISKYKVM/firmware/src/User/USB_Host/app_km.c:1825
                                   if( RootHubDev.bSpeed != USB_LOW_SPEED )
    15a6:	00344783          	lbu	a5,3(s0)
    15aa:	cb89                	beqz	a5,15bc <USBH_MainDeal+0x4f4>
C:/Repository/RISKYKVM/firmware/src/User/USB_Host/app_km.c:1827
                                       USBOTG_H_FS->HOST_CTRL &= ~USBFS_UH_LOW_SPEED;
    15ac:	50000737          	lui	a4,0x50000
    15b0:	00174783          	lbu	a5,1(a4) # 50000001 <_eusrstack+0x2fffb001>
    15b4:	0fb7f793          	andi	a5,a5,251
    15b8:	00f700a3          	sb	a5,1(a4)
C:/Repository/RISKYKVM/firmware/src/User/USB_Host/app_km.c:1831
                                   s = USBFSH_GetEndpData( HostCtl[ index ].Interface[ intf_num ].InEndpAddr[ in_num ], \
    15bc:	47d2                	lw	a5,20(sp)
    15be:	02e10693          	addi	a3,sp,46
    15c2:	660c0613          	addi	a2,s8,1632 # 20001660 <Com_Buf>
    15c6:	014785b3          	add	a1,a5,s4
    15ca:	014907b3          	add	a5,s2,s4
    15ce:	00b7c503          	lbu	a0,11(a5)
    15d2:	95ce                	add	a1,a1,s3
    15d4:	786000ef          	jal	ra,1d5a <USBFSH_GetEndpData>
    15d8:	8d2a                	mv	s10,a0
C:/Repository/RISKYKVM/firmware/src/User/USB_Host/app_km.c:1833
                                   if( s == ERR_SUCCESS )
    15da:	ed29                	bnez	a0,1634 <USBH_MainDeal+0x56c>
C:/Repository/RISKYKVM/firmware/src/User/USB_Host/app_km.c:1836
                                    	HostCtl[ index ].Interface[ intf_num ].HidRptLen = len;
    15dc:	02e15603          	lhu	a2,46(sp)
C:/Repository/RISKYKVM/firmware/src/User/USB_Host/app_km.c:1837
                                    	FifoWrite(&HostCtl[ index ].Interface[ intf_num ].buffer, &Com_Buf, len);
    15e0:	4532                	lw	a0,12(sp)
    15e2:	660c0593          	addi	a1,s8,1632
C:/Repository/RISKYKVM/firmware/src/User/USB_Host/app_km.c:1836
                                    	HostCtl[ index ].Interface[ intf_num ].HidRptLen = len;
    15e6:	10c90823          	sb	a2,272(s2)
C:/Repository/RISKYKVM/firmware/src/User/USB_Host/app_km.c:1837
                                    	FifoWrite(&HostCtl[ index ].Interface[ intf_num ].buffer, &Com_Buf, len);
    15ea:	38c020ef          	jal	ra,3976 <FifoWrite>
C:/Repository/RISKYKVM/firmware/src/User/USB_Host/app_km.c:1853
                                       if( HostCtl[ index ].Interface[ intf_num ].Type == DEC_KEY )
    15ee:	00494683          	lbu	a3,4(s2)
    15f2:	4705                	li	a4,1
    15f4:	02e69263          	bne	a3,a4,1618 <USBH_MainDeal+0x550>
C:/Repository/RISKYKVM/firmware/src/User/USB_Host/app_km.c:1855
                                           KB_AnalyzeKeyValue( index, intf_num, Com_Buf, len );
    15f8:	02e15683          	lhu	a3,46(sp)
    15fc:	660c0613          	addi	a2,s8,1632
    1600:	85d6                	mv	a1,s5
    1602:	8566                	mv	a0,s9
    1604:	86fff0ef          	jal	ra,e72 <KB_AnalyzeKeyValue>
C:/Repository/RISKYKVM/firmware/src/User/USB_Host/app_km.c:1857
                                           if( HostCtl[ index ].Interface[ intf_num ].SetReport_Flag )
    1608:	04494703          	lbu	a4,68(s2)
    160c:	c711                	beqz	a4,1618 <USBH_MainDeal+0x550>
C:/Repository/RISKYKVM/firmware/src/User/USB_Host/app_km.c:1859
                                               KB_SetReport( index, RootHubDev.Device[ hub_port ].bEp0MaxPks, intf_num );
    160e:	00b4c583          	lbu	a1,11(s1)
    1612:	8656                	mv	a2,s5
    1614:	8566                	mv	a0,s9
    1616:	3a05                	jal	f46 <KB_SetReport>
C:/Repository/RISKYKVM/firmware/src/User/USB_Host/app_km.c:1815 (discriminator 2)
                           for( in_num = 0; in_num < HostCtl[ index ].Interface[ intf_num ].InEndpNum; in_num++ )
    1618:	0a05                	addi	s4,s4,1
    161a:	0ffa7a13          	andi	s4,s4,255
C:/Repository/RISKYKVM/firmware/src/User/USB_Host/app_km.c:1815 (discriminator 1)
    161e:	00a94703          	lbu	a4,10(s2)
    1622:	f6ea60e3          	bltu	s4,a4,1582 <USBH_MainDeal+0x4ba>
C:/Repository/RISKYKVM/firmware/src/User/USB_Host/app_km.c:1870
                           if( s == ERR_USB_DISCON )
    1626:	4759                	li	a4,22
    1628:	00ed0963          	beq	s10,a4,163a <USBH_MainDeal+0x572>
C:/Repository/RISKYKVM/firmware/src/User/USB_Host/app_km.c:1813 (discriminator 2)
                       for( intf_num = 0; intf_num < HostCtl[ index ].InterfaceNum; intf_num++ )
    162c:	0a85                	addi	s5,s5,1
    162e:	0ffafa93          	andi	s5,s5,255
    1632:	bf39                	j	1550 <USBH_MainDeal+0x488>
C:/Repository/RISKYKVM/firmware/src/User/USB_Host/app_km.c:1863
                                   else if( s == ERR_USB_DISCON )
    1634:	4759                	li	a4,22
    1636:	fee511e3          	bne	a0,a4,1618 <USBH_MainDeal+0x550>
C:/Repository/RISKYKVM/firmware/src/User/USB_Host/app_km.c:1813
                       for( intf_num = 0; intf_num < HostCtl[ index ].InterfaceNum; intf_num++ )
    163a:	4d59                	li	s10,22
C:/Repository/RISKYKVM/firmware/src/User/USB_Host/app_km.c:1805 (discriminator 2)
           for( hub_port = 0; hub_port < RootHubDev.bPortNum; hub_port++ )
    163c:	0b05                	addi	s6,s6,1
    163e:	0ffb7b13          	andi	s6,s6,255
    1642:	b31d                	j	1368 <USBH_MainDeal+0x2a0>

00001644 <USBFSH_SetSelfSpeed.part.0>:
USBFSH_SetSelfSpeed():
C:/Repository/RISKYKVM/firmware/src/User/USB_Host/ch32v20x_usbfs_host.c:169
 */
void USBFSH_SetSelfSpeed( uint8_t speed )
{
    if( speed == USB_FULL_SPEED )
    {
        USBOTG_H_FS->BASE_CTRL &= ~USBFS_UC_LOW_SPEED;
    1644:	50000737          	lui	a4,0x50000
    1648:	00074783          	lbu	a5,0(a4) # 50000000 <_eusrstack+0x2fffb000>
    164c:	0bf7f793          	andi	a5,a5,191
    1650:	00f70023          	sb	a5,0(a4)
C:/Repository/RISKYKVM/firmware/src/User/USB_Host/ch32v20x_usbfs_host.c:170
        USBOTG_H_FS->HOST_CTRL &= ~USBFS_UH_LOW_SPEED;
    1654:	00174783          	lbu	a5,1(a4)
    1658:	0fb7f793          	andi	a5,a5,251
    165c:	00f700a3          	sb	a5,1(a4)
C:/Repository/RISKYKVM/firmware/src/User/USB_Host/ch32v20x_usbfs_host.c:171
        USBOTG_H_FS->HOST_SETUP &= ~USBFS_UH_PRE_PID_EN;
    1660:	03675783          	lhu	a5,54(a4)
    1664:	07c2                	slli	a5,a5,0x10
    1666:	83c1                	srli	a5,a5,0x10
    1668:	bff7f793          	andi	a5,a5,-1025
    166c:	07c2                	slli	a5,a5,0x10
    166e:	83c1                	srli	a5,a5,0x10
    1670:	02f71b23          	sh	a5,54(a4)
C:/Repository/RISKYKVM/firmware/src/User/USB_Host/ch32v20x_usbfs_host.c:179
    {
        USBOTG_H_FS->BASE_CTRL |= USBFS_UC_LOW_SPEED;
        USBOTG_H_FS->HOST_CTRL |= USBFS_UH_LOW_SPEED;
        USBOTG_H_FS->HOST_SETUP |= USBFS_UH_PRE_PID_EN;
    }
}
    1674:	8082                	ret

00001676 <USBFS_RCC_Init>:
USBFS_RCC_Init():
C:/Repository/RISKYKVM/firmware/src/User/USB_Host/ch32v20x_usbfs_host.c:34
    if( SystemCoreClock == 144000000 )
    1676:	200007b7          	lui	a5,0x20000
    167a:	0047a703          	lw	a4,4(a5) # 20000004 <SystemCoreClock>
C:/Repository/RISKYKVM/firmware/src/User/USB_Host/ch32v20x_usbfs_host.c:33
{
    167e:	1141                	addi	sp,sp,-16
C:/Repository/RISKYKVM/firmware/src/User/USB_Host/ch32v20x_usbfs_host.c:34
    if( SystemCoreClock == 144000000 )
    1680:	089547b7          	lui	a5,0x8954
C:/Repository/RISKYKVM/firmware/src/User/USB_Host/ch32v20x_usbfs_host.c:33
{
    1684:	c606                	sw	ra,12(sp)
C:/Repository/RISKYKVM/firmware/src/User/USB_Host/ch32v20x_usbfs_host.c:34
    if( SystemCoreClock == 144000000 )
    1686:	40078793          	addi	a5,a5,1024 # 8954400 <_data_lma+0x89501b0>
C:/Repository/RISKYKVM/firmware/src/User/USB_Host/ch32v20x_usbfs_host.c:36
        RCC_USBCLKConfig( RCC_USBCLKSource_PLLCLK_Div3 );
    168a:	4509                	li	a0,2
C:/Repository/RISKYKVM/firmware/src/User/USB_Host/ch32v20x_usbfs_host.c:34
    if( SystemCoreClock == 144000000 )
    168c:	02f70063          	beq	a4,a5,16ac <USBFS_RCC_Init+0x36>
C:/Repository/RISKYKVM/firmware/src/User/USB_Host/ch32v20x_usbfs_host.c:38
    else if( SystemCoreClock == 96000000 )
    1690:	05b8e7b7          	lui	a5,0x5b8e
    1694:	80078793          	addi	a5,a5,-2048 # 5b8d800 <_data_lma+0x5b895b0>
C:/Repository/RISKYKVM/firmware/src/User/USB_Host/ch32v20x_usbfs_host.c:40
        RCC_USBCLKConfig( RCC_USBCLKSource_PLLCLK_Div2 );
    1698:	4505                	li	a0,1
C:/Repository/RISKYKVM/firmware/src/User/USB_Host/ch32v20x_usbfs_host.c:38
    else if( SystemCoreClock == 96000000 )
    169a:	00f70963          	beq	a4,a5,16ac <USBFS_RCC_Init+0x36>
C:/Repository/RISKYKVM/firmware/src/User/USB_Host/ch32v20x_usbfs_host.c:42
    else if( SystemCoreClock == 48000000 )
    169e:	02dc77b7          	lui	a5,0x2dc7
    16a2:	c0078793          	addi	a5,a5,-1024 # 2dc6c00 <_data_lma+0x2dc29b0>
    16a6:	00f71563          	bne	a4,a5,16b0 <USBFS_RCC_Init+0x3a>
C:/Repository/RISKYKVM/firmware/src/User/USB_Host/ch32v20x_usbfs_host.c:44
        RCC_USBCLKConfig( RCC_USBCLKSource_PLLCLK_Div1 );
    16aa:	4501                	li	a0,0
    16ac:	7ce020ef          	jal	ra,3e7a <RCC_USBCLKConfig>
C:/Repository/RISKYKVM/firmware/src/User/USB_Host/ch32v20x_usbfs_host.c:47
}
    16b0:	40b2                	lw	ra,12(sp)
C:/Repository/RISKYKVM/firmware/src/User/USB_Host/ch32v20x_usbfs_host.c:46
    RCC_AHBPeriphClockCmd( RCC_AHBPeriph_OTG_FS, ENABLE );
    16b2:	4585                	li	a1,1
    16b4:	6505                	lui	a0,0x1
C:/Repository/RISKYKVM/firmware/src/User/USB_Host/ch32v20x_usbfs_host.c:47
}
    16b6:	0141                	addi	sp,sp,16
C:/Repository/RISKYKVM/firmware/src/User/USB_Host/ch32v20x_usbfs_host.c:46
    RCC_AHBPeriphClockCmd( RCC_AHBPeriph_OTG_FS, ENABLE );
    16b8:	7dc0206f          	j	3e94 <RCC_AHBPeriphClockCmd>

000016bc <USBFS_Host_Init>:
USBFS_Host_Init():
C:/Repository/RISKYKVM/firmware/src/User/USB_Host/ch32v20x_usbfs_host.c:58
{
    16bc:	1141                	addi	sp,sp,-16
    16be:	c422                	sw	s0,8(sp)
    16c0:	c606                	sw	ra,12(sp)
C:/Repository/RISKYKVM/firmware/src/User/USB_Host/ch32v20x_usbfs_host.c:59
    if( sta == ENABLE )
    16c2:	4785                	li	a5,1
C:/Repository/RISKYKVM/firmware/src/User/USB_Host/ch32v20x_usbfs_host.c:62
        USBOTG_H_FS->BASE_CTRL = USBFS_UC_RESET_SIE | USBFS_UC_CLR_ALL;
    16c4:	50000437          	lui	s0,0x50000
C:/Repository/RISKYKVM/firmware/src/User/USB_Host/ch32v20x_usbfs_host.c:59
    if( sta == ENABLE )
    16c8:	04f51063          	bne	a0,a5,1708 <USBFS_Host_Init+0x4c>
C:/Repository/RISKYKVM/firmware/src/User/USB_Host/ch32v20x_usbfs_host.c:62
        USBOTG_H_FS->BASE_CTRL = USBFS_UC_RESET_SIE | USBFS_UC_CLR_ALL;
    16cc:	4799                	li	a5,6
    16ce:	00f40023          	sb	a5,0(s0) # 50000000 <_eusrstack+0x2fffb000>
C:/Repository/RISKYKVM/firmware/src/User/USB_Host/ch32v20x_usbfs_host.c:63
        Delay_Us( 10 );
    16d2:	4529                	li	a0,10
    16d4:	121020ef          	jal	ra,3ff4 <Delay_Us>
C:/Repository/RISKYKVM/firmware/src/User/USB_Host/ch32v20x_usbfs_host.c:67
        USBOTG_H_FS->BASE_CTRL = USBFS_UC_HOST_MODE | USBFS_UC_INT_BUSY | USBFS_UC_DMA_EN;
    16d8:	f8900793          	li	a5,-119
C:/Repository/RISKYKVM/firmware/src/User/USB_Host/ch32v20x_usbfs_host.c:64
        USBOTG_H_FS->BASE_CTRL = 0;
    16dc:	00040023          	sb	zero,0(s0)
C:/Repository/RISKYKVM/firmware/src/User/USB_Host/ch32v20x_usbfs_host.c:67
        USBOTG_H_FS->BASE_CTRL = USBFS_UC_HOST_MODE | USBFS_UC_INT_BUSY | USBFS_UC_DMA_EN;
    16e0:	00f40023          	sb	a5,0(s0)
C:/Repository/RISKYKVM/firmware/src/User/USB_Host/ch32v20x_usbfs_host.c:68
        USBOTG_H_FS->HOST_EP_MOD = USBFS_UH_EP_TX_EN | USBFS_UH_EP_RX_EN;
    16e4:	04800793          	li	a5,72
    16e8:	00f406a3          	sb	a5,13(s0)
C:/Repository/RISKYKVM/firmware/src/User/USB_Host/ch32v20x_usbfs_host.c:69
        USBOTG_H_FS->HOST_RX_DMA = (uint32_t)USBFS_RX_Buf;
    16ec:	200027b7          	lui	a5,0x20002
    16f0:	a6078793          	addi	a5,a5,-1440 # 20001a60 <USBFS_RX_Buf>
    16f4:	cc1c                	sw	a5,24(s0)
C:/Repository/RISKYKVM/firmware/src/User/USB_Host/ch32v20x_usbfs_host.c:70
        USBOTG_H_FS->HOST_TX_DMA = (uint32_t)USBFS_TX_Buf;
    16f6:	200027b7          	lui	a5,0x20002
    16fa:	aa078793          	addi	a5,a5,-1376 # 20001aa0 <USBFS_TX_Buf>
    16fe:	cc5c                	sw	a5,28(s0)
C:/Repository/RISKYKVM/firmware/src/User/USB_Host/ch32v20x_usbfs_host.c:78
}
    1700:	40b2                	lw	ra,12(sp)
    1702:	4422                	lw	s0,8(sp)
    1704:	0141                	addi	sp,sp,16
    1706:	8082                	ret
C:/Repository/RISKYKVM/firmware/src/User/USB_Host/ch32v20x_usbfs_host.c:74
        USBOTG_H_FS->BASE_CTRL = USBFS_UC_RESET_SIE | USBFS_UC_CLR_ALL;
    1708:	4799                	li	a5,6
    170a:	00f40023          	sb	a5,0(s0)
C:/Repository/RISKYKVM/firmware/src/User/USB_Host/ch32v20x_usbfs_host.c:75
        Delay_Us( 10 );
    170e:	4529                	li	a0,10
    1710:	0e5020ef          	jal	ra,3ff4 <Delay_Us>
C:/Repository/RISKYKVM/firmware/src/User/USB_Host/ch32v20x_usbfs_host.c:76
        USBOTG_H_FS->BASE_CTRL = 0;
    1714:	00040023          	sb	zero,0(s0)
C:/Repository/RISKYKVM/firmware/src/User/USB_Host/ch32v20x_usbfs_host.c:78
}
    1718:	b7e5                	j	1700 <USBFS_Host_Init+0x44>

0000171a <USBFSH_CheckRootHubPortStatus>:
USBFSH_CheckRootHubPortStatus():
C:/Repository/RISKYKVM/firmware/src/User/USB_Host/ch32v20x_usbfs_host.c:92
    if( USBOTG_H_FS->INT_FG & USBFS_UIF_DETECT )// Check that there is a device connection or disconnection event on the port
    171a:	50000737          	lui	a4,0x50000
    171e:	00674783          	lbu	a5,6(a4) # 50000006 <_eusrstack+0x2fffb006>
    1722:	8b85                	andi	a5,a5,1
    1724:	c39d                	beqz	a5,174a <USBFSH_CheckRootHubPortStatus+0x30>
C:/Repository/RISKYKVM/firmware/src/User/USB_Host/ch32v20x_usbfs_host.c:94
        USBOTG_H_FS->INT_FG = USBFS_UIF_DETECT; // Clear flag
    1726:	4785                	li	a5,1
    1728:	00f70323          	sb	a5,6(a4)
C:/Repository/RISKYKVM/firmware/src/User/USB_Host/ch32v20x_usbfs_host.c:95
        if( USBOTG_H_FS->MIS_ST & USBFS_UMS_DEV_ATTACH ) // Check that there is a device connection to the port
    172c:	00574683          	lbu	a3,5(a4)
C:/Repository/RISKYKVM/firmware/src/User/USB_Host/ch32v20x_usbfs_host.c:108
            return ROOT_DEV_DISCONNECT;
    1730:	4781                	li	a5,0
C:/Repository/RISKYKVM/firmware/src/User/USB_Host/ch32v20x_usbfs_host.c:95
        if( USBOTG_H_FS->MIS_ST & USBFS_UMS_DEV_ATTACH ) // Check that there is a device connection to the port
    1732:	8a85                	andi	a3,a3,1
    1734:	ce81                	beqz	a3,174c <USBFSH_CheckRootHubPortStatus+0x32>
C:/Repository/RISKYKVM/firmware/src/User/USB_Host/ch32v20x_usbfs_host.c:99
                return ROOT_DEV_CONNECTED;
    1736:	4785                	li	a5,1
C:/Repository/RISKYKVM/firmware/src/User/USB_Host/ch32v20x_usbfs_host.c:97
            if( ( dev_sta == ROOT_DEV_DISCONNECT ) || ( ( dev_sta != ROOT_DEV_FAILED ) && ( USBFSH_CheckRootHubPortEnable( ) == 0x00 ) ) )
    1738:	c911                	beqz	a0,174c <USBFSH_CheckRootHubPortStatus+0x32>
C:/Repository/RISKYKVM/firmware/src/User/USB_Host/ch32v20x_usbfs_host.c:97 (discriminator 1)
    173a:	4789                	li	a5,2
    173c:	00f50763          	beq	a0,a5,174a <USBFSH_CheckRootHubPortStatus+0x30>
USBFSH_CheckRootHubPortEnable():
C:/Repository/RISKYKVM/firmware/src/User/USB_Host/ch32v20x_usbfs_host.c:127
    return ( USBOTG_H_FS->HOST_CTRL & USBFS_UH_PORT_EN );
    1740:	00174703          	lbu	a4,1(a4)
USBFSH_CheckRootHubPortStatus():
C:/Repository/RISKYKVM/firmware/src/User/USB_Host/ch32v20x_usbfs_host.c:99
                return ROOT_DEV_CONNECTED;
    1744:	4785                	li	a5,1
C:/Repository/RISKYKVM/firmware/src/User/USB_Host/ch32v20x_usbfs_host.c:97
            if( ( dev_sta == ROOT_DEV_DISCONNECT ) || ( ( dev_sta != ROOT_DEV_FAILED ) && ( USBFSH_CheckRootHubPortEnable( ) == 0x00 ) ) )
    1746:	8b05                	andi	a4,a4,1
    1748:	c311                	beqz	a4,174c <USBFSH_CheckRootHubPortStatus+0x32>
C:/Repository/RISKYKVM/firmware/src/User/USB_Host/ch32v20x_usbfs_host.c:103
                return ROOT_DEV_FAILED;
    174a:	4789                	li	a5,2
C:/Repository/RISKYKVM/firmware/src/User/USB_Host/ch32v20x_usbfs_host.c:115
}
    174c:	853e                	mv	a0,a5
    174e:	8082                	ret

00001750 <USBFSH_CheckRootHubPortSpeed>:
USBFSH_CheckRootHubPortSpeed():
C:/Repository/RISKYKVM/firmware/src/User/USB_Host/ch32v20x_usbfs_host.c:139
    return ( USBOTG_H_FS->MIS_ST & USBFS_UMS_DM_LEVEL? USB_LOW_SPEED: USB_FULL_SPEED );
    1750:	500007b7          	lui	a5,0x50000
    1754:	0057c503          	lbu	a0,5(a5) # 50000005 <_eusrstack+0x2fffb005>
    1758:	8105                	srli	a0,a0,0x1
    175a:	00154513          	xori	a0,a0,1
C:/Repository/RISKYKVM/firmware/src/User/USB_Host/ch32v20x_usbfs_host.c:140
}
    175e:	8905                	andi	a0,a0,1
    1760:	8082                	ret

00001762 <USBFSH_SetSelfAddr>:
USBFSH_SetSelfAddr():
C:/Repository/RISKYKVM/firmware/src/User/USB_Host/ch32v20x_usbfs_host.c:153
    USBOTG_H_FS->DEV_ADDR = ( USBOTG_H_FS->DEV_ADDR & USBFS_UDA_GP_BIT ) | ( addr & USBFS_USB_ADDR_MASK );
    1762:	50000737          	lui	a4,0x50000
    1766:	00374783          	lbu	a5,3(a4) # 50000003 <_eusrstack+0x2fffb003>
    176a:	07f57513          	andi	a0,a0,127
    176e:	0807f793          	andi	a5,a5,128
    1772:	8fc9                	or	a5,a5,a0
    1774:	00f701a3          	sb	a5,3(a4)
C:/Repository/RISKYKVM/firmware/src/User/USB_Host/ch32v20x_usbfs_host.c:154
}
    1778:	8082                	ret

0000177a <USBFSH_SetSelfSpeed>:
USBFSH_SetSelfSpeed():
C:/Repository/RISKYKVM/firmware/src/User/USB_Host/ch32v20x_usbfs_host.c:167
    if( speed == USB_FULL_SPEED )
    177a:	4785                	li	a5,1
    177c:	00f51363          	bne	a0,a5,1782 <USBFSH_SetSelfSpeed+0x8>
    1780:	b5d1                	j	1644 <USBFSH_SetSelfSpeed.part.0>
C:/Repository/RISKYKVM/firmware/src/User/USB_Host/ch32v20x_usbfs_host.c:175
        USBOTG_H_FS->BASE_CTRL |= USBFS_UC_LOW_SPEED;
    1782:	500007b7          	lui	a5,0x50000
    1786:	0007c703          	lbu	a4,0(a5) # 50000000 <_eusrstack+0x2fffb000>
    178a:	04076713          	ori	a4,a4,64
    178e:	00e78023          	sb	a4,0(a5)
C:/Repository/RISKYKVM/firmware/src/User/USB_Host/ch32v20x_usbfs_host.c:176
        USBOTG_H_FS->HOST_CTRL |= USBFS_UH_LOW_SPEED;
    1792:	0017c703          	lbu	a4,1(a5)
    1796:	00476713          	ori	a4,a4,4
    179a:	00e780a3          	sb	a4,1(a5)
C:/Repository/RISKYKVM/firmware/src/User/USB_Host/ch32v20x_usbfs_host.c:177
        USBOTG_H_FS->HOST_SETUP |= USBFS_UH_PRE_PID_EN;
    179e:	0367d703          	lhu	a4,54(a5)
    17a2:	40076713          	ori	a4,a4,1024
    17a6:	02e79b23          	sh	a4,54(a5)
C:/Repository/RISKYKVM/firmware/src/User/USB_Host/ch32v20x_usbfs_host.c:179
}
    17aa:	8082                	ret

000017ac <USBFSH_ResetRootHubPort>:
USBFSH_ResetRootHubPort():
C:/Repository/RISKYKVM/firmware/src/User/USB_Host/ch32v20x_usbfs_host.c:194
 *               2 -> end reset
 *
 * @return  none
 */
void USBFSH_ResetRootHubPort( uint8_t mode )
{
    17ac:	1141                	addi	sp,sp,-16
    17ae:	c422                	sw	s0,8(sp)
    17b0:	842a                	mv	s0,a0
C:/Repository/RISKYKVM/firmware/src/User/USB_Host/ch32v20x_usbfs_host.c:195
    USBFSH_SetSelfAddr( 0x00 );
    17b2:	4501                	li	a0,0
C:/Repository/RISKYKVM/firmware/src/User/USB_Host/ch32v20x_usbfs_host.c:194
{
    17b4:	c606                	sw	ra,12(sp)
C:/Repository/RISKYKVM/firmware/src/User/USB_Host/ch32v20x_usbfs_host.c:195
    USBFSH_SetSelfAddr( 0x00 );
    17b6:	3775                	jal	1762 <USBFSH_SetSelfAddr>
USBFSH_SetSelfSpeed():
C:/Repository/RISKYKVM/firmware/src/User/USB_Host/ch32v20x_usbfs_host.c:167
    if( speed == USB_FULL_SPEED )
    17b8:	3571                	jal	1644 <USBFSH_SetSelfSpeed.part.0>
USBFSH_ResetRootHubPort():
C:/Repository/RISKYKVM/firmware/src/User/USB_Host/ch32v20x_usbfs_host.c:198
    USBFSH_SetSelfSpeed( USB_FULL_SPEED );

    if( mode <= 1 )
    17ba:	4785                	li	a5,1
    17bc:	0087ee63          	bltu	a5,s0,17d8 <USBFSH_ResetRootHubPort+0x2c>
C:/Repository/RISKYKVM/firmware/src/User/USB_Host/ch32v20x_usbfs_host.c:200
    {
        USBOTG_H_FS->HOST_CTRL |= USBFS_UH_BUS_RESET; // Start reset
    17c0:	50000737          	lui	a4,0x50000
    17c4:	00174783          	lbu	a5,1(a4) # 50000001 <_eusrstack+0x2fffb001>
    17c8:	0027e793          	ori	a5,a5,2
    17cc:	00f700a3          	sb	a5,1(a4)
C:/Repository/RISKYKVM/firmware/src/User/USB_Host/ch32v20x_usbfs_host.c:202
    }
    if( mode == 0 )
    17d0:	ec01                	bnez	s0,17e8 <USBFSH_ResetRootHubPort+0x3c>
C:/Repository/RISKYKVM/firmware/src/User/USB_Host/ch32v20x_usbfs_host.c:204
    {
        Delay_Ms( DEF_BUS_RESET_TIME ); // Reset time from 10mS to 20mS
    17d2:	452d                	li	a0,11
    17d4:	057020ef          	jal	ra,402a <Delay_Ms>
C:/Repository/RISKYKVM/firmware/src/User/USB_Host/ch32v20x_usbfs_host.c:208
    }
    if( mode != 1 )
    {
        USBOTG_H_FS->HOST_CTRL &= ~USBFS_UH_BUS_RESET; // End reset
    17d8:	50000737          	lui	a4,0x50000
    17dc:	00174783          	lbu	a5,1(a4) # 50000001 <_eusrstack+0x2fffb001>
    17e0:	0fd7f793          	andi	a5,a5,253
    17e4:	00f700a3          	sb	a5,1(a4)
C:/Repository/RISKYKVM/firmware/src/User/USB_Host/ch32v20x_usbfs_host.c:210
    }
    Delay_Ms( 2 );
    17e8:	4509                	li	a0,2
    17ea:	041020ef          	jal	ra,402a <Delay_Ms>
C:/Repository/RISKYKVM/firmware/src/User/USB_Host/ch32v20x_usbfs_host.c:212

    if( USBOTG_H_FS->INT_FG & USBFS_UIF_DETECT )
    17ee:	500007b7          	lui	a5,0x50000
    17f2:	0067c703          	lbu	a4,6(a5) # 50000006 <_eusrstack+0x2fffb006>
    17f6:	8b05                	andi	a4,a4,1
    17f8:	cb01                	beqz	a4,1808 <USBFSH_ResetRootHubPort+0x5c>
C:/Repository/RISKYKVM/firmware/src/User/USB_Host/ch32v20x_usbfs_host.c:214
    {
        if( USBOTG_H_FS->MIS_ST & USBFS_UMS_DEV_ATTACH )
    17fa:	0057c703          	lbu	a4,5(a5)
    17fe:	8b05                	andi	a4,a4,1
    1800:	c701                	beqz	a4,1808 <USBFSH_ResetRootHubPort+0x5c>
C:/Repository/RISKYKVM/firmware/src/User/USB_Host/ch32v20x_usbfs_host.c:216
        {
            USBOTG_H_FS->INT_FG = USBFS_UIF_DETECT;
    1802:	4705                	li	a4,1
    1804:	00e78323          	sb	a4,6(a5)
C:/Repository/RISKYKVM/firmware/src/User/USB_Host/ch32v20x_usbfs_host.c:219
        }
    }
}
    1808:	40b2                	lw	ra,12(sp)
    180a:	4422                	lw	s0,8(sp)
    180c:	0141                	addi	sp,sp,16
    180e:	8082                	ret

00001810 <USBFSH_EnableRootHubPort>:
USBFSH_EnableRootHubPort():
C:/Repository/RISKYKVM/firmware/src/User/USB_Host/ch32v20x_usbfs_host.c:232
 *
 * @return  Operation result of the enabled port.
 */
uint8_t USBFSH_EnableRootHubPort( uint8_t *pspeed )
{
    if( USBOTG_H_FS->MIS_ST & USBFS_UMS_DEV_ATTACH )
    1810:	50000737          	lui	a4,0x50000
    1814:	00574783          	lbu	a5,5(a4) # 50000005 <_eusrstack+0x2fffb005>
    1818:	8b85                	andi	a5,a5,1
    181a:	c3a9                	beqz	a5,185c <USBFSH_EnableRootHubPort+0x4c>
C:/Repository/RISKYKVM/firmware/src/User/USB_Host/ch32v20x_usbfs_host.c:231
{
    181c:	1141                	addi	sp,sp,-16
    181e:	c606                	sw	ra,12(sp)
    1820:	c422                	sw	s0,8(sp)
USBFSH_CheckRootHubPortEnable():
C:/Repository/RISKYKVM/firmware/src/User/USB_Host/ch32v20x_usbfs_host.c:127
    return ( USBOTG_H_FS->HOST_CTRL & USBFS_UH_PORT_EN );
    1822:	00174783          	lbu	a5,1(a4)
USBFSH_EnableRootHubPort():
C:/Repository/RISKYKVM/firmware/src/User/USB_Host/ch32v20x_usbfs_host.c:234
    {
        if( USBFSH_CheckRootHubPortEnable( ) == 0x00 )
    1826:	8b85                	andi	a5,a5,1
    1828:	e799                	bnez	a5,1836 <USBFSH_EnableRootHubPort+0x26>
    182a:	842a                	mv	s0,a0
C:/Repository/RISKYKVM/firmware/src/User/USB_Host/ch32v20x_usbfs_host.c:236
        { 
            *pspeed = USBFSH_CheckRootHubPortSpeed( );
    182c:	3715                	jal	1750 <USBFSH_CheckRootHubPortSpeed>
    182e:	00a40023          	sb	a0,0(s0)
C:/Repository/RISKYKVM/firmware/src/User/USB_Host/ch32v20x_usbfs_host.c:237
            if( *pspeed == USB_LOW_SPEED )
    1832:	e111                	bnez	a0,1836 <USBFSH_EnableRootHubPort+0x26>
C:/Repository/RISKYKVM/firmware/src/User/USB_Host/ch32v20x_usbfs_host.c:239
            {
                USBFSH_SetSelfSpeed( USB_LOW_SPEED );
    1834:	3799                	jal	177a <USBFSH_SetSelfSpeed>
C:/Repository/RISKYKVM/firmware/src/User/USB_Host/ch32v20x_usbfs_host.c:242
            }
        }
        USBOTG_H_FS->HOST_CTRL |= USBFS_UH_PORT_EN;
    1836:	500007b7          	lui	a5,0x50000
    183a:	0017c703          	lbu	a4,1(a5) # 50000001 <_eusrstack+0x2fffb001>
C:/Repository/RISKYKVM/firmware/src/User/USB_Host/ch32v20x_usbfs_host.c:245
        USBOTG_H_FS->HOST_SETUP |= USBFS_UH_SOF_EN;

        return ERR_SUCCESS;
    183e:	4501                	li	a0,0
C:/Repository/RISKYKVM/firmware/src/User/USB_Host/ch32v20x_usbfs_host.c:242
        USBOTG_H_FS->HOST_CTRL |= USBFS_UH_PORT_EN;
    1840:	00176713          	ori	a4,a4,1
    1844:	00e780a3          	sb	a4,1(a5)
C:/Repository/RISKYKVM/firmware/src/User/USB_Host/ch32v20x_usbfs_host.c:243
        USBOTG_H_FS->HOST_SETUP |= USBFS_UH_SOF_EN;
    1848:	0367d703          	lhu	a4,54(a5)
C:/Repository/RISKYKVM/firmware/src/User/USB_Host/ch32v20x_usbfs_host.c:249
    }

    return ERR_USB_DISCON;
}
    184c:	40b2                	lw	ra,12(sp)
    184e:	4422                	lw	s0,8(sp)
C:/Repository/RISKYKVM/firmware/src/User/USB_Host/ch32v20x_usbfs_host.c:243
        USBOTG_H_FS->HOST_SETUP |= USBFS_UH_SOF_EN;
    1850:	00476713          	ori	a4,a4,4
    1854:	02e79b23          	sh	a4,54(a5)
C:/Repository/RISKYKVM/firmware/src/User/USB_Host/ch32v20x_usbfs_host.c:249
}
    1858:	0141                	addi	sp,sp,16
    185a:	8082                	ret
C:/Repository/RISKYKVM/firmware/src/User/USB_Host/ch32v20x_usbfs_host.c:248
    return ERR_USB_DISCON;
    185c:	4559                	li	a0,22
C:/Repository/RISKYKVM/firmware/src/User/USB_Host/ch32v20x_usbfs_host.c:249
}
    185e:	8082                	ret

00001860 <USBFSH_Transact>:
USBFSH_Transact():
C:/Repository/RISKYKVM/firmware/src/User/USB_Host/ch32v20x_usbfs_host.c:263
 *          timeout: Timeout time.
 *
 * @return  USB transfer result.
 */
uint8_t USBFSH_Transact( uint8_t endp_pid, uint8_t endp_tog, uint16_t timeout )
{
    1860:	7179                	addi	sp,sp,-48
    1862:	d422                	sw	s0,40(sp)
    1864:	d226                	sw	s1,36(sp)
    1866:	d04a                	sw	s2,32(sp)
    1868:	ce4e                	sw	s3,28(sp)
    186a:	cc52                	sw	s4,24(sp)
    186c:	ca56                	sw	s5,20(sp)
    186e:	c85a                	sw	s6,16(sp)
    1870:	c65e                	sw	s7,12(sp)
    1872:	c462                	sw	s8,8(sp)
    1874:	c266                	sw	s9,4(sp)
    1876:	d606                	sw	ra,44(sp)
    1878:	c06a                	sw	s10,0(sp)
C:/Repository/RISKYKVM/firmware/src/User/USB_Host/ch32v20x_usbfs_host.c:267
    uint8_t  r, trans_retry;
    uint16_t i;

    USBOTG_H_FS->HOST_TX_CTRL = USBOTG_H_FS->HOST_RX_CTRL = endp_tog;
    187a:	500007b7          	lui	a5,0x50000
    187e:	02b78da3          	sb	a1,59(a5) # 5000003b <_eusrstack+0x2fffb03b>
C:/Repository/RISKYKVM/firmware/src/User/USB_Host/ch32v20x_usbfs_host.c:299
            {
                if( timeout == 0 )
                {
                    return ( r | ERR_USB_TRANSFER );
                }
                if( timeout < 0xFFFF )
    1882:	6a41                	lui	s4,0x10
C:/Repository/RISKYKVM/firmware/src/User/USB_Host/ch32v20x_usbfs_host.c:263
{
    1884:	8b2a                	mv	s6,a0
    1886:	8932                	mv	s2,a2
C:/Repository/RISKYKVM/firmware/src/User/USB_Host/ch32v20x_usbfs_host.c:267
    USBOTG_H_FS->HOST_TX_CTRL = USBOTG_H_FS->HOST_RX_CTRL = endp_tog;
    1888:	02b78f23          	sb	a1,62(a5)
C:/Repository/RISKYKVM/firmware/src/User/USB_Host/ch32v20x_usbfs_host.c:305
                {
                    timeout--;
                }
                --trans_retry;
            }
            else switch ( endp_pid >> 4 )
    188c:	00455993          	srli	s3,a0,0x4
C:/Repository/RISKYKVM/firmware/src/User/USB_Host/ch32v20x_usbfs_host.c:268
    trans_retry = 0;
    1890:	4481                	li	s1,0
C:/Repository/RISKYKVM/firmware/src/User/USB_Host/ch32v20x_usbfs_host.c:271
        USBOTG_H_FS->HOST_EP_PID = endp_pid;       // Specify token PID and endpoint number
    1892:	50000437          	lui	s0,0x50000
C:/Repository/RISKYKVM/firmware/src/User/USB_Host/ch32v20x_usbfs_host.c:272
        USBOTG_H_FS->INT_FG = USBFS_UIF_TRANSFER;  // Allow transfer
    1896:	4b89                	li	s7,2
C:/Repository/RISKYKVM/firmware/src/User/USB_Host/ch32v20x_usbfs_host.c:289
            if( r == USB_PID_STALL )
    1898:	4c39                	li	s8,14
C:/Repository/RISKYKVM/firmware/src/User/USB_Host/ch32v20x_usbfs_host.c:293
            if( r == USB_PID_NAK )
    189a:	4aa9                	li	s5,10
    189c:	4ca5                	li	s9,9
C:/Repository/RISKYKVM/firmware/src/User/USB_Host/ch32v20x_usbfs_host.c:299
                if( timeout < 0xFFFF )
    189e:	1a7d                	addi	s4,s4,-1
C:/Repository/RISKYKVM/firmware/src/User/USB_Host/ch32v20x_usbfs_host.c:271
        USBOTG_H_FS->HOST_EP_PID = endp_pid;       // Specify token PID and endpoint number
    18a0:	03640c23          	sb	s6,56(s0) # 50000038 <_eusrstack+0x2fffb038>
C:/Repository/RISKYKVM/firmware/src/User/USB_Host/ch32v20x_usbfs_host.c:272
        USBOTG_H_FS->INT_FG = USBFS_UIF_TRANSFER;  // Allow transfer
    18a4:	01740323          	sb	s7,6(s0)
    18a8:	3e800d13          	li	s10,1000
C:/Repository/RISKYKVM/firmware/src/User/USB_Host/ch32v20x_usbfs_host.c:273 (discriminator 3)
        for( i = DEF_WAIT_USB_TRANSFER_CNT; ( i != 0 ) && ( ( USBOTG_H_FS->INT_FG & USBFS_UIF_TRANSFER ) == 0 ); i-- )
    18ac:	00644783          	lbu	a5,6(s0)
    18b0:	8b89                	andi	a5,a5,2
    18b2:	eb91                	bnez	a5,18c6 <USBFSH_Transact+0x66>
C:/Repository/RISKYKVM/firmware/src/User/USB_Host/ch32v20x_usbfs_host.c:275 (discriminator 4)
            Delay_Us( 1 ); // Delay for USB transfer
    18b4:	1d7d                	addi	s10,s10,-1
    18b6:	0d42                	slli	s10,s10,0x10
    18b8:	4505                	li	a0,1
    18ba:	010d5d13          	srli	s10,s10,0x10
    18be:	736020ef          	jal	ra,3ff4 <Delay_Us>
C:/Repository/RISKYKVM/firmware/src/User/USB_Host/ch32v20x_usbfs_host.c:273 (discriminator 4)
        for( i = DEF_WAIT_USB_TRANSFER_CNT; ( i != 0 ) && ( ( USBOTG_H_FS->INT_FG & USBFS_UIF_TRANSFER ) == 0 ); i-- )
    18c2:	fe0d15e3          	bnez	s10,18ac <USBFSH_Transact+0x4c>
C:/Repository/RISKYKVM/firmware/src/User/USB_Host/ch32v20x_usbfs_host.c:277
        USBOTG_H_FS->HOST_EP_PID = 0x00;  // Stop USB transfer
    18c6:	02040c23          	sb	zero,56(s0)
C:/Repository/RISKYKVM/firmware/src/User/USB_Host/ch32v20x_usbfs_host.c:278
        if( ( USBOTG_H_FS->INT_FG & USBFS_UIF_TRANSFER ) == 0 )
    18ca:	00644783          	lbu	a5,6(s0)
    18ce:	8b89                	andi	a5,a5,2
    18d0:	e781                	bnez	a5,18d8 <USBFSH_Transact+0x78>
C:/Repository/RISKYKVM/firmware/src/User/USB_Host/ch32v20x_usbfs_host.c:325
                    {
                        return ( r | ERR_USB_TRANSFER );
                    }
                    break;
                default:
                    return ERR_USB_UNKNOWN;
    18d2:	0fe00513          	li	a0,254
    18d6:	a041                	j	1956 <USBFSH_Transact+0xf6>
C:/Repository/RISKYKVM/firmware/src/User/USB_Host/ch32v20x_usbfs_host.c:284
            if( USBOTG_H_FS->INT_ST & USBFS_UIS_TOG_OK )
    18d8:	00744783          	lbu	a5,7(s0)
    18dc:	0407f793          	andi	a5,a5,64
    18e0:	efd1                	bnez	a5,197c <USBFSH_Transact+0x11c>
C:/Repository/RISKYKVM/firmware/src/User/USB_Host/ch32v20x_usbfs_host.c:288
            r = USBOTG_H_FS->INT_ST & USBFS_UIS_H_RES_MASK; // Response status of current USB transaction
    18e2:	00744783          	lbu	a5,7(s0)
    18e6:	0ff7f793          	andi	a5,a5,255
    18ea:	00f7f513          	andi	a0,a5,15
C:/Repository/RISKYKVM/firmware/src/User/USB_Host/ch32v20x_usbfs_host.c:289
            if( r == USB_PID_STALL )
    18ee:	09850963          	beq	a0,s8,1980 <USBFSH_Transact+0x120>
C:/Repository/RISKYKVM/firmware/src/User/USB_Host/ch32v20x_usbfs_host.c:293
            if( r == USB_PID_NAK )
    18f2:	05551763          	bne	a0,s5,1940 <USBFSH_Transact+0xe0>
C:/Repository/RISKYKVM/firmware/src/User/USB_Host/ch32v20x_usbfs_host.c:295
                if( timeout == 0 )
    18f6:	08090863          	beqz	s2,1986 <USBFSH_Transact+0x126>
C:/Repository/RISKYKVM/firmware/src/User/USB_Host/ch32v20x_usbfs_host.c:299
                if( timeout < 0xFFFF )
    18fa:	01490663          	beq	s2,s4,1906 <USBFSH_Transact+0xa6>
C:/Repository/RISKYKVM/firmware/src/User/USB_Host/ch32v20x_usbfs_host.c:301
                    timeout--;
    18fe:	197d                	addi	s2,s2,-1
    1900:	0942                	slli	s2,s2,0x10
    1902:	01095913          	srli	s2,s2,0x10
C:/Repository/RISKYKVM/firmware/src/User/USB_Host/ch32v20x_usbfs_host.c:303
                --trans_retry;
    1906:	14fd                	addi	s1,s1,-1
    1908:	0ff4f493          	andi	s1,s1,255
C:/Repository/RISKYKVM/firmware/src/User/USB_Host/ch32v20x_usbfs_host.c:328
            }
        } 
        Delay_Us( 20 );
    190c:	4551                	li	a0,20
    190e:	6e6020ef          	jal	ra,3ff4 <Delay_Us>
C:/Repository/RISKYKVM/firmware/src/User/USB_Host/ch32v20x_usbfs_host.c:330

        if( USBOTG_H_FS->INT_FG & USBFS_UIF_DETECT )
    1912:	00644783          	lbu	a5,6(s0)
    1916:	8b85                	andi	a5,a5,1
    1918:	cf81                	beqz	a5,1930 <USBFSH_Transact+0xd0>
C:/Repository/RISKYKVM/firmware/src/User/USB_Host/ch32v20x_usbfs_host.c:332
        {
            Delay_Us( 200 );
    191a:	0c800513          	li	a0,200
    191e:	6d6020ef          	jal	ra,3ff4 <Delay_Us>
USBFSH_CheckRootHubPortEnable():
C:/Repository/RISKYKVM/firmware/src/User/USB_Host/ch32v20x_usbfs_host.c:127
    return ( USBOTG_H_FS->HOST_CTRL & USBFS_UH_PORT_EN );
    1922:	00144783          	lbu	a5,1(s0)
USBFSH_Transact():
C:/Repository/RISKYKVM/firmware/src/User/USB_Host/ch32v20x_usbfs_host.c:334

            if( USBFSH_CheckRootHubPortEnable( ) == 0x00 )
    1926:	8b85                	andi	a5,a5,1
    1928:	c3b5                	beqz	a5,198c <USBFSH_Transact+0x12c>
C:/Repository/RISKYKVM/firmware/src/User/USB_Host/ch32v20x_usbfs_host.c:340
            {
                return ERR_USB_DISCON;  // USB device disconnect event
            }
            else
            {
                USBOTG_H_FS->INT_FG = USBFS_UIF_DETECT;
    192a:	4785                	li	a5,1
    192c:	00f40323          	sb	a5,6(s0)
C:/Repository/RISKYKVM/firmware/src/User/USB_Host/ch32v20x_usbfs_host.c:343
            }
        }
    }while( ++trans_retry < 10 );
    1930:	0485                	addi	s1,s1,1
    1932:	0ff4f493          	andi	s1,s1,255
    1936:	f75495e3          	bne	s1,s5,18a0 <USBFSH_Transact+0x40>
C:/Repository/RISKYKVM/firmware/src/User/USB_Host/ch32v20x_usbfs_host.c:345

    return ERR_USB_TRANSFER; // Reply timeout
    193a:	02000513          	li	a0,32
    193e:	a821                	j	1956 <USBFSH_Transact+0xf6>
C:/Repository/RISKYKVM/firmware/src/User/USB_Host/ch32v20x_usbfs_host.c:305
            else switch ( endp_pid >> 4 )
    1940:	03998963          	beq	s3,s9,1972 <USBFSH_Transact+0x112>
    1944:	47b5                	li	a5,13
    1946:	00f98563          	beq	s3,a5,1950 <USBFSH_Transact+0xf0>
    194a:	4785                	li	a5,1
    194c:	f8f993e3          	bne	s3,a5,18d2 <USBFSH_Transact+0x72>
C:/Repository/RISKYKVM/firmware/src/User/USB_Host/ch32v20x_usbfs_host.c:319
                    else if( r )
    1950:	dd55                	beqz	a0,190c <USBFSH_Transact+0xac>
C:/Repository/RISKYKVM/firmware/src/User/USB_Host/ch32v20x_usbfs_host.c:321
                        return ( r | ERR_USB_TRANSFER );
    1952:	02056513          	ori	a0,a0,32
C:/Repository/RISKYKVM/firmware/src/User/USB_Host/ch32v20x_usbfs_host.c:346
}
    1956:	50b2                	lw	ra,44(sp)
    1958:	5422                	lw	s0,40(sp)
    195a:	5492                	lw	s1,36(sp)
    195c:	5902                	lw	s2,32(sp)
    195e:	49f2                	lw	s3,28(sp)
    1960:	4a62                	lw	s4,24(sp)
    1962:	4ad2                	lw	s5,20(sp)
    1964:	4b42                	lw	s6,16(sp)
    1966:	4bb2                	lw	s7,12(sp)
    1968:	4c22                	lw	s8,8(sp)
    196a:	4c92                	lw	s9,4(sp)
    196c:	4d02                	lw	s10,0(sp)
    196e:	6145                	addi	sp,sp,48
    1970:	8082                	ret
C:/Repository/RISKYKVM/firmware/src/User/USB_Host/ch32v20x_usbfs_host.c:315
                    if( ( r == USB_PID_DATA0 ) || ( r == USB_PID_DATA1 ) )
    1972:	8b9d                	andi	a5,a5,7
    1974:	470d                	li	a4,3
    1976:	fce79de3          	bne	a5,a4,1950 <USBFSH_Transact+0xf0>
    197a:	bf49                	j	190c <USBFSH_Transact+0xac>
C:/Repository/RISKYKVM/firmware/src/User/USB_Host/ch32v20x_usbfs_host.c:286
                return ERR_SUCCESS;
    197c:	4501                	li	a0,0
    197e:	bfe1                	j	1956 <USBFSH_Transact+0xf6>
C:/Repository/RISKYKVM/firmware/src/User/USB_Host/ch32v20x_usbfs_host.c:291
                return ( r | ERR_USB_TRANSFER );
    1980:	02e00513          	li	a0,46
    1984:	bfc9                	j	1956 <USBFSH_Transact+0xf6>
C:/Repository/RISKYKVM/firmware/src/User/USB_Host/ch32v20x_usbfs_host.c:297
                    return ( r | ERR_USB_TRANSFER );
    1986:	02a00513          	li	a0,42
    198a:	b7f1                	j	1956 <USBFSH_Transact+0xf6>
C:/Repository/RISKYKVM/firmware/src/User/USB_Host/ch32v20x_usbfs_host.c:336
                return ERR_USB_DISCON;  // USB device disconnect event
    198c:	4559                	li	a0,22
    198e:	b7e1                	j	1956 <USBFSH_Transact+0xf6>

00001990 <USBFSH_CtrlTransfer>:
USBFSH_CtrlTransfer():
C:/Repository/RISKYKVM/firmware/src/User/USB_Host/ch32v20x_usbfs_host.c:360
 *          plen: Data length
 *
 * @return  USB control transfer result.
 */
uint8_t USBFSH_CtrlTransfer( uint8_t ep0_size, uint8_t *pbuf, uint16_t *plen )
{
    1990:	7179                	addi	sp,sp,-48
    1992:	d226                	sw	s1,36(sp)
    1994:	ce4e                	sw	s3,28(sp)
    1996:	84b2                	mv	s1,a2
    1998:	89aa                	mv	s3,a0
C:/Repository/RISKYKVM/firmware/src/User/USB_Host/ch32v20x_usbfs_host.c:364
    uint8_t  s;
    uint16_t rem_len, rx_len, rx_cnt, tx_cnt;

    Delay_Us( 100 );
    199a:	06400513          	li	a0,100
C:/Repository/RISKYKVM/firmware/src/User/USB_Host/ch32v20x_usbfs_host.c:360
{
    199e:	d04a                	sw	s2,32(sp)
    19a0:	d606                	sw	ra,44(sp)
    19a2:	d422                	sw	s0,40(sp)
    19a4:	cc52                	sw	s4,24(sp)
    19a6:	ca56                	sw	s5,20(sp)
    19a8:	c85a                	sw	s6,16(sp)
    19aa:	c65e                	sw	s7,12(sp)
    19ac:	892e                	mv	s2,a1
C:/Repository/RISKYKVM/firmware/src/User/USB_Host/ch32v20x_usbfs_host.c:364
    Delay_Us( 100 );
    19ae:	646020ef          	jal	ra,3ff4 <Delay_Us>
C:/Repository/RISKYKVM/firmware/src/User/USB_Host/ch32v20x_usbfs_host.c:365
    if( plen )
    19b2:	c099                	beqz	s1,19b8 <USBFSH_CtrlTransfer+0x28>
C:/Repository/RISKYKVM/firmware/src/User/USB_Host/ch32v20x_usbfs_host.c:367
    {
        *plen = 0;
    19b4:	00049023          	sh	zero,0(s1)
C:/Repository/RISKYKVM/firmware/src/User/USB_Host/ch32v20x_usbfs_host.c:369
    }
    USBOTG_H_FS->HOST_TX_LEN = sizeof( USB_SETUP_REQ );
    19b8:	50000437          	lui	s0,0x50000
    19bc:	47a1                	li	a5,8
C:/Repository/RISKYKVM/firmware/src/User/USB_Host/ch32v20x_usbfs_host.c:370
    s = USBFSH_Transact( ( USB_PID_SETUP << 4 ) | 0x00, 0x00, DEF_CTRL_TRANS_TIMEOVER_CNT );  // SETUP stage
    19be:	6a89                	lui	s5,0x2
C:/Repository/RISKYKVM/firmware/src/User/USB_Host/ch32v20x_usbfs_host.c:369
    USBOTG_H_FS->HOST_TX_LEN = sizeof( USB_SETUP_REQ );
    19c0:	02f41e23          	sh	a5,60(s0) # 5000003c <_eusrstack+0x2fffb03c>
C:/Repository/RISKYKVM/firmware/src/User/USB_Host/ch32v20x_usbfs_host.c:370
    s = USBFSH_Transact( ( USB_PID_SETUP << 4 ) | 0x00, 0x00, DEF_CTRL_TRANS_TIMEOVER_CNT );  // SETUP stage
    19c4:	710a8613          	addi	a2,s5,1808 # 2710 <USB_MouseDecode+0xe2>
    19c8:	4581                	li	a1,0
    19ca:	0d000513          	li	a0,208
    19ce:	3d49                	jal	1860 <USBFSH_Transact>
C:/Repository/RISKYKVM/firmware/src/User/USB_Host/ch32v20x_usbfs_host.c:371
    if( s != ERR_SUCCESS )
    19d0:	14051d63          	bnez	a0,1b2a <USBFSH_CtrlTransfer+0x19a>
C:/Repository/RISKYKVM/firmware/src/User/USB_Host/ch32v20x_usbfs_host.c:375
    {
        return s;
    }
    USBOTG_H_FS->HOST_TX_CTRL = USBOTG_H_FS->HOST_RX_CTRL = USBFS_UH_T_TOG | USBFS_UH_R_TOG; // Default DATA1
    19d4:	4791                	li	a5,4
    19d6:	02f40da3          	sb	a5,59(s0)
    19da:	02f40f23          	sb	a5,62(s0)
C:/Repository/RISKYKVM/firmware/src/User/USB_Host/ch32v20x_usbfs_host.c:376
    rem_len = pUSBFS_SetupRequest->wLength;
    19de:	200027b7          	lui	a5,0x20002
    19e2:	aa078713          	addi	a4,a5,-1376 # 20001aa0 <USBFS_TX_Buf>
    19e6:	00675403          	lhu	s0,6(a4)
C:/Repository/RISKYKVM/firmware/src/User/USB_Host/ch32v20x_usbfs_host.c:377
    if( rem_len && pbuf )
    19ea:	aa078b13          	addi	s6,a5,-1376
    19ee:	0e040d63          	beqz	s0,1ae8 <USBFSH_CtrlTransfer+0x158>
    19f2:	0e090b63          	beqz	s2,1ae8 <USBFSH_CtrlTransfer+0x158>
C:/Repository/RISKYKVM/firmware/src/User/USB_Host/ch32v20x_usbfs_host.c:379
    {
        if( pUSBFS_SetupRequest->bRequestType & USB_REQ_TYP_IN )
    19f6:	aa078783          	lb	a5,-1376(a5)
    19fa:	0607c563          	bltz	a5,1a64 <USBFSH_CtrlTransfer+0xd4>
C:/Repository/RISKYKVM/firmware/src/User/USB_Host/ch32v20x_usbfs_host.c:417
        {
            /* Send data */
            while( rem_len )
            {
                Delay_Us( 100 );
                USBOTG_H_FS->HOST_TX_LEN = ( rem_len >= ep0_size )? ep0_size : rem_len;
    19fe:	8bce                	mv	s7,s3
    1a00:	09c2                	slli	s3,s3,0x10
    1a02:	0109d993          	srli	s3,s3,0x10
    1a06:	50000a37          	lui	s4,0x50000
C:/Repository/RISKYKVM/firmware/src/User/USB_Host/ch32v20x_usbfs_host.c:423
                for( tx_cnt = 0; tx_cnt != USBOTG_H_FS->HOST_TX_LEN; tx_cnt++ )
                {
                    USBFS_TX_Buf[ tx_cnt ] = *pbuf;
                    pbuf++;
                }
                s = USBFSH_Transact( USB_PID_OUT << 4 | 0x00, USBOTG_H_FS->HOST_TX_CTRL, DEF_CTRL_TRANS_TIMEOVER_CNT ); // OUT
    1a0a:	710a8a93          	addi	s5,s5,1808
C:/Repository/RISKYKVM/firmware/src/User/USB_Host/ch32v20x_usbfs_host.c:416
                Delay_Us( 100 );
    1a0e:	06400513          	li	a0,100
    1a12:	5e2020ef          	jal	ra,3ff4 <Delay_Us>
C:/Repository/RISKYKVM/firmware/src/User/USB_Host/ch32v20x_usbfs_host.c:417
                USBOTG_H_FS->HOST_TX_LEN = ( rem_len >= ep0_size )? ep0_size : rem_len;
    1a16:	87de                	mv	a5,s7
    1a18:	01347363          	bgeu	s0,s3,1a1e <USBFSH_CtrlTransfer+0x8e>
    1a1c:	87a2                	mv	a5,s0
    1a1e:	02fa1e23          	sh	a5,60(s4) # 5000003c <_eusrstack+0x2fffb03c>
C:/Repository/RISKYKVM/firmware/src/User/USB_Host/ch32v20x_usbfs_host.c:418
                for( tx_cnt = 0; tx_cnt != USBOTG_H_FS->HOST_TX_LEN; tx_cnt++ )
    1a22:	4781                	li	a5,0
    1a24:	03ca5703          	lhu	a4,60(s4)
    1a28:	12e79663          	bne	a5,a4,1b54 <USBFSH_CtrlTransfer+0x1c4>
C:/Repository/RISKYKVM/firmware/src/User/USB_Host/ch32v20x_usbfs_host.c:423
                s = USBFSH_Transact( USB_PID_OUT << 4 | 0x00, USBOTG_H_FS->HOST_TX_CTRL, DEF_CTRL_TRANS_TIMEOVER_CNT ); // OUT
    1a2c:	03ea4583          	lbu	a1,62(s4)
    1a30:	8656                	mv	a2,s5
    1a32:	4541                	li	a0,16
    1a34:	3535                	jal	1860 <USBFSH_Transact>
C:/Repository/RISKYKVM/firmware/src/User/USB_Host/ch32v20x_usbfs_host.c:424
                if( s != ERR_SUCCESS )
    1a36:	0e051a63          	bnez	a0,1b2a <USBFSH_CtrlTransfer+0x19a>
C:/Repository/RISKYKVM/firmware/src/User/USB_Host/ch32v20x_usbfs_host.c:428
                {
                    return s;
                }
                USBOTG_H_FS->HOST_TX_CTRL ^= USBFS_UH_T_TOG;
    1a3a:	03ea4783          	lbu	a5,62(s4)
    1a3e:	0047c793          	xori	a5,a5,4
    1a42:	02fa0f23          	sb	a5,62(s4)
C:/Repository/RISKYKVM/firmware/src/User/USB_Host/ch32v20x_usbfs_host.c:430

                rem_len -= USBOTG_H_FS->HOST_TX_LEN;
    1a46:	03ca5783          	lhu	a5,60(s4)
    1a4a:	8c1d                	sub	s0,s0,a5
    1a4c:	0442                	slli	s0,s0,0x10
    1a4e:	8041                	srli	s0,s0,0x10
C:/Repository/RISKYKVM/firmware/src/User/USB_Host/ch32v20x_usbfs_host.c:431
                if( plen )
    1a50:	c881                	beqz	s1,1a60 <USBFSH_CtrlTransfer+0xd0>
C:/Repository/RISKYKVM/firmware/src/User/USB_Host/ch32v20x_usbfs_host.c:433
                {
                    *plen += USBOTG_H_FS->HOST_TX_LEN; // The total length of the actual successful transmission and reception
    1a52:	03ca5783          	lhu	a5,60(s4)
    1a56:	0004d703          	lhu	a4,0(s1)
    1a5a:	97ba                	add	a5,a5,a4
    1a5c:	00f49023          	sh	a5,0(s1)
C:/Repository/RISKYKVM/firmware/src/User/USB_Host/ch32v20x_usbfs_host.c:414
            while( rem_len )
    1a60:	f45d                	bnez	s0,1a0e <USBFSH_CtrlTransfer+0x7e>
    1a62:	a059                	j	1ae8 <USBFSH_CtrlTransfer+0x158>
C:/Repository/RISKYKVM/firmware/src/User/USB_Host/ch32v20x_usbfs_host.c:400
                    *pbuf = USBFS_RX_Buf[ rx_cnt ];
    1a64:	20002b37          	lui	s6,0x20002
C:/Repository/RISKYKVM/firmware/src/User/USB_Host/ch32v20x_usbfs_host.c:385
                s = USBFSH_Transact( ( USB_PID_IN << 4 ) | 0x00, USBOTG_H_FS->HOST_RX_CTRL, DEF_CTRL_TRANS_TIMEOVER_CNT );  // IN
    1a68:	50000a37          	lui	s4,0x50000
    1a6c:	710a8a93          	addi	s5,s5,1808
C:/Repository/RISKYKVM/firmware/src/User/USB_Host/ch32v20x_usbfs_host.c:400
                    *pbuf = USBFS_RX_Buf[ rx_cnt ];
    1a70:	a60b0b13          	addi	s6,s6,-1440 # 20001a60 <USBFS_RX_Buf>
C:/Repository/RISKYKVM/firmware/src/User/USB_Host/ch32v20x_usbfs_host.c:404
                if( ( USBOTG_H_FS->RX_LEN == 0 ) || ( USBOTG_H_FS->RX_LEN & ( ep0_size - 1 ) ) )
    1a74:	19fd                	addi	s3,s3,-1
C:/Repository/RISKYKVM/firmware/src/User/USB_Host/ch32v20x_usbfs_host.c:384
                Delay_Us( 100 );
    1a76:	06400513          	li	a0,100
    1a7a:	57a020ef          	jal	ra,3ff4 <Delay_Us>
C:/Repository/RISKYKVM/firmware/src/User/USB_Host/ch32v20x_usbfs_host.c:385
                s = USBFSH_Transact( ( USB_PID_IN << 4 ) | 0x00, USBOTG_H_FS->HOST_RX_CTRL, DEF_CTRL_TRANS_TIMEOVER_CNT );  // IN
    1a7e:	03ba4583          	lbu	a1,59(s4) # 5000003b <_eusrstack+0x2fffb03b>
    1a82:	8656                	mv	a2,s5
    1a84:	09000513          	li	a0,144
    1a88:	3be1                	jal	1860 <USBFSH_Transact>
C:/Repository/RISKYKVM/firmware/src/User/USB_Host/ch32v20x_usbfs_host.c:386
                if( s != ERR_SUCCESS )
    1a8a:	e145                	bnez	a0,1b2a <USBFSH_CtrlTransfer+0x19a>
C:/Repository/RISKYKVM/firmware/src/User/USB_Host/ch32v20x_usbfs_host.c:390
                USBOTG_H_FS->HOST_RX_CTRL ^= USBFS_UH_R_TOG;
    1a8c:	03ba4783          	lbu	a5,59(s4)
    1a90:	0047c793          	xori	a5,a5,4
    1a94:	02fa0da3          	sb	a5,59(s4)
C:/Repository/RISKYKVM/firmware/src/User/USB_Host/ch32v20x_usbfs_host.c:392
                rx_len = ( USBOTG_H_FS->RX_LEN < rem_len )? USBOTG_H_FS->RX_LEN : rem_len;
    1a98:	008a5703          	lhu	a4,8(s4)
    1a9c:	87a2                	mv	a5,s0
    1a9e:	00877663          	bgeu	a4,s0,1aaa <USBFSH_CtrlTransfer+0x11a>
    1aa2:	008a5783          	lhu	a5,8(s4)
    1aa6:	07c2                	slli	a5,a5,0x10
    1aa8:	83c1                	srli	a5,a5,0x10
C:/Repository/RISKYKVM/firmware/src/User/USB_Host/ch32v20x_usbfs_host.c:393
                rem_len -= rx_len;
    1aaa:	8c1d                	sub	s0,s0,a5
    1aac:	0442                	slli	s0,s0,0x10
    1aae:	8041                	srli	s0,s0,0x10
C:/Repository/RISKYKVM/firmware/src/User/USB_Host/ch32v20x_usbfs_host.c:394
                if( plen )
    1ab0:	c491                	beqz	s1,1abc <USBFSH_CtrlTransfer+0x12c>
C:/Repository/RISKYKVM/firmware/src/User/USB_Host/ch32v20x_usbfs_host.c:396
                    *plen += rx_len; // The total length of the actual successful transmission and reception
    1ab2:	0004d703          	lhu	a4,0(s1)
    1ab6:	973e                	add	a4,a4,a5
    1ab8:	00e49023          	sh	a4,0(s1)
C:/Repository/RISKYKVM/firmware/src/User/USB_Host/ch32v20x_usbfs_host.c:392
                rx_len = ( USBOTG_H_FS->RX_LEN < rem_len )? USBOTG_H_FS->RX_LEN : rem_len;
    1abc:	4701                	li	a4,0
C:/Repository/RISKYKVM/firmware/src/User/USB_Host/ch32v20x_usbfs_host.c:398
                for( rx_cnt = 0; rx_cnt != rx_len; rx_cnt++ )
    1abe:	01071693          	slli	a3,a4,0x10
    1ac2:	82c1                	srli	a3,a3,0x10
    1ac4:	06d79e63          	bne	a5,a3,1b40 <USBFSH_CtrlTransfer+0x1b0>
    1ac8:	993e                	add	s2,s2,a5
C:/Repository/RISKYKVM/firmware/src/User/USB_Host/ch32v20x_usbfs_host.c:404
                if( ( USBOTG_H_FS->RX_LEN == 0 ) || ( USBOTG_H_FS->RX_LEN & ( ep0_size - 1 ) ) )
    1aca:	008a5783          	lhu	a5,8(s4)
    1ace:	07c2                	slli	a5,a5,0x10
    1ad0:	83c1                	srli	a5,a5,0x10
    1ad2:	c799                	beqz	a5,1ae0 <USBFSH_CtrlTransfer+0x150>
    1ad4:	008a5783          	lhu	a5,8(s4)
    1ad8:	00f9f7b3          	and	a5,s3,a5
    1adc:	e391                	bnez	a5,1ae0 <USBFSH_CtrlTransfer+0x150>
C:/Repository/RISKYKVM/firmware/src/User/USB_Host/ch32v20x_usbfs_host.c:382
            while( rem_len )
    1ade:	fc41                	bnez	s0,1a76 <USBFSH_CtrlTransfer+0xe6>
C:/Repository/RISKYKVM/firmware/src/User/USB_Host/ch32v20x_usbfs_host.c:409
            USBOTG_H_FS->HOST_TX_LEN = 0; // Status stage is OUT
    1ae0:	500007b7          	lui	a5,0x50000
    1ae4:	02079e23          	sh	zero,60(a5) # 5000003c <_eusrstack+0x2fffb03c>
C:/Repository/RISKYKVM/firmware/src/User/USB_Host/ch32v20x_usbfs_host.c:438
                }
            }
        }
    }
    Delay_Us( 100 );
    1ae8:	06400513          	li	a0,100
    1aec:	508020ef          	jal	ra,3ff4 <Delay_Us>
C:/Repository/RISKYKVM/firmware/src/User/USB_Host/ch32v20x_usbfs_host.c:439
    s = USBFSH_Transact( ( USBOTG_H_FS->HOST_TX_LEN )? ( USB_PID_IN << 4 | 0x00 ) : ( USB_PID_OUT << 4 | 0x00 ), USBFS_UH_R_TOG | USBFS_UH_T_TOG, DEF_CTRL_TRANS_TIMEOVER_CNT ); // STATUS stage
    1af0:	500007b7          	lui	a5,0x50000
    1af4:	03c7d783          	lhu	a5,60(a5) # 5000003c <_eusrstack+0x2fffb03c>
    1af8:	09000513          	li	a0,144
    1afc:	07c2                	slli	a5,a5,0x10
    1afe:	83c1                	srli	a5,a5,0x10
    1b00:	e391                	bnez	a5,1b04 <USBFSH_CtrlTransfer+0x174>
    1b02:	4541                	li	a0,16
    1b04:	6609                	lui	a2,0x2
    1b06:	71060613          	addi	a2,a2,1808 # 2710 <USB_MouseDecode+0xe2>
    1b0a:	4591                	li	a1,4
    1b0c:	3b91                	jal	1860 <USBFSH_Transact>
C:/Repository/RISKYKVM/firmware/src/User/USB_Host/ch32v20x_usbfs_host.c:440
    if( s != ERR_SUCCESS )
    1b0e:	ed11                	bnez	a0,1b2a <USBFSH_CtrlTransfer+0x19a>
C:/Repository/RISKYKVM/firmware/src/User/USB_Host/ch32v20x_usbfs_host.c:444
    {
        return s;
    }
    if( USBOTG_H_FS->HOST_TX_LEN == 0 )
    1b10:	50000737          	lui	a4,0x50000
    1b14:	03c75783          	lhu	a5,60(a4) # 5000003c <_eusrstack+0x2fffb03c>
    1b18:	07c2                	slli	a5,a5,0x10
    1b1a:	83c1                	srli	a5,a5,0x10
    1b1c:	c799                	beqz	a5,1b2a <USBFSH_CtrlTransfer+0x19a>
C:/Repository/RISKYKVM/firmware/src/User/USB_Host/ch32v20x_usbfs_host.c:448
    {
        return ERR_SUCCESS;
    }
    if( USBOTG_H_FS->RX_LEN == 0 )
    1b1e:	00875783          	lhu	a5,8(a4)
    1b22:	07c2                	slli	a5,a5,0x10
    1b24:	83c1                	srli	a5,a5,0x10
    1b26:	c391                	beqz	a5,1b2a <USBFSH_CtrlTransfer+0x19a>
C:/Repository/RISKYKVM/firmware/src/User/USB_Host/ch32v20x_usbfs_host.c:452
    {
        return ERR_SUCCESS;
    }
    return ERR_USB_BUF_OVER;
    1b28:	455d                	li	a0,23
C:/Repository/RISKYKVM/firmware/src/User/USB_Host/ch32v20x_usbfs_host.c:453
}
    1b2a:	50b2                	lw	ra,44(sp)
    1b2c:	5422                	lw	s0,40(sp)
    1b2e:	5492                	lw	s1,36(sp)
    1b30:	5902                	lw	s2,32(sp)
    1b32:	49f2                	lw	s3,28(sp)
    1b34:	4a62                	lw	s4,24(sp)
    1b36:	4ad2                	lw	s5,20(sp)
    1b38:	4b42                	lw	s6,16(sp)
    1b3a:	4bb2                	lw	s7,12(sp)
    1b3c:	6145                	addi	sp,sp,48
    1b3e:	8082                	ret
C:/Repository/RISKYKVM/firmware/src/User/USB_Host/ch32v20x_usbfs_host.c:400
                    *pbuf = USBFS_RX_Buf[ rx_cnt ];
    1b40:	016706b3          	add	a3,a4,s6
    1b44:	0006c603          	lbu	a2,0(a3)
    1b48:	00e906b3          	add	a3,s2,a4
    1b4c:	0705                	addi	a4,a4,1
    1b4e:	00c68023          	sb	a2,0(a3)
C:/Repository/RISKYKVM/firmware/src/User/USB_Host/ch32v20x_usbfs_host.c:401
                    pbuf++;
    1b52:	b7b5                	j	1abe <USBFSH_CtrlTransfer+0x12e>
C:/Repository/RISKYKVM/firmware/src/User/USB_Host/ch32v20x_usbfs_host.c:420
                    USBFS_TX_Buf[ tx_cnt ] = *pbuf;
    1b54:	00094683          	lbu	a3,0(s2)
    1b58:	00fb0733          	add	a4,s6,a5
C:/Repository/RISKYKVM/firmware/src/User/USB_Host/ch32v20x_usbfs_host.c:418
                for( tx_cnt = 0; tx_cnt != USBOTG_H_FS->HOST_TX_LEN; tx_cnt++ )
    1b5c:	0785                	addi	a5,a5,1
    1b5e:	07c2                	slli	a5,a5,0x10
C:/Repository/RISKYKVM/firmware/src/User/USB_Host/ch32v20x_usbfs_host.c:420
                    USBFS_TX_Buf[ tx_cnt ] = *pbuf;
    1b60:	00d70023          	sb	a3,0(a4)
C:/Repository/RISKYKVM/firmware/src/User/USB_Host/ch32v20x_usbfs_host.c:421
                    pbuf++;
    1b64:	0905                	addi	s2,s2,1
C:/Repository/RISKYKVM/firmware/src/User/USB_Host/ch32v20x_usbfs_host.c:418
                for( tx_cnt = 0; tx_cnt != USBOTG_H_FS->HOST_TX_LEN; tx_cnt++ )
    1b66:	83c1                	srli	a5,a5,0x10
    1b68:	bd75                	j	1a24 <USBFSH_CtrlTransfer+0x94>

00001b6a <USBFSH_GetDeviceDescr>:
USBFSH_GetDeviceDescr():
C:/Repository/RISKYKVM/firmware/src/User/USB_Host/ch32v20x_usbfs_host.c:466
 *          pbuf: Data buffer
 *
 * @return  The result of getting the device descriptor.
 */
uint8_t USBFSH_GetDeviceDescr( uint8_t *pep0_size, uint8_t *pbuf )
{
    1b6a:	1101                	addi	sp,sp,-32
    1b6c:	cc22                	sw	s0,24(sp)
C:/Repository/RISKYKVM/firmware/src/User/USB_Host/ch32v20x_usbfs_host.c:471
    uint8_t  s;
    uint16_t len;

    *pep0_size = DEFAULT_ENDP0_SIZE;
    memcpy( pUSBFS_SetupRequest, SetupGetDevDesc, sizeof( USB_SETUP_REQ ) );
    1b6e:	81818413          	addi	s0,gp,-2024 # 20000018 <SetupGetDevDesc>
    1b72:	4018                	lw	a4,0(s0)
C:/Repository/RISKYKVM/firmware/src/User/USB_Host/ch32v20x_usbfs_host.c:466
{
    1b74:	ca26                	sw	s1,20(sp)
    1b76:	c84a                	sw	s2,16(sp)
    1b78:	ce06                	sw	ra,28(sp)
C:/Repository/RISKYKVM/firmware/src/User/USB_Host/ch32v20x_usbfs_host.c:470
    *pep0_size = DEFAULT_ENDP0_SIZE;
    1b7a:	47a1                	li	a5,8
    1b7c:	00f50023          	sb	a5,0(a0) # 1000 <USBH_EnumHidDevice+0x16>
C:/Repository/RISKYKVM/firmware/src/User/USB_Host/ch32v20x_usbfs_host.c:471
    memcpy( pUSBFS_SetupRequest, SetupGetDevDesc, sizeof( USB_SETUP_REQ ) );
    1b80:	200027b7          	lui	a5,0x20002
    1b84:	aae7a023          	sw	a4,-1376(a5) # 20001aa0 <USBFS_TX_Buf>
    1b88:	4058                	lw	a4,4(s0)
    1b8a:	aa078793          	addi	a5,a5,-1376
C:/Repository/RISKYKVM/firmware/src/User/USB_Host/ch32v20x_usbfs_host.c:466
{
    1b8e:	84aa                	mv	s1,a0
C:/Repository/RISKYKVM/firmware/src/User/USB_Host/ch32v20x_usbfs_host.c:471
    memcpy( pUSBFS_SetupRequest, SetupGetDevDesc, sizeof( USB_SETUP_REQ ) );
    1b90:	c3d8                	sw	a4,4(a5)
C:/Repository/RISKYKVM/firmware/src/User/USB_Host/ch32v20x_usbfs_host.c:472
    s = USBFSH_CtrlTransfer( *pep0_size, pbuf, &len );
    1b92:	00054503          	lbu	a0,0(a0)
    1b96:	00e10613          	addi	a2,sp,14
C:/Repository/RISKYKVM/firmware/src/User/USB_Host/ch32v20x_usbfs_host.c:466
{
    1b9a:	892e                	mv	s2,a1
C:/Repository/RISKYKVM/firmware/src/User/USB_Host/ch32v20x_usbfs_host.c:472
    s = USBFSH_CtrlTransfer( *pep0_size, pbuf, &len );
    1b9c:	3bd5                	jal	1990 <USBFSH_CtrlTransfer>
C:/Repository/RISKYKVM/firmware/src/User/USB_Host/ch32v20x_usbfs_host.c:473
    if( s != ERR_SUCCESS )
    1b9e:	ed01                	bnez	a0,1bb6 <USBFSH_GetDeviceDescr+0x4c>
C:/Repository/RISKYKVM/firmware/src/User/USB_Host/ch32v20x_usbfs_host.c:478
    {
        return s;
    }

    *pep0_size = ( (PUSB_DEV_DESCR)pbuf )->bMaxPacketSize0;
    1ba0:	00794783          	lbu	a5,7(s2)
C:/Repository/RISKYKVM/firmware/src/User/USB_Host/ch32v20x_usbfs_host.c:479
    if( len < ( (PUSB_SETUP_REQ)SetupGetDevDesc )->wLength )
    1ba4:	00645703          	lhu	a4,6(s0)
C:/Repository/RISKYKVM/firmware/src/User/USB_Host/ch32v20x_usbfs_host.c:478
    *pep0_size = ( (PUSB_DEV_DESCR)pbuf )->bMaxPacketSize0;
    1ba8:	00f48023          	sb	a5,0(s1)
C:/Repository/RISKYKVM/firmware/src/User/USB_Host/ch32v20x_usbfs_host.c:479
    if( len < ( (PUSB_SETUP_REQ)SetupGetDevDesc )->wLength )
    1bac:	00e15783          	lhu	a5,14(sp)
    1bb0:	00e7f363          	bgeu	a5,a4,1bb6 <USBFSH_GetDeviceDescr+0x4c>
C:/Repository/RISKYKVM/firmware/src/User/USB_Host/ch32v20x_usbfs_host.c:481
    {
        return ERR_USB_BUF_OVER;
    1bb4:	455d                	li	a0,23
C:/Repository/RISKYKVM/firmware/src/User/USB_Host/ch32v20x_usbfs_host.c:484
    }
    return ERR_SUCCESS;
}
    1bb6:	40f2                	lw	ra,28(sp)
    1bb8:	4462                	lw	s0,24(sp)
    1bba:	44d2                	lw	s1,20(sp)
    1bbc:	4942                	lw	s2,16(sp)
    1bbe:	6105                	addi	sp,sp,32
    1bc0:	8082                	ret

00001bc2 <USBFSH_GetConfigDescr>:
USBFSH_GetConfigDescr():
C:/Repository/RISKYKVM/firmware/src/User/USB_Host/ch32v20x_usbfs_host.c:499
 *          pcfg_len: The length of the device configuration descriptor
 *
 * @return  The result of getting the configuration descriptor.
 */
uint8_t USBFSH_GetConfigDescr( uint8_t ep0_size, uint8_t *pbuf, uint16_t buf_len, uint16_t *pcfg_len )
{
    1bc2:	7179                	addi	sp,sp,-48
    1bc4:	d422                	sw	s0,40(sp)
C:/Repository/RISKYKVM/firmware/src/User/USB_Host/ch32v20x_usbfs_host.c:502
    uint8_t  s;
    
    memcpy( pUSBFS_SetupRequest, SetupGetCfgDesc, sizeof( USB_SETUP_REQ ) );
    1bc6:	81018793          	addi	a5,gp,-2032 # 20000010 <SetupGetCfgDesc>
    1bca:	4398                	lw	a4,0(a5)
    1bcc:	43dc                	lw	a5,4(a5)
C:/Repository/RISKYKVM/firmware/src/User/USB_Host/ch32v20x_usbfs_host.c:499
{
    1bce:	d226                	sw	s1,36(sp)
C:/Repository/RISKYKVM/firmware/src/User/USB_Host/ch32v20x_usbfs_host.c:502
    memcpy( pUSBFS_SetupRequest, SetupGetCfgDesc, sizeof( USB_SETUP_REQ ) );
    1bd0:	200024b7          	lui	s1,0x20002
C:/Repository/RISKYKVM/firmware/src/User/USB_Host/ch32v20x_usbfs_host.c:499
{
    1bd4:	d04a                	sw	s2,32(sp)
    1bd6:	ce4e                	sw	s3,28(sp)
    1bd8:	cc52                	sw	s4,24(sp)
    1bda:	d606                	sw	ra,44(sp)
C:/Repository/RISKYKVM/firmware/src/User/USB_Host/ch32v20x_usbfs_host.c:502
    memcpy( pUSBFS_SetupRequest, SetupGetCfgDesc, sizeof( USB_SETUP_REQ ) );
    1bdc:	aae4a023          	sw	a4,-1376(s1) # 20001aa0 <USBFS_TX_Buf>
    1be0:	aa048713          	addi	a4,s1,-1376
C:/Repository/RISKYKVM/firmware/src/User/USB_Host/ch32v20x_usbfs_host.c:499
{
    1be4:	89b2                	mv	s3,a2
C:/Repository/RISKYKVM/firmware/src/User/USB_Host/ch32v20x_usbfs_host.c:502
    memcpy( pUSBFS_SetupRequest, SetupGetCfgDesc, sizeof( USB_SETUP_REQ ) );
    1be6:	c35c                	sw	a5,4(a4)
C:/Repository/RISKYKVM/firmware/src/User/USB_Host/ch32v20x_usbfs_host.c:503
    s = USBFSH_CtrlTransfer( ep0_size, pbuf, pcfg_len );
    1be8:	8636                	mv	a2,a3
C:/Repository/RISKYKVM/firmware/src/User/USB_Host/ch32v20x_usbfs_host.c:499
{
    1bea:	8a2a                	mv	s4,a0
    1bec:	892e                	mv	s2,a1
C:/Repository/RISKYKVM/firmware/src/User/USB_Host/ch32v20x_usbfs_host.c:503
    s = USBFSH_CtrlTransfer( ep0_size, pbuf, pcfg_len );
    1bee:	c636                	sw	a3,12(sp)
    1bf0:	3345                	jal	1990 <USBFSH_CtrlTransfer>
C:/Repository/RISKYKVM/firmware/src/User/USB_Host/ch32v20x_usbfs_host.c:504
    if( s != ERR_SUCCESS )
    1bf2:	ed29                	bnez	a0,1c4c <USBFSH_GetConfigDescr+0x8a>
C:/Repository/RISKYKVM/firmware/src/User/USB_Host/ch32v20x_usbfs_host.c:508
    {
        return s;
    }
    if( *pcfg_len < ( (PUSB_SETUP_REQ)SetupGetCfgDesc )->wLength )
    1bf4:	46b2                	lw	a3,12(sp)
    1bf6:	81018793          	addi	a5,gp,-2032 # 20000010 <SetupGetCfgDesc>
    1bfa:	0067d703          	lhu	a4,6(a5)
    1bfe:	0006d583          	lhu	a1,0(a3)
    1c02:	04e5e463          	bltu	a1,a4,1c4a <USBFSH_GetConfigDescr+0x88>
C:/Repository/RISKYKVM/firmware/src/User/USB_Host/ch32v20x_usbfs_host.c:513
    {
        return ERR_USB_BUF_OVER;
    }

    *pcfg_len = ( (PUSB_CFG_DESCR)pbuf )->wTotalLength;
    1c06:	00394703          	lbu	a4,3(s2)
    1c0a:	00294583          	lbu	a1,2(s2)
    1c0e:	aa048613          	addi	a2,s1,-1376
    1c12:	0722                	slli	a4,a4,0x8
    1c14:	8f4d                	or	a4,a4,a1
    1c16:	85ba                	mv	a1,a4
    1c18:	00e9f363          	bgeu	s3,a4,1c1e <USBFSH_GetConfigDescr+0x5c>
    1c1c:	85ce                	mv	a1,s3
C:/Repository/RISKYKVM/firmware/src/User/USB_Host/ch32v20x_usbfs_host.c:518
    if( *pcfg_len > buf_len  )
    {
        *pcfg_len = buf_len;
    }
    memcpy( pUSBFS_SetupRequest, SetupGetCfgDesc, sizeof( USB_SETUP_REQ ) );
    1c1e:	4398                	lw	a4,0(a5)
    1c20:	43dc                	lw	a5,4(a5)
    1c22:	00b69023          	sh	a1,0(a3)
    1c26:	aae4a023          	sw	a4,-1376(s1)
    1c2a:	c25c                	sw	a5,4(a2)
C:/Repository/RISKYKVM/firmware/src/User/USB_Host/ch32v20x_usbfs_host.c:519
    pUSBFS_SetupRequest->wLength = *pcfg_len;
    1c2c:	0006d783          	lhu	a5,0(a3)
C:/Repository/RISKYKVM/firmware/src/User/USB_Host/ch32v20x_usbfs_host.c:522
    s = USBFSH_CtrlTransfer( ep0_size, pbuf, pcfg_len );
    return s;
}
    1c30:	5422                	lw	s0,40(sp)
    1c32:	50b2                	lw	ra,44(sp)
    1c34:	5492                	lw	s1,36(sp)
    1c36:	49f2                	lw	s3,28(sp)
C:/Repository/RISKYKVM/firmware/src/User/USB_Host/ch32v20x_usbfs_host.c:520
    s = USBFSH_CtrlTransfer( ep0_size, pbuf, pcfg_len );
    1c38:	85ca                	mv	a1,s2
    1c3a:	8552                	mv	a0,s4
C:/Repository/RISKYKVM/firmware/src/User/USB_Host/ch32v20x_usbfs_host.c:522
}
    1c3c:	5902                	lw	s2,32(sp)
    1c3e:	4a62                	lw	s4,24(sp)
C:/Repository/RISKYKVM/firmware/src/User/USB_Host/ch32v20x_usbfs_host.c:519
    pUSBFS_SetupRequest->wLength = *pcfg_len;
    1c40:	00f61323          	sh	a5,6(a2)
C:/Repository/RISKYKVM/firmware/src/User/USB_Host/ch32v20x_usbfs_host.c:520
    s = USBFSH_CtrlTransfer( ep0_size, pbuf, pcfg_len );
    1c44:	8636                	mv	a2,a3
C:/Repository/RISKYKVM/firmware/src/User/USB_Host/ch32v20x_usbfs_host.c:522
}
    1c46:	6145                	addi	sp,sp,48
C:/Repository/RISKYKVM/firmware/src/User/USB_Host/ch32v20x_usbfs_host.c:520
    s = USBFSH_CtrlTransfer( ep0_size, pbuf, pcfg_len );
    1c48:	b3a1                	j	1990 <USBFSH_CtrlTransfer>
C:/Repository/RISKYKVM/firmware/src/User/USB_Host/ch32v20x_usbfs_host.c:510
        return ERR_USB_BUF_OVER;
    1c4a:	455d                	li	a0,23
C:/Repository/RISKYKVM/firmware/src/User/USB_Host/ch32v20x_usbfs_host.c:522
}
    1c4c:	50b2                	lw	ra,44(sp)
    1c4e:	5422                	lw	s0,40(sp)
    1c50:	5492                	lw	s1,36(sp)
    1c52:	5902                	lw	s2,32(sp)
    1c54:	49f2                	lw	s3,28(sp)
    1c56:	4a62                	lw	s4,24(sp)
    1c58:	6145                	addi	sp,sp,48
    1c5a:	8082                	ret

00001c5c <USBFSH_GetStrDescr>:
USBFSH_GetStrDescr():
C:/Repository/RISKYKVM/firmware/src/User/USB_Host/ch32v20x_usbfs_host.c:536
 *          pbuf: Data buffer
 *
 * @return  The result of getting the string descriptor.
 */
uint8_t USBFSH_GetStrDescr( uint8_t ep0_size, uint8_t str_num, uint8_t *pbuf )
{
    1c5c:	7179                	addi	sp,sp,-48
C:/Repository/RISKYKVM/firmware/src/User/USB_Host/ch32v20x_usbfs_host.c:541
    uint8_t  s;
    uint16_t len;

    /* Get the string descriptor of the first 4 bytes */
    memcpy( pUSBFS_SetupRequest, SetupGetStrDesc, sizeof( USB_SETUP_REQ ) );
    1c5e:	82018793          	addi	a5,gp,-2016 # 20000020 <SetupGetStrDesc>
C:/Repository/RISKYKVM/firmware/src/User/USB_Host/ch32v20x_usbfs_host.c:536
{
    1c62:	ca56                	sw	s5,20(sp)
C:/Repository/RISKYKVM/firmware/src/User/USB_Host/ch32v20x_usbfs_host.c:541
    memcpy( pUSBFS_SetupRequest, SetupGetStrDesc, sizeof( USB_SETUP_REQ ) );
    1c64:	0007aa83          	lw	s5,0(a5)
C:/Repository/RISKYKVM/firmware/src/User/USB_Host/ch32v20x_usbfs_host.c:536
{
    1c68:	cc52                	sw	s4,24(sp)
C:/Repository/RISKYKVM/firmware/src/User/USB_Host/ch32v20x_usbfs_host.c:541
    memcpy( pUSBFS_SetupRequest, SetupGetStrDesc, sizeof( USB_SETUP_REQ ) );
    1c6a:	0047aa03          	lw	s4,4(a5)
C:/Repository/RISKYKVM/firmware/src/User/USB_Host/ch32v20x_usbfs_host.c:536
{
    1c6e:	d226                	sw	s1,36(sp)
    1c70:	d04a                	sw	s2,32(sp)
    1c72:	84b2                	mv	s1,a2
C:/Repository/RISKYKVM/firmware/src/User/USB_Host/ch32v20x_usbfs_host.c:541
    memcpy( pUSBFS_SetupRequest, SetupGetStrDesc, sizeof( USB_SETUP_REQ ) );
    1c74:	20002937          	lui	s2,0x20002
C:/Repository/RISKYKVM/firmware/src/User/USB_Host/ch32v20x_usbfs_host.c:536
{
    1c78:	d422                	sw	s0,40(sp)
    1c7a:	ce4e                	sw	s3,28(sp)
C:/Repository/RISKYKVM/firmware/src/User/USB_Host/ch32v20x_usbfs_host.c:541
    memcpy( pUSBFS_SetupRequest, SetupGetStrDesc, sizeof( USB_SETUP_REQ ) );
    1c7c:	ab592023          	sw	s5,-1376(s2) # 20001aa0 <USBFS_TX_Buf>
    1c80:	aa090413          	addi	s0,s2,-1376
C:/Repository/RISKYKVM/firmware/src/User/USB_Host/ch32v20x_usbfs_host.c:542
    pUSBFS_SetupRequest->wValue = ( (uint16_t)USB_DESCR_TYP_STRING << 8 ) | str_num;
    1c84:	3005e993          	ori	s3,a1,768
C:/Repository/RISKYKVM/firmware/src/User/USB_Host/ch32v20x_usbfs_host.c:543
    s = USBFSH_CtrlTransfer( ep0_size, pbuf, &len );
    1c88:	00e10613          	addi	a2,sp,14
    1c8c:	85a6                	mv	a1,s1
C:/Repository/RISKYKVM/firmware/src/User/USB_Host/ch32v20x_usbfs_host.c:536
{
    1c8e:	c85a                	sw	s6,16(sp)
    1c90:	d606                	sw	ra,44(sp)
    1c92:	8b2a                	mv	s6,a0
C:/Repository/RISKYKVM/firmware/src/User/USB_Host/ch32v20x_usbfs_host.c:541
    memcpy( pUSBFS_SetupRequest, SetupGetStrDesc, sizeof( USB_SETUP_REQ ) );
    1c94:	01442223          	sw	s4,4(s0)
C:/Repository/RISKYKVM/firmware/src/User/USB_Host/ch32v20x_usbfs_host.c:542
    pUSBFS_SetupRequest->wValue = ( (uint16_t)USB_DESCR_TYP_STRING << 8 ) | str_num;
    1c98:	01341123          	sh	s3,2(s0)
C:/Repository/RISKYKVM/firmware/src/User/USB_Host/ch32v20x_usbfs_host.c:543
    s = USBFSH_CtrlTransfer( ep0_size, pbuf, &len );
    1c9c:	39d5                	jal	1990 <USBFSH_CtrlTransfer>
C:/Repository/RISKYKVM/firmware/src/User/USB_Host/ch32v20x_usbfs_host.c:544
    if( s != ERR_SUCCESS )
    1c9e:	e115                	bnez	a0,1cc2 <USBFSH_GetStrDescr+0x66>
C:/Repository/RISKYKVM/firmware/src/User/USB_Host/ch32v20x_usbfs_host.c:550
    {
        return s;
    }

    /* Get the complete string descriptor */
    len = pbuf[ 0 ];
    1ca0:	0004c783          	lbu	a5,0(s1)
C:/Repository/RISKYKVM/firmware/src/User/USB_Host/ch32v20x_usbfs_host.c:551
    memcpy( pUSBFS_SetupRequest, SetupGetStrDesc, sizeof( USB_SETUP_REQ ) );
    1ca4:	ab592023          	sw	s5,-1376(s2)
    1ca8:	01442223          	sw	s4,4(s0)
C:/Repository/RISKYKVM/firmware/src/User/USB_Host/ch32v20x_usbfs_host.c:554
    pUSBFS_SetupRequest->wValue = ( (uint16_t)USB_DESCR_TYP_STRING << 8 ) | str_num;
    pUSBFS_SetupRequest->wLength = len;
    s = USBFSH_CtrlTransfer( ep0_size, pbuf, &len );
    1cac:	00e10613          	addi	a2,sp,14
    1cb0:	85a6                	mv	a1,s1
    1cb2:	855a                	mv	a0,s6
C:/Repository/RISKYKVM/firmware/src/User/USB_Host/ch32v20x_usbfs_host.c:550
    len = pbuf[ 0 ];
    1cb4:	00f11723          	sh	a5,14(sp)
C:/Repository/RISKYKVM/firmware/src/User/USB_Host/ch32v20x_usbfs_host.c:552
    pUSBFS_SetupRequest->wValue = ( (uint16_t)USB_DESCR_TYP_STRING << 8 ) | str_num;
    1cb8:	01341123          	sh	s3,2(s0)
C:/Repository/RISKYKVM/firmware/src/User/USB_Host/ch32v20x_usbfs_host.c:553
    pUSBFS_SetupRequest->wLength = len;
    1cbc:	00f41323          	sh	a5,6(s0)
C:/Repository/RISKYKVM/firmware/src/User/USB_Host/ch32v20x_usbfs_host.c:554
    s = USBFSH_CtrlTransfer( ep0_size, pbuf, &len );
    1cc0:	39c1                	jal	1990 <USBFSH_CtrlTransfer>
C:/Repository/RISKYKVM/firmware/src/User/USB_Host/ch32v20x_usbfs_host.c:560
    if( s != ERR_SUCCESS )
    {
        return s;
    }
    return ERR_SUCCESS;
}
    1cc2:	50b2                	lw	ra,44(sp)
    1cc4:	5422                	lw	s0,40(sp)
    1cc6:	5492                	lw	s1,36(sp)
    1cc8:	5902                	lw	s2,32(sp)
    1cca:	49f2                	lw	s3,28(sp)
    1ccc:	4a62                	lw	s4,24(sp)
    1cce:	4ad2                	lw	s5,20(sp)
    1cd0:	4b42                	lw	s6,16(sp)
    1cd2:	6145                	addi	sp,sp,48
    1cd4:	8082                	ret

00001cd6 <USBFSH_SetUsbAddress>:
USBFSH_SetUsbAddress():
C:/Repository/RISKYKVM/firmware/src/User/USB_Host/ch32v20x_usbfs_host.c:576
 */
uint8_t USBFSH_SetUsbAddress( uint8_t ep0_size, uint8_t addr )
{
    uint8_t  s;

    memcpy( pUSBFS_SetupRequest, SetupSetAddr, sizeof( USB_SETUP_REQ ) );
    1cd6:	82818713          	addi	a4,gp,-2008 # 20000028 <SetupSetAddr>
    1cda:	4314                	lw	a3,0(a4)
    1cdc:	4358                	lw	a4,4(a4)
C:/Repository/RISKYKVM/firmware/src/User/USB_Host/ch32v20x_usbfs_host.c:573
{
    1cde:	1141                	addi	sp,sp,-16
C:/Repository/RISKYKVM/firmware/src/User/USB_Host/ch32v20x_usbfs_host.c:576
    memcpy( pUSBFS_SetupRequest, SetupSetAddr, sizeof( USB_SETUP_REQ ) );
    1ce0:	200027b7          	lui	a5,0x20002
C:/Repository/RISKYKVM/firmware/src/User/USB_Host/ch32v20x_usbfs_host.c:573
{
    1ce4:	c422                	sw	s0,8(sp)
    1ce6:	c226                	sw	s1,4(sp)
C:/Repository/RISKYKVM/firmware/src/User/USB_Host/ch32v20x_usbfs_host.c:576
    memcpy( pUSBFS_SetupRequest, SetupSetAddr, sizeof( USB_SETUP_REQ ) );
    1ce8:	aad7a023          	sw	a3,-1376(a5) # 20001aa0 <USBFS_TX_Buf>
C:/Repository/RISKYKVM/firmware/src/User/USB_Host/ch32v20x_usbfs_host.c:573
{
    1cec:	c606                	sw	ra,12(sp)
C:/Repository/RISKYKVM/firmware/src/User/USB_Host/ch32v20x_usbfs_host.c:576
    memcpy( pUSBFS_SetupRequest, SetupSetAddr, sizeof( USB_SETUP_REQ ) );
    1cee:	aa078793          	addi	a5,a5,-1376
C:/Repository/RISKYKVM/firmware/src/User/USB_Host/ch32v20x_usbfs_host.c:577
    pUSBFS_SetupRequest->wValue = (uint16_t)addr;
    1cf2:	00b79123          	sh	a1,2(a5)
C:/Repository/RISKYKVM/firmware/src/User/USB_Host/ch32v20x_usbfs_host.c:573
{
    1cf6:	84ae                	mv	s1,a1
C:/Repository/RISKYKVM/firmware/src/User/USB_Host/ch32v20x_usbfs_host.c:576
    memcpy( pUSBFS_SetupRequest, SetupSetAddr, sizeof( USB_SETUP_REQ ) );
    1cf8:	c3d8                	sw	a4,4(a5)
C:/Repository/RISKYKVM/firmware/src/User/USB_Host/ch32v20x_usbfs_host.c:578
    s = USBFSH_CtrlTransfer( ep0_size, NULL, NULL );
    1cfa:	4601                	li	a2,0
    1cfc:	4581                	li	a1,0
    1cfe:	3949                	jal	1990 <USBFSH_CtrlTransfer>
    1d00:	842a                	mv	s0,a0
C:/Repository/RISKYKVM/firmware/src/User/USB_Host/ch32v20x_usbfs_host.c:579
    if( s != ERR_SUCCESS )
    1d02:	e511                	bnez	a0,1d0e <USBFSH_SetUsbAddress+0x38>
C:/Repository/RISKYKVM/firmware/src/User/USB_Host/ch32v20x_usbfs_host.c:583
    {
        return s;
    }
    USBFSH_SetSelfAddr( addr );
    1d04:	8526                	mv	a0,s1
    1d06:	3cb1                	jal	1762 <USBFSH_SetSelfAddr>
C:/Repository/RISKYKVM/firmware/src/User/USB_Host/ch32v20x_usbfs_host.c:584
    Delay_Ms( DEF_BUS_RESET_TIME >> 1 ); // Wait for the USB device to complete its operation.
    1d08:	4515                	li	a0,5
    1d0a:	320020ef          	jal	ra,402a <Delay_Ms>
C:/Repository/RISKYKVM/firmware/src/User/USB_Host/ch32v20x_usbfs_host.c:586
    return ERR_SUCCESS;
}
    1d0e:	8522                	mv	a0,s0
    1d10:	40b2                	lw	ra,12(sp)
    1d12:	4422                	lw	s0,8(sp)
    1d14:	4492                	lw	s1,4(sp)
    1d16:	0141                	addi	sp,sp,16
    1d18:	8082                	ret

00001d1a <USBFSH_SetUsbConfig>:
USBFSH_SetUsbConfig():
C:/Repository/RISKYKVM/firmware/src/User/USB_Host/ch32v20x_usbfs_host.c:600
 *
 * @return  The result of setting device configuration.
 */
uint8_t USBFSH_SetUsbConfig( uint8_t ep0_size, uint8_t cfg_val )
{
    memcpy( pUSBFS_SetupRequest, SetupSetConfig, sizeof( USB_SETUP_REQ ) );
    1d1a:	83018713          	addi	a4,gp,-2000 # 20000030 <SetupSetConfig>
    1d1e:	4314                	lw	a3,0(a4)
    1d20:	4358                	lw	a4,4(a4)
    1d22:	200027b7          	lui	a5,0x20002
    1d26:	aad7a023          	sw	a3,-1376(a5) # 20001aa0 <USBFS_TX_Buf>
    1d2a:	aa078793          	addi	a5,a5,-1376
C:/Repository/RISKYKVM/firmware/src/User/USB_Host/ch32v20x_usbfs_host.c:601
    pUSBFS_SetupRequest->wValue = (uint16_t)cfg_val;
    1d2e:	00b79123          	sh	a1,2(a5)
C:/Repository/RISKYKVM/firmware/src/User/USB_Host/ch32v20x_usbfs_host.c:600
    memcpy( pUSBFS_SetupRequest, SetupSetConfig, sizeof( USB_SETUP_REQ ) );
    1d32:	c3d8                	sw	a4,4(a5)
C:/Repository/RISKYKVM/firmware/src/User/USB_Host/ch32v20x_usbfs_host.c:602
    return USBFSH_CtrlTransfer( ep0_size, NULL, NULL );
    1d34:	4601                	li	a2,0
    1d36:	4581                	li	a1,0
    1d38:	b9a1                	j	1990 <USBFSH_CtrlTransfer>

00001d3a <USBFSH_ClearEndpStall>:
USBFSH_ClearEndpStall():
C:/Repository/RISKYKVM/firmware/src/User/USB_Host/ch32v20x_usbfs_host.c:617
 *
 * @return  The result of clearing endpoint stall.
 */
uint8_t USBFSH_ClearEndpStall( uint8_t ep0_size, uint8_t endp_num )
{
    memcpy( pUSBFS_SetupRequest, SetupClearEndpStall, sizeof( USB_SETUP_REQ ) );
    1d3a:	80818713          	addi	a4,gp,-2040 # 20000008 <SetupClearEndpStall>
    1d3e:	4314                	lw	a3,0(a4)
    1d40:	4358                	lw	a4,4(a4)
    1d42:	200027b7          	lui	a5,0x20002
    1d46:	aad7a023          	sw	a3,-1376(a5) # 20001aa0 <USBFS_TX_Buf>
    1d4a:	aa078793          	addi	a5,a5,-1376
    1d4e:	c3d8                	sw	a4,4(a5)
C:/Repository/RISKYKVM/firmware/src/User/USB_Host/ch32v20x_usbfs_host.c:618
    pUSBFS_SetupRequest->wIndex = (uint16_t)endp_num;
    1d50:	00b79223          	sh	a1,4(a5)
C:/Repository/RISKYKVM/firmware/src/User/USB_Host/ch32v20x_usbfs_host.c:619
    return USBFSH_CtrlTransfer( ep0_size, NULL, NULL );
    1d54:	4601                	li	a2,0
    1d56:	4581                	li	a1,0
    1d58:	b925                	j	1990 <USBFSH_CtrlTransfer>

00001d5a <USBFSH_GetEndpData>:
USBFSH_GetEndpData():
C:/Repository/RISKYKVM/firmware/src/User/USB_Host/ch32v20x_usbfs_host.c:635
 *          plen: Data length
 *
 * @return  The result of getting data.
 */
uint8_t USBFSH_GetEndpData( uint8_t endp_num, uint8_t *pendp_tog, uint8_t *pbuf, uint16_t *plen )
{
    1d5a:	1101                	addi	sp,sp,-32
    1d5c:	cc22                	sw	s0,24(sp)
    1d5e:	ca26                	sw	s1,20(sp)
    1d60:	c84a                	sw	s2,16(sp)
    1d62:	ce06                	sw	ra,28(sp)
    1d64:	842e                	mv	s0,a1
C:/Repository/RISKYKVM/firmware/src/User/USB_Host/ch32v20x_usbfs_host.c:638
    uint8_t  s;
    
    s = USBFSH_Transact( ( USB_PID_IN << 4 ) | endp_num, *pendp_tog, 0 );
    1d66:	0005c583          	lbu	a1,0(a1) # 4000 <Delay_Us+0xc>
C:/Repository/RISKYKVM/firmware/src/User/USB_Host/ch32v20x_usbfs_host.c:635
{
    1d6a:	8932                	mv	s2,a2
C:/Repository/RISKYKVM/firmware/src/User/USB_Host/ch32v20x_usbfs_host.c:638
    s = USBFSH_Transact( ( USB_PID_IN << 4 ) | endp_num, *pendp_tog, 0 );
    1d6c:	09056513          	ori	a0,a0,144
    1d70:	4601                	li	a2,0
C:/Repository/RISKYKVM/firmware/src/User/USB_Host/ch32v20x_usbfs_host.c:635
{
    1d72:	c636                	sw	a3,12(sp)
C:/Repository/RISKYKVM/firmware/src/User/USB_Host/ch32v20x_usbfs_host.c:638
    s = USBFSH_Transact( ( USB_PID_IN << 4 ) | endp_num, *pendp_tog, 0 );
    1d74:	34f5                	jal	1860 <USBFSH_Transact>
    1d76:	84aa                	mv	s1,a0
C:/Repository/RISKYKVM/firmware/src/User/USB_Host/ch32v20x_usbfs_host.c:639
    if( s == ERR_SUCCESS )
    1d78:	46b2                	lw	a3,12(sp)
    1d7a:	e515                	bnez	a0,1da6 <USBFSH_GetEndpData+0x4c>
C:/Repository/RISKYKVM/firmware/src/User/USB_Host/ch32v20x_usbfs_host.c:641
    {
        *plen = USBOTG_H_FS->RX_LEN;
    1d7c:	500007b7          	lui	a5,0x50000
    1d80:	0087d603          	lhu	a2,8(a5) # 50000008 <_eusrstack+0x2fffb008>
C:/Repository/RISKYKVM/firmware/src/User/USB_Host/ch32v20x_usbfs_host.c:642
        memcpy( pbuf, USBFS_RX_Buf, *plen );
    1d84:	200025b7          	lui	a1,0x20002
    1d88:	a6058593          	addi	a1,a1,-1440 # 20001a60 <USBFS_RX_Buf>
C:/Repository/RISKYKVM/firmware/src/User/USB_Host/ch32v20x_usbfs_host.c:641
        *plen = USBOTG_H_FS->RX_LEN;
    1d8c:	0642                	slli	a2,a2,0x10
    1d8e:	8241                	srli	a2,a2,0x10
    1d90:	00c69023          	sh	a2,0(a3)
C:/Repository/RISKYKVM/firmware/src/User/USB_Host/ch32v20x_usbfs_host.c:642
        memcpy( pbuf, USBFS_RX_Buf, *plen );
    1d94:	854a                	mv	a0,s2
    1d96:	2e4020ef          	jal	ra,407a <memcpy>
C:/Repository/RISKYKVM/firmware/src/User/USB_Host/ch32v20x_usbfs_host.c:644

        *pendp_tog  ^= USBFS_UH_R_TOG;
    1d9a:	00044783          	lbu	a5,0(s0)
    1d9e:	0047c793          	xori	a5,a5,4
    1da2:	00f40023          	sb	a5,0(s0)
C:/Repository/RISKYKVM/firmware/src/User/USB_Host/ch32v20x_usbfs_host.c:648
    }
    
    return s;
}
    1da6:	40f2                	lw	ra,28(sp)
    1da8:	4462                	lw	s0,24(sp)
    1daa:	8526                	mv	a0,s1
    1dac:	4942                	lw	s2,16(sp)
    1dae:	44d2                	lw	s1,20(sp)
    1db0:	6105                	addi	sp,sp,32
    1db2:	8082                	ret

00001db4 <USBFSH_SendEndpData>:
USBFSH_SendEndpData():
C:/Repository/RISKYKVM/firmware/src/User/USB_Host/ch32v20x_usbfs_host.c:663
 *          len: Data length
 *
 * @return  The result of sending data.
 */
uint8_t USBFSH_SendEndpData( uint8_t endp_num, uint8_t *pendp_tog, uint8_t *pbuf, uint16_t len )
{
    1db4:	1101                	addi	sp,sp,-32
    1db6:	ca26                	sw	s1,20(sp)
    1db8:	84aa                	mv	s1,a0
C:/Repository/RISKYKVM/firmware/src/User/USB_Host/ch32v20x_usbfs_host.c:666
    uint8_t  s;
    
    memcpy( USBFS_TX_Buf, pbuf, len );
    1dba:	20002537          	lui	a0,0x20002
C:/Repository/RISKYKVM/firmware/src/User/USB_Host/ch32v20x_usbfs_host.c:663
{
    1dbe:	cc22                	sw	s0,24(sp)
C:/Repository/RISKYKVM/firmware/src/User/USB_Host/ch32v20x_usbfs_host.c:666
    memcpy( USBFS_TX_Buf, pbuf, len );
    1dc0:	aa050513          	addi	a0,a0,-1376 # 20001aa0 <USBFS_TX_Buf>
C:/Repository/RISKYKVM/firmware/src/User/USB_Host/ch32v20x_usbfs_host.c:663
{
    1dc4:	842e                	mv	s0,a1
    1dc6:	85b2                	mv	a1,a2
C:/Repository/RISKYKVM/firmware/src/User/USB_Host/ch32v20x_usbfs_host.c:666
    memcpy( USBFS_TX_Buf, pbuf, len );
    1dc8:	8636                	mv	a2,a3
C:/Repository/RISKYKVM/firmware/src/User/USB_Host/ch32v20x_usbfs_host.c:663
{
    1dca:	ce06                	sw	ra,28(sp)
C:/Repository/RISKYKVM/firmware/src/User/USB_Host/ch32v20x_usbfs_host.c:666
    memcpy( USBFS_TX_Buf, pbuf, len );
    1dcc:	c636                	sw	a3,12(sp)
    1dce:	2ac020ef          	jal	ra,407a <memcpy>
C:/Repository/RISKYKVM/firmware/src/User/USB_Host/ch32v20x_usbfs_host.c:667
    USBOTG_H_FS->HOST_TX_LEN = len;
    1dd2:	46b2                	lw	a3,12(sp)
    1dd4:	500007b7          	lui	a5,0x50000
C:/Repository/RISKYKVM/firmware/src/User/USB_Host/ch32v20x_usbfs_host.c:668
    s = USBFSH_Transact( ( USB_PID_OUT << 4 ) | endp_num, *pendp_tog, 0 );
    1dd8:	4601                	li	a2,0
C:/Repository/RISKYKVM/firmware/src/User/USB_Host/ch32v20x_usbfs_host.c:667
    USBOTG_H_FS->HOST_TX_LEN = len;
    1dda:	02d79e23          	sh	a3,60(a5) # 5000003c <_eusrstack+0x2fffb03c>
C:/Repository/RISKYKVM/firmware/src/User/USB_Host/ch32v20x_usbfs_host.c:668
    s = USBFSH_Transact( ( USB_PID_OUT << 4 ) | endp_num, *pendp_tog, 0 );
    1dde:	00044583          	lbu	a1,0(s0)
    1de2:	0104e513          	ori	a0,s1,16
    1de6:	3cad                	jal	1860 <USBFSH_Transact>
C:/Repository/RISKYKVM/firmware/src/User/USB_Host/ch32v20x_usbfs_host.c:669
    if( s == ERR_SUCCESS )
    1de8:	e519                	bnez	a0,1df6 <USBFSH_SendEndpData+0x42>
C:/Repository/RISKYKVM/firmware/src/User/USB_Host/ch32v20x_usbfs_host.c:671
    {
        *pendp_tog ^= USBFS_UH_T_TOG;
    1dea:	00044783          	lbu	a5,0(s0)
    1dee:	0047c793          	xori	a5,a5,4
    1df2:	00f40023          	sb	a5,0(s0)
C:/Repository/RISKYKVM/firmware/src/User/USB_Host/ch32v20x_usbfs_host.c:675
    }

    return s;
}
    1df6:	40f2                	lw	ra,28(sp)
    1df8:	4462                	lw	s0,24(sp)
    1dfa:	44d2                	lw	s1,20(sp)
    1dfc:	6105                	addi	sp,sp,32
    1dfe:	8082                	ret

00001e00 <GamepadDecode>:
GamepadDecode():
C:/Repository/RISKYKVM/firmware/src/User/USB_Host/usb_gamepad.c:50

USB_Status GamepadDecode(Interface *Itf)
{


	  if (Itf->HidRptLen == 0U)
    1e00:	10c54603          	lbu	a2,268(a0)
    1e04:	ea19                	bnez	a2,1e1a <GamepadDecode+0x1a>
C:/Repository/RISKYKVM/firmware/src/User/USB_Host/usb_gamepad.c:52
	  {
	    return USB_FAIL;
    1e06:	4505                	li	a0,1
C:/Repository/RISKYKVM/firmware/src/User/USB_Host/usb_gamepad.c:136



	  return USB_FAIL;

}
    1e08:	8082                	ret
C:/Repository/RISKYKVM/firmware/src/User/USB_Host/usb_gamepad.c:52
	    return USB_FAIL;
    1e0a:	4505                	li	a0,1
C:/Repository/RISKYKVM/firmware/src/User/USB_Host/usb_gamepad.c:136
}
    1e0c:	50b6                	lw	ra,108(sp)
    1e0e:	5426                	lw	s0,104(sp)
    1e10:	5496                	lw	s1,100(sp)
    1e12:	5906                	lw	s2,96(sp)
    1e14:	49f6                	lw	s3,92(sp)
    1e16:	6165                	addi	sp,sp,112
    1e18:	8082                	ret
C:/Repository/RISKYKVM/firmware/src/User/USB_Host/usb_gamepad.c:47
{
    1e1a:	7159                	addi	sp,sp,-112
    1e1c:	cece                	sw	s3,92(sp)
    1e1e:	d2a6                	sw	s1,100(sp)
C:/Repository/RISKYKVM/firmware/src/User/USB_Host/usb_gamepad.c:55
	  if (FifoRead(&Itf->buffer, &gamepad_report_data, Itf->HidRptLen) !=0)
    1e20:	88818593          	addi	a1,gp,-1912 # 20000088 <gamepad_report_data>
    1e24:	84aa                	mv	s1,a0
    1e26:	08050513          	addi	a0,a0,128
C:/Repository/RISKYKVM/firmware/src/User/USB_Host/usb_gamepad.c:47
{
    1e2a:	d4a2                	sw	s0,104(sp)
    1e2c:	d686                	sw	ra,108(sp)
    1e2e:	d0ca                	sw	s2,96(sp)
C:/Repository/RISKYKVM/firmware/src/User/USB_Host/usb_gamepad.c:55
	  if (FifoRead(&Itf->buffer, &gamepad_report_data, Itf->HidRptLen) !=0)
    1e30:	88818413          	addi	s0,gp,-1912 # 20000088 <gamepad_report_data>
    1e34:	2e1010ef          	jal	ra,3914 <FifoRead>
    1e38:	d969                	beqz	a0,1e0a <GamepadDecode+0xa>
C:/Repository/RISKYKVM/firmware/src/User/USB_Host/usb_gamepad.c:67
		hid_report_t conf = Itf->HIDRptDesc;
    1e3a:	01010913          	addi	s2,sp,16
    1e3e:	03e00613          	li	a2,62
    1e42:	04248593          	addi	a1,s1,66
    1e46:	854a                	mv	a0,s2
    1e48:	232020ef          	jal	ra,407a <memcpy>
C:/Repository/RISKYKVM/firmware/src/User/USB_Host/usb_gamepad.c:71
		uint8_t *p = gamepad_report_data+(conf.report_id?1:0);
    1e4c:	0434c783          	lbu	a5,67(s1)
    1e50:	0405                	addi	s0,s0,1
    1e52:	e399                	bnez	a5,1e58 <GamepadDecode+0x58>
    1e54:	88818413          	addi	s0,gp,-1912 # 20000088 <gamepad_report_data>
C:/Repository/RISKYKVM/firmware/src/User/USB_Host/usb_gamepad.c:79
					int is_signed = conf.joystick_mouse.axis[i].logical.min >
    1e58:	01c15783          	lhu	a5,28(sp)
    1e5c:	01e15683          	lhu	a3,30(sp)
C:/Repository/RISKYKVM/firmware/src/User/USB_Host/usb_gamepad.c:81
					a[i] = collect_bits(p, conf.joystick_mouse.axis[i].offset,
    1e60:	01a14603          	lbu	a2,26(sp)
    1e64:	01815583          	lhu	a1,24(sp)
    1e68:	00f6b6b3          	sltu	a3,a3,a5
    1e6c:	8522                	mv	a0,s0
    1e6e:	379010ef          	jal	ra,39e6 <collect_bits>
C:/Repository/RISKYKVM/firmware/src/User/USB_Host/usb_gamepad.c:79
					int is_signed = conf.joystick_mouse.axis[i].logical.min >
    1e72:	02615783          	lhu	a5,38(sp)
    1e76:	02415683          	lhu	a3,36(sp)
C:/Repository/RISKYKVM/firmware/src/User/USB_Host/usb_gamepad.c:81
					a[i] = collect_bits(p, conf.joystick_mouse.axis[i].offset,
    1e7a:	02214603          	lbu	a2,34(sp)
    1e7e:	02015583          	lhu	a1,32(sp)
    1e82:	00a11623          	sh	a0,12(sp)
    1e86:	00d7b6b3          	sltu	a3,a5,a3
    1e8a:	8522                	mv	a0,s0
    1e8c:	35b010ef          	jal	ra,39e6 <collect_bits>
    1e90:	00a11723          	sh	a0,14(sp)
    1e94:	874a                	mv	a4,s2
    1e96:	854a                	mv	a0,s2
    1e98:	4781                	li	a5,0
C:/Repository/RISKYKVM/firmware/src/User/USB_Host/usb_gamepad.c:60
		uint8_t btn = 0;
    1e9a:	4581                	li	a1,0
C:/Repository/RISKYKVM/firmware/src/User/USB_Host/usb_gamepad.c:88
			 conf.joystick_mouse.button[i].bitmask) btn |= (1<<i);
    1e9c:	4805                	li	a6,1
C:/Repository/RISKYKVM/firmware/src/User/USB_Host/usb_gamepad.c:86
		for(i=0;i<4;i++)
    1e9e:	4611                	li	a2,4
C:/Repository/RISKYKVM/firmware/src/User/USB_Host/usb_gamepad.c:87
			if(p[conf.joystick_mouse.button[i].byte_offset] &
    1ea0:	01874683          	lbu	a3,24(a4)
    1ea4:	01974883          	lbu	a7,25(a4)
    1ea8:	96a2                	add	a3,a3,s0
    1eaa:	0006c683          	lbu	a3,0(a3)
    1eae:	0116f6b3          	and	a3,a3,a7
    1eb2:	c691                	beqz	a3,1ebe <GamepadDecode+0xbe>
C:/Repository/RISKYKVM/firmware/src/User/USB_Host/usb_gamepad.c:88
			 conf.joystick_mouse.button[i].bitmask) btn |= (1<<i);
    1eb4:	00f816b3          	sll	a3,a6,a5
    1eb8:	8dd5                	or	a1,a1,a3
    1eba:	0ff5f593          	andi	a1,a1,255
    1ebe:	0785                	addi	a5,a5,1
    1ec0:	0709                	addi	a4,a4,2
C:/Repository/RISKYKVM/firmware/src/User/USB_Host/usb_gamepad.c:86
		for(i=0;i<4;i++)
    1ec2:	fcc79fe3          	bne	a5,a2,1ea0 <GamepadDecode+0xa0>
    1ec6:	874a                	mv	a4,s2
    1ec8:	4781                	li	a5,0
C:/Repository/RISKYKVM/firmware/src/User/USB_Host/usb_gamepad.c:61
		uint8_t btn_extra = 0;
    1eca:	4801                	li	a6,0
C:/Repository/RISKYKVM/firmware/src/User/USB_Host/usb_gamepad.c:93
			 conf.joystick_mouse.button[i].bitmask) btn_extra |= (1<<(i-4));
    1ecc:	4885                	li	a7,1
C:/Repository/RISKYKVM/firmware/src/User/USB_Host/usb_gamepad.c:91
		for(i=4;i<12;i++)
    1ece:	4621                	li	a2,8
C:/Repository/RISKYKVM/firmware/src/User/USB_Host/usb_gamepad.c:92
			if(p[conf.joystick_mouse.button[i].byte_offset] &
    1ed0:	02074683          	lbu	a3,32(a4)
    1ed4:	02174303          	lbu	t1,33(a4)
    1ed8:	96a2                	add	a3,a3,s0
    1eda:	0006c683          	lbu	a3,0(a3)
    1ede:	0066f6b3          	and	a3,a3,t1
    1ee2:	c699                	beqz	a3,1ef0 <GamepadDecode+0xf0>
C:/Repository/RISKYKVM/firmware/src/User/USB_Host/usb_gamepad.c:93
			 conf.joystick_mouse.button[i].bitmask) btn_extra |= (1<<(i-4));
    1ee4:	00f896b3          	sll	a3,a7,a5
    1ee8:	0106e833          	or	a6,a3,a6
    1eec:	0ff87813          	andi	a6,a6,255
    1ef0:	0785                	addi	a5,a5,1
    1ef2:	0709                	addi	a4,a4,2
C:/Repository/RISKYKVM/firmware/src/User/USB_Host/usb_gamepad.c:91
		for(i=4;i<12;i++)
    1ef4:	fcc79ee3          	bne	a5,a2,1ed0 <GamepadDecode+0xd0>
    1ef8:	007c                	addi	a5,sp,12
C:/Repository/RISKYKVM/firmware/src/User/USB_Host/usb_gamepad.c:99
		int hrange = (conf.joystick_mouse.axis[i].logical.max - abs(conf.joystick_mouse.axis[i].logical.min)) / 2;
    1efa:	4e09                	li	t3,2
C:/Repository/RISKYKVM/firmware/src/User/USB_Host/usb_gamepad.c:100
		int dead = hrange/63;
    1efc:	07e00f13          	li	t5,126
C:/Repository/RISKYKVM/firmware/src/User/USB_Host/usb_gamepad.c:112
		a[i] = (a[i] * 127) / hrange;
    1f00:	07f00313          	li	t1,127
C:/Repository/RISKYKVM/firmware/src/User/USB_Host/usb_gamepad.c:114
		if (a[i] < -127) a[i] = -127;
    1f04:	f8100e93          	li	t4,-127
C:/Repository/RISKYKVM/firmware/src/User/USB_Host/usb_gamepad.c:99
		int hrange = (conf.joystick_mouse.axis[i].logical.max - abs(conf.joystick_mouse.axis[i].logical.min)) / 2;
    1f08:	00e55683          	lhu	a3,14(a0)
    1f0c:	00c55883          	lhu	a7,12(a0)
    1f10:	41168733          	sub	a4,a3,a7
    1f14:	03c74fb3          	div	t6,a4,t3
C:/Repository/RISKYKVM/firmware/src/User/USB_Host/usb_gamepad.c:100
		int dead = hrange/63;
    1f18:	03e74633          	div	a2,a4,t5
C:/Repository/RISKYKVM/firmware/src/User/USB_Host/usb_gamepad.c:102
		if (a[i] < conf.joystick_mouse.axis[i].logical.min) a[i] = conf.joystick_mouse.axis[i].logical.min;
    1f1c:	00079703          	lh	a4,0(a5)
    1f20:	0b175163          	bge	a4,a7,1fc2 <GamepadDecode+0x1c2>
    1f24:	01179023          	sh	a7,0(a5)
C:/Repository/RISKYKVM/firmware/src/User/USB_Host/usb_gamepad.c:105
		a[i] = a[i] - (abs(conf.joystick_mouse.axis[i].logical.min) + conf.joystick_mouse.axis[i].logical.max) / 2;
    1f28:	96c6                	add	a3,a3,a7
    1f2a:	03c6c733          	div	a4,a3,t3
    1f2e:	0007d683          	lhu	a3,0(a5)
    1f32:	8e99                	sub	a3,a3,a4
    1f34:	01069713          	slli	a4,a3,0x10
    1f38:	8341                	srli	a4,a4,0x10
    1f3a:	01071893          	slli	a7,a4,0x10
    1f3e:	4108d893          	srai	a7,a7,0x10
C:/Repository/RISKYKVM/firmware/src/User/USB_Host/usb_gamepad.c:107
		hrange -= dead;
    1f42:	40cf86b3          	sub	a3,t6,a2
C:/Repository/RISKYKVM/firmware/src/User/USB_Host/usb_gamepad.c:105
		a[i] = a[i] - (abs(conf.joystick_mouse.axis[i].logical.min) + conf.joystick_mouse.axis[i].logical.max) / 2;
    1f46:	01179023          	sh	a7,0(a5)
C:/Repository/RISKYKVM/firmware/src/User/USB_Host/usb_gamepad.c:108
		if (a[i] < -dead) a[i] += dead;
    1f4a:	40c00fb3          	neg	t6,a2
    1f4e:	07f8df63          	bge	a7,t6,1fcc <GamepadDecode+0x1cc>
    1f52:	9732                	add	a4,a4,a2
C:/Repository/RISKYKVM/firmware/src/User/USB_Host/usb_gamepad.c:109
		else if (a[i] > dead) a[i] -= dead;
    1f54:	00e79023          	sh	a4,0(a5)
C:/Repository/RISKYKVM/firmware/src/User/USB_Host/usb_gamepad.c:112
		a[i] = (a[i] * 127) / hrange;
    1f58:	00079703          	lh	a4,0(a5)
    1f5c:	02670733          	mul	a4,a4,t1
    1f60:	02d74733          	div	a4,a4,a3
    1f64:	0742                	slli	a4,a4,0x10
    1f66:	8741                	srai	a4,a4,0x10
C:/Repository/RISKYKVM/firmware/src/User/USB_Host/usb_gamepad.c:114
		if (a[i] < -127) a[i] = -127;
    1f68:	07d75963          	bge	a4,t4,1fda <GamepadDecode+0x1da>
    1f6c:	01d79023          	sh	t4,0(a5)
C:/Repository/RISKYKVM/firmware/src/User/USB_Host/usb_gamepad.c:117
		a[i]=a[i]+127; // mist wants a value in the range [0..255]
    1f70:	0007d703          	lhu	a4,0(a5)
    1f74:	0789                	addi	a5,a5,2
    1f76:	0521                	addi	a0,a0,8
    1f78:	07f70713          	addi	a4,a4,127
    1f7c:	fee79f23          	sh	a4,-2(a5)
C:/Repository/RISKYKVM/firmware/src/User/USB_Host/usb_gamepad.c:97
	for(i=0;i<2;i++) {
    1f80:	f8f914e3          	bne	s2,a5,1f08 <GamepadDecode+0x108>
C:/Repository/RISKYKVM/firmware/src/User/USB_Host/usb_gamepad.c:120
				if(a[0] < JOYSTICK_AXIS_TRIGGER_MIN) jmap |= JOY_LEFT;
    1f84:	00c11703          	lh	a4,12(sp)
    1f88:	03f00693          	li	a3,63
    1f8c:	4789                	li	a5,2
    1f8e:	00e6d663          	bge	a3,a4,1f9a <GamepadDecode+0x19a>
C:/Repository/RISKYKVM/firmware/src/User/USB_Host/usb_gamepad.c:121
				if(a[0] > JOYSTICK_AXIS_TRIGGER_MAX) jmap |= JOY_RIGHT;
    1f92:	0c172793          	slti	a5,a4,193
C:/Repository/RISKYKVM/firmware/src/User/USB_Host/usb_gamepad.c:59
		uint8_t jmap = 0;
    1f96:	0017c793          	xori	a5,a5,1
C:/Repository/RISKYKVM/firmware/src/User/USB_Host/usb_gamepad.c:122
				if(a[1] < JOYSTICK_AXIS_TRIGGER_MIN) jmap |= JOY_UP;
    1f9a:	00e11703          	lh	a4,14(sp)
    1f9e:	03f00693          	li	a3,63
    1fa2:	04e6c463          	blt	a3,a4,1fea <GamepadDecode+0x1ea>
    1fa6:	0087e793          	ori	a5,a5,8
C:/Repository/RISKYKVM/firmware/src/User/USB_Host/usb_gamepad.c:124
				jmap |= btn << JOY_BTN_SHIFT;      // add buttons
    1faa:	0592                	slli	a1,a1,0x4
    1fac:	8ddd                	or	a1,a1,a5
C:/Repository/RISKYKVM/firmware/src/User/USB_Host/usb_gamepad.c:126
				gamepad_info.gamepad_data = jmap;
    1fae:	200027b7          	lui	a5,0x20002
    1fb2:	aeb78023          	sb	a1,-1312(a5) # 20001ae0 <gamepad_info>
C:/Repository/RISKYKVM/firmware/src/User/USB_Host/usb_gamepad.c:127
				gamepad_info.gamepad_extraBtn = btn_extra;
    1fb6:	ae078793          	addi	a5,a5,-1312
    1fba:	010780a3          	sb	a6,1(a5)
C:/Repository/RISKYKVM/firmware/src/User/USB_Host/usb_gamepad.c:129
		  return USB_OK;
    1fbe:	4501                	li	a0,0
    1fc0:	b5b1                	j	1e0c <GamepadDecode+0xc>
C:/Repository/RISKYKVM/firmware/src/User/USB_Host/usb_gamepad.c:103
		else if (a[i] > conf.joystick_mouse.axis[i].logical.max) a[i] = conf.joystick_mouse.axis[i].logical.max;
    1fc2:	f6e6d3e3          	bge	a3,a4,1f28 <GamepadDecode+0x128>
    1fc6:	00d79023          	sh	a3,0(a5)
    1fca:	bfb9                	j	1f28 <GamepadDecode+0x128>
C:/Repository/RISKYKVM/firmware/src/User/USB_Host/usb_gamepad.c:109
		else if (a[i] > dead) a[i] -= dead;
    1fcc:	01165463          	bge	a2,a7,1fd4 <GamepadDecode+0x1d4>
    1fd0:	8f11                	sub	a4,a4,a2
    1fd2:	b749                	j	1f54 <GamepadDecode+0x154>
C:/Repository/RISKYKVM/firmware/src/User/USB_Host/usb_gamepad.c:110
		else a[i] = 0;
    1fd4:	00079023          	sh	zero,0(a5)
    1fd8:	b741                	j	1f58 <GamepadDecode+0x158>
C:/Repository/RISKYKVM/firmware/src/User/USB_Host/usb_gamepad.c:115
		else if (a[i] > 127) a[i] = 127;
    1fda:	00e34563          	blt	t1,a4,1fe4 <GamepadDecode+0x1e4>
C:/Repository/RISKYKVM/firmware/src/User/USB_Host/usb_gamepad.c:112
		a[i] = (a[i] * 127) / hrange;
    1fde:	00e79023          	sh	a4,0(a5)
    1fe2:	b779                	j	1f70 <GamepadDecode+0x170>
C:/Repository/RISKYKVM/firmware/src/User/USB_Host/usb_gamepad.c:115
		else if (a[i] > 127) a[i] = 127;
    1fe4:	00679023          	sh	t1,0(a5)
    1fe8:	b761                	j	1f70 <GamepadDecode+0x170>
C:/Repository/RISKYKVM/firmware/src/User/USB_Host/usb_gamepad.c:123
				if(a[1] > JOYSTICK_AXIS_TRIGGER_MAX) jmap |= JOY_DOWN;
    1fea:	0c000693          	li	a3,192
    1fee:	fae6dee3          	bge	a3,a4,1faa <GamepadDecode+0x1aa>
    1ff2:	0047e793          	ori	a5,a5,4
    1ff6:	bf55                	j	1faa <GamepadDecode+0x1aa>

00001ff8 <GetGamepadInfo>:
GetGamepadInfo():
C:/Repository/RISKYKVM/firmware/src/User/USB_Host/usb_gamepad.c:31
{
    1ff8:	1141                	addi	sp,sp,-16
    1ffa:	c606                	sw	ra,12(sp)
C:/Repository/RISKYKVM/firmware/src/User/USB_Host/usb_gamepad.c:33
	if(GamepadDecode(Itf)== USB_OK)
    1ffc:	3511                	jal	1e00 <GamepadDecode>
    1ffe:	c509                	beqz	a0,2008 <GetGamepadInfo+0x10>
C:/Repository/RISKYKVM/firmware/src/User/USB_Host/usb_gamepad.c:40
		return NULL;
    2000:	4501                	li	a0,0
C:/Repository/RISKYKVM/firmware/src/User/USB_Host/usb_gamepad.c:42
}
    2002:	40b2                	lw	ra,12(sp)
    2004:	0141                	addi	sp,sp,16
    2006:	8082                	ret
C:/Repository/RISKYKVM/firmware/src/User/USB_Host/usb_gamepad.c:36
		return &gamepad_info;
    2008:	20002537          	lui	a0,0x20002
    200c:	ae050513          	addi	a0,a0,-1312 # 20001ae0 <gamepad_info>
    2010:	bfcd                	j	2002 <GetGamepadInfo+0xa>

00002012 <report_is_usable>:
report_is_usable():
C:/Repository/RISKYKVM/firmware/src/User/USB_Host/usb_hid_reportparser.c:56

int report_is_usable(uint16_t bit_count, uint8_t report_complete, hid_report_t *conf) {
// hidp_debugf("  - total bit count: %d (%d bytes, %d bits)",
//	      bit_count, bit_count/8, bit_count%8);

  conf->report_size = bit_count/8;
    2012:	810d                	srli	a0,a0,0x3
    2014:	00a60123          	sb	a0,2(a2)
C:/Repository/RISKYKVM/firmware/src/User/USB_Host/usb_hid_reportparser.c:59

  // check if something useful was detected
  if( ((conf->type == REPORT_TYPE_JOYSTICK) && ((report_complete & JOYSTICK_COMPLETE) == JOYSTICK_COMPLETE)) ||
    2018:	00064503          	lbu	a0,0(a2)
    201c:	478d                	li	a5,3
    201e:	890d                	andi	a0,a0,3
    2020:	00f51863          	bne	a0,a5,2030 <report_is_usable+0x1e>
C:/Repository/RISKYKVM/firmware/src/User/USB_Host/usb_hid_reportparser.c:59 (discriminator 1)
    2024:	0075f513          	andi	a0,a1,7
    2028:	1565                	addi	a0,a0,-7
C:/Repository/RISKYKVM/firmware/src/User/USB_Host/usb_hid_reportparser.c:60 (discriminator 1)
      ((conf->type == REPORT_TYPE_MOUSE)    && ((report_complete & MOUSE_COMPLETE) == MOUSE_COMPLETE)) ||
    202a:	00153513          	seqz	a0,a0
C:/Repository/RISKYKVM/firmware/src/User/USB_Host/usb_hid_reportparser.c:68 (discriminator 1)
    return 1;
  }

//  hidp_debugf("  - unusable report %d", conf->report_id);
  return 0;
}
    202e:	8082                	ret
C:/Repository/RISKYKVM/firmware/src/User/USB_Host/usb_hid_reportparser.c:59 (discriminator 3)
  if( ((conf->type == REPORT_TYPE_JOYSTICK) && ((report_complete & JOYSTICK_COMPLETE) == JOYSTICK_COMPLETE)) ||
    2030:	4785                	li	a5,1
    2032:	00f51663          	bne	a0,a5,203e <report_is_usable+0x2c>
C:/Repository/RISKYKVM/firmware/src/User/USB_Host/usb_hid_reportparser.c:60
      ((conf->type == REPORT_TYPE_MOUSE)    && ((report_complete & MOUSE_COMPLETE) == MOUSE_COMPLETE)) ||
    2036:	00f5f513          	andi	a0,a1,15
    203a:	1545                	addi	a0,a0,-15
    203c:	b7fd                	j	202a <report_is_usable+0x18>
C:/Repository/RISKYKVM/firmware/src/User/USB_Host/usb_hid_reportparser.c:60 (discriminator 1)
    203e:	1579                	addi	a0,a0,-2
    2040:	b7ed                	j	202a <report_is_usable+0x18>

00002042 <parse_report_descriptor>:
parse_report_descriptor():
C:/Repository/RISKYKVM/firmware/src/User/USB_Host/usb_hid_reportparser.c:96
  uint8_t btns = 0;
  int8_t hat = -1;
  int8_t wheel = -1;


  while(rep_size) {
    2042:	6791                	lui	a5,0x4
C:/Repository/RISKYKVM/firmware/src/User/USB_Host/usb_hid_reportparser.c:72
int parse_report_descriptor(uint8_t *rep, uint16_t rep_size,hid_report_t *conf) {
    2044:	7159                	addi	sp,sp,-112
    2046:	14478793          	addi	a5,a5,324 # 4144 <memcpy+0xca>
    204a:	c63e                	sw	a5,12(sp)
    204c:	6791                	lui	a5,0x4
    204e:	13078793          	addi	a5,a5,304 # 4130 <memcpy+0xb6>
    2052:	d4a2                	sw	s0,104(sp)
    2054:	d2a6                	sw	s1,100(sp)
    2056:	d0ca                	sw	s2,96(sp)
    2058:	cece                	sw	s3,92(sp)
    205a:	ccd2                	sw	s4,88(sp)
    205c:	cad6                	sw	s5,84(sp)
    205e:	c8da                	sw	s6,80(sp)
    2060:	c6de                	sw	s7,76(sp)
    2062:	c4e2                	sw	s8,72(sp)
    2064:	c2e6                	sw	s9,68(sp)
    2066:	c0ea                	sw	s10,64(sp)
    2068:	de6e                	sw	s11,60(sp)
    206a:	8aaa                	mv	s5,a0
    206c:	89ae                	mv	s3,a1
    206e:	d686                	sw	ra,108(sp)
    2070:	8432                	mv	s0,a2
C:/Repository/RISKYKVM/firmware/src/User/USB_Host/usb_hid_reportparser.c:90
  int8_t axis[2] = { -1, -1};
    2072:	5cfd                	li	s9,-1
    2074:	5dfd                	li	s11,-1
C:/Repository/RISKYKVM/firmware/src/User/USB_Host/usb_hid_reportparser.c:93
  int8_t wheel = -1;
    2076:	56fd                	li	a3,-1
C:/Repository/RISKYKVM/firmware/src/User/USB_Host/usb_hid_reportparser.c:92
  int8_t hat = -1;
    2078:	5d7d                	li	s10,-1
C:/Repository/RISKYKVM/firmware/src/User/USB_Host/usb_hid_reportparser.c:91
  uint8_t btns = 0;
    207a:	4f01                	li	t5,0
C:/Repository/RISKYKVM/firmware/src/User/USB_Host/usb_hid_reportparser.c:87
  uint8_t report_complete = 0;
    207c:	4581                	li	a1,0
C:/Repository/RISKYKVM/firmware/src/User/USB_Host/usb_hid_reportparser.c:83
  uint16_t logical_minimum=0, logical_maximum=0;
    207e:	4e01                	li	t3,0
    2080:	4e81                	li	t4,0
C:/Repository/RISKYKVM/firmware/src/User/USB_Host/usb_hid_reportparser.c:82
  uint16_t bit_count = 0, usage_count = 0;
    2082:	4901                	li	s2,0
    2084:	4501                	li	a0,0
C:/Repository/RISKYKVM/firmware/src/User/USB_Host/usb_hid_reportparser.c:81
  uint8_t report_size = 0, report_count = 0;
    2086:	4301                	li	t1,0
    2088:	4801                	li	a6,0
C:/Repository/RISKYKVM/firmware/src/User/USB_Host/usb_hid_reportparser.c:77
  uint8_t collection_depth = 0;
    208a:	4481                	li	s1,0
C:/Repository/RISKYKVM/firmware/src/User/USB_Host/usb_hid_reportparser.c:76
  int8_t generic_desktop = -1;   // depth at which first gen_desk was found
    208c:	58fd                	li	a7,-1
C:/Repository/RISKYKVM/firmware/src/User/USB_Host/usb_hid_reportparser.c:75
  uint8_t skip_collection = 0;
    208e:	4c01                	li	s8,0
C:/Repository/RISKYKVM/firmware/src/User/USB_Host/usb_hid_reportparser.c:74
  int8_t phys_log_collection = 0;
    2090:	4a01                	li	s4,0
C:/Repository/RISKYKVM/firmware/src/User/USB_Host/usb_hid_reportparser.c:73
  int8_t app_collection = 0;
    2092:	4b01                	li	s6,0
C:/Repository/RISKYKVM/firmware/src/User/USB_Host/usb_hid_reportparser.c:113
     if(size) {      // size 1/2/3
       value = *rep++;
       rep_size--;
     }

     if(size > 1) {  // size 2/3
    2094:	4b85                	li	s7,1
C:/Repository/RISKYKVM/firmware/src/User/USB_Host/usb_hid_reportparser.c:118
       value = (value & 0xff) + ((uint32_t)(*rep++)<<8);
       rep_size--;
     }

     if(size > 2) {  // size 3
    2096:	4f8d                	li	t6,3
    2098:	c83e                	sw	a5,16(sp)
C:/Repository/RISKYKVM/firmware/src/User/USB_Host/usb_hid_reportparser.c:96
  while(rep_size) {
    209a:	00099463          	bnez	s3,20a2 <parse_report_descriptor+0x60>
C:/Repository/RISKYKVM/firmware/src/User/USB_Host/usb_hid_reportparser.c:279
           	    return 0;
           	  }
           	  break;

           	default:
           	  return 0;
    209e:	4501                	li	a0,0
    20a0:	aead                	j	241a <parse_report_descriptor+0x3d8>
C:/Repository/RISKYKVM/firmware/src/User/USB_Host/usb_hid_reportparser.c:98
    uint8_t tag = ((item_t*)rep)->bTag;
    20a2:	000ac283          	lbu	t0,0(s5)
C:/Repository/RISKYKVM/firmware/src/User/USB_Host/usb_hid_reportparser.c:99
    uint8_t type = ((item_t*)rep)->bType;
    20a6:	0022d613          	srli	a2,t0,0x2
C:/Repository/RISKYKVM/firmware/src/User/USB_Host/usb_hid_reportparser.c:98
    uint8_t tag = ((item_t*)rep)->bTag;
    20aa:	0042d713          	srli	a4,t0,0x4
C:/Repository/RISKYKVM/firmware/src/User/USB_Host/usb_hid_reportparser.c:100
    uint8_t size = ((item_t*)rep)->bSize;
    20ae:	0032f293          	andi	t0,t0,3
C:/Repository/RISKYKVM/firmware/src/User/USB_Host/usb_hid_reportparser.c:99
    uint8_t type = ((item_t*)rep)->bType;
    20b2:	8a0d                	andi	a2,a2,3
C:/Repository/RISKYKVM/firmware/src/User/USB_Host/usb_hid_reportparser.c:108
     if(size) {      // size 1/2/3
    20b4:	02029563          	bnez	t0,20de <parse_report_descriptor+0x9c>
C:/Repository/RISKYKVM/firmware/src/User/USB_Host/usb_hid_reportparser.c:103
    rep_size--;   // one byte consumed
    20b8:	19fd                	addi	s3,s3,-1
    20ba:	09c2                	slli	s3,s3,0x10
C:/Repository/RISKYKVM/firmware/src/User/USB_Host/usb_hid_reportparser.c:102
    rep++;
    20bc:	0a85                	addi	s5,s5,1
C:/Repository/RISKYKVM/firmware/src/User/USB_Host/usb_hid_reportparser.c:103
    rep_size--;   // one byte consumed
    20be:	0109d993          	srli	s3,s3,0x10
C:/Repository/RISKYKVM/firmware/src/User/USB_Host/usb_hid_reportparser.c:107
    uint32_t value = 0;
    20c2:	4781                	li	a5,0
C:/Repository/RISKYKVM/firmware/src/User/USB_Host/usb_hid_reportparser.c:127
           if(skip_collection) {
    20c4:	060c0d63          	beqz	s8,213e <parse_report_descriptor+0xfc>
C:/Repository/RISKYKVM/firmware/src/User/USB_Host/usb_hid_reportparser.c:128
             if(!type) {  // main item
    20c8:	fa69                	bnez	a2,209a <parse_report_descriptor+0x58>
C:/Repository/RISKYKVM/firmware/src/User/USB_Host/usb_hid_reportparser.c:130
       				if(tag == 10) {
    20ca:	47a9                	li	a5,10
    20cc:	04f71c63          	bne	a4,a5,2124 <parse_report_descriptor+0xe2>
C:/Repository/RISKYKVM/firmware/src/User/USB_Host/usb_hid_reportparser.c:131
       					skip_collection++;
    20d0:	0c05                	addi	s8,s8,1
C:/Repository/RISKYKVM/firmware/src/User/USB_Host/usb_hid_reportparser.c:132
       					collection_depth++;
    20d2:	0485                	addi	s1,s1,1
C:/Repository/RISKYKVM/firmware/src/User/USB_Host/usb_hid_reportparser.c:131
       					skip_collection++;
    20d4:	0ffc7c13          	andi	s8,s8,255
C:/Repository/RISKYKVM/firmware/src/User/USB_Host/usb_hid_reportparser.c:132
       					collection_depth++;
    20d8:	0ff4f493          	andi	s1,s1,255
C:/Repository/RISKYKVM/firmware/src/User/USB_Host/usb_hid_reportparser.c:136
       				if(tag == 12) {
    20dc:	bf7d                	j	209a <parse_report_descriptor+0x58>
C:/Repository/RISKYKVM/firmware/src/User/USB_Host/usb_hid_reportparser.c:109
       value = *rep++;
    20de:	001ac783          	lbu	a5,1(s5)
C:/Repository/RISKYKVM/firmware/src/User/USB_Host/usb_hid_reportparser.c:113
     if(size > 1) {  // size 2/3
    20e2:	01729863          	bne	t0,s7,20f2 <parse_report_descriptor+0xb0>
C:/Repository/RISKYKVM/firmware/src/User/USB_Host/usb_hid_reportparser.c:109
       value = *rep++;
    20e6:	0a89                	addi	s5,s5,2
C:/Repository/RISKYKVM/firmware/src/User/USB_Host/usb_hid_reportparser.c:110
       rep_size--;
    20e8:	19f9                	addi	s3,s3,-2
C:/Repository/RISKYKVM/firmware/src/User/USB_Host/usb_hid_reportparser.c:115
       rep_size--;
    20ea:	09c2                	slli	s3,s3,0x10
    20ec:	0109d993          	srli	s3,s3,0x10
    20f0:	bfd1                	j	20c4 <parse_report_descriptor+0x82>
C:/Repository/RISKYKVM/firmware/src/User/USB_Host/usb_hid_reportparser.c:114
       value = (value & 0xff) + ((uint32_t)(*rep++)<<8);
    20f2:	002ac383          	lbu	t2,2(s5)
    20f6:	03a2                	slli	t2,t2,0x8
    20f8:	979e                	add	a5,a5,t2
C:/Repository/RISKYKVM/firmware/src/User/USB_Host/usb_hid_reportparser.c:118
     if(size > 2) {  // size 3
    20fa:	01f28563          	beq	t0,t6,2104 <parse_report_descriptor+0xc2>
C:/Repository/RISKYKVM/firmware/src/User/USB_Host/usb_hid_reportparser.c:114
       value = (value & 0xff) + ((uint32_t)(*rep++)<<8);
    20fe:	0a8d                	addi	s5,s5,3
C:/Repository/RISKYKVM/firmware/src/User/USB_Host/usb_hid_reportparser.c:115
       rep_size--;
    2100:	19f5                	addi	s3,s3,-3
    2102:	b7e5                	j	20ea <parse_report_descriptor+0xa8>
C:/Repository/RISKYKVM/firmware/src/User/USB_Host/usb_hid_reportparser.c:120
       value |= ((uint32_t)(*rep++)<<16);
    2104:	003ac283          	lbu	t0,3(s5)
C:/Repository/RISKYKVM/firmware/src/User/USB_Host/usb_hid_reportparser.c:121
       value |= ((uint32_t)(*rep++)<<24);
    2108:	004ac383          	lbu	t2,4(s5)
C:/Repository/RISKYKVM/firmware/src/User/USB_Host/usb_hid_reportparser.c:122
       rep_size-=2;
    210c:	19ed                	addi	s3,s3,-5
C:/Repository/RISKYKVM/firmware/src/User/USB_Host/usb_hid_reportparser.c:120
       value |= ((uint32_t)(*rep++)<<16);
    210e:	02c2                	slli	t0,t0,0x10
C:/Repository/RISKYKVM/firmware/src/User/USB_Host/usb_hid_reportparser.c:121
       value |= ((uint32_t)(*rep++)<<24);
    2110:	03e2                	slli	t2,t2,0x18
    2112:	0072e2b3          	or	t0,t0,t2
C:/Repository/RISKYKVM/firmware/src/User/USB_Host/usb_hid_reportparser.c:122
       rep_size-=2;
    2116:	09c2                	slli	s3,s3,0x10
C:/Repository/RISKYKVM/firmware/src/User/USB_Host/usb_hid_reportparser.c:121
       value |= ((uint32_t)(*rep++)<<24);
    2118:	0057e7b3          	or	a5,a5,t0
C:/Repository/RISKYKVM/firmware/src/User/USB_Host/usb_hid_reportparser.c:122
       rep_size-=2;
    211c:	0109d993          	srli	s3,s3,0x10
C:/Repository/RISKYKVM/firmware/src/User/USB_Host/usb_hid_reportparser.c:121
       value |= ((uint32_t)(*rep++)<<24);
    2120:	0a95                	addi	s5,s5,5
    2122:	b74d                	j	20c4 <parse_report_descriptor+0x82>
C:/Repository/RISKYKVM/firmware/src/User/USB_Host/usb_hid_reportparser.c:136
       				if(tag == 12) {
    2124:	47b1                	li	a5,12
    2126:	f6f71ae3          	bne	a4,a5,209a <parse_report_descriptor+0x58>
C:/Repository/RISKYKVM/firmware/src/User/USB_Host/usb_hid_reportparser.c:138
       					collection_depth--;
    212a:	14fd                	addi	s1,s1,-1
C:/Repository/RISKYKVM/firmware/src/User/USB_Host/usb_hid_reportparser.c:137
       					skip_collection--;
    212c:	1c7d                	addi	s8,s8,-1
C:/Repository/RISKYKVM/firmware/src/User/USB_Host/usb_hid_reportparser.c:138
       					collection_depth--;
    212e:	0ff4f493          	andi	s1,s1,255
C:/Repository/RISKYKVM/firmware/src/User/USB_Host/usb_hid_reportparser.c:137
       					skip_collection--;
    2132:	0ffc7c13          	andi	s8,s8,255
C:/Repository/RISKYKVM/firmware/src/User/USB_Host/usb_hid_reportparser.c:141
       					if(generic_desktop > collection_depth)
    2136:	f714d2e3          	bge	s1,a7,209a <parse_report_descriptor+0x58>
C:/Repository/RISKYKVM/firmware/src/User/USB_Host/usb_hid_reportparser.c:142
       						generic_desktop = -1;
    213a:	58fd                	li	a7,-1
    213c:	bfb9                	j	209a <parse_report_descriptor+0x58>
C:/Repository/RISKYKVM/firmware/src/User/USB_Host/usb_hid_reportparser.c:149
                 switch(type) {
    213e:	1b760b63          	beq	a2,s7,22f4 <parse_report_descriptor+0x2b2>
    2142:	ce01                	beqz	a2,215a <parse_report_descriptor+0x118>
    2144:	4289                	li	t0,2
    2146:	f4561ae3          	bne	a2,t0,209a <parse_report_descriptor+0x58>
C:/Repository/RISKYKVM/firmware/src/User/USB_Host/usb_hid_reportparser.c:343
           	}
           	break;

                 case 2:
           	// local item
           	switch(tag) {
    214a:	2d770163          	beq	a4,s7,240c <parse_report_descriptor+0x3ca>
    214e:	20070863          	beqz	a4,235e <parse_report_descriptor+0x31c>
    2152:	f4c714e3          	bne	a4,a2,209a <parse_report_descriptor+0x58>
C:/Repository/RISKYKVM/firmware/src/User/USB_Host/usb_hid_reportparser.c:409
           	  usage_count -= (value-1);
           	  break;

           	case 2:

           	  usage_count += value;
    2156:	97ca                	add	a5,a5,s2
    2158:	ac6d                	j	2412 <parse_report_descriptor+0x3d0>
C:/Repository/RISKYKVM/firmware/src/User/USB_Host/usb_hid_reportparser.c:153
           	switch(tag) {
    215a:	0721                	addi	a4,a4,8
    215c:	8b3d                	andi	a4,a4,15
    215e:	4611                	li	a2,4
    2160:	f2e66fe3          	bltu	a2,a4,209e <parse_report_descriptor+0x5c>
    2164:	4642                	lw	a2,16(sp)
    2166:	070a                	slli	a4,a4,0x2
    2168:	9732                	add	a4,a4,a2
    216a:	4318                	lw	a4,0(a4)
    216c:	8702                	jr	a4
C:/Repository/RISKYKVM/firmware/src/User/USB_Host/usb_hid_reportparser.c:156
           	  if(btns) {
    216e:	040f0963          	beqz	t5,21c0 <parse_report_descriptor+0x17e>
C:/Repository/RISKYKVM/firmware/src/User/USB_Host/usb_hid_reportparser.c:157
           	    if((conf->type == REPORT_TYPE_JOYSTICK) ||
    2172:	00044783          	lbu	a5,0(s0)
    2176:	8b85                	andi	a5,a5,1
    2178:	c7a1                	beqz	a5,21c0 <parse_report_descriptor+0x17e>
C:/Repository/RISKYKVM/firmware/src/User/USB_Host/usb_hid_reportparser.c:168
           					conf->joystick_mouse.button_count = report_count * report_size;
    217a:	02680f33          	mul	t5,a6,t1
    217e:	01840613          	addi	a2,s0,24
    2182:	4701                	li	a4,0
C:/Repository/RISKYKVM/firmware/src/User/USB_Host/usb_hid_reportparser.c:161
           	      for(b=0;b<12;b++) {
    2184:	42b1                	li	t0,12
C:/Repository/RISKYKVM/firmware/src/User/USB_Host/usb_hid_reportparser.c:168
           					conf->joystick_mouse.button_count = report_count * report_size;
    2186:	0fff7f13          	andi	t5,t5,255
C:/Repository/RISKYKVM/firmware/src/User/USB_Host/usb_hid_reportparser.c:162
           		if(report_count > b) {
    218a:	0ff77793          	andi	a5,a4,255
    218e:	0067ff63          	bgeu	a5,t1,21ac <parse_report_descriptor+0x16a>
C:/Repository/RISKYKVM/firmware/src/User/USB_Host/usb_hid_reportparser.c:163
           		  uint16_t this_bit = bit_count+b;
    2192:	00e507b3          	add	a5,a0,a4
    2196:	07c2                	slli	a5,a5,0x10
    2198:	83c1                	srli	a5,a5,0x10
C:/Repository/RISKYKVM/firmware/src/User/USB_Host/usb_hid_reportparser.c:165
           		  conf->joystick_mouse.button[b].byte_offset = this_bit/8;
    219a:	0037d393          	srli	t2,a5,0x3
C:/Repository/RISKYKVM/firmware/src/User/USB_Host/usb_hid_reportparser.c:166
           		  conf->joystick_mouse.button[b].bitmask = 1 << (this_bit%8);
    219e:	8b9d                	andi	a5,a5,7
    21a0:	00fb97b3          	sll	a5,s7,a5
C:/Repository/RISKYKVM/firmware/src/User/USB_Host/usb_hid_reportparser.c:165
           		  conf->joystick_mouse.button[b].byte_offset = this_bit/8;
    21a4:	00760023          	sb	t2,0(a2)
C:/Repository/RISKYKVM/firmware/src/User/USB_Host/usb_hid_reportparser.c:166
           		  conf->joystick_mouse.button[b].bitmask = 1 << (this_bit%8);
    21a8:	00f600a3          	sb	a5,1(a2)
C:/Repository/RISKYKVM/firmware/src/User/USB_Host/usb_hid_reportparser.c:168 (discriminator 2)
           					conf->joystick_mouse.button_count = report_count * report_size;
    21ac:	0705                	addi	a4,a4,1
    21ae:	0609                	addi	a2,a2,2
C:/Repository/RISKYKVM/firmware/src/User/USB_Host/usb_hid_reportparser.c:161 (discriminator 2)
           	      for(b=0;b<12;b++) {
    21b0:	fc571de3          	bne	a4,t0,218a <parse_report_descriptor+0x148>
    21b4:	03e40e23          	sb	t5,60(s0)
C:/Repository/RISKYKVM/firmware/src/User/USB_Host/usb_hid_reportparser.c:174
           	      if(report_count > 1) report_complete |= JOY_MOUSE_REQ_BTN_1;
    21b8:	066be563          	bltu	s7,t1,2222 <parse_report_descriptor+0x1e0>
C:/Repository/RISKYKVM/firmware/src/User/USB_Host/usb_hid_reportparser.c:173
           	      report_complete |= JOY_MOUSE_REQ_BTN_0;
    21bc:	0045e593          	ori	a1,a1,4
C:/Repository/RISKYKVM/firmware/src/User/USB_Host/usb_hid_reportparser.c:181 (discriminator 1)
           	    if(axis[c] >= 0) {
    21c0:	01081793          	slli	a5,a6,0x10
    21c4:	83c1                	srli	a5,a5,0x10
    21c6:	060dc163          	bltz	s11,2228 <parse_report_descriptor+0x1e6>
C:/Repository/RISKYKVM/firmware/src/User/USB_Host/usb_hid_reportparser.c:184
           	      if((conf->type == REPORT_TYPE_JOYSTICK) || (conf->type == REPORT_TYPE_MOUSE)) {
    21ca:	00044703          	lbu	a4,0(s0)
    21ce:	8b05                	andi	a4,a4,1
    21d0:	c305                	beqz	a4,21f0 <parse_report_descriptor+0x1ae>
C:/Repository/RISKYKVM/firmware/src/User/USB_Host/usb_hid_reportparser.c:182
           	      uint16_t cnt = bit_count + report_size * axis[c];
    21d2:	03b78db3          	mul	s11,a5,s11
C:/Repository/RISKYKVM/firmware/src/User/USB_Host/usb_hid_reportparser.c:188
           		conf->joystick_mouse.axis[c].logical.min = logical_minimum;
    21d6:	01d41623          	sh	t4,12(s0)
C:/Repository/RISKYKVM/firmware/src/User/USB_Host/usb_hid_reportparser.c:189
           		conf->joystick_mouse.axis[c].logical.max = logical_maximum;
    21da:	01c41723          	sh	t3,14(s0)
C:/Repository/RISKYKVM/firmware/src/User/USB_Host/usb_hid_reportparser.c:190
           		conf->joystick_mouse.axis[c].size = report_size;
    21de:	01040523          	sb	a6,10(s0)
C:/Repository/RISKYKVM/firmware/src/User/USB_Host/usb_hid_reportparser.c:191
           		if(c==0) report_complete |= JOY_MOUSE_REQ_AXIS_X;
    21e2:	0015e593          	ori	a1,a1,1
C:/Repository/RISKYKVM/firmware/src/User/USB_Host/usb_hid_reportparser.c:182
           	      uint16_t cnt = bit_count + report_size * axis[c];
    21e6:	9daa                	add	s11,s11,a0
C:/Repository/RISKYKVM/firmware/src/User/USB_Host/usb_hid_reportparser.c:186
           		conf->joystick_mouse.axis[c].offset = cnt;
    21e8:	01b41423          	sh	s11,8(s0)
C:/Repository/RISKYKVM/firmware/src/User/USB_Host/usb_hid_reportparser.c:181
           	    if(axis[c] >= 0) {
    21ec:	040cd463          	bgez	s9,2234 <parse_report_descriptor+0x1f2>
C:/Repository/RISKYKVM/firmware/src/User/USB_Host/usb_hid_reportparser.c:198
           	  if(hat >= 0) {
    21f0:	060d4063          	bltz	s10,2250 <parse_report_descriptor+0x20e>
C:/Repository/RISKYKVM/firmware/src/User/USB_Host/usb_hid_reportparser.c:200
           	    if(conf->type == REPORT_TYPE_JOYSTICK) {
    21f4:	00044703          	lbu	a4,0(s0)
    21f8:	8b0d                	andi	a4,a4,3
    21fa:	05f71b63          	bne	a4,t6,2250 <parse_report_descriptor+0x20e>
C:/Repository/RISKYKVM/firmware/src/User/USB_Host/usb_hid_reportparser.c:199
           	    uint16_t cnt = bit_count + report_size * hat;
    21fe:	03a78d33          	mul	s10,a5,s10
C:/Repository/RISKYKVM/firmware/src/User/USB_Host/usb_hid_reportparser.c:202
           	      conf->joystick_mouse.hat.size = report_size;
    2202:	03040923          	sb	a6,50(s0)
C:/Repository/RISKYKVM/firmware/src/User/USB_Host/usb_hid_reportparser.c:199
           	    uint16_t cnt = bit_count + report_size * hat;
    2206:	9d2a                	add	s10,s10,a0
C:/Repository/RISKYKVM/firmware/src/User/USB_Host/usb_hid_reportparser.c:201
           	      conf->joystick_mouse.hat.offset = cnt;
    2208:	03a41823          	sh	s10,48(s0)
C:/Repository/RISKYKVM/firmware/src/User/USB_Host/usb_hid_reportparser.c:222
           	  bit_count += report_count * report_size;
    220c:	026787b3          	mul	a5,a5,t1
C:/Repository/RISKYKVM/firmware/src/User/USB_Host/usb_hid_reportparser.c:224
           	  btns = 0;
    2210:	4f01                	li	t5,0
C:/Repository/RISKYKVM/firmware/src/User/USB_Host/usb_hid_reportparser.c:225
           	  axis[0] = axis[1] = -1;
    2212:	5cfd                	li	s9,-1
    2214:	5dfd                	li	s11,-1
C:/Repository/RISKYKVM/firmware/src/User/USB_Host/usb_hid_reportparser.c:226
           	  hat = -1;
    2216:	5d7d                	li	s10,-1
C:/Repository/RISKYKVM/firmware/src/User/USB_Host/usb_hid_reportparser.c:222
           	  bit_count += report_count * report_size;
    2218:	953e                	add	a0,a0,a5
    221a:	0542                	slli	a0,a0,0x10
    221c:	8141                	srli	a0,a0,0x10
C:/Repository/RISKYKVM/firmware/src/User/USB_Host/usb_hid_reportparser.c:237
           	  usage_count = 0;
    221e:	4901                	li	s2,0
    2220:	bdad                	j	209a <parse_report_descriptor+0x58>
C:/Repository/RISKYKVM/firmware/src/User/USB_Host/usb_hid_reportparser.c:174 (discriminator 1)
           	      if(report_count > 1) report_complete |= JOY_MOUSE_REQ_BTN_1;
    2222:	00c5e593          	ori	a1,a1,12
    2226:	bf69                	j	21c0 <parse_report_descriptor+0x17e>
C:/Repository/RISKYKVM/firmware/src/User/USB_Host/usb_hid_reportparser.c:181
           	    if(axis[c] >= 0) {
    2228:	fc0cc4e3          	bltz	s9,21f0 <parse_report_descriptor+0x1ae>
C:/Repository/RISKYKVM/firmware/src/User/USB_Host/usb_hid_reportparser.c:184
           	      if((conf->type == REPORT_TYPE_JOYSTICK) || (conf->type == REPORT_TYPE_MOUSE)) {
    222c:	00044703          	lbu	a4,0(s0)
    2230:	8b05                	andi	a4,a4,1
    2232:	df5d                	beqz	a4,21f0 <parse_report_descriptor+0x1ae>
C:/Repository/RISKYKVM/firmware/src/User/USB_Host/usb_hid_reportparser.c:182
           	      uint16_t cnt = bit_count + report_size * axis[c];
    2234:	03978cb3          	mul	s9,a5,s9
C:/Repository/RISKYKVM/firmware/src/User/USB_Host/usb_hid_reportparser.c:188
           		conf->joystick_mouse.axis[c].logical.min = logical_minimum;
    2238:	01d41a23          	sh	t4,20(s0)
C:/Repository/RISKYKVM/firmware/src/User/USB_Host/usb_hid_reportparser.c:189
           		conf->joystick_mouse.axis[c].logical.max = logical_maximum;
    223c:	01c41b23          	sh	t3,22(s0)
C:/Repository/RISKYKVM/firmware/src/User/USB_Host/usb_hid_reportparser.c:190
           		conf->joystick_mouse.axis[c].size = report_size;
    2240:	01040923          	sb	a6,18(s0)
C:/Repository/RISKYKVM/firmware/src/User/USB_Host/usb_hid_reportparser.c:192
           		if(c==1) report_complete |= JOY_MOUSE_REQ_AXIS_Y;
    2244:	0025e593          	ori	a1,a1,2
C:/Repository/RISKYKVM/firmware/src/User/USB_Host/usb_hid_reportparser.c:182
           	      uint16_t cnt = bit_count + report_size * axis[c];
    2248:	9caa                	add	s9,s9,a0
C:/Repository/RISKYKVM/firmware/src/User/USB_Host/usb_hid_reportparser.c:186
           		conf->joystick_mouse.axis[c].offset = cnt;
    224a:	01941823          	sh	s9,16(s0)
C:/Repository/RISKYKVM/firmware/src/User/USB_Host/usb_hid_reportparser.c:192
           		if(c==1) report_complete |= JOY_MOUSE_REQ_AXIS_Y;
    224e:	b74d                	j	21f0 <parse_report_descriptor+0x1ae>
C:/Repository/RISKYKVM/firmware/src/User/USB_Host/usb_hid_reportparser.c:207
           	  if (wheel >=0){
    2250:	fa06cee3          	bltz	a3,220c <parse_report_descriptor+0x1ca>
C:/Repository/RISKYKVM/firmware/src/User/USB_Host/usb_hid_reportparser.c:209
           	     if(conf->type == REPORT_TYPE_MOUSE) {
    2254:	00044703          	lbu	a4,0(s0)
    2258:	8b0d                	andi	a4,a4,3
    225a:	fb7719e3          	bne	a4,s7,220c <parse_report_descriptor+0x1ca>
C:/Repository/RISKYKVM/firmware/src/User/USB_Host/usb_hid_reportparser.c:208
           	     uint16_t cnt = bit_count + report_size * wheel;
    225e:	02d786b3          	mul	a3,a5,a3
C:/Repository/RISKYKVM/firmware/src/User/USB_Host/usb_hid_reportparser.c:211
           	         conf->joystick_mouse.wheel.logical.min = logical_minimum;
    2262:	03d41c23          	sh	t4,56(s0)
C:/Repository/RISKYKVM/firmware/src/User/USB_Host/usb_hid_reportparser.c:212
           	         conf->joystick_mouse.wheel.logical.max = logical_maximum;
    2266:	03c41d23          	sh	t3,58(s0)
C:/Repository/RISKYKVM/firmware/src/User/USB_Host/usb_hid_reportparser.c:213
           	         conf->joystick_mouse.wheel.size = report_size;
    226a:	03040b23          	sb	a6,54(s0)
C:/Repository/RISKYKVM/firmware/src/User/USB_Host/usb_hid_reportparser.c:208
           	     uint16_t cnt = bit_count + report_size * wheel;
    226e:	96aa                	add	a3,a3,a0
C:/Repository/RISKYKVM/firmware/src/User/USB_Host/usb_hid_reportparser.c:210
           	         conf->joystick_mouse.wheel.offset = cnt;
    2270:	02d41a23          	sh	a3,52(s0)
C:/Repository/RISKYKVM/firmware/src/User/USB_Host/usb_hid_reportparser.c:214
           	         wheel = -1;
    2274:	56fd                	li	a3,-1
    2276:	bf59                	j	220c <parse_report_descriptor+0x1ca>
C:/Repository/RISKYKVM/firmware/src/User/USB_Host/usb_hid_reportparser.c:236
           	  collection_depth++;
    2278:	0485                	addi	s1,s1,1
    227a:	0ff4f493          	andi	s1,s1,255
C:/Repository/RISKYKVM/firmware/src/User/USB_Host/usb_hid_reportparser.c:239
           	  if(value == 1) {	   // app collection
    227e:	01779763          	bne	a5,s7,228c <parse_report_descriptor+0x24a>
C:/Repository/RISKYKVM/firmware/src/User/USB_Host/usb_hid_reportparser.c:240
           	    app_collection++;
    2282:	0b05                	addi	s6,s6,1
    2284:	0b62                	slli	s6,s6,0x18
    2286:	418b5b13          	srai	s6,s6,0x18
    228a:	bf51                	j	221e <parse_report_descriptor+0x1dc>
C:/Repository/RISKYKVM/firmware/src/User/USB_Host/usb_hid_reportparser.c:241
           	  } else if(value == 0) {  // physical collection
    228c:	e791                	bnez	a5,2298 <parse_report_descriptor+0x256>
C:/Repository/RISKYKVM/firmware/src/User/USB_Host/usb_hid_reportparser.c:245
           	    phys_log_collection++;
    228e:	0a05                	addi	s4,s4,1
    2290:	0a62                	slli	s4,s4,0x18
    2292:	418a5a13          	srai	s4,s4,0x18
    2296:	b761                	j	221e <parse_report_descriptor+0x1dc>
C:/Repository/RISKYKVM/firmware/src/User/USB_Host/usb_hid_reportparser.c:244
           	  } else if(value == 2) {  // logical collection
    2298:	4709                	li	a4,2
    229a:	fee78ae3          	beq	a5,a4,228e <parse_report_descriptor+0x24c>
C:/Repository/RISKYKVM/firmware/src/User/USB_Host/usb_hid_reportparser.c:237
           	  usage_count = 0;
    229e:	4901                	li	s2,0
C:/Repository/RISKYKVM/firmware/src/User/USB_Host/usb_hid_reportparser.c:247
           	    skip_collection++;
    22a0:	4c05                	li	s8,1
    22a2:	bbe5                	j	209a <parse_report_descriptor+0x58>
C:/Repository/RISKYKVM/firmware/src/User/USB_Host/usb_hid_reportparser.c:252
           	  collection_depth--;
    22a4:	14fd                	addi	s1,s1,-1
    22a6:	0ff4f493          	andi	s1,s1,255
C:/Repository/RISKYKVM/firmware/src/User/USB_Host/usb_hid_reportparser.c:255
           	  if(generic_desktop > collection_depth)
    22aa:	0114d363          	bge	s1,a7,22b0 <parse_report_descriptor+0x26e>
C:/Repository/RISKYKVM/firmware/src/User/USB_Host/usb_hid_reportparser.c:256
           	    generic_desktop = -1;
    22ae:	58fd                	li	a7,-1
C:/Repository/RISKYKVM/firmware/src/User/USB_Host/usb_hid_reportparser.c:258
           	  if(phys_log_collection) {
    22b0:	000a0763          	beqz	s4,22be <parse_report_descriptor+0x27c>
C:/Repository/RISKYKVM/firmware/src/User/USB_Host/usb_hid_reportparser.c:260
           	    phys_log_collection--;
    22b4:	1a7d                	addi	s4,s4,-1
    22b6:	0a62                	slli	s4,s4,0x18
    22b8:	418a5a13          	srai	s4,s4,0x18
    22bc:	bbf9                	j	209a <parse_report_descriptor+0x58>
    22be:	d636                	sw	a3,44(sp)
    22c0:	d446                	sw	a7,40(sp)
    22c2:	d27a                	sw	t5,36(sp)
    22c4:	d076                	sw	t4,32(sp)
    22c6:	ce1a                	sw	t1,28(sp)
    22c8:	cc72                	sw	t3,24(sp)
    22ca:	ca42                	sw	a6,20(sp)
C:/Repository/RISKYKVM/firmware/src/User/USB_Host/usb_hid_reportparser.c:261
           	  } else if(app_collection) {
    22cc:	dc0b09e3          	beqz	s6,209e <parse_report_descriptor+0x5c>
C:/Repository/RISKYKVM/firmware/src/User/USB_Host/usb_hid_reportparser.c:263
           	    app_collection--;
    22d0:	1b7d                	addi	s6,s6,-1
    22d2:	0b62                	slli	s6,s6,0x18
C:/Repository/RISKYKVM/firmware/src/User/USB_Host/usb_hid_reportparser.c:265
           	     if(report_is_usable(bit_count, report_complete, conf))
    22d4:	8622                	mv	a2,s0
C:/Repository/RISKYKVM/firmware/src/User/USB_Host/usb_hid_reportparser.c:263
           	    app_collection--;
    22d6:	418b5b13          	srai	s6,s6,0x18
C:/Repository/RISKYKVM/firmware/src/User/USB_Host/usb_hid_reportparser.c:265
           	     if(report_is_usable(bit_count, report_complete, conf))
    22da:	3b25                	jal	2012 <report_is_usable>
    22dc:	12051e63          	bnez	a0,2418 <parse_report_descriptor+0x3d6>
C:/Repository/RISKYKVM/firmware/src/User/USB_Host/usb_hid_reportparser.c:270
           	      report_complete = 0;
    22e0:	4581                	li	a1,0
    22e2:	4852                	lw	a6,20(sp)
    22e4:	4e62                	lw	t3,24(sp)
    22e6:	4372                	lw	t1,28(sp)
    22e8:	5e82                	lw	t4,32(sp)
    22ea:	5f12                	lw	t5,36(sp)
    22ec:	58a2                	lw	a7,40(sp)
    22ee:	56b2                	lw	a3,44(sp)
    22f0:	4f8d                	li	t6,3
    22f2:	b365                	j	209a <parse_report_descriptor+0x58>
C:/Repository/RISKYKVM/firmware/src/User/USB_Host/usb_hid_reportparser.c:286
           	switch(tag) {
    22f4:	4625                	li	a2,9
    22f6:	dae664e3          	bltu	a2,a4,209e <parse_report_descriptor+0x5c>
    22fa:	4632                	lw	a2,12(sp)
    22fc:	070a                	slli	a4,a4,0x2
    22fe:	9732                	add	a4,a4,a2
    2300:	4318                	lw	a4,0(a4)
    2302:	8702                	jr	a4
C:/Repository/RISKYKVM/firmware/src/User/USB_Host/usb_hid_reportparser.c:290
           	  } else if(value == USAGE_PAGE_GAMING) {
    2304:	ffb78613          	addi	a2,a5,-5
    2308:	471d                	li	a4,7
    230a:	00c76e63          	bltu	a4,a2,2326 <parse_report_descriptor+0x2e4>
    230e:	08d00713          	li	a4,141
    2312:	00c75733          	srl	a4,a4,a2
    2316:	8b05                	andi	a4,a4,1
    2318:	d80711e3          	bnez	a4,209a <parse_report_descriptor+0x58>
C:/Repository/RISKYKVM/firmware/src/User/USB_Host/usb_hid_reportparser.c:293
           	  } else if(value == USAGE_PAGE_BUTTON) {
    231c:	4725                	li	a4,9
    231e:	d6e79ee3          	bne	a5,a4,209a <parse_report_descriptor+0x58>
C:/Repository/RISKYKVM/firmware/src/User/USB_Host/usb_hid_reportparser.c:294
           	    btns = 1;
    2322:	4f05                	li	t5,1
    2324:	bb9d                	j	209a <parse_report_descriptor+0x58>
C:/Repository/RISKYKVM/firmware/src/User/USB_Host/usb_hid_reportparser.c:295
           	  } else if(value == USAGE_PAGE_GENERIC_DESKTOP) {
    2326:	d7779ae3          	bne	a5,s7,209a <parse_report_descriptor+0x58>
C:/Repository/RISKYKVM/firmware/src/User/USB_Host/usb_hid_reportparser.c:296
           	    if(generic_desktop < 0)
    232a:	d608d8e3          	bgez	a7,209a <parse_report_descriptor+0x58>
C:/Repository/RISKYKVM/firmware/src/User/USB_Host/usb_hid_reportparser.c:297
           	      generic_desktop = collection_depth;
    232e:	01849893          	slli	a7,s1,0x18
    2332:	4188d893          	srai	a7,a7,0x18
    2336:	b395                	j	209a <parse_report_descriptor+0x58>
C:/Repository/RISKYKVM/firmware/src/User/USB_Host/usb_hid_reportparser.c:304
           	  logical_minimum = value;
    2338:	01079e93          	slli	t4,a5,0x10
    233c:	010ede93          	srli	t4,t4,0x10
C:/Repository/RISKYKVM/firmware/src/User/USB_Host/usb_hid_reportparser.c:305
           	  break;
    2340:	bba9                	j	209a <parse_report_descriptor+0x58>
C:/Repository/RISKYKVM/firmware/src/User/USB_Host/usb_hid_reportparser.c:308
           	  logical_maximum = value;
    2342:	01079e13          	slli	t3,a5,0x10
    2346:	010e5e13          	srli	t3,t3,0x10
C:/Repository/RISKYKVM/firmware/src/User/USB_Host/usb_hid_reportparser.c:309
           	  break;
    234a:	bb81                	j	209a <parse_report_descriptor+0x58>
C:/Repository/RISKYKVM/firmware/src/User/USB_Host/usb_hid_reportparser.c:324
           	  report_size = value;
    234c:	0ff7f813          	andi	a6,a5,255
C:/Repository/RISKYKVM/firmware/src/User/USB_Host/usb_hid_reportparser.c:325
           		break;
    2350:	b3a9                	j	209a <parse_report_descriptor+0x58>
C:/Repository/RISKYKVM/firmware/src/User/USB_Host/usb_hid_reportparser.c:328
           	  conf->report_id = value;
    2352:	00f400a3          	sb	a5,1(s0)
C:/Repository/RISKYKVM/firmware/src/User/USB_Host/usb_hid_reportparser.c:329
           	  break;
    2356:	b391                	j	209a <parse_report_descriptor+0x58>
C:/Repository/RISKYKVM/firmware/src/User/USB_Host/usb_hid_reportparser.c:332
           		report_count = value;
    2358:	0ff7f313          	andi	t1,a5,255
C:/Repository/RISKYKVM/firmware/src/User/USB_Host/usb_hid_reportparser.c:333
           	  break;
    235c:	bb3d                	j	209a <parse_report_descriptor+0x58>
C:/Repository/RISKYKVM/firmware/src/User/USB_Host/usb_hid_reportparser.c:347
           	  if( !collection_depth && (value == USAGE_KEYBOARD)) {
    235e:	e0a9                	bnez	s1,23a0 <parse_report_descriptor+0x35e>
C:/Repository/RISKYKVM/firmware/src/User/USB_Host/usb_hid_reportparser.c:347 (discriminator 1)
    2360:	4719                	li	a4,6
    2362:	00e79e63          	bne	a5,a4,237e <parse_report_descriptor+0x33c>
C:/Repository/RISKYKVM/firmware/src/User/USB_Host/usb_hid_reportparser.c:349
           	    conf->type = REPORT_TYPE_KEYBOARD;
    2366:	00044783          	lbu	a5,0(s0)
    236a:	9bf1                	andi	a5,a5,-4
    236c:	0027e793          	ori	a5,a5,2
C:/Repository/RISKYKVM/firmware/src/User/USB_Host/usb_hid_reportparser.c:354
           	    conf->type = REPORT_TYPE_MOUSE;
    2370:	00f40023          	sb	a5,0(s0)
C:/Repository/RISKYKVM/firmware/src/User/USB_Host/usb_hid_reportparser.c:399
           	  usage_count++;
    2374:	0905                	addi	s2,s2,1
    2376:	0942                	slli	s2,s2,0x10
C:/Repository/RISKYKVM/firmware/src/User/USB_Host/usb_hid_reportparser.c:409
           	  usage_count += value;
    2378:	01095913          	srli	s2,s2,0x10
C:/Repository/RISKYKVM/firmware/src/User/USB_Host/usb_hid_reportparser.c:410
           	  break;
    237c:	bb39                	j	209a <parse_report_descriptor+0x58>
C:/Repository/RISKYKVM/firmware/src/User/USB_Host/usb_hid_reportparser.c:352 (discriminator 1)
           	  else if(!collection_depth && (value == USAGE_MOUSE)) {
    237e:	00c79863          	bne	a5,a2,238e <parse_report_descriptor+0x34c>
C:/Repository/RISKYKVM/firmware/src/User/USB_Host/usb_hid_reportparser.c:354
           	    conf->type = REPORT_TYPE_MOUSE;
    2382:	00044783          	lbu	a5,0(s0)
    2386:	9bf1                	andi	a5,a5,-4
    2388:	0017e793          	ori	a5,a5,1
    238c:	b7d5                	j	2370 <parse_report_descriptor+0x32e>
C:/Repository/RISKYKVM/firmware/src/User/USB_Host/usb_hid_reportparser.c:358 (discriminator 1)
           		    ((value == USAGE_GAMEPAD) || (value == USAGE_JOYSTICK))) {
    238e:	ffc78713          	addi	a4,a5,-4
C:/Repository/RISKYKVM/firmware/src/User/USB_Host/usb_hid_reportparser.c:357 (discriminator 1)
           	  else if(!collection_depth &&
    2392:	00ebe763          	bltu	s7,a4,23a0 <parse_report_descriptor+0x35e>
C:/Repository/RISKYKVM/firmware/src/User/USB_Host/usb_hid_reportparser.c:359
           	    conf->type = REPORT_TYPE_JOYSTICK;
    2396:	00044783          	lbu	a5,0(s0)
    239a:	0037e793          	ori	a5,a5,3
    239e:	bfc9                	j	2370 <parse_report_descriptor+0x32e>
C:/Repository/RISKYKVM/firmware/src/User/USB_Host/usb_hid_reportparser.c:362
           	  else if(value == USAGE_POINTER && app_collection) {
    23a0:	fd778ae3          	beq	a5,s7,2374 <parse_report_descriptor+0x332>
C:/Repository/RISKYKVM/firmware/src/User/USB_Host/usb_hid_reportparser.c:366
           	  else if((value == USAGE_X || value == USAGE_Y) && app_collection) {
    23a4:	fd078713          	addi	a4,a5,-48
    23a8:	02ebe363          	bltu	s7,a4,23ce <parse_report_descriptor+0x38c>
C:/Repository/RISKYKVM/firmware/src/User/USB_Host/usb_hid_reportparser.c:366 (discriminator 1)
    23ac:	fc0b04e3          	beqz	s6,2374 <parse_report_descriptor+0x332>
C:/Repository/RISKYKVM/firmware/src/User/USB_Host/usb_hid_reportparser.c:371
           	    if((conf->type == REPORT_TYPE_JOYSTICK) || (conf->type == REPORT_TYPE_MOUSE)) {
    23b0:	00044703          	lbu	a4,0(s0)
    23b4:	8b05                	andi	a4,a4,1
    23b6:	df5d                	beqz	a4,2374 <parse_report_descriptor+0x332>
C:/Repository/RISKYKVM/firmware/src/User/USB_Host/usb_hid_reportparser.c:372
           	      if(value == USAGE_X) {
    23b8:	01891713          	slli	a4,s2,0x18
    23bc:	03000613          	li	a2,48
    23c0:	8761                	srai	a4,a4,0x18
    23c2:	00c79463          	bne	a5,a2,23ca <parse_report_descriptor+0x388>
C:/Repository/RISKYKVM/firmware/src/User/USB_Host/usb_hid_reportparser.c:373
           		axis[0] = usage_count;
    23c6:	8dba                	mv	s11,a4
C:/Repository/RISKYKVM/firmware/src/User/USB_Host/usb_hid_reportparser.c:375
           	      if(value == USAGE_Y) {
    23c8:	b775                	j	2374 <parse_report_descriptor+0x332>
C:/Repository/RISKYKVM/firmware/src/User/USB_Host/usb_hid_reportparser.c:376
           		axis[1] = usage_count;
    23ca:	8cba                	mv	s9,a4
    23cc:	b765                	j	2374 <parse_report_descriptor+0x332>
C:/Repository/RISKYKVM/firmware/src/User/USB_Host/usb_hid_reportparser.c:381
           	  else if((value == USAGE_HAT) && app_collection) {
    23ce:	03900713          	li	a4,57
    23d2:	00e79e63          	bne	a5,a4,23ee <parse_report_descriptor+0x3ac>
C:/Repository/RISKYKVM/firmware/src/User/USB_Host/usb_hid_reportparser.c:381 (discriminator 1)
    23d6:	f80b0fe3          	beqz	s6,2374 <parse_report_descriptor+0x332>
C:/Repository/RISKYKVM/firmware/src/User/USB_Host/usb_hid_reportparser.c:384
           	    if(conf->type == REPORT_TYPE_JOYSTICK) {
    23da:	00044783          	lbu	a5,0(s0)
    23de:	8b8d                	andi	a5,a5,3
    23e0:	f9f79ae3          	bne	a5,t6,2374 <parse_report_descriptor+0x332>
C:/Repository/RISKYKVM/firmware/src/User/USB_Host/usb_hid_reportparser.c:386
           	      hat = usage_count;
    23e4:	01891d13          	slli	s10,s2,0x18
    23e8:	418d5d13          	srai	s10,s10,0x18
    23ec:	b761                	j	2374 <parse_report_descriptor+0x332>
C:/Repository/RISKYKVM/firmware/src/User/USB_Host/usb_hid_reportparser.c:390
           	  else if((value== USAGE_WHEEL) && app_collection) {
    23ee:	03800713          	li	a4,56
    23f2:	f8e791e3          	bne	a5,a4,2374 <parse_report_descriptor+0x332>
C:/Repository/RISKYKVM/firmware/src/User/USB_Host/usb_hid_reportparser.c:390 (discriminator 1)
    23f6:	f60b0fe3          	beqz	s6,2374 <parse_report_descriptor+0x332>
C:/Repository/RISKYKVM/firmware/src/User/USB_Host/usb_hid_reportparser.c:392
           	                if(conf->type == REPORT_TYPE_MOUSE) {
    23fa:	00044783          	lbu	a5,0(s0)
    23fe:	8b8d                	andi	a5,a5,3
    2400:	f7779ae3          	bne	a5,s7,2374 <parse_report_descriptor+0x332>
C:/Repository/RISKYKVM/firmware/src/User/USB_Host/usb_hid_reportparser.c:394
           	                  wheel = usage_count;
    2404:	01891693          	slli	a3,s2,0x18
    2408:	86e1                	srai	a3,a3,0x18
    240a:	b7ad                	j	2374 <parse_report_descriptor+0x332>
C:/Repository/RISKYKVM/firmware/src/User/USB_Host/usb_hid_reportparser.c:404
           	  usage_count -= (value-1);
    240c:	0905                	addi	s2,s2,1
    240e:	40f907b3          	sub	a5,s2,a5
C:/Repository/RISKYKVM/firmware/src/User/USB_Host/usb_hid_reportparser.c:409
           	  usage_count += value;
    2412:	01079913          	slli	s2,a5,0x10
    2416:	b78d                	j	2378 <parse_report_descriptor+0x336>
C:/Repository/RISKYKVM/firmware/src/User/USB_Host/usb_hid_reportparser.c:266
           	      return 1;
    2418:	4505                	li	a0,1
C:/Repository/RISKYKVM/firmware/src/User/USB_Host/usb_hid_reportparser.c:428
               }
             }

             // if we get here then no usable setup was found
             return 0;
           }
    241a:	50b6                	lw	ra,108(sp)
    241c:	5426                	lw	s0,104(sp)
    241e:	5496                	lw	s1,100(sp)
    2420:	5906                	lw	s2,96(sp)
    2422:	49f6                	lw	s3,92(sp)
    2424:	4a66                	lw	s4,88(sp)
    2426:	4ad6                	lw	s5,84(sp)
    2428:	4b46                	lw	s6,80(sp)
    242a:	4bb6                	lw	s7,76(sp)
    242c:	4c26                	lw	s8,72(sp)
    242e:	4c96                	lw	s9,68(sp)
    2430:	4d06                	lw	s10,64(sp)
    2432:	5df2                	lw	s11,60(sp)
    2434:	6165                	addi	sp,sp,112
    2436:	8082                	ret

00002438 <HID_GetHidDesr>:
HID_GetHidDesr():
C:/Repository/RISKYKVM/firmware/src/User/USB_Host/usb_host_hid.c:31
 *
 * @return  none
 */
uint8_t HID_GetHidDesr( uint8_t ep0_size, uint8_t intf_num, uint8_t *pbuf, uint16_t *plen )
{
    memcpy( pUSBFS_SetupRequest, SetupGetHidDes, sizeof( USB_SETUP_REQ ) );
    2438:	83818713          	addi	a4,gp,-1992 # 20000038 <SetupGetHidDes>
C:/Repository/RISKYKVM/firmware/src/User/USB_Host/usb_host_hid.c:30
{
    243c:	8832                	mv	a6,a2
C:/Repository/RISKYKVM/firmware/src/User/USB_Host/usb_host_hid.c:31
    memcpy( pUSBFS_SetupRequest, SetupGetHidDes, sizeof( USB_SETUP_REQ ) );
    243e:	4310                	lw	a2,0(a4)
    2440:	4358                	lw	a4,4(a4)
    2442:	200027b7          	lui	a5,0x20002
    2446:	aac7a023          	sw	a2,-1376(a5) # 20001aa0 <USBFS_TX_Buf>
    244a:	aa078793          	addi	a5,a5,-1376
    244e:	c3d8                	sw	a4,4(a5)
C:/Repository/RISKYKVM/firmware/src/User/USB_Host/usb_host_hid.c:32
    pUSBFS_SetupRequest->wIndex = (uint16_t)intf_num;
    2450:	00b79223          	sh	a1,4(a5)
C:/Repository/RISKYKVM/firmware/src/User/USB_Host/usb_host_hid.c:33
    pUSBFS_SetupRequest->wLength = *plen;
    2454:	0006d703          	lhu	a4,0(a3)
C:/Repository/RISKYKVM/firmware/src/User/USB_Host/usb_host_hid.c:34
    return USBFSH_CtrlTransfer( ep0_size, pbuf, plen );
    2458:	8636                	mv	a2,a3
    245a:	85c2                	mv	a1,a6
C:/Repository/RISKYKVM/firmware/src/User/USB_Host/usb_host_hid.c:33
    pUSBFS_SetupRequest->wLength = *plen;
    245c:	00e79323          	sh	a4,6(a5)
C:/Repository/RISKYKVM/firmware/src/User/USB_Host/usb_host_hid.c:34
    return USBFSH_CtrlTransfer( ep0_size, pbuf, plen );
    2460:	d30ff06f          	j	1990 <USBFSH_CtrlTransfer>

00002464 <HID_SetReport>:
HID_SetReport():
C:/Repository/RISKYKVM/firmware/src/User/USB_Host/usb_host_hid.c:50
 *
 * @return  none
 */
uint8_t HID_SetReport( uint8_t ep0_size, uint8_t intf_num, uint8_t *pbuf, uint16_t *plen )
{
    memcpy( pUSBFS_SetupRequest, SetupSetReport, sizeof( USB_SETUP_REQ ) );
    2464:	84018713          	addi	a4,gp,-1984 # 20000040 <SetupSetReport>
C:/Repository/RISKYKVM/firmware/src/User/USB_Host/usb_host_hid.c:49
{
    2468:	8832                	mv	a6,a2
C:/Repository/RISKYKVM/firmware/src/User/USB_Host/usb_host_hid.c:50
    memcpy( pUSBFS_SetupRequest, SetupSetReport, sizeof( USB_SETUP_REQ ) );
    246a:	4310                	lw	a2,0(a4)
    246c:	4358                	lw	a4,4(a4)
    246e:	200027b7          	lui	a5,0x20002
    2472:	aac7a023          	sw	a2,-1376(a5) # 20001aa0 <USBFS_TX_Buf>
    2476:	aa078793          	addi	a5,a5,-1376
    247a:	c3d8                	sw	a4,4(a5)
C:/Repository/RISKYKVM/firmware/src/User/USB_Host/usb_host_hid.c:51
    pUSBFS_SetupRequest->wIndex = (uint16_t)intf_num;
    247c:	00b79223          	sh	a1,4(a5)
C:/Repository/RISKYKVM/firmware/src/User/USB_Host/usb_host_hid.c:52
    return USBFSH_CtrlTransfer( ep0_size, pbuf, plen );
    2480:	8636                	mv	a2,a3
    2482:	85c2                	mv	a1,a6
    2484:	d0cff06f          	j	1990 <USBFSH_CtrlTransfer>

00002488 <HID_SetIdle>:
HID_SetIdle():
C:/Repository/RISKYKVM/firmware/src/User/USB_Host/usb_host_hid.c:67
 *
 * @return  none
 */
uint8_t HID_SetIdle( uint8_t ep0_size, uint8_t intf_num, uint8_t duration, uint8_t reportid )
{
    memcpy( pUSBFS_SetupRequest, SetupSetidle, sizeof( USB_SETUP_REQ ) );
    2488:	84818713          	addi	a4,gp,-1976 # 20000048 <SetupSetidle>
    248c:	00072803          	lw	a6,0(a4)
    2490:	4358                	lw	a4,4(a4)
    2492:	200027b7          	lui	a5,0x20002
    2496:	ab07a023          	sw	a6,-1376(a5) # 20001aa0 <USBFS_TX_Buf>
C:/Repository/RISKYKVM/firmware/src/User/USB_Host/usb_host_hid.c:68
    pUSBFS_SetupRequest->wValue = ( (uint16_t)duration << 8 ) | reportid;
    249a:	0622                	slli	a2,a2,0x8
C:/Repository/RISKYKVM/firmware/src/User/USB_Host/usb_host_hid.c:67
    memcpy( pUSBFS_SetupRequest, SetupSetidle, sizeof( USB_SETUP_REQ ) );
    249c:	aa078793          	addi	a5,a5,-1376
C:/Repository/RISKYKVM/firmware/src/User/USB_Host/usb_host_hid.c:68
    pUSBFS_SetupRequest->wValue = ( (uint16_t)duration << 8 ) | reportid;
    24a0:	8ed1                	or	a3,a3,a2
C:/Repository/RISKYKVM/firmware/src/User/USB_Host/usb_host_hid.c:67
    memcpy( pUSBFS_SetupRequest, SetupSetidle, sizeof( USB_SETUP_REQ ) );
    24a2:	c3d8                	sw	a4,4(a5)
C:/Repository/RISKYKVM/firmware/src/User/USB_Host/usb_host_hid.c:69
    pUSBFS_SetupRequest->wIndex = (uint16_t)intf_num;
    24a4:	00b79223          	sh	a1,4(a5)
C:/Repository/RISKYKVM/firmware/src/User/USB_Host/usb_host_hid.c:68
    pUSBFS_SetupRequest->wValue = ( (uint16_t)duration << 8 ) | reportid;
    24a8:	00d79123          	sh	a3,2(a5)
C:/Repository/RISKYKVM/firmware/src/User/USB_Host/usb_host_hid.c:70
    return USBFSH_CtrlTransfer( ep0_size, NULL, NULL );
    24ac:	4601                	li	a2,0
    24ae:	4581                	li	a1,0
    24b0:	ce0ff06f          	j	1990 <USBFSH_CtrlTransfer>

000024b4 <HUB_GetPortStatus>:
HUB_GetPortStatus():
C:/Repository/RISKYKVM/firmware/src/User/USB_Host/usb_host_hub.c:31
 */
uint8_t HUB_GetPortStatus( uint8_t hub_ep0_size, uint8_t hub_port, uint8_t *pbuf )
{
    uint16_t len;
   
    memcpy( pUSBFS_SetupRequest, GetPortStatus, sizeof( USB_SETUP_REQ ) );
    24b4:	86018713          	addi	a4,gp,-1952 # 20000060 <GetPortStatus>
C:/Repository/RISKYKVM/firmware/src/User/USB_Host/usb_host_hub.c:28
{
    24b8:	86b2                	mv	a3,a2
C:/Repository/RISKYKVM/firmware/src/User/USB_Host/usb_host_hub.c:31
    memcpy( pUSBFS_SetupRequest, GetPortStatus, sizeof( USB_SETUP_REQ ) );
    24ba:	4310                	lw	a2,0(a4)
    24bc:	4358                	lw	a4,4(a4)
C:/Repository/RISKYKVM/firmware/src/User/USB_Host/usb_host_hub.c:28
{
    24be:	1101                	addi	sp,sp,-32
C:/Repository/RISKYKVM/firmware/src/User/USB_Host/usb_host_hub.c:31
    memcpy( pUSBFS_SetupRequest, GetPortStatus, sizeof( USB_SETUP_REQ ) );
    24c0:	200027b7          	lui	a5,0x20002
C:/Repository/RISKYKVM/firmware/src/User/USB_Host/usb_host_hub.c:28
{
    24c4:	ce06                	sw	ra,28(sp)
C:/Repository/RISKYKVM/firmware/src/User/USB_Host/usb_host_hub.c:31
    memcpy( pUSBFS_SetupRequest, GetPortStatus, sizeof( USB_SETUP_REQ ) );
    24c6:	aac7a023          	sw	a2,-1376(a5) # 20001aa0 <USBFS_TX_Buf>
    24ca:	aa078793          	addi	a5,a5,-1376
    24ce:	c3d8                	sw	a4,4(a5)
C:/Repository/RISKYKVM/firmware/src/User/USB_Host/usb_host_hub.c:32
    pUSBFS_SetupRequest->wIndex = (uint16_t)hub_port;
    24d0:	00b79223          	sh	a1,4(a5)
C:/Repository/RISKYKVM/firmware/src/User/USB_Host/usb_host_hub.c:33
    return USBFSH_CtrlTransfer( hub_ep0_size, pbuf, &len );
    24d4:	00e10613          	addi	a2,sp,14
    24d8:	85b6                	mv	a1,a3
    24da:	cb6ff0ef          	jal	ra,1990 <USBFSH_CtrlTransfer>
C:/Repository/RISKYKVM/firmware/src/User/USB_Host/usb_host_hub.c:34
}
    24de:	40f2                	lw	ra,28(sp)
    24e0:	6105                	addi	sp,sp,32
    24e2:	8082                	ret

000024e4 <HUB_ClearPortFeature>:
HUB_ClearPortFeature():
C:/Repository/RISKYKVM/firmware/src/User/USB_Host/usb_host_hub.c:47
 *
 * @return  none
 */
uint8_t HUB_ClearPortFeature( uint8_t hub_ep0_size, uint8_t hub_port, uint8_t selector )
{
    memcpy( pUSBFS_SetupRequest, ClearPortFeature, sizeof( USB_SETUP_REQ ) );
    24e4:	85018713          	addi	a4,gp,-1968 # 20000050 <ClearPortFeature>
    24e8:	4314                	lw	a3,0(a4)
    24ea:	4358                	lw	a4,4(a4)
    24ec:	200027b7          	lui	a5,0x20002
    24f0:	aad7a023          	sw	a3,-1376(a5) # 20001aa0 <USBFS_TX_Buf>
    24f4:	aa078793          	addi	a5,a5,-1376
    24f8:	c3d8                	sw	a4,4(a5)
C:/Repository/RISKYKVM/firmware/src/User/USB_Host/usb_host_hub.c:48
    pUSBFS_SetupRequest->wValue = (uint16_t)selector;
    24fa:	00c79123          	sh	a2,2(a5)
C:/Repository/RISKYKVM/firmware/src/User/USB_Host/usb_host_hub.c:49
    pUSBFS_SetupRequest->wIndex = (uint16_t)hub_port;
    24fe:	00b79223          	sh	a1,4(a5)
C:/Repository/RISKYKVM/firmware/src/User/USB_Host/usb_host_hub.c:50
    return USBFSH_CtrlTransfer( hub_ep0_size, NULL, NULL );
    2502:	4601                	li	a2,0
    2504:	4581                	li	a1,0
    2506:	c8aff06f          	j	1990 <USBFSH_CtrlTransfer>

0000250a <HUB_SetPortFeature>:
HUB_SetPortFeature():
C:/Repository/RISKYKVM/firmware/src/User/USB_Host/usb_host_hub.c:64
 *
 * @return  none
 */
uint8_t HUB_SetPortFeature( uint8_t hub_ep0_size, uint8_t hub_port, uint8_t selector )
{
    memcpy( pUSBFS_SetupRequest, SetPortFeature, sizeof( USB_SETUP_REQ ) );
    250a:	86818713          	addi	a4,gp,-1944 # 20000068 <SetPortFeature>
    250e:	4314                	lw	a3,0(a4)
    2510:	4358                	lw	a4,4(a4)
    2512:	200027b7          	lui	a5,0x20002
    2516:	aad7a023          	sw	a3,-1376(a5) # 20001aa0 <USBFS_TX_Buf>
    251a:	aa078793          	addi	a5,a5,-1376
    251e:	c3d8                	sw	a4,4(a5)
C:/Repository/RISKYKVM/firmware/src/User/USB_Host/usb_host_hub.c:65
    pUSBFS_SetupRequest->wValue = (uint16_t)selector;
    2520:	00c79123          	sh	a2,2(a5)
C:/Repository/RISKYKVM/firmware/src/User/USB_Host/usb_host_hub.c:66
    pUSBFS_SetupRequest->wIndex = (uint16_t)hub_port;
    2524:	00b79223          	sh	a1,4(a5)
C:/Repository/RISKYKVM/firmware/src/User/USB_Host/usb_host_hub.c:67
    return USBFSH_CtrlTransfer( hub_ep0_size, NULL, NULL );
    2528:	4601                	li	a2,0
    252a:	4581                	li	a1,0
    252c:	c64ff06f          	j	1990 <USBFSH_CtrlTransfer>

00002530 <HUB_GetClassDevDescr>:
HUB_GetClassDevDescr():
C:/Repository/RISKYKVM/firmware/src/User/USB_Host/usb_host_hub.c:83
 */
uint8_t HUB_GetClassDevDescr( uint8_t hub_ep0_size, uint8_t *pbuf, uint16_t *plen )
{
    uint8_t s;
    
    memcpy( pUSBFS_SetupRequest, GetHubDescr, sizeof( USB_SETUP_REQ ) );
    2530:	85818793          	addi	a5,gp,-1960 # 20000058 <GetHubDescr>
    2534:	4398                	lw	a4,0(a5)
C:/Repository/RISKYKVM/firmware/src/User/USB_Host/usb_host_hub.c:80
{
    2536:	1101                	addi	sp,sp,-32
C:/Repository/RISKYKVM/firmware/src/User/USB_Host/usb_host_hub.c:83
    memcpy( pUSBFS_SetupRequest, GetHubDescr, sizeof( USB_SETUP_REQ ) );
    2538:	43dc                	lw	a5,4(a5)
C:/Repository/RISKYKVM/firmware/src/User/USB_Host/usb_host_hub.c:80
{
    253a:	cc22                	sw	s0,24(sp)
C:/Repository/RISKYKVM/firmware/src/User/USB_Host/usb_host_hub.c:83
    memcpy( pUSBFS_SetupRequest, GetHubDescr, sizeof( USB_SETUP_REQ ) );
    253c:	20002437          	lui	s0,0x20002
    2540:	aae42023          	sw	a4,-1376(s0) # 20001aa0 <USBFS_TX_Buf>
    2544:	aa040413          	addi	s0,s0,-1376
C:/Repository/RISKYKVM/firmware/src/User/USB_Host/usb_host_hub.c:80
{
    2548:	ca26                	sw	s1,20(sp)
    254a:	c84a                	sw	s2,16(sp)
    254c:	c64e                	sw	s3,12(sp)
    254e:	ce06                	sw	ra,28(sp)
    2550:	89aa                	mv	s3,a0
    2552:	84ae                	mv	s1,a1
    2554:	8932                	mv	s2,a2
C:/Repository/RISKYKVM/firmware/src/User/USB_Host/usb_host_hub.c:83
    memcpy( pUSBFS_SetupRequest, GetHubDescr, sizeof( USB_SETUP_REQ ) );
    2556:	c05c                	sw	a5,4(s0)
C:/Repository/RISKYKVM/firmware/src/User/USB_Host/usb_host_hub.c:84
    s = USBFSH_CtrlTransfer( hub_ep0_size, pbuf, plen );
    2558:	c38ff0ef          	jal	ra,1990 <USBFSH_CtrlTransfer>
C:/Repository/RISKYKVM/firmware/src/User/USB_Host/usb_host_hub.c:85
    if( s != ERR_SUCCESS )
    255c:	e115                	bnez	a0,2580 <HUB_GetClassDevDescr+0x50>
C:/Repository/RISKYKVM/firmware/src/User/USB_Host/usb_host_hub.c:91
    {
        return s;
    }
    else
    {
        pUSBFS_SetupRequest->wLength = *plen = (uint16_t)pbuf[ 0 ];
    255e:	0004c783          	lbu	a5,0(s1)
C:/Repository/RISKYKVM/firmware/src/User/USB_Host/usb_host_hub.c:96
        s = USBFSH_CtrlTransfer( hub_ep0_size, pbuf, plen );
    }

    return s;
}
    2562:	40f2                	lw	ra,28(sp)
C:/Repository/RISKYKVM/firmware/src/User/USB_Host/usb_host_hub.c:92
        s = USBFSH_CtrlTransfer( hub_ep0_size, pbuf, plen );
    2564:	864a                	mv	a2,s2
C:/Repository/RISKYKVM/firmware/src/User/USB_Host/usb_host_hub.c:91
        pUSBFS_SetupRequest->wLength = *plen = (uint16_t)pbuf[ 0 ];
    2566:	00f91023          	sh	a5,0(s2)
    256a:	00f41323          	sh	a5,6(s0)
C:/Repository/RISKYKVM/firmware/src/User/USB_Host/usb_host_hub.c:96
}
    256e:	4462                	lw	s0,24(sp)
    2570:	4942                	lw	s2,16(sp)
C:/Repository/RISKYKVM/firmware/src/User/USB_Host/usb_host_hub.c:92
        s = USBFSH_CtrlTransfer( hub_ep0_size, pbuf, plen );
    2572:	85a6                	mv	a1,s1
    2574:	854e                	mv	a0,s3
C:/Repository/RISKYKVM/firmware/src/User/USB_Host/usb_host_hub.c:96
}
    2576:	44d2                	lw	s1,20(sp)
    2578:	49b2                	lw	s3,12(sp)
    257a:	6105                	addi	sp,sp,32
C:/Repository/RISKYKVM/firmware/src/User/USB_Host/usb_host_hub.c:92
        s = USBFSH_CtrlTransfer( hub_ep0_size, pbuf, plen );
    257c:	c14ff06f          	j	1990 <USBFSH_CtrlTransfer>
C:/Repository/RISKYKVM/firmware/src/User/USB_Host/usb_host_hub.c:96
}
    2580:	40f2                	lw	ra,28(sp)
    2582:	4462                	lw	s0,24(sp)
    2584:	44d2                	lw	s1,20(sp)
    2586:	4942                	lw	s2,16(sp)
    2588:	49b2                	lw	s3,12(sp)
    258a:	6105                	addi	sp,sp,32
    258c:	8082                	ret

0000258e <USBH_HID_GetKeyboardInfo>:
USBH_HID_KeyboardDecode():
C:/Repository/RISKYKVM/firmware/src/User/USB_Host/usb_keyboard.c:25

static USB_Status USBH_HID_KeyboardDecode(Interface *Itf)
{
	uint32_t x;

	if (Itf->HidRptLen == 0U)
    258e:	10c54603          	lbu	a2,268(a0)
    2592:	ce41                	beqz	a2,262a <USBH_HID_GetKeyboardInfo+0x9c>
USBH_HID_GetKeyboardInfo():
C:/Repository/RISKYKVM/firmware/src/User/USB_Host/usb_keyboard.c:10
{
    2594:	1141                	addi	sp,sp,-16
    2596:	c422                	sw	s0,8(sp)
USBH_HID_KeyboardDecode():
C:/Repository/RISKYKVM/firmware/src/User/USB_Host/usb_keyboard.c:31
	{
	    return USB_FAIL;
	}


	if (FifoRead(&Itf->buffer, &keybd_report_data, Itf->HidRptLen) !=0)
    2598:	20002437          	lui	s0,0x20002
    259c:	ae440593          	addi	a1,s0,-1308 # 20001ae4 <keybd_report_data>
    25a0:	08050513          	addi	a0,a0,128
USBH_HID_GetKeyboardInfo():
C:/Repository/RISKYKVM/firmware/src/User/USB_Host/usb_keyboard.c:10
{
    25a4:	c606                	sw	ra,12(sp)
USBH_HID_KeyboardDecode():
C:/Repository/RISKYKVM/firmware/src/User/USB_Host/usb_keyboard.c:31
	if (FifoRead(&Itf->buffer, &keybd_report_data, Itf->HidRptLen) !=0)
    25a6:	36e010ef          	jal	ra,3914 <FifoRead>
    25aa:	cd35                	beqz	a0,2626 <USBH_HID_GetKeyboardInfo+0x98>
C:/Repository/RISKYKVM/firmware/src/User/USB_Host/usb_keyboard.c:33
    {
	    if(keybd_report_data[0]   &   0b00000001) { keybd_info.lctrl  = 1;} else {keybd_info.lctrl    = 0;}
    25ac:	ae444783          	lbu	a5,-1308(s0)
    25b0:	20002537          	lui	a0,0x20002
    25b4:	0017f713          	andi	a4,a5,1
C:/Repository/RISKYKVM/firmware/src/User/USB_Host/usb_keyboard.c:34
	    if(keybd_report_data[0]   &   0b00000010) { keybd_info.lshift = 1;} else {keybd_info.lshift   = 0;}
    25b8:	0017d693          	srli	a3,a5,0x1
    25bc:	aee50a23          	sb	a4,-1292(a0) # 20001af4 <keybd_info>
    25c0:	8a85                	andi	a3,a3,1
    25c2:	af450713          	addi	a4,a0,-1292
    25c6:	00d700a3          	sb	a3,1(a4)
C:/Repository/RISKYKVM/firmware/src/User/USB_Host/usb_keyboard.c:35
	    if(keybd_report_data[0]   &   0b00000100) { keybd_info.lalt   = 1;} else {keybd_info.lalt     = 0;}
    25ca:	0027d693          	srli	a3,a5,0x2
    25ce:	8a85                	andi	a3,a3,1
    25d0:	00d70123          	sb	a3,2(a4)
C:/Repository/RISKYKVM/firmware/src/User/USB_Host/usb_keyboard.c:36
	    if(keybd_report_data[0]   &   0b00001000) { keybd_info.lgui   = 1;} else {keybd_info.lgui     = 0;}
    25d4:	0037d693          	srli	a3,a5,0x3
    25d8:	8a85                	andi	a3,a3,1
    25da:	00d701a3          	sb	a3,3(a4)
C:/Repository/RISKYKVM/firmware/src/User/USB_Host/usb_keyboard.c:37
	    if(keybd_report_data[0]   &   0b00010000) { keybd_info.rctrl  = 1;} else {keybd_info.rctrl    = 0;}
    25de:	0047d693          	srli	a3,a5,0x4
    25e2:	8a85                	andi	a3,a3,1
    25e4:	00d70223          	sb	a3,4(a4)
C:/Repository/RISKYKVM/firmware/src/User/USB_Host/usb_keyboard.c:38
	    if(keybd_report_data[0]   &   0b00100000) { keybd_info.rshift = 1;} else {keybd_info.rshift   = 0;}
    25e8:	0057d693          	srli	a3,a5,0x5
    25ec:	8a85                	andi	a3,a3,1
    25ee:	00d702a3          	sb	a3,5(a4)
C:/Repository/RISKYKVM/firmware/src/User/USB_Host/usb_keyboard.c:39
	    if(keybd_report_data[0]   &   0b01000000) { keybd_info.ralt   = 1;} else {keybd_info.ralt     = 0;}
    25f2:	0067d693          	srli	a3,a5,0x6
C:/Repository/RISKYKVM/firmware/src/User/USB_Host/usb_keyboard.c:40
	    if(keybd_report_data[0]   &   0b10000000) { keybd_info.rgui   = 1;} else {keybd_info.rgui     = 0;}
    25f6:	839d                	srli	a5,a5,0x7
C:/Repository/RISKYKVM/firmware/src/User/USB_Host/usb_keyboard.c:39
	    if(keybd_report_data[0]   &   0b01000000) { keybd_info.ralt   = 1;} else {keybd_info.ralt     = 0;}
    25f8:	8a85                	andi	a3,a3,1
    25fa:	00f703a3          	sb	a5,7(a4)
    25fe:	ae440793          	addi	a5,s0,-1308
    2602:	00d70323          	sb	a3,6(a4)
C:/Repository/RISKYKVM/firmware/src/User/USB_Host/usb_keyboard.c:40
	    if(keybd_report_data[0]   &   0b10000000) { keybd_info.rgui   = 1;} else {keybd_info.rgui     = 0;}
    2606:	af450513          	addi	a0,a0,-1292
    260a:	00678693          	addi	a3,a5,6
C:/Repository/RISKYKVM/firmware/src/User/USB_Host/usb_keyboard.c:44

	     for (x = 0; x < 6; x++)
	     {
	       keybd_info.keys[x] = keybd_report_data[x+2] ;
    260e:	0027c603          	lbu	a2,2(a5)
    2612:	0785                	addi	a5,a5,1
    2614:	0705                	addi	a4,a4,1
    2616:	00c703a3          	sb	a2,7(a4)
C:/Repository/RISKYKVM/firmware/src/User/USB_Host/usb_keyboard.c:42
	     for (x = 0; x < 6; x++)
    261a:	fed79ae3          	bne	a5,a3,260e <USBH_HID_GetKeyboardInfo+0x80>
USBH_HID_GetKeyboardInfo():
C:/Repository/RISKYKVM/firmware/src/User/USB_Host/usb_keyboard.c:19
}
    261e:	40b2                	lw	ra,12(sp)
    2620:	4422                	lw	s0,8(sp)
    2622:	0141                	addi	sp,sp,16
    2624:	8082                	ret
C:/Repository/RISKYKVM/firmware/src/User/USB_Host/usb_keyboard.c:17
    return NULL;
    2626:	4501                	li	a0,0
    2628:	bfdd                	j	261e <USBH_HID_GetKeyboardInfo+0x90>
    262a:	4501                	li	a0,0
C:/Repository/RISKYKVM/firmware/src/User/USB_Host/usb_keyboard.c:19
}
    262c:	8082                	ret

0000262e <USB_MouseDecode>:
USB_MouseDecode():
C:/Repository/RISKYKVM/firmware/src/User/USB_Host/usb_mouse.c:21
    return NULL;
  }
}

USB_Status USB_MouseDecode(Interface *Itf)
{
    262e:	7179                	addi	sp,sp,-48
    2630:	d606                	sw	ra,44(sp)
    2632:	d422                	sw	s0,40(sp)
    2634:	d226                	sw	s1,36(sp)
    2636:	d04a                	sw	s2,32(sp)
    2638:	ce4e                	sw	s3,28(sp)
    263a:	cc52                	sw	s4,24(sp)
C:/Repository/RISKYKVM/firmware/src/User/USB_Host/usb_mouse.c:23

  if (Itf->HidRptLen == 0U)
    263c:	10c54903          	lbu	s2,268(a0)
    2640:	00091b63          	bnez	s2,2656 <USB_MouseDecode+0x28>
C:/Repository/RISKYKVM/firmware/src/User/USB_Host/usb_mouse.c:25
  {
    return USB_FAIL;
    2644:	4505                	li	a0,1
C:/Repository/RISKYKVM/firmware/src/User/USB_Host/usb_mouse.c:95
	  	  mouse_info.wheel = wheelVal;
	  	}
    return USB_OK;
  }
  return   USB_FAIL;
}
    2646:	50b2                	lw	ra,44(sp)
    2648:	5422                	lw	s0,40(sp)
    264a:	5492                	lw	s1,36(sp)
    264c:	5902                	lw	s2,32(sp)
    264e:	49f2                	lw	s3,28(sp)
    2650:	4a62                	lw	s4,24(sp)
    2652:	6145                	addi	sp,sp,48
    2654:	8082                	ret
C:/Repository/RISKYKVM/firmware/src/User/USB_Host/usb_mouse.c:30
  memset(&mouse_report_data,0,sizeof(mouse_report_data));
    2656:	200024b7          	lui	s1,0x20002
    265a:	842a                	mv	s0,a0
    265c:	4621                	li	a2,8
    265e:	4581                	li	a1,0
    2660:	b1048513          	addi	a0,s1,-1264 # 20001b10 <mouse_report_data>
    2664:	addfd0ef          	jal	ra,140 <memset>
C:/Repository/RISKYKVM/firmware/src/User/USB_Host/usb_mouse.c:33
  if (FifoRead(&Itf->buffer, &mouse_report_data, Itf->HidRptLen) !=0)
    2668:	864a                	mv	a2,s2
    266a:	b1048593          	addi	a1,s1,-1264
    266e:	08040513          	addi	a0,s0,128
    2672:	2a2010ef          	jal	ra,3914 <FifoRead>
    2676:	d579                	beqz	a0,2644 <USB_MouseDecode+0x16>
C:/Repository/RISKYKVM/firmware/src/User/USB_Host/usb_mouse.c:43
	  uint8_t *p = mouse_report_data + (Itf->HIDRptDesc.report_id?1:0);
    2678:	04344783          	lbu	a5,67(s0)
    267c:	b1048493          	addi	s1,s1,-1264
    2680:	c789                	beqz	a5,268a <USB_MouseDecode+0x5c>
    2682:	200024b7          	lui	s1,0x20002
    2686:	b1148493          	addi	s1,s1,-1263 # 20001b11 <mouse_report_data+0x1>
C:/Repository/RISKYKVM/firmware/src/User/USB_Host/usb_mouse.c:50
	  			int is_signed = Itf->HIDRptDesc.joystick_mouse.axis[i].logical.min >
    268a:	04e45783          	lhu	a5,78(s0)
    268e:	05045683          	lhu	a3,80(s0)
C:/Repository/RISKYKVM/firmware/src/User/USB_Host/usb_mouse.c:52
	  			a[i] = collect_bits(p, Itf->HIDRptDesc.joystick_mouse.axis[i].offset,
    2692:	04c44603          	lbu	a2,76(s0)
    2696:	04a45583          	lhu	a1,74(s0)
    269a:	00f6b6b3          	sltu	a3,a3,a5
    269e:	8526                	mv	a0,s1
    26a0:	346010ef          	jal	ra,39e6 <collect_bits>
C:/Repository/RISKYKVM/firmware/src/User/USB_Host/usb_mouse.c:50
	  			int is_signed = Itf->HIDRptDesc.joystick_mouse.axis[i].logical.min >
    26a4:	05645683          	lhu	a3,86(s0)
    26a8:	05845783          	lhu	a5,88(s0)
C:/Repository/RISKYKVM/firmware/src/User/USB_Host/usb_mouse.c:52
	  			a[i] = collect_bits(p, Itf->HIDRptDesc.joystick_mouse.axis[i].offset,
    26ac:	05245583          	lhu	a1,82(s0)
    26b0:	05444603          	lbu	a2,84(s0)
    26b4:	01051a13          	slli	s4,a0,0x10
    26b8:	00d7b6b3          	sltu	a3,a5,a3
    26bc:	410a5a13          	srai	s4,s4,0x10
    26c0:	8526                	mv	a0,s1
    26c2:	01411623          	sh	s4,12(sp)
    26c6:	320010ef          	jal	ra,39e6 <collect_bits>
    26ca:	01051993          	slli	s3,a0,0x10
    26ce:	4109d993          	srai	s3,s3,0x10
    26d2:	01311723          	sh	s3,14(sp)
    26d6:	05a40693          	addi	a3,s0,90
    26da:	4701                	li	a4,0
C:/Repository/RISKYKVM/firmware/src/User/USB_Host/usb_mouse.c:36
	  uint8_t btn = 0;
    26dc:	4901                	li	s2,0
C:/Repository/RISKYKVM/firmware/src/User/USB_Host/usb_mouse.c:59
	  			Itf->HIDRptDesc.joystick_mouse.button[i].bitmask) btn |= (1<<i);
    26de:	4505                	li	a0,1
C:/Repository/RISKYKVM/firmware/src/User/USB_Host/usb_mouse.c:57
	  for(i=0;i<4;i++)
    26e0:	4591                	li	a1,4
C:/Repository/RISKYKVM/firmware/src/User/USB_Host/usb_mouse.c:58
	  	if(p[Itf->HIDRptDesc.joystick_mouse.button[i].byte_offset] &
    26e2:	0006c603          	lbu	a2,0(a3)
    26e6:	0016c783          	lbu	a5,1(a3)
    26ea:	9626                	add	a2,a2,s1
    26ec:	00064603          	lbu	a2,0(a2)
    26f0:	8e7d                	and	a2,a2,a5
    26f2:	c619                	beqz	a2,2700 <USB_MouseDecode+0xd2>
C:/Repository/RISKYKVM/firmware/src/User/USB_Host/usb_mouse.c:59
	  			Itf->HIDRptDesc.joystick_mouse.button[i].bitmask) btn |= (1<<i);
    26f4:	00e51633          	sll	a2,a0,a4
    26f8:	012667b3          	or	a5,a2,s2
    26fc:	0ff7f913          	andi	s2,a5,255
    2700:	0705                	addi	a4,a4,1
    2702:	0689                	addi	a3,a3,2
C:/Repository/RISKYKVM/firmware/src/User/USB_Host/usb_mouse.c:57
	  for(i=0;i<4;i++)
    2704:	fcb71fe3          	bne	a4,a1,26e2 <USB_MouseDecode+0xb4>
C:/Repository/RISKYKVM/firmware/src/User/USB_Host/usb_mouse.c:67
      int is_signed_wheel = Itf->HIDRptDesc.joystick_mouse.wheel.logical.min >
    2708:	07c45783          	lhu	a5,124(s0)
    270c:	07a45683          	lhu	a3,122(s0)
C:/Repository/RISKYKVM/firmware/src/User/USB_Host/usb_mouse.c:69
          wheelVal = collect_bits(p, Itf->HIDRptDesc.joystick_mouse.wheel.offset,
    2710:	07844603          	lbu	a2,120(s0)
    2714:	07645583          	lhu	a1,118(s0)
    2718:	00d7b6b3          	sltu	a3,a5,a3
    271c:	8526                	mv	a0,s1
    271e:	2c8010ef          	jal	ra,39e6 <collect_bits>
C:/Repository/RISKYKVM/firmware/src/User/USB_Host/usb_mouse.c:73
	  if(Itf->HIDRptDesc.type == REPORT_TYPE_MOUSE) {
    2722:	04244703          	lbu	a4,66(s0)
    2726:	4785                	li	a5,1
    2728:	8b0d                	andi	a4,a4,3
    272a:	08f71963          	bne	a4,a5,27bc <USB_MouseDecode+0x18e>
C:/Repository/RISKYKVM/firmware/src/User/USB_Host/usb_mouse.c:77
	  		if((int16_t)a[i] >  127) a[i] =  127;
    272e:	07f00713          	li	a4,127
    2732:	01475563          	bge	a4,s4,273c <USB_MouseDecode+0x10e>
C:/Repository/RISKYKVM/firmware/src/User/USB_Host/usb_mouse.c:78
	  		if((int16_t)a[i] < -128) a[i] = -128;
    2736:	00e11623          	sh	a4,12(sp)
    273a:	a029                	j	2744 <USB_MouseDecode+0x116>
    273c:	f8000713          	li	a4,-128
    2740:	feea4be3          	blt	s4,a4,2736 <USB_MouseDecode+0x108>
C:/Repository/RISKYKVM/firmware/src/User/USB_Host/usb_mouse.c:77
	  		if((int16_t)a[i] >  127) a[i] =  127;
    2744:	07f00713          	li	a4,127
    2748:	01375563          	bge	a4,s3,2752 <USB_MouseDecode+0x124>
C:/Repository/RISKYKVM/firmware/src/User/USB_Host/usb_mouse.c:78
	  		if((int16_t)a[i] < -128) a[i] = -128;
    274c:	00e11723          	sh	a4,14(sp)
    2750:	a029                	j	275a <USB_MouseDecode+0x12c>
    2752:	f8000713          	li	a4,-128
    2756:	fee9cbe3          	blt	s3,a4,274c <USB_MouseDecode+0x11e>
C:/Repository/RISKYKVM/firmware/src/User/USB_Host/usb_mouse.c:81
	  		if((int16_t)wheelVal >  127) wheelVal =  127;
    275a:	872a                	mv	a4,a0
    275c:	0542                	slli	a0,a0,0x10
    275e:	8541                	srai	a0,a0,0x10
    2760:	f8000793          	li	a5,-128
    2764:	00f55463          	bge	a0,a5,276c <USB_MouseDecode+0x13e>
    2768:	f8000713          	li	a4,-128
C:/Repository/RISKYKVM/firmware/src/User/USB_Host/usb_mouse.c:85
	  	  mouse_info.x = a[0];
    276c:	00c15783          	lhu	a5,12(sp)
    2770:	200026b7          	lui	a3,0x20002
C:/Repository/RISKYKVM/firmware/src/User/USB_Host/usb_mouse.c:86
	  	  mouse_info.y = a[1];
    2774:	b0468613          	addi	a2,a3,-1276 # 20001b04 <mouse_info>
C:/Repository/RISKYKVM/firmware/src/User/USB_Host/usb_mouse.c:85
	  	  mouse_info.x = a[0];
    2778:	b0f69223          	sh	a5,-1276(a3)
C:/Repository/RISKYKVM/firmware/src/User/USB_Host/usb_mouse.c:86
	  	  mouse_info.y = a[1];
    277c:	00e15783          	lhu	a5,14(sp)
C:/Repository/RISKYKVM/firmware/src/User/USB_Host/usb_mouse.c:88
	  	  mouse_info.buttons[1] = (btn>>1)&0x1;
    2780:	00195593          	srli	a1,s2,0x1
    2784:	8985                	andi	a1,a1,1
C:/Repository/RISKYKVM/firmware/src/User/USB_Host/usb_mouse.c:86
	  	  mouse_info.y = a[1];
    2786:	00f61123          	sh	a5,2(a2)
C:/Repository/RISKYKVM/firmware/src/User/USB_Host/usb_mouse.c:87
	  	  mouse_info.buttons[0] = btn&0x1;
    278a:	00197793          	andi	a5,s2,1
    278e:	00f60223          	sb	a5,4(a2)
C:/Repository/RISKYKVM/firmware/src/User/USB_Host/usb_mouse.c:89
	  	  mouse_info.buttons[2] = (btn>>2)&0x1;
    2792:	00295793          	srli	a5,s2,0x2
    2796:	8b85                	andi	a5,a5,1
    2798:	00f60323          	sb	a5,6(a2)
C:/Repository/RISKYKVM/firmware/src/User/USB_Host/usb_mouse.c:90
	  	  mouse_info.wheel = wheelVal;
    279c:	87ba                	mv	a5,a4
C:/Repository/RISKYKVM/firmware/src/User/USB_Host/usb_mouse.c:88
	  	  mouse_info.buttons[1] = (btn>>1)&0x1;
    279e:	00b602a3          	sb	a1,5(a2)
C:/Repository/RISKYKVM/firmware/src/User/USB_Host/usb_mouse.c:90
	  	  mouse_info.wheel = wheelVal;
    27a2:	01079613          	slli	a2,a5,0x10
    27a6:	8641                	srai	a2,a2,0x10
    27a8:	07f00713          	li	a4,127
    27ac:	b0468693          	addi	a3,a3,-1276
    27b0:	00c75463          	bge	a4,a2,27b8 <USB_MouseDecode+0x18a>
    27b4:	07f00793          	li	a5,127
    27b8:	00f69423          	sh	a5,8(a3)
C:/Repository/RISKYKVM/firmware/src/User/USB_Host/usb_mouse.c:92
    return USB_OK;
    27bc:	4501                	li	a0,0
    27be:	b561                	j	2646 <USB_MouseDecode+0x18>

000027c0 <USB_GetMouseInfo>:
USB_GetMouseInfo():
C:/Repository/RISKYKVM/firmware/src/User/USB_Host/usb_mouse.c:9
{
    27c0:	1141                	addi	sp,sp,-16
    27c2:	c606                	sw	ra,12(sp)
C:/Repository/RISKYKVM/firmware/src/User/USB_Host/usb_mouse.c:10
  if (USB_MouseDecode(Itf) == USB_OK)
    27c4:	35ad                	jal	262e <USB_MouseDecode>
    27c6:	c509                	beqz	a0,27d0 <USB_GetMouseInfo+0x10>
C:/Repository/RISKYKVM/firmware/src/User/USB_Host/usb_mouse.c:16
    return NULL;
    27c8:	4501                	li	a0,0
C:/Repository/RISKYKVM/firmware/src/User/USB_Host/usb_mouse.c:18
}
    27ca:	40b2                	lw	ra,12(sp)
    27cc:	0141                	addi	sp,sp,16
    27ce:	8082                	ret
C:/Repository/RISKYKVM/firmware/src/User/USB_Host/usb_mouse.c:12
    return &mouse_info;
    27d0:	20002537          	lui	a0,0x20002
    27d4:	b0450513          	addi	a0,a0,-1276 # 20001b04 <mouse_info>
    27d8:	bfcd                	j	27ca <USB_GetMouseInfo+0xa>

000027da <NMI_Handler>:
NMI_Handler():
C:/Repository/RISKYKVM/firmware/src/User/ch32v20x_it.c:28
 *
 * @return  none
 */
void NMI_Handler(void)
{
}
    27da:	30200073          	mret

000027de <HardFault_Handler>:
HardFault_Handler():
C:/Repository/RISKYKVM/firmware/src/User/ch32v20x_it.c:41 (discriminator 1)
 */
void HardFault_Handler(void)
{
  while (1)
  {
  }
    27de:	a001                	j	27de <HardFault_Handler>

000027e0 <EXTI15_10_IRQHandler>:
EXTI15_10_IRQHandler():
C:/Repository/RISKYKVM/firmware/src/User/ch32v20x_it.c:47
}


void EXTI15_10_IRQHandler(void)
{
    if(EXTI_GetITStatus(EXTI_Line10) != RESET)
    27e0:	40000513          	li	a0,1024
    27e4:	42e010ef          	jal	ra,3c12 <EXTI_GetITStatus>
    27e8:	c519                	beqz	a0,27f6 <EXTI15_10_IRQHandler+0x16>
C:/Repository/RISKYKVM/firmware/src/User/ch32v20x_it.c:49
    {
        ProcessScrollIRQ();
    27ea:	5bb000ef          	jal	ra,35a4 <ProcessScrollIRQ>
C:/Repository/RISKYKVM/firmware/src/User/ch32v20x_it.c:50
        EXTI_ClearITPendingBit(EXTI_Line10); /* Clear Flag */
    27ee:	40000513          	li	a0,1024
    27f2:	43e010ef          	jal	ra,3c30 <EXTI_ClearITPendingBit>
C:/Repository/RISKYKVM/firmware/src/User/ch32v20x_it.c:52
    }
}
    27f6:	30200073          	mret

000027fa <ProcessGamepad>:
ProcessGamepad():
C:/Repository/RISKYKVM/firmware/src/User/gamepad.c:6
#include "gamepad.h"

void ProcessGamepad(HID_gamepad_Info_TypeDef* joymap)
{

			if (joymap == NULL) return;
    27fa:	c145                	beqz	a0,289a <ProcessGamepad+0xa0>
C:/Repository/RISKYKVM/firmware/src/User/gamepad.c:4
{
    27fc:	1141                	addi	sp,sp,-16
    27fe:	c606                	sw	ra,12(sp)
    2800:	c422                	sw	s0,8(sp)
    2802:	c226                	sw	s1,4(sp)
C:/Repository/RISKYKVM/firmware/src/User/gamepad.c:8

				GPIO_WriteBit(RHQ_GPIO_Port, RHQ_Pin, !(joymap->gamepad_data & 0x1));
    2804:	00054603          	lbu	a2,0(a0)
    2808:	400114b7          	lui	s1,0x40011
    280c:	842a                	mv	s0,a0
    280e:	fff64613          	not	a2,a2
    2812:	c0048513          	addi	a0,s1,-1024 # 40010c00 <_eusrstack+0x2000bc00>
    2816:	8a05                	andi	a2,a2,1
    2818:	6585                	lui	a1,0x1
    281a:	54e010ef          	jal	ra,3d68 <GPIO_WriteBit>
C:/Repository/RISKYKVM/firmware/src/User/gamepad.c:9
				GPIO_WriteBit(LVQ_GPIO_Port, LVQ_Pin, !(joymap->gamepad_data >> 1 & 0x1));
    281e:	00044603          	lbu	a2,0(s0)
    2822:	c0048513          	addi	a0,s1,-1024
    2826:	6589                	lui	a1,0x2
    2828:	8205                	srli	a2,a2,0x1
    282a:	fff64613          	not	a2,a2
    282e:	8a05                	andi	a2,a2,1
    2830:	538010ef          	jal	ra,3d68 <GPIO_WriteBit>
C:/Repository/RISKYKVM/firmware/src/User/gamepad.c:10
				GPIO_WriteBit(BH_GPIO_Port, BH_Pin, !(joymap->gamepad_data >> 2 & 0x1));
    2834:	00044603          	lbu	a2,0(s0)
    2838:	c0048513          	addi	a0,s1,-1024
    283c:	6591                	lui	a1,0x4
    283e:	8209                	srli	a2,a2,0x2
    2840:	fff64613          	not	a2,a2
    2844:	8a05                	andi	a2,a2,1
    2846:	522010ef          	jal	ra,3d68 <GPIO_WriteBit>
C:/Repository/RISKYKVM/firmware/src/User/gamepad.c:11
				GPIO_WriteBit(FV_GPIO_Port, FV_Pin, !(joymap->gamepad_data >> 3 & 0x1));
    284a:	00044603          	lbu	a2,0(s0)
    284e:	80048513          	addi	a0,s1,-2048
    2852:	10000593          	li	a1,256
    2856:	820d                	srli	a2,a2,0x3
    2858:	fff64613          	not	a2,a2
    285c:	8a05                	andi	a2,a2,1
    285e:	50a010ef          	jal	ra,3d68 <GPIO_WriteBit>
C:/Repository/RISKYKVM/firmware/src/User/gamepad.c:12
				GPIO_WriteBit(LB_GPIO_Port, LB_Pin, !(joymap->gamepad_data >> 4 & 0x1));
    2862:	00044603          	lbu	a2,0(s0)
    2866:	c0048513          	addi	a0,s1,-1024
    286a:	65a1                	lui	a1,0x8
    286c:	8211                	srli	a2,a2,0x4
    286e:	fff64613          	not	a2,a2
    2872:	8a05                	andi	a2,a2,1
    2874:	4f4010ef          	jal	ra,3d68 <GPIO_WriteBit>
C:/Repository/RISKYKVM/firmware/src/User/gamepad.c:14
				//GPIO_WriteBit(MB_GPIO_Port, RB_Pin, !(joymap->gamepad_data >> 5 & 0x1));
				GPIO_WriteBit(RB_GPIO_Port, RB_Pin, !(joymap->gamepad_data >> 6 & 0x1));
    2878:	00044603          	lbu	a2,0(s0)
C:/Repository/RISKYKVM/firmware/src/User/gamepad.c:16

}
    287c:	4422                	lw	s0,8(sp)
    287e:	40b2                	lw	ra,12(sp)
C:/Repository/RISKYKVM/firmware/src/User/gamepad.c:14
				GPIO_WriteBit(RB_GPIO_Port, RB_Pin, !(joymap->gamepad_data >> 6 & 0x1));
    2880:	8219                	srli	a2,a2,0x6
    2882:	c0048513          	addi	a0,s1,-1024
C:/Repository/RISKYKVM/firmware/src/User/gamepad.c:16
}
    2886:	4492                	lw	s1,4(sp)
C:/Repository/RISKYKVM/firmware/src/User/gamepad.c:14
				GPIO_WriteBit(RB_GPIO_Port, RB_Pin, !(joymap->gamepad_data >> 6 & 0x1));
    2888:	fff64613          	not	a2,a2
    288c:	6585                	lui	a1,0x1
    288e:	8a05                	andi	a2,a2,1
    2890:	80058593          	addi	a1,a1,-2048 # 800 <__stack_size>
C:/Repository/RISKYKVM/firmware/src/User/gamepad.c:16
}
    2894:	0141                	addi	sp,sp,16
C:/Repository/RISKYKVM/firmware/src/User/gamepad.c:14
				GPIO_WriteBit(RB_GPIO_Port, RB_Pin, !(joymap->gamepad_data >> 6 & 0x1));
    2896:	4d20106f          	j	3d68 <GPIO_WriteBit>
    289a:	8082                	ret

0000289c <GPIO_Config>:
GPIO_Config():
C:/Repository/RISKYKVM/firmware/src/User/gpio.c:4
#include "gpio.h"

void GPIO_Config()
{
    289c:	715d                	addi	sp,sp,-80
C:/Repository/RISKYKVM/firmware/src/User/gpio.c:6
    //RCC_APB2Periph_GPIOA
    RCC_APB2PeriphClockCmd(RCC_APB2Periph_GPIOA, ENABLE);
    289e:	4585                	li	a1,1
    28a0:	4511                	li	a0,4
C:/Repository/RISKYKVM/firmware/src/User/gpio.c:4
{
    28a2:	c686                	sw	ra,76(sp)
    28a4:	c4a2                	sw	s0,72(sp)
    28a6:	c2a6                	sw	s1,68(sp)
    28a8:	c0ca                	sw	s2,64(sp)
    28aa:	de4e                	sw	s3,60(sp)
    28ac:	dc52                	sw	s4,56(sp)
    28ae:	da56                	sw	s5,52(sp)
C:/Repository/RISKYKVM/firmware/src/User/gpio.c:6
    RCC_APB2PeriphClockCmd(RCC_APB2Periph_GPIOA, ENABLE);
    28b0:	602010ef          	jal	ra,3eb2 <RCC_APB2PeriphClockCmd>
C:/Repository/RISKYKVM/firmware/src/User/gpio.c:7
    RCC_APB2PeriphClockCmd(RCC_APB2Periph_GPIOB, ENABLE);
    28b4:	4585                	li	a1,1
    28b6:	4521                	li	a0,8
    28b8:	5fa010ef          	jal	ra,3eb2 <RCC_APB2PeriphClockCmd>
C:/Repository/RISKYKVM/firmware/src/User/gpio.c:8
    RCC_APB2PeriphClockCmd(RCC_APB2Periph_GPIOC, ENABLE);
    28bc:	4585                	li	a1,1
    28be:	4541                	li	a0,16
    28c0:	5f2010ef          	jal	ra,3eb2 <RCC_APB2PeriphClockCmd>
C:/Repository/RISKYKVM/firmware/src/User/gpio.c:9
    RCC_APB2PeriphClockCmd(RCC_APB2Periph_AFIO, ENABLE);
    28c4:	4585                	li	a1,1
    28c6:	4505                	li	a0,1
    28c8:	5ea010ef          	jal	ra,3eb2 <RCC_APB2PeriphClockCmd>
C:/Repository/RISKYKVM/firmware/src/User/gpio.c:15

    GPIO_InitTypeDef GPIO_InitStructure = {0};


    /*Configure GPIO pin Output Level */
    GPIO_WriteBit(LED_GPIO_Port,LED_Pin, Bit_SET);
    28cc:	4605                	li	a2,1
    28ce:	6591                	lui	a1,0x4
    28d0:	40011537          	lui	a0,0x40011
C:/Repository/RISKYKVM/firmware/src/User/gpio.c:16
    GPIO_WriteBit(RHQ_GPIO_Port, RHQ_Pin, Bit_RESET);
    28d4:	40011437          	lui	s0,0x40011
C:/Repository/RISKYKVM/firmware/src/User/gpio.c:11
    GPIO_InitTypeDef GPIO_InitStructure = {0};
    28d8:	ca02                	sw	zero,20(sp)
    28da:	cc02                	sw	zero,24(sp)
    28dc:	ce02                	sw	zero,28(sp)
C:/Repository/RISKYKVM/firmware/src/User/gpio.c:15
    GPIO_WriteBit(LED_GPIO_Port,LED_Pin, Bit_SET);
    28de:	48a010ef          	jal	ra,3d68 <GPIO_WriteBit>
C:/Repository/RISKYKVM/firmware/src/User/gpio.c:16
    GPIO_WriteBit(RHQ_GPIO_Port, RHQ_Pin, Bit_RESET);
    28e2:	c0040513          	addi	a0,s0,-1024 # 40010c00 <_eusrstack+0x2000bc00>
    28e6:	4601                	li	a2,0
    28e8:	6585                	lui	a1,0x1
    28ea:	47e010ef          	jal	ra,3d68 <GPIO_WriteBit>
C:/Repository/RISKYKVM/firmware/src/User/gpio.c:17
    GPIO_WriteBit(LVQ_GPIO_Port, LVQ_Pin, Bit_RESET);
    28ee:	c0040513          	addi	a0,s0,-1024
    28f2:	4601                	li	a2,0
    28f4:	6589                	lui	a1,0x2
    28f6:	472010ef          	jal	ra,3d68 <GPIO_WriteBit>
C:/Repository/RISKYKVM/firmware/src/User/gpio.c:18
    GPIO_WriteBit(BH_GPIO_Port, BH_Pin, Bit_RESET);
    28fa:	c0040513          	addi	a0,s0,-1024
    28fe:	4601                	li	a2,0
    2900:	6591                	lui	a1,0x4
    2902:	466010ef          	jal	ra,3d68 <GPIO_WriteBit>
C:/Repository/RISKYKVM/firmware/src/User/gpio.c:19
    GPIO_WriteBit(FV_GPIO_Port, FV_Pin, Bit_RESET);
    2906:	80040513          	addi	a0,s0,-2048
    290a:	4601                	li	a2,0
    290c:	10000593          	li	a1,256
    2910:	458010ef          	jal	ra,3d68 <GPIO_WriteBit>
C:/Repository/RISKYKVM/firmware/src/User/gpio.c:20
    GPIO_WriteBit(LB_GPIO_Port, LB_Pin, Bit_SET);
    2914:	c0040513          	addi	a0,s0,-1024
    2918:	4605                	li	a2,1
    291a:	65a1                	lui	a1,0x8
    291c:	44c010ef          	jal	ra,3d68 <GPIO_WriteBit>
C:/Repository/RISKYKVM/firmware/src/User/gpio.c:21
    GPIO_WriteBit(RB_GPIO_Port, RB_Pin, Bit_SET);
    2920:	6a05                	lui	s4,0x1
    2922:	800a0593          	addi	a1,s4,-2048 # 800 <__stack_size>
    2926:	c0040513          	addi	a0,s0,-1024
    292a:	4605                	li	a2,1
    292c:	43c010ef          	jal	ra,3d68 <GPIO_WriteBit>
C:/Repository/RISKYKVM/firmware/src/User/gpio.c:22
    GPIO_WriteBit(KBD_DATA_GPIO_Port, KBD_DATA_Pin, Bit_SET);
    2930:	800a0593          	addi	a1,s4,-2048
    2934:	80040513          	addi	a0,s0,-2048
    2938:	4605                	li	a2,1
    293a:	42e010ef          	jal	ra,3d68 <GPIO_WriteBit>
C:/Repository/RISKYKVM/firmware/src/User/gpio.c:23
    GPIO_WriteBit(KBD_CLOCK_GPIO_Port, KBD_CLOCK_Pin,Bit_SET);
    293e:	80040513          	addi	a0,s0,-2048
    2942:	4605                	li	a2,1
    2944:	6585                	lui	a1,0x1
    2946:	422010ef          	jal	ra,3d68 <GPIO_WriteBit>
C:/Repository/RISKYKVM/firmware/src/User/gpio.c:24
    GPIO_WriteBit(KB_RESET_GPIO_Port,KB_RESET_GPIO_Pin,Bit_SET);
    294a:	4605                	li	a2,1
    294c:	80040513          	addi	a0,s0,-2048
    2950:	40000593          	li	a1,1024
    2954:	414010ef          	jal	ra,3d68 <GPIO_WriteBit>
C:/Repository/RISKYKVM/firmware/src/User/gpio.c:31


    /*Configure GPIO pins : PCPin PCPin PCPin */
    GPIO_InitStructure.GPIO_Pin = LED_Pin;
    GPIO_InitStructure.GPIO_Mode = GPIO_Mode_Out_PP;
    GPIO_InitStructure.GPIO_Speed = GPIO_Speed_50MHz;
    2958:	448d                	li	s1,3
C:/Repository/RISKYKVM/firmware/src/User/gpio.c:30
    GPIO_InitStructure.GPIO_Mode = GPIO_Mode_Out_PP;
    295a:	4941                	li	s2,16
C:/Repository/RISKYKVM/firmware/src/User/gpio.c:29
    GPIO_InitStructure.GPIO_Pin = LED_Pin;
    295c:	6a91                	lui	s5,0x4
C:/Repository/RISKYKVM/firmware/src/User/gpio.c:32
    GPIO_Init(LED_GPIO_Port, &GPIO_InitStructure);
    295e:	084c                	addi	a1,sp,20
    2960:	40011537          	lui	a0,0x40011
C:/Repository/RISKYKVM/firmware/src/User/gpio.c:29
    GPIO_InitStructure.GPIO_Pin = LED_Pin;
    2964:	01511a23          	sh	s5,20(sp)
C:/Repository/RISKYKVM/firmware/src/User/gpio.c:30
    GPIO_InitStructure.GPIO_Mode = GPIO_Mode_Out_PP;
    2968:	ce4a                	sw	s2,28(sp)
C:/Repository/RISKYKVM/firmware/src/User/gpio.c:31
    GPIO_InitStructure.GPIO_Speed = GPIO_Speed_50MHz;
    296a:	cc26                	sw	s1,24(sp)
C:/Repository/RISKYKVM/firmware/src/User/gpio.c:32
    GPIO_Init(LED_GPIO_Port, &GPIO_InitStructure);
    296c:	2ce010ef          	jal	ra,3c3a <GPIO_Init>
C:/Repository/RISKYKVM/firmware/src/User/gpio.c:35


    GPIO_InitStructure.GPIO_Pin = LB_Pin;
    2970:	77e1                	lui	a5,0xffff8
C:/Repository/RISKYKVM/firmware/src/User/gpio.c:38
    GPIO_InitStructure.GPIO_Mode = GPIO_Mode_Out_PP;
    GPIO_InitStructure.GPIO_Speed = GPIO_Speed_50MHz;
    GPIO_Init(LB_GPIO_Port, &GPIO_InitStructure);
    2972:	084c                	addi	a1,sp,20
    2974:	c0040513          	addi	a0,s0,-1024
C:/Repository/RISKYKVM/firmware/src/User/gpio.c:35
    GPIO_InitStructure.GPIO_Pin = LB_Pin;
    2978:	00f11a23          	sh	a5,20(sp)
C:/Repository/RISKYKVM/firmware/src/User/gpio.c:36
    GPIO_InitStructure.GPIO_Mode = GPIO_Mode_Out_PP;
    297c:	ce4a                	sw	s2,28(sp)
C:/Repository/RISKYKVM/firmware/src/User/gpio.c:37
    GPIO_InitStructure.GPIO_Speed = GPIO_Speed_50MHz;
    297e:	cc26                	sw	s1,24(sp)
C:/Repository/RISKYKVM/firmware/src/User/gpio.c:40

    GPIO_InitStructure.GPIO_Pin = RB_Pin;
    2980:	6985                	lui	s3,0x1
C:/Repository/RISKYKVM/firmware/src/User/gpio.c:38
    GPIO_Init(LB_GPIO_Port, &GPIO_InitStructure);
    2982:	2b8010ef          	jal	ra,3c3a <GPIO_Init>
C:/Repository/RISKYKVM/firmware/src/User/gpio.c:40
    GPIO_InitStructure.GPIO_Pin = RB_Pin;
    2986:	80098993          	addi	s3,s3,-2048 # 800 <__stack_size>
C:/Repository/RISKYKVM/firmware/src/User/gpio.c:43
    GPIO_InitStructure.GPIO_Mode = GPIO_Mode_Out_PP;
    GPIO_InitStructure.GPIO_Speed = GPIO_Speed_50MHz;
    GPIO_Init(RB_GPIO_Port, &GPIO_InitStructure);
    298a:	084c                	addi	a1,sp,20
    298c:	c0040513          	addi	a0,s0,-1024
C:/Repository/RISKYKVM/firmware/src/User/gpio.c:40
    GPIO_InitStructure.GPIO_Pin = RB_Pin;
    2990:	01311a23          	sh	s3,20(sp)
C:/Repository/RISKYKVM/firmware/src/User/gpio.c:41
    GPIO_InitStructure.GPIO_Mode = GPIO_Mode_Out_PP;
    2994:	ce4a                	sw	s2,28(sp)
C:/Repository/RISKYKVM/firmware/src/User/gpio.c:42
    GPIO_InitStructure.GPIO_Speed = GPIO_Speed_50MHz;
    2996:	cc26                	sw	s1,24(sp)
C:/Repository/RISKYKVM/firmware/src/User/gpio.c:43
    GPIO_Init(RB_GPIO_Port, &GPIO_InitStructure);
    2998:	2a2010ef          	jal	ra,3c3a <GPIO_Init>
C:/Repository/RISKYKVM/firmware/src/User/gpio.c:48

    GPIO_InitStructure.GPIO_Pin = RHQ_Pin;
    GPIO_InitStructure.GPIO_Mode = GPIO_Mode_Out_PP;
    GPIO_InitStructure.GPIO_Speed = GPIO_Speed_50MHz;
    GPIO_Init(RHQ_GPIO_Port, &GPIO_InitStructure);
    299c:	084c                	addi	a1,sp,20
    299e:	c0040513          	addi	a0,s0,-1024
C:/Repository/RISKYKVM/firmware/src/User/gpio.c:45
    GPIO_InitStructure.GPIO_Pin = RHQ_Pin;
    29a2:	01411a23          	sh	s4,20(sp)
C:/Repository/RISKYKVM/firmware/src/User/gpio.c:46
    GPIO_InitStructure.GPIO_Mode = GPIO_Mode_Out_PP;
    29a6:	ce4a                	sw	s2,28(sp)
C:/Repository/RISKYKVM/firmware/src/User/gpio.c:47
    GPIO_InitStructure.GPIO_Speed = GPIO_Speed_50MHz;
    29a8:	cc26                	sw	s1,24(sp)
C:/Repository/RISKYKVM/firmware/src/User/gpio.c:48
    GPIO_Init(RHQ_GPIO_Port, &GPIO_InitStructure);
    29aa:	290010ef          	jal	ra,3c3a <GPIO_Init>
C:/Repository/RISKYKVM/firmware/src/User/gpio.c:51


    GPIO_InitStructure.GPIO_Pin = LVQ_Pin;
    29ae:	6789                	lui	a5,0x2
C:/Repository/RISKYKVM/firmware/src/User/gpio.c:54
    GPIO_InitStructure.GPIO_Mode = GPIO_Mode_Out_PP;
    GPIO_InitStructure.GPIO_Speed = GPIO_Speed_50MHz;
    GPIO_Init(LVQ_GPIO_Port, &GPIO_InitStructure);
    29b0:	084c                	addi	a1,sp,20
    29b2:	c0040513          	addi	a0,s0,-1024
C:/Repository/RISKYKVM/firmware/src/User/gpio.c:51
    GPIO_InitStructure.GPIO_Pin = LVQ_Pin;
    29b6:	00f11a23          	sh	a5,20(sp)
C:/Repository/RISKYKVM/firmware/src/User/gpio.c:52
    GPIO_InitStructure.GPIO_Mode = GPIO_Mode_Out_PP;
    29ba:	ce4a                	sw	s2,28(sp)
C:/Repository/RISKYKVM/firmware/src/User/gpio.c:53
    GPIO_InitStructure.GPIO_Speed = GPIO_Speed_50MHz;
    29bc:	cc26                	sw	s1,24(sp)
C:/Repository/RISKYKVM/firmware/src/User/gpio.c:54
    GPIO_Init(LVQ_GPIO_Port, &GPIO_InitStructure);
    29be:	27c010ef          	jal	ra,3c3a <GPIO_Init>
C:/Repository/RISKYKVM/firmware/src/User/gpio.c:60


    GPIO_InitStructure.GPIO_Pin = BH_Pin;
    GPIO_InitStructure.GPIO_Mode = GPIO_Mode_Out_PP;
    GPIO_InitStructure.GPIO_Speed = GPIO_Speed_50MHz;
    GPIO_Init(BH_GPIO_Port, &GPIO_InitStructure);
    29c2:	084c                	addi	a1,sp,20
    29c4:	c0040513          	addi	a0,s0,-1024
C:/Repository/RISKYKVM/firmware/src/User/gpio.c:57
    GPIO_InitStructure.GPIO_Pin = BH_Pin;
    29c8:	01511a23          	sh	s5,20(sp)
C:/Repository/RISKYKVM/firmware/src/User/gpio.c:58
    GPIO_InitStructure.GPIO_Mode = GPIO_Mode_Out_PP;
    29cc:	ce4a                	sw	s2,28(sp)
C:/Repository/RISKYKVM/firmware/src/User/gpio.c:59
    GPIO_InitStructure.GPIO_Speed = GPIO_Speed_50MHz;
    29ce:	cc26                	sw	s1,24(sp)
C:/Repository/RISKYKVM/firmware/src/User/gpio.c:60
    GPIO_Init(BH_GPIO_Port, &GPIO_InitStructure);
    29d0:	26a010ef          	jal	ra,3c3a <GPIO_Init>
C:/Repository/RISKYKVM/firmware/src/User/gpio.c:62

    GPIO_InitStructure.GPIO_Pin = FV_Pin;
    29d4:	10000793          	li	a5,256
C:/Repository/RISKYKVM/firmware/src/User/gpio.c:65
    GPIO_InitStructure.GPIO_Mode = GPIO_Mode_Out_PP;
    GPIO_InitStructure.GPIO_Speed = GPIO_Speed_50MHz;
    GPIO_Init(FV_GPIO_Port, &GPIO_InitStructure);
    29d8:	084c                	addi	a1,sp,20
    29da:	80040513          	addi	a0,s0,-2048
C:/Repository/RISKYKVM/firmware/src/User/gpio.c:62
    GPIO_InitStructure.GPIO_Pin = FV_Pin;
    29de:	00f11a23          	sh	a5,20(sp)
C:/Repository/RISKYKVM/firmware/src/User/gpio.c:63
    GPIO_InitStructure.GPIO_Mode = GPIO_Mode_Out_PP;
    29e2:	ce4a                	sw	s2,28(sp)
C:/Repository/RISKYKVM/firmware/src/User/gpio.c:64
    GPIO_InitStructure.GPIO_Speed = GPIO_Speed_50MHz;
    29e4:	cc26                	sw	s1,24(sp)
C:/Repository/RISKYKVM/firmware/src/User/gpio.c:65
    GPIO_Init(FV_GPIO_Port, &GPIO_InitStructure);
    29e6:	254010ef          	jal	ra,3c3a <GPIO_Init>
C:/Repository/RISKYKVM/firmware/src/User/gpio.c:69


    GPIO_InitStructure.GPIO_Pin = KBD_CLOCK_Pin ;
    GPIO_InitStructure.GPIO_Mode = GPIO_Mode_Out_OD;
    29ea:	4951                	li	s2,20
C:/Repository/RISKYKVM/firmware/src/User/gpio.c:71
    GPIO_InitStructure.GPIO_Speed = GPIO_Speed_50MHz;;
    GPIO_Init(KBD_CLOCK_GPIO_Port, &GPIO_InitStructure);
    29ec:	084c                	addi	a1,sp,20
    29ee:	80040513          	addi	a0,s0,-2048
C:/Repository/RISKYKVM/firmware/src/User/gpio.c:68
    GPIO_InitStructure.GPIO_Pin = KBD_CLOCK_Pin ;
    29f2:	01411a23          	sh	s4,20(sp)
C:/Repository/RISKYKVM/firmware/src/User/gpio.c:69
    GPIO_InitStructure.GPIO_Mode = GPIO_Mode_Out_OD;
    29f6:	ce4a                	sw	s2,28(sp)
C:/Repository/RISKYKVM/firmware/src/User/gpio.c:70
    GPIO_InitStructure.GPIO_Speed = GPIO_Speed_50MHz;;
    29f8:	cc26                	sw	s1,24(sp)
C:/Repository/RISKYKVM/firmware/src/User/gpio.c:71
    GPIO_Init(KBD_CLOCK_GPIO_Port, &GPIO_InitStructure);
    29fa:	240010ef          	jal	ra,3c3a <GPIO_Init>
C:/Repository/RISKYKVM/firmware/src/User/gpio.c:76

    GPIO_InitStructure.GPIO_Pin = KBD_DATA_Pin;
    GPIO_InitStructure.GPIO_Mode = GPIO_Mode_Out_OD;
    GPIO_InitStructure.GPIO_Speed = GPIO_Speed_50MHz;;
    GPIO_Init(KBD_DATA_GPIO_Port, &GPIO_InitStructure);
    29fe:	084c                	addi	a1,sp,20
    2a00:	80040513          	addi	a0,s0,-2048
C:/Repository/RISKYKVM/firmware/src/User/gpio.c:73
    GPIO_InitStructure.GPIO_Pin = KBD_DATA_Pin;
    2a04:	01311a23          	sh	s3,20(sp)
C:/Repository/RISKYKVM/firmware/src/User/gpio.c:74
    GPIO_InitStructure.GPIO_Mode = GPIO_Mode_Out_OD;
    2a08:	ce4a                	sw	s2,28(sp)
C:/Repository/RISKYKVM/firmware/src/User/gpio.c:75
    GPIO_InitStructure.GPIO_Speed = GPIO_Speed_50MHz;;
    2a0a:	cc26                	sw	s1,24(sp)
C:/Repository/RISKYKVM/firmware/src/User/gpio.c:76
    GPIO_Init(KBD_DATA_GPIO_Port, &GPIO_InitStructure);
    2a0c:	22e010ef          	jal	ra,3c3a <GPIO_Init>
C:/Repository/RISKYKVM/firmware/src/User/gpio.c:78

    GPIO_InitStructure.GPIO_Pin = KB_RESET_GPIO_Pin ;
    2a10:	40000993          	li	s3,1024
C:/Repository/RISKYKVM/firmware/src/User/gpio.c:81
    GPIO_InitStructure.GPIO_Mode = GPIO_Mode_Out_OD;
    GPIO_InitStructure.GPIO_Speed = GPIO_Speed_50MHz;;
    GPIO_Init(KB_RESET_GPIO_Port, &GPIO_InitStructure);
    2a14:	084c                	addi	a1,sp,20
    2a16:	80040513          	addi	a0,s0,-2048
C:/Repository/RISKYKVM/firmware/src/User/gpio.c:78
    GPIO_InitStructure.GPIO_Pin = KB_RESET_GPIO_Pin ;
    2a1a:	01311a23          	sh	s3,20(sp)
C:/Repository/RISKYKVM/firmware/src/User/gpio.c:79
    GPIO_InitStructure.GPIO_Mode = GPIO_Mode_Out_OD;
    2a1e:	ce4a                	sw	s2,28(sp)
C:/Repository/RISKYKVM/firmware/src/User/gpio.c:80
    GPIO_InitStructure.GPIO_Speed = GPIO_Speed_50MHz;;
    2a20:	cc26                	sw	s1,24(sp)
C:/Repository/RISKYKVM/firmware/src/User/gpio.c:81
    GPIO_Init(KB_RESET_GPIO_Port, &GPIO_InitStructure);
    2a22:	218010ef          	jal	ra,3c3a <GPIO_Init>
C:/Repository/RISKYKVM/firmware/src/User/gpio.c:93
    //MOUSE PIN 5 - MMB setup for Scroll support
    //On this PCB it is Port B Pin 10
	EXTI_InitTypeDef EXTI_InitStructure = {0};
	NVIC_InitTypeDef NVIC_InitStructure = {0};

	RCC_APB2PeriphClockCmd(RCC_APB2Periph_AFIO, ENABLE);
    2a26:	4585                	li	a1,1
    2a28:	4505                	li	a0,1
C:/Repository/RISKYKVM/firmware/src/User/gpio.c:90
	EXTI_InitTypeDef EXTI_InitStructure = {0};
    2a2a:	d002                	sw	zero,32(sp)
    2a2c:	d202                	sw	zero,36(sp)
    2a2e:	d402                	sw	zero,40(sp)
    2a30:	d602                	sw	zero,44(sp)
C:/Repository/RISKYKVM/firmware/src/User/gpio.c:91
	NVIC_InitTypeDef NVIC_InitStructure = {0};
    2a32:	c602                	sw	zero,12(sp)
    2a34:	c802                	sw	zero,16(sp)
C:/Repository/RISKYKVM/firmware/src/User/gpio.c:93
	RCC_APB2PeriphClockCmd(RCC_APB2Periph_AFIO, ENABLE);
    2a36:	47c010ef          	jal	ra,3eb2 <RCC_APB2PeriphClockCmd>
C:/Repository/RISKYKVM/firmware/src/User/gpio.c:94
	RCC_APB2PeriphClockCmd(RCC_APB2Periph_GPIOB, ENABLE);
    2a3a:	4585                	li	a1,1
    2a3c:	4521                	li	a0,8
    2a3e:	474010ef          	jal	ra,3eb2 <RCC_APB2PeriphClockCmd>
C:/Repository/RISKYKVM/firmware/src/User/gpio.c:97

	GPIO_InitStructure.GPIO_Pin = MB_Pin;
	GPIO_InitStructure.GPIO_Mode = GPIO_Mode_IPU;
    2a42:	04800793          	li	a5,72
C:/Repository/RISKYKVM/firmware/src/User/gpio.c:98
	GPIO_Init(MB_GPIO_Port, &GPIO_InitStructure);
    2a46:	084c                	addi	a1,sp,20
    2a48:	c0040513          	addi	a0,s0,-1024
C:/Repository/RISKYKVM/firmware/src/User/gpio.c:97
	GPIO_InitStructure.GPIO_Mode = GPIO_Mode_IPU;
    2a4c:	ce3e                	sw	a5,28(sp)
C:/Repository/RISKYKVM/firmware/src/User/gpio.c:96
	GPIO_InitStructure.GPIO_Pin = MB_Pin;
    2a4e:	01311a23          	sh	s3,20(sp)
C:/Repository/RISKYKVM/firmware/src/User/gpio.c:98
	GPIO_Init(MB_GPIO_Port, &GPIO_InitStructure);
    2a52:	1e8010ef          	jal	ra,3c3a <GPIO_Init>
C:/Repository/RISKYKVM/firmware/src/User/gpio.c:101


	GPIO_EXTILineConfig(GPIO_PortSourceGPIOB, GPIO_PinSource10);
    2a56:	45a9                	li	a1,10
    2a58:	4505                	li	a0,1
    2a5a:	33c010ef          	jal	ra,3d96 <GPIO_EXTILineConfig>
C:/Repository/RISKYKVM/firmware/src/User/gpio.c:102
	EXTI_InitStructure.EXTI_Line = EXTI_Line10;
    2a5e:	40000793          	li	a5,1024
C:/Repository/RISKYKVM/firmware/src/User/gpio.c:105
	EXTI_InitStructure.EXTI_Mode = EXTI_Mode_Interrupt;
	EXTI_InitStructure.EXTI_Trigger = EXTI_Trigger_Falling;
	EXTI_InitStructure.EXTI_LineCmd = ENABLE;
    2a62:	4405                	li	s0,1
C:/Repository/RISKYKVM/firmware/src/User/gpio.c:102
	EXTI_InitStructure.EXTI_Line = EXTI_Line10;
    2a64:	d03e                	sw	a5,32(sp)
C:/Repository/RISKYKVM/firmware/src/User/gpio.c:106
	EXTI_Init(&EXTI_InitStructure);
    2a66:	1008                	addi	a0,sp,32
C:/Repository/RISKYKVM/firmware/src/User/gpio.c:104
	EXTI_InitStructure.EXTI_Trigger = EXTI_Trigger_Falling;
    2a68:	47b1                	li	a5,12
    2a6a:	d43e                	sw	a5,40(sp)
C:/Repository/RISKYKVM/firmware/src/User/gpio.c:105
	EXTI_InitStructure.EXTI_LineCmd = ENABLE;
    2a6c:	d622                	sw	s0,44(sp)
C:/Repository/RISKYKVM/firmware/src/User/gpio.c:103
	EXTI_InitStructure.EXTI_Mode = EXTI_Mode_Interrupt;
    2a6e:	d202                	sw	zero,36(sp)
C:/Repository/RISKYKVM/firmware/src/User/gpio.c:106
	EXTI_Init(&EXTI_InitStructure);
    2a70:	138010ef          	jal	ra,3ba8 <EXTI_Init>
C:/Repository/RISKYKVM/firmware/src/User/gpio.c:108

	NVIC_InitStructure.NVIC_IRQChannel = EXTI15_10_IRQn;
    2a74:	13800793          	li	a5,312
C:/Repository/RISKYKVM/firmware/src/User/gpio.c:112
	NVIC_InitStructure.NVIC_IRQChannelPreemptionPriority = 1;
	NVIC_InitStructure.NVIC_IRQChannelSubPriority = 1;
	NVIC_InitStructure.NVIC_IRQChannelCmd = ENABLE;
	NVIC_Init(&NVIC_InitStructure);
    2a78:	0068                	addi	a0,sp,12
C:/Repository/RISKYKVM/firmware/src/User/gpio.c:110
	NVIC_InitStructure.NVIC_IRQChannelSubPriority = 1;
    2a7a:	00810723          	sb	s0,14(sp)
C:/Repository/RISKYKVM/firmware/src/User/gpio.c:111
	NVIC_InitStructure.NVIC_IRQChannelCmd = ENABLE;
    2a7e:	c822                	sw	s0,16(sp)
C:/Repository/RISKYKVM/firmware/src/User/gpio.c:108
	NVIC_InitStructure.NVIC_IRQChannel = EXTI15_10_IRQn;
    2a80:	00f11623          	sh	a5,12(sp)
C:/Repository/RISKYKVM/firmware/src/User/gpio.c:112
	NVIC_Init(&NVIC_InitStructure);
    2a84:	33e010ef          	jal	ra,3dc2 <NVIC_Init>
C:/Repository/RISKYKVM/firmware/src/User/gpio.c:113
}
    2a88:	40b6                	lw	ra,76(sp)
    2a8a:	4426                	lw	s0,72(sp)
    2a8c:	4496                	lw	s1,68(sp)
    2a8e:	4906                	lw	s2,64(sp)
    2a90:	59f2                	lw	s3,60(sp)
    2a92:	5a62                	lw	s4,56(sp)
    2a94:	5ad2                	lw	s5,52(sp)
    2a96:	6161                	addi	sp,sp,80
    2a98:	8082                	ret

00002a9a <scancode_to_amiga>:
scancode_to_amiga():
C:/Repository/RISKYKVM/firmware/src/User/keyboard.c:552
static led_status_t amikb_send(uint8_t code, int press);

static uint8_t scancode_to_amiga(uint8_t lkey)
{
	uint8_t i = 0, keyvalue = lkey;
	for (i = 0; i < KEYCODE_TAB_SIZE; i++)
    2a9a:	6711                	lui	a4,0x4
    2a9c:	16c70693          	addi	a3,a4,364 # 416c <scancodeamiga>
C:/Repository/RISKYKVM/firmware/src/User/keyboard.c:550
{
    2aa0:	4781                	li	a5,0
    2aa2:	16c70713          	addi	a4,a4,364
C:/Repository/RISKYKVM/firmware/src/User/keyboard.c:552
	for (i = 0; i < KEYCODE_TAB_SIZE; i++)
    2aa6:	07200613          	li	a2,114
C:/Repository/RISKYKVM/firmware/src/User/keyboard.c:555
	{

		if (lkey == scancodeamiga[i][0])
    2aaa:	0006c583          	lbu	a1,0(a3)
    2aae:	00a59763          	bne	a1,a0,2abc <scancode_to_amiga+0x22>
C:/Repository/RISKYKVM/firmware/src/User/keyboard.c:557
		{
			keyvalue = scancodeamiga[i][1];
    2ab2:	0786                	slli	a5,a5,0x1
    2ab4:	97ba                	add	a5,a5,a4
    2ab6:	0017c503          	lbu	a0,1(a5) # 2001 <GetGamepadInfo+0x9>
C:/Repository/RISKYKVM/firmware/src/User/keyboard.c:558
			break;
    2aba:	8082                	ret
    2abc:	0785                	addi	a5,a5,1
    2abe:	0689                	addi	a3,a3,2
C:/Repository/RISKYKVM/firmware/src/User/keyboard.c:552 (discriminator 2)
	for (i = 0; i < KEYCODE_TAB_SIZE; i++)
    2ac0:	fec795e3          	bne	a5,a2,2aaa <scancode_to_amiga+0x10>
C:/Repository/RISKYKVM/firmware/src/User/keyboard.c:562
		}
	}
	return keyvalue;
}
    2ac4:	8082                	ret

00002ac6 <amikb_send>:
amikb_send():
C:/Repository/RISKYKVM/firmware/src/User/keyboard.c:590
	keyboard_is_present = isready;
}


static led_status_t amikb_send(uint8_t keycode, int press)
{
    2ac6:	1101                	addi	sp,sp,-32
    2ac8:	200007b7          	lui	a5,0x20000
    2acc:	ce06                	sw	ra,28(sp)
    2ace:	cc22                	sw	s0,24(sp)
    2ad0:	ca26                	sw	s1,20(sp)
    2ad2:	c84a                	sw	s2,16(sp)
    2ad4:	c64e                	sw	s3,12(sp)
    2ad6:	c452                	sw	s4,8(sp)
    2ad8:	c256                	sw	s5,4(sp)
    2ada:	c05a                	sw	s6,0(sp)
C:/Repository/RISKYKVM/firmware/src/User/keyboard.c:593
	led_status_t rval = NO_LED;

	if (keycode == 0x62 || keycode == 0x68 || keycode == 0x1c) // Caps Lock, Num Lock or Scroll Lock Pressed or Released
    2adc:	06200713          	li	a4,98
    2ae0:	00078793          	mv	a5,a5
    2ae4:	02e50663          	beq	a0,a4,2b10 <amikb_send+0x4a>
C:/Repository/RISKYKVM/firmware/src/User/keyboard.c:593 (discriminator 1)
    2ae8:	06800713          	li	a4,104
    2aec:	14e50663          	beq	a0,a4,2c38 <amikb_send+0x172>
C:/Repository/RISKYKVM/firmware/src/User/keyboard.c:593 (discriminator 2)
    2af0:	4771                	li	a4,28
C:/Repository/RISKYKVM/firmware/src/User/keyboard.c:591 (discriminator 2)
	led_status_t rval = NO_LED;
    2af2:	4481                	li	s1,0
C:/Repository/RISKYKVM/firmware/src/User/keyboard.c:593 (discriminator 2)
	if (keycode == 0x62 || keycode == 0x68 || keycode == 0x1c) // Caps Lock, Num Lock or Scroll Lock Pressed or Released
    2af4:	02e51963          	bne	a0,a4,2b26 <amikb_send+0x60>
C:/Repository/RISKYKVM/firmware/src/User/keyboard.c:668
						break;
					}
				}
				break;
			case 0x1c: // SCROLL LOCK LED
				if (!scrolllk)
    2af8:	87318713          	addi	a4,gp,-1933 # 20000073 <scrolllk>
    2afc:	00074683          	lbu	a3,0(a4)
    2b00:	16069163          	bnez	a3,2c62 <amikb_send+0x19c>
C:/Repository/RISKYKVM/firmware/src/User/keyboard.c:670
				{
					if (press)
    2b04:	14058b63          	beqz	a1,2c5a <amikb_send+0x194>
C:/Repository/RISKYKVM/firmware/src/User/keyboard.c:673
					{
						rval = LED_SCROLL_LOCK_ON;
						prev_keycode = 0;
    2b08:	00078023          	sb	zero,0(a5) # 20000000 <_data_vma>
C:/Repository/RISKYKVM/firmware/src/User/keyboard.c:672
						rval = LED_SCROLL_LOCK_ON;
    2b0c:	448d                	li	s1,3
C:/Repository/RISKYKVM/firmware/src/User/keyboard.c:674
						break;
    2b0e:	a821                	j	2b26 <amikb_send+0x60>
C:/Repository/RISKYKVM/firmware/src/User/keyboard.c:602
				if (!capslk)
    2b10:	87018713          	addi	a4,gp,-1936 # 20000070 <_edata>
    2b14:	00074683          	lbu	a3,0(a4)
    2b18:	10069563          	bnez	a3,2c22 <amikb_send+0x15c>
C:/Repository/RISKYKVM/firmware/src/User/keyboard.c:604
					if (press)
    2b1c:	12058f63          	beqz	a1,2c5a <amikb_send+0x194>
C:/Repository/RISKYKVM/firmware/src/User/keyboard.c:607
						prev_keycode = 0;
    2b20:	00078023          	sb	zero,0(a5)
C:/Repository/RISKYKVM/firmware/src/User/keyboard.c:606
						rval = LED_CAPS_LOCK_ON;
    2b24:	4485                	li	s1,1
C:/Repository/RISKYKVM/firmware/src/User/keyboard.c:710
				break;
		}
	}

	// keycode bit transfer order: 6 5 4 3 2 1 0 7 (7 is pressed flag)
	keycode = (keycode << 1) | (~press & 1);
    2b26:	fff5c593          	not	a1,a1
    2b2a:	00151413          	slli	s0,a0,0x1
    2b2e:	8985                	andi	a1,a1,1
C:/Repository/RISKYKVM/firmware/src/User/keyboard.c:711
	if (keycode == prev_keycode)
    2b30:	0007c703          	lbu	a4,0(a5)
C:/Repository/RISKYKVM/firmware/src/User/keyboard.c:710
	keycode = (keycode << 1) | (~press & 1);
    2b34:	8dc1                	or	a1,a1,s0
    2b36:	0ff5f413          	andi	s0,a1,255
C:/Repository/RISKYKVM/firmware/src/User/keyboard.c:711
	if (keycode == prev_keycode)
    2b3a:	0e870763          	beq	a4,s0,2c28 <amikb_send+0x162>
C:/Repository/RISKYKVM/firmware/src/User/keyboard.c:721

	prev_keycode = keycode;

	//send to Amiga

	GPIO_WriteBit(KBD_DATA_GPIO_Port, KBD_DATA_Pin, Bit_SET); // Normally KBD_DATA pin is HIGH
    2b3e:	6905                	lui	s2,0x1
    2b40:	400119b7          	lui	s3,0x40011
    2b44:	80090593          	addi	a1,s2,-2048 # 800 <__stack_size>
    2b48:	80098513          	addi	a0,s3,-2048 # 40010800 <_eusrstack+0x2000b800>
    2b4c:	4605                	li	a2,1
C:/Repository/RISKYKVM/firmware/src/User/keyboard.c:717
	prev_keycode = keycode;
    2b4e:	00878023          	sb	s0,0(a5)
C:/Repository/RISKYKVM/firmware/src/User/keyboard.c:721
	GPIO_WriteBit(KBD_DATA_GPIO_Port, KBD_DATA_Pin, Bit_SET); // Normally KBD_DATA pin is HIGH
    2b52:	216010ef          	jal	ra,3d68 <GPIO_WriteBit>
C:/Repository/RISKYKVM/firmware/src/User/keyboard.c:724

	// pulse the data line and wait for about 100us
	GPIO_WriteBit(KBD_DATA_GPIO_Port, KBD_DATA_Pin, Bit_RESET); // KBD_DATA pin is LOW
    2b56:	80090593          	addi	a1,s2,-2048
    2b5a:	4601                	li	a2,0
    2b5c:	80098513          	addi	a0,s3,-2048
    2b60:	208010ef          	jal	ra,3d68 <GPIO_WriteBit>
C:/Repository/RISKYKVM/firmware/src/User/keyboard.c:725
	Delay_Us(100);
    2b64:	06400513          	li	a0,100
    2b68:	48c010ef          	jal	ra,3ff4 <Delay_Us>
C:/Repository/RISKYKVM/firmware/src/User/keyboard.c:726
	GPIO_WriteBit(KBD_DATA_GPIO_Port, KBD_DATA_Pin, Bit_SET); // KBD_DATA pin is HIGH
    2b6c:	80090593          	addi	a1,s2,-2048
    2b70:	80098513          	addi	a0,s3,-2048
    2b74:	4605                	li	a2,1
    2b76:	1f2010ef          	jal	ra,3d68 <GPIO_WriteBit>
C:/Repository/RISKYKVM/firmware/src/User/keyboard.c:727
	Delay_Us(100);
    2b7a:	06400513          	li	a0,100
C:/Repository/RISKYKVM/firmware/src/User/keyboard.c:740
			GPIO_WriteBit(KBD_DATA_GPIO_Port, KBD_DATA_Pin, Bit_RESET);
		}
		else
		{
			// a logic 0 is high in hardware
			GPIO_WriteBit(KBD_DATA_GPIO_Port, KBD_DATA_Pin, Bit_SET);
    2b7e:	40011ab7          	lui	s5,0x40011
C:/Repository/RISKYKVM/firmware/src/User/keyboard.c:727
	Delay_Us(100);
    2b82:	472010ef          	jal	ra,3ff4 <Delay_Us>
C:/Repository/RISKYKVM/firmware/src/User/keyboard.c:740
			GPIO_WriteBit(KBD_DATA_GPIO_Port, KBD_DATA_Pin, Bit_SET);
    2b86:	80090913          	addi	s2,s2,-2048
C:/Repository/RISKYKVM/firmware/src/User/keyboard.c:729
	for (i = 0; i < 8; i++)
    2b8a:	860188a3          	sb	zero,-1935(gp) # 20000071 <i>
C:/Repository/RISKYKVM/firmware/src/User/keyboard.c:740
			GPIO_WriteBit(KBD_DATA_GPIO_Port, KBD_DATA_Pin, Bit_SET);
    2b8e:	800a8a13          	addi	s4,s5,-2048 # 40010800 <_eusrstack+0x2000b800>
    2b92:	87118993          	addi	s3,gp,-1935 # 20000071 <i>
C:/Repository/RISKYKVM/firmware/src/User/keyboard.c:729
	for (i = 0; i < 8; i++)
    2b96:	4b1d                	li	s6,7
C:/Repository/RISKYKVM/firmware/src/User/keyboard.c:732
		if (keycode & 0x80)
    2b98:	01841793          	slli	a5,s0,0x18
    2b9c:	87e1                	srai	a5,a5,0x18
C:/Repository/RISKYKVM/firmware/src/User/keyboard.c:735
			GPIO_WriteBit(KBD_DATA_GPIO_Port, KBD_DATA_Pin, Bit_RESET);
    2b9e:	4601                	li	a2,0
C:/Repository/RISKYKVM/firmware/src/User/keyboard.c:732
		if (keycode & 0x80)
    2ba0:	0007c363          	bltz	a5,2ba6 <amikb_send+0xe0>
C:/Repository/RISKYKVM/firmware/src/User/keyboard.c:740
			GPIO_WriteBit(KBD_DATA_GPIO_Port, KBD_DATA_Pin, Bit_SET);
    2ba4:	4605                	li	a2,1
    2ba6:	85ca                	mv	a1,s2
    2ba8:	8552                	mv	a0,s4
    2baa:	1be010ef          	jal	ra,3d68 <GPIO_WriteBit>
C:/Repository/RISKYKVM/firmware/src/User/keyboard.c:743
		}
		keycode <<= 1;
		Delay_Us(10);
    2bae:	4529                	li	a0,10
    2bb0:	444010ef          	jal	ra,3ff4 <Delay_Us>
C:/Repository/RISKYKVM/firmware/src/User/keyboard.c:745
		/* pulse the clock */
		GPIO_WriteBit(KBD_CLOCK_GPIO_Port, KBD_CLOCK_Pin, Bit_RESET); // Clear KBD_CLOCK pin
    2bb4:	4601                	li	a2,0
    2bb6:	6585                	lui	a1,0x1
    2bb8:	8552                	mv	a0,s4
    2bba:	1ae010ef          	jal	ra,3d68 <GPIO_WriteBit>
C:/Repository/RISKYKVM/firmware/src/User/keyboard.c:746
		Delay_Us(10);
    2bbe:	4529                	li	a0,10
    2bc0:	434010ef          	jal	ra,3ff4 <Delay_Us>
C:/Repository/RISKYKVM/firmware/src/User/keyboard.c:747
		GPIO_WriteBit(KBD_CLOCK_GPIO_Port, KBD_CLOCK_Pin, Bit_SET); // Set KBD_CLOCK pin
    2bc4:	4605                	li	a2,1
    2bc6:	6585                	lui	a1,0x1
    2bc8:	8552                	mv	a0,s4
    2bca:	19e010ef          	jal	ra,3d68 <GPIO_WriteBit>
C:/Repository/RISKYKVM/firmware/src/User/keyboard.c:748
		Delay_Us(10);
    2bce:	4529                	li	a0,10
    2bd0:	424010ef          	jal	ra,3ff4 <Delay_Us>
C:/Repository/RISKYKVM/firmware/src/User/keyboard.c:729
	for (i = 0; i < 8; i++)
    2bd4:	0009c783          	lbu	a5,0(s3)
C:/Repository/RISKYKVM/firmware/src/User/keyboard.c:742
		keycode <<= 1;
    2bd8:	0406                	slli	s0,s0,0x1
    2bda:	0ff47413          	andi	s0,s0,255
C:/Repository/RISKYKVM/firmware/src/User/keyboard.c:729
	for (i = 0; i < 8; i++)
    2bde:	0785                	addi	a5,a5,1
    2be0:	0ff7f793          	andi	a5,a5,255
    2be4:	00f98023          	sb	a5,0(s3)
    2be8:	fafb78e3          	bgeu	s6,a5,2b98 <amikb_send+0xd2>
C:/Repository/RISKYKVM/firmware/src/User/keyboard.c:750
	}
	Delay_Us(100);
    2bec:	06400513          	li	a0,100
    2bf0:	404010ef          	jal	ra,3ff4 <Delay_Us>
C:/Repository/RISKYKVM/firmware/src/User/keyboard.c:751
	GPIO_WriteBit(KBD_DATA_GPIO_Port, KBD_DATA_Pin, Bit_SET); // Set KBD_DATA pin
    2bf4:	6585                	lui	a1,0x1
    2bf6:	800a8513          	addi	a0,s5,-2048
    2bfa:	4605                	li	a2,1
    2bfc:	80058593          	addi	a1,a1,-2048 # 800 <__stack_size>
    2c00:	168010ef          	jal	ra,3d68 <GPIO_WriteBit>
C:/Repository/RISKYKVM/firmware/src/User/keyboard.c:752
	Delay_Us(100);
    2c04:	06400513          	li	a0,100
    2c08:	3ec010ef          	jal	ra,3ff4 <Delay_Us>
C:/Repository/RISKYKVM/firmware/src/User/keyboard.c:756


	return rval;
}
    2c0c:	40f2                	lw	ra,28(sp)
    2c0e:	4462                	lw	s0,24(sp)
    2c10:	8526                	mv	a0,s1
    2c12:	4942                	lw	s2,16(sp)
    2c14:	44d2                	lw	s1,20(sp)
    2c16:	49b2                	lw	s3,12(sp)
    2c18:	4a22                	lw	s4,8(sp)
    2c1a:	4a92                	lw	s5,4(sp)
    2c1c:	4b02                	lw	s6,0(sp)
    2c1e:	6105                	addi	sp,sp,32
    2c20:	8082                	ret
C:/Repository/RISKYKVM/firmware/src/User/keyboard.c:620
					if (press)
    2c22:	c589                	beqz	a1,2c2c <amikb_send+0x166>
C:/Repository/RISKYKVM/firmware/src/User/keyboard.c:680
						prev_keycode = 0;
    2c24:	00078023          	sb	zero,0(a5)
C:/Repository/RISKYKVM/firmware/src/User/keyboard.c:714
		return NO_LED;
    2c28:	4481                	li	s1,0
    2c2a:	b7cd                	j	2c0c <amikb_send+0x146>
C:/Repository/RISKYKVM/firmware/src/User/keyboard.c:627
						capslk = 0;
    2c2c:	00070023          	sb	zero,0(a4)
C:/Repository/RISKYKVM/firmware/src/User/keyboard.c:629
						prev_keycode = 0;
    2c30:	00078023          	sb	zero,0(a5)
C:/Repository/RISKYKVM/firmware/src/User/keyboard.c:628
						rval = LED_CAPS_LOCK_OFF;
    2c34:	4491                	li	s1,4
C:/Repository/RISKYKVM/firmware/src/User/keyboard.c:630
						break;
    2c36:	bdc5                	j	2b26 <amikb_send+0x60>
C:/Repository/RISKYKVM/firmware/src/User/keyboard.c:635
				if (!numlk)
    2c38:	87218713          	addi	a4,gp,-1934 # 20000072 <numlk>
    2c3c:	00074683          	lbu	a3,0(a4)
    2c40:	e691                	bnez	a3,2c4c <amikb_send+0x186>
C:/Repository/RISKYKVM/firmware/src/User/keyboard.c:637
					if (press)
    2c42:	cd81                	beqz	a1,2c5a <amikb_send+0x194>
C:/Repository/RISKYKVM/firmware/src/User/keyboard.c:640
						prev_keycode = 0;
    2c44:	00078023          	sb	zero,0(a5)
C:/Repository/RISKYKVM/firmware/src/User/keyboard.c:639
						rval = LED_NUM_LOCK_ON;
    2c48:	4489                	li	s1,2
C:/Repository/RISKYKVM/firmware/src/User/keyboard.c:641
						break;
    2c4a:	bdf1                	j	2b26 <amikb_send+0x60>
C:/Repository/RISKYKVM/firmware/src/User/keyboard.c:653
					if (press)
    2c4c:	fde1                	bnez	a1,2c24 <amikb_send+0x15e>
C:/Repository/RISKYKVM/firmware/src/User/keyboard.c:660
						numlk = 0;
    2c4e:	00070023          	sb	zero,0(a4)
C:/Repository/RISKYKVM/firmware/src/User/keyboard.c:662
						prev_keycode = 0;
    2c52:	00078023          	sb	zero,0(a5)
C:/Repository/RISKYKVM/firmware/src/User/keyboard.c:661
						rval = LED_NUM_LOCK_OFF;
    2c56:	4495                	li	s1,5
C:/Repository/RISKYKVM/firmware/src/User/keyboard.c:663
						break;
    2c58:	b5f9                	j	2b26 <amikb_send+0x60>
C:/Repository/RISKYKVM/firmware/src/User/keyboard.c:679
						scrolllk = 1;
    2c5a:	4685                	li	a3,1
    2c5c:	00d70023          	sb	a3,0(a4)
    2c60:	b7d1                	j	2c24 <amikb_send+0x15e>
C:/Repository/RISKYKVM/firmware/src/User/keyboard.c:686
					if (press)
    2c62:	f1e9                	bnez	a1,2c24 <amikb_send+0x15e>
C:/Repository/RISKYKVM/firmware/src/User/keyboard.c:693
						scrolllk = 0;
    2c64:	00070023          	sb	zero,0(a4)
C:/Repository/RISKYKVM/firmware/src/User/keyboard.c:695
						prev_keycode = 0;
    2c68:	00078023          	sb	zero,0(a5)
C:/Repository/RISKYKVM/firmware/src/User/keyboard.c:694
						rval = LED_SCROLL_LOCK_OFF;
    2c6c:	4499                	li	s1,6
C:/Repository/RISKYKVM/firmware/src/User/keyboard.c:696
						break;
    2c6e:	bd65                	j	2b26 <amikb_send+0x60>

00002c70 <amikb_reset>:
amikb_reset():
C:/Repository/RISKYKVM/firmware/src/User/keyboard.c:760

// **************************
void amikb_reset(void)
{
    2c70:	1141                	addi	sp,sp,-16
    2c72:	c226                	sw	s1,4(sp)
C:/Repository/RISKYKVM/firmware/src/User/keyboard.c:763
    int8_t var;
    for (var = 0; var < 10; ++var) {
        GPIO_WriteBit(KB_RESET_GPIO_Port, KB_RESET_GPIO_Pin, Bit_RESET);
    2c74:	400114b7          	lui	s1,0x40011
C:/Repository/RISKYKVM/firmware/src/User/keyboard.c:760
{
    2c78:	c422                	sw	s0,8(sp)
    2c7a:	c04a                	sw	s2,0(sp)
    2c7c:	c606                	sw	ra,12(sp)
    2c7e:	4429                	li	s0,10
C:/Repository/RISKYKVM/firmware/src/User/keyboard.c:763
        GPIO_WriteBit(KB_RESET_GPIO_Port, KB_RESET_GPIO_Pin, Bit_RESET);
    2c80:	80048913          	addi	s2,s1,-2048 # 40010800 <_eusrstack+0x2000b800>
C:/Repository/RISKYKVM/firmware/src/User/keyboard.c:763 (discriminator 3)
    2c84:	147d                	addi	s0,s0,-1
    2c86:	4601                	li	a2,0
    2c88:	40000593          	li	a1,1024
    2c8c:	854a                	mv	a0,s2
    2c8e:	0ff47413          	andi	s0,s0,255
    2c92:	0d6010ef          	jal	ra,3d68 <GPIO_WriteBit>
C:/Repository/RISKYKVM/firmware/src/User/keyboard.c:762 (discriminator 3)
    for (var = 0; var < 10; ++var) {
    2c96:	f47d                	bnez	s0,2c84 <amikb_reset+0x14>
C:/Repository/RISKYKVM/firmware/src/User/keyboard.c:766
    }

    GPIO_WriteBit(KB_RESET_GPIO_Port, KB_RESET_GPIO_Pin, Bit_SET);
    2c98:	80048513          	addi	a0,s1,-2048
    2c9c:	4605                	li	a2,1
    2c9e:	40000593          	li	a1,1024
    2ca2:	0c6010ef          	jal	ra,3d68 <GPIO_WriteBit>
C:/Repository/RISKYKVM/firmware/src/User/keyboard.c:768

    prev_keycode = 0xff;
    2ca6:	200007b7          	lui	a5,0x20000
    2caa:	577d                	li	a4,-1
    2cac:	00e78023          	sb	a4,0(a5) # 20000000 <_data_vma>
C:/Repository/RISKYKVM/firmware/src/User/keyboard.c:769
	capslk = 0;
    2cb0:	86018823          	sb	zero,-1936(gp) # 20000070 <_edata>
C:/Repository/RISKYKVM/firmware/src/User/keyboard.c:772
	numlk = 0;
	scrolllk = 0;
}
    2cb4:	40b2                	lw	ra,12(sp)
    2cb6:	4422                	lw	s0,8(sp)
C:/Repository/RISKYKVM/firmware/src/User/keyboard.c:770
	numlk = 0;
    2cb8:	86018923          	sb	zero,-1934(gp) # 20000072 <numlk>
C:/Repository/RISKYKVM/firmware/src/User/keyboard.c:771
	scrolllk = 0;
    2cbc:	860189a3          	sb	zero,-1933(gp) # 20000073 <scrolllk>
C:/Repository/RISKYKVM/firmware/src/User/keyboard.c:772
}
    2cc0:	4492                	lw	s1,4(sp)
    2cc2:	4902                	lw	s2,0(sp)
    2cc4:	0141                	addi	sp,sp,16
    2cc6:	8082                	ret

00002cc8 <amikb_process>:
amikb_process():
C:/Repository/RISKYKVM/firmware/src/User/keyboard.c:785

void amikb_process(HID_Keyboard_Data *kbdata)
{


	if (kbdata == NULL) return;
    2cc8:	1e050663          	beqz	a0,2eb4 <amikb_process+0x1ec>
C:/Repository/RISKYKVM/firmware/src/User/keyboard.c:782
{
    2ccc:	7139                	addi	sp,sp,-64
    2cce:	da26                	sw	s1,52(sp)
    2cd0:	de06                	sw	ra,60(sp)
    2cd2:	dc22                	sw	s0,56(sp)
    2cd4:	d84a                	sw	s2,48(sp)
    2cd6:	d64e                	sw	s3,44(sp)
C:/Repository/RISKYKVM/firmware/src/User/keyboard.c:793
	int j;
	led_status_t rval = NO_LED; /* 0 means no USB interaction such as leds, ... */


	//check for reset
	if(kbdata->lctrl == 1 && kbdata->lalt ==1 &&kbdata->keys[0]==KEY_DELETE  )
    2cd8:	00054783          	lbu	a5,0(a0) # 40011000 <_eusrstack+0x2000c000>
    2cdc:	4705                	li	a4,1
    2cde:	84aa                	mv	s1,a0
    2ce0:	00e79d63          	bne	a5,a4,2cfa <amikb_process+0x32>
C:/Repository/RISKYKVM/firmware/src/User/keyboard.c:793 (discriminator 1)
    2ce4:	00254703          	lbu	a4,2(a0)
    2ce8:	00f71963          	bne	a4,a5,2cfa <amikb_process+0x32>
C:/Repository/RISKYKVM/firmware/src/User/keyboard.c:793 (discriminator 2)
    2cec:	00854703          	lbu	a4,8(a0)
    2cf0:	04c00793          	li	a5,76
    2cf4:	00f71363          	bne	a4,a5,2cfa <amikb_process+0x32>
C:/Repository/RISKYKVM/firmware/src/User/keyboard.c:795
	{
		amikb_reset();
    2cf8:	3fa5                	jal	2c70 <amikb_reset>
C:/Repository/RISKYKVM/firmware/src/User/keyboard.c:801
	}

	// ----------------------------------------------- LEFT

	// LEFT SHIFT
	if (prevkeycode.lshift != kbdata->lshift)
    2cfa:	8c818713          	addi	a4,gp,-1848 # 200000c8 <prevkeycode>
    2cfe:	0014c583          	lbu	a1,1(s1)
    2d02:	00174703          	lbu	a4,1(a4)
    2d06:	893e                	mv	s2,a5
    2d08:	8c818413          	addi	s0,gp,-1848 # 200000c8 <prevkeycode>
    2d0c:	00b70a63          	beq	a4,a1,2d20 <amikb_process+0x58>
C:/Repository/RISKYKVM/firmware/src/User/keyboard.c:804
	{
		prevkeycode.lshift = kbdata->lshift;
		rval |= amikb_send(scancode_to_amiga(KEY_LEFTSHIFT), kbdata->lshift);
    2d10:	0e100513          	li	a0,225
C:/Repository/RISKYKVM/firmware/src/User/keyboard.c:803
		prevkeycode.lshift = kbdata->lshift;
    2d14:	00b400a3          	sb	a1,1(s0)
    2d18:	c62e                	sw	a1,12(sp)
C:/Repository/RISKYKVM/firmware/src/User/keyboard.c:804
		rval |= amikb_send(scancode_to_amiga(KEY_LEFTSHIFT), kbdata->lshift);
    2d1a:	3341                	jal	2a9a <scancode_to_amiga>
    2d1c:	45b2                	lw	a1,12(sp)
    2d1e:	3365                	jal	2ac6 <amikb_send>
C:/Repository/RISKYKVM/firmware/src/User/keyboard.c:808
	}

	// LEFT ALT
	if (prevkeycode.lalt != kbdata->lalt)
    2d20:	0024c583          	lbu	a1,2(s1)
    2d24:	00244783          	lbu	a5,2(s0)
    2d28:	00b78a63          	beq	a5,a1,2d3c <amikb_process+0x74>
C:/Repository/RISKYKVM/firmware/src/User/keyboard.c:811
	{
		prevkeycode.lalt = kbdata->lalt;
		rval |= amikb_send(scancode_to_amiga(KEY_LEFTALT), kbdata->lalt);
    2d2c:	0e200513          	li	a0,226
C:/Repository/RISKYKVM/firmware/src/User/keyboard.c:810
		prevkeycode.lalt = kbdata->lalt;
    2d30:	00b40123          	sb	a1,2(s0)
    2d34:	c62e                	sw	a1,12(sp)
C:/Repository/RISKYKVM/firmware/src/User/keyboard.c:811
		rval |= amikb_send(scancode_to_amiga(KEY_LEFTALT), kbdata->lalt);
    2d36:	3395                	jal	2a9a <scancode_to_amiga>
    2d38:	45b2                	lw	a1,12(sp)
    2d3a:	3371                	jal	2ac6 <amikb_send>
C:/Repository/RISKYKVM/firmware/src/User/keyboard.c:815
	}

	// LEFT CTRL
	if (prevkeycode.lctrl != kbdata->lctrl)
    2d3c:	0004c583          	lbu	a1,0(s1)
    2d40:	00044783          	lbu	a5,0(s0)
    2d44:	00b78a63          	beq	a5,a1,2d58 <amikb_process+0x90>
C:/Repository/RISKYKVM/firmware/src/User/keyboard.c:818
	{
		prevkeycode.lctrl = kbdata->lctrl;
		rval |= amikb_send(scancode_to_amiga(KEY_LEFTCONTROL), kbdata->lctrl);
    2d48:	0e000513          	li	a0,224
C:/Repository/RISKYKVM/firmware/src/User/keyboard.c:817
		prevkeycode.lctrl = kbdata->lctrl;
    2d4c:	00b40023          	sb	a1,0(s0)
    2d50:	c62e                	sw	a1,12(sp)
C:/Repository/RISKYKVM/firmware/src/User/keyboard.c:818
		rval |= amikb_send(scancode_to_amiga(KEY_LEFTCONTROL), kbdata->lctrl);
    2d52:	33a1                	jal	2a9a <scancode_to_amiga>
    2d54:	45b2                	lw	a1,12(sp)
    2d56:	3b85                	jal	2ac6 <amikb_send>
C:/Repository/RISKYKVM/firmware/src/User/keyboard.c:822
	}

	// LEFT GUI
	if (prevkeycode.lgui != kbdata->lgui)
    2d58:	0034c583          	lbu	a1,3(s1)
    2d5c:	00344783          	lbu	a5,3(s0)
    2d60:	00b78a63          	beq	a5,a1,2d74 <amikb_process+0xac>
C:/Repository/RISKYKVM/firmware/src/User/keyboard.c:825
	{
		prevkeycode.lgui = kbdata->lgui;
		rval |= amikb_send(scancode_to_amiga(KEY_LEFT_GUI),  kbdata->lgui);
    2d64:	0e300513          	li	a0,227
C:/Repository/RISKYKVM/firmware/src/User/keyboard.c:824
		prevkeycode.lgui = kbdata->lgui;
    2d68:	00b401a3          	sb	a1,3(s0)
    2d6c:	c62e                	sw	a1,12(sp)
C:/Repository/RISKYKVM/firmware/src/User/keyboard.c:825
		rval |= amikb_send(scancode_to_amiga(KEY_LEFT_GUI),  kbdata->lgui);
    2d6e:	3335                	jal	2a9a <scancode_to_amiga>
    2d70:	45b2                	lw	a1,12(sp)
    2d72:	3b91                	jal	2ac6 <amikb_send>
C:/Repository/RISKYKVM/firmware/src/User/keyboard.c:830
	}

	// ----------------------------------------------- RIGHT
	// RIGHT SHIFT
	if (prevkeycode.rshift != kbdata->rshift)
    2d74:	0054c583          	lbu	a1,5(s1)
    2d78:	00544783          	lbu	a5,5(s0)
    2d7c:	00b78a63          	beq	a5,a1,2d90 <amikb_process+0xc8>
C:/Repository/RISKYKVM/firmware/src/User/keyboard.c:833
	{
		prevkeycode.rshift = kbdata->rshift;
		rval |= amikb_send(scancode_to_amiga(KEY_RIGHTSHIFT), kbdata->rshift);
    2d80:	0e500513          	li	a0,229
C:/Repository/RISKYKVM/firmware/src/User/keyboard.c:832
		prevkeycode.rshift = kbdata->rshift;
    2d84:	00b402a3          	sb	a1,5(s0)
    2d88:	c62e                	sw	a1,12(sp)
C:/Repository/RISKYKVM/firmware/src/User/keyboard.c:833
		rval |= amikb_send(scancode_to_amiga(KEY_RIGHTSHIFT), kbdata->rshift);
    2d8a:	3b01                	jal	2a9a <scancode_to_amiga>
    2d8c:	45b2                	lw	a1,12(sp)
    2d8e:	3b25                	jal	2ac6 <amikb_send>
C:/Repository/RISKYKVM/firmware/src/User/keyboard.c:837
	}

	// RIGHT ALT
	if (prevkeycode.ralt != kbdata->ralt)
    2d90:	0064c583          	lbu	a1,6(s1)
    2d94:	00644783          	lbu	a5,6(s0)
    2d98:	00b78a63          	beq	a5,a1,2dac <amikb_process+0xe4>
C:/Repository/RISKYKVM/firmware/src/User/keyboard.c:840
	{
		prevkeycode.ralt = kbdata->ralt;
		rval |= amikb_send(scancode_to_amiga(KEY_RIGHTALT), kbdata->ralt);
    2d9c:	0e600513          	li	a0,230
C:/Repository/RISKYKVM/firmware/src/User/keyboard.c:839
		prevkeycode.ralt = kbdata->ralt;
    2da0:	00b40323          	sb	a1,6(s0)
    2da4:	c62e                	sw	a1,12(sp)
C:/Repository/RISKYKVM/firmware/src/User/keyboard.c:840
		rval |= amikb_send(scancode_to_amiga(KEY_RIGHTALT), kbdata->ralt);
    2da6:	39d5                	jal	2a9a <scancode_to_amiga>
    2da8:	45b2                	lw	a1,12(sp)
    2daa:	3b31                	jal	2ac6 <amikb_send>
C:/Repository/RISKYKVM/firmware/src/User/keyboard.c:844
	}

	// RIGHT CTRL
	if (prevkeycode.rctrl != kbdata->rctrl)
    2dac:	0044c583          	lbu	a1,4(s1)
    2db0:	00444783          	lbu	a5,4(s0)
    2db4:	00b78a63          	beq	a5,a1,2dc8 <amikb_process+0x100>
C:/Repository/RISKYKVM/firmware/src/User/keyboard.c:847
	{
		prevkeycode.rctrl = kbdata->rctrl;
		rval |= amikb_send(scancode_to_amiga(KEY_RIGHTCONTROL), kbdata->rctrl);
    2db8:	0e400513          	li	a0,228
C:/Repository/RISKYKVM/firmware/src/User/keyboard.c:846
		prevkeycode.rctrl = kbdata->rctrl;
    2dbc:	00b40223          	sb	a1,4(s0)
    2dc0:	c62e                	sw	a1,12(sp)
C:/Repository/RISKYKVM/firmware/src/User/keyboard.c:847
		rval |= amikb_send(scancode_to_amiga(KEY_RIGHTCONTROL), kbdata->rctrl);
    2dc2:	39e1                	jal	2a9a <scancode_to_amiga>
    2dc4:	45b2                	lw	a1,12(sp)
    2dc6:	3301                	jal	2ac6 <amikb_send>
C:/Repository/RISKYKVM/firmware/src/User/keyboard.c:851
	}

	// RIGHT GUI
	if (prevkeycode.rgui != kbdata->rgui)
    2dc8:	0074c583          	lbu	a1,7(s1)
    2dcc:	00744783          	lbu	a5,7(s0)
    2dd0:	00b78a63          	beq	a5,a1,2de4 <amikb_process+0x11c>
C:/Repository/RISKYKVM/firmware/src/User/keyboard.c:854
	{
		prevkeycode.rgui = kbdata->rgui;
		rval |= amikb_send(scancode_to_amiga(KEY_RIGHT_GUI), kbdata->rgui);
    2dd4:	0e700513          	li	a0,231
C:/Repository/RISKYKVM/firmware/src/User/keyboard.c:853
		prevkeycode.rgui = kbdata->rgui;
    2dd8:	00b403a3          	sb	a1,7(s0)
    2ddc:	c62e                	sw	a1,12(sp)
C:/Repository/RISKYKVM/firmware/src/User/keyboard.c:854
		rval |= amikb_send(scancode_to_amiga(KEY_RIGHT_GUI), kbdata->rgui);
    2dde:	3975                	jal	2a9a <scancode_to_amiga>
    2de0:	45b2                	lw	a1,12(sp)
    2de2:	31d5                	jal	2ac6 <amikb_send>
C:/Repository/RISKYKVM/firmware/src/User/keyboard.c:860
	}



	// Send all pressed key
	uint8_t keysToPress[KEY_PRESSED_MAX] = {0};
    2de4:	c802                	sw	zero,16(sp)
    2de6:	00011a23          	sh	zero,20(sp)
C:/Repository/RISKYKVM/firmware/src/User/keyboard.c:861
	uint8_t keysToRelease[KEY_PRESSED_MAX] = {0} ;
    2dea:	cc02                	sw	zero,24(sp)
    2dec:	00011e23          	sh	zero,28(sp)
C:/Repository/RISKYKVM/firmware/src/User/keyboard.c:867

	int idxPress= 0;
	int idxRelease = 0;

	//Find keys to release
	for (i = 0; i < KEY_PRESSED_MAX; i++)
    2df0:	00640513          	addi	a0,s0,6
C:/Repository/RISKYKVM/firmware/src/User/keyboard.c:861
	uint8_t keysToRelease[KEY_PRESSED_MAX] = {0} ;
    2df4:	8c818793          	addi	a5,gp,-1848 # 200000c8 <prevkeycode>
C:/Repository/RISKYKVM/firmware/src/User/keyboard.c:864
	int idxRelease = 0;
    2df8:	4601                	li	a2,0
    2dfa:	00e48813          	addi	a6,s1,14
C:/Repository/RISKYKVM/firmware/src/User/keyboard.c:872
	{
		int found = 0;
		for (j = 0; j < KEY_PRESSED_MAX; j++)
		{
			if (prevkeycode.keys[i] == kbdata->keys[j] )
    2dfe:	0087c883          	lbu	a7,8(a5)
    2e02:	00848713          	addi	a4,s1,8
    2e06:	86ba                	mv	a3,a4
C:/Repository/RISKYKVM/firmware/src/User/keyboard.c:869
		int found = 0;
    2e08:	4581                	li	a1,0
C:/Repository/RISKYKVM/firmware/src/User/keyboard.c:872
			if (prevkeycode.keys[i] == kbdata->keys[j] )
    2e0a:	0006c303          	lbu	t1,0(a3)
    2e0e:	01131363          	bne	t1,a7,2e14 <amikb_process+0x14c>
C:/Repository/RISKYKVM/firmware/src/User/keyboard.c:874
			{
				found = 1;
    2e12:	4585                	li	a1,1
    2e14:	0685                	addi	a3,a3,1
C:/Repository/RISKYKVM/firmware/src/User/keyboard.c:870 (discriminator 2)
		for (j = 0; j < KEY_PRESSED_MAX; j++)
    2e16:	fed81ae3          	bne	a6,a3,2e0a <amikb_process+0x142>
C:/Repository/RISKYKVM/firmware/src/User/keyboard.c:878
			}
		}

		if(found == 0)
    2e1a:	e591                	bnez	a1,2e26 <amikb_process+0x15e>
C:/Repository/RISKYKVM/firmware/src/User/keyboard.c:880
		{
		keysToRelease[idxRelease] = prevkeycode.keys[i];
    2e1c:	1014                	addi	a3,sp,32
    2e1e:	96b2                	add	a3,a3,a2
    2e20:	ff168c23          	sb	a7,-8(a3)
C:/Repository/RISKYKVM/firmware/src/User/keyboard.c:881
		idxRelease++;
    2e24:	0605                	addi	a2,a2,1
    2e26:	0785                	addi	a5,a5,1
C:/Repository/RISKYKVM/firmware/src/User/keyboard.c:867 (discriminator 2)
	for (i = 0; i < KEY_PRESSED_MAX; i++)
    2e28:	fcf51be3          	bne	a0,a5,2dfe <amikb_process+0x136>
C:/Repository/RISKYKVM/firmware/src/User/keyboard.c:863
	int idxPress= 0;
    2e2c:	4681                	li	a3,0
C:/Repository/RISKYKVM/firmware/src/User/keyboard.c:892
	for (i = 0; i < KEY_PRESSED_MAX; i++)
	{
		int found = 0;
		for (j = 0; j < KEY_PRESSED_MAX; j++)
		{
			if ( kbdata->keys[i] == prevkeycode.keys[j])
    2e2e:	00074583          	lbu	a1,0(a4)
    2e32:	87a2                	mv	a5,s0
C:/Repository/RISKYKVM/firmware/src/User/keyboard.c:889
		int found = 0;
    2e34:	4601                	li	a2,0
C:/Repository/RISKYKVM/firmware/src/User/keyboard.c:892
			if ( kbdata->keys[i] == prevkeycode.keys[j])
    2e36:	0087c883          	lbu	a7,8(a5)
    2e3a:	00b89363          	bne	a7,a1,2e40 <amikb_process+0x178>
C:/Repository/RISKYKVM/firmware/src/User/keyboard.c:894
			{
				found = 1;
    2e3e:	4605                	li	a2,1
    2e40:	0785                	addi	a5,a5,1
C:/Repository/RISKYKVM/firmware/src/User/keyboard.c:890 (discriminator 2)
		for (j = 0; j < KEY_PRESSED_MAX; j++)
    2e42:	fef51ae3          	bne	a0,a5,2e36 <amikb_process+0x16e>
C:/Repository/RISKYKVM/firmware/src/User/keyboard.c:898
			}
		}

		 if (found == 0)
    2e46:	e611                	bnez	a2,2e52 <amikb_process+0x18a>
C:/Repository/RISKYKVM/firmware/src/User/keyboard.c:900
		 {
			keysToPress[idxPress] = kbdata->keys[i];
    2e48:	101c                	addi	a5,sp,32
    2e4a:	97b6                	add	a5,a5,a3
    2e4c:	feb78823          	sb	a1,-16(a5)
C:/Repository/RISKYKVM/firmware/src/User/keyboard.c:901
			idxPress++;
    2e50:	0685                	addi	a3,a3,1
    2e52:	0705                	addi	a4,a4,1
C:/Repository/RISKYKVM/firmware/src/User/keyboard.c:887 (discriminator 2)
	for (i = 0; i < KEY_PRESSED_MAX; i++)
    2e54:	fce81de3          	bne	a6,a4,2e2e <amikb_process+0x166>
C:/Repository/RISKYKVM/firmware/src/User/keyboard.c:906
		 }
	}

	//Send release keys
	for (i = 0; i < KEY_PRESSED_MAX; i++)
    2e58:	4901                	li	s2,0
    2e5a:	4999                	li	s3,6
C:/Repository/RISKYKVM/firmware/src/User/keyboard.c:908
	{
		if (keysToRelease[i] != 0x00) // Previous key was released
    2e5c:	083c                	addi	a5,sp,24
    2e5e:	97ca                	add	a5,a5,s2
    2e60:	0007c503          	lbu	a0,0(a5)
    2e64:	c501                	beqz	a0,2e6c <amikb_process+0x1a4>
C:/Repository/RISKYKVM/firmware/src/User/keyboard.c:910
		{
	        rval |= amikb_send(scancode_to_amiga(keysToRelease[i]), 0 /* Released */);
    2e66:	3915                	jal	2a9a <scancode_to_amiga>
    2e68:	4581                	li	a1,0
    2e6a:	39b1                	jal	2ac6 <amikb_send>
C:/Repository/RISKYKVM/firmware/src/User/keyboard.c:906 (discriminator 2)
	for (i = 0; i < KEY_PRESSED_MAX; i++)
    2e6c:	0905                	addi	s2,s2,1
    2e6e:	ff3917e3          	bne	s2,s3,2e5c <amikb_process+0x194>
C:/Repository/RISKYKVM/firmware/src/User/keyboard.c:915
	    }
	}

	//send press keys
	for (i = 0; i < KEY_PRESSED_MAX; i++)
    2e72:	4901                	li	s2,0
    2e74:	4999                	li	s3,6
C:/Repository/RISKYKVM/firmware/src/User/keyboard.c:917
	{
		if (keysToPress[i] != 0x00)
    2e76:	081c                	addi	a5,sp,16
    2e78:	97ca                	add	a5,a5,s2
    2e7a:	0007c503          	lbu	a0,0(a5)
    2e7e:	c501                	beqz	a0,2e86 <amikb_process+0x1be>
C:/Repository/RISKYKVM/firmware/src/User/keyboard.c:919
		{
			rval |= amikb_send(scancode_to_amiga(keysToPress[i]), 1 /* Pressed */);
    2e80:	3929                	jal	2a9a <scancode_to_amiga>
    2e82:	4585                	li	a1,1
    2e84:	3189                	jal	2ac6 <amikb_send>
C:/Repository/RISKYKVM/firmware/src/User/keyboard.c:915 (discriminator 2)
	for (i = 0; i < KEY_PRESSED_MAX; i++)
    2e86:	0905                	addi	s2,s2,1
    2e88:	ff3917e3          	bne	s2,s3,2e76 <amikb_process+0x1ae>
    2e8c:	47a1                	li	a5,8
C:/Repository/RISKYKVM/firmware/src/User/keyboard.c:924
		}
	}

	//copy keys for next handling
	for (i = 0; i < KEY_PRESSED_MAX; i++)
    2e8e:	4739                	li	a4,14
C:/Repository/RISKYKVM/firmware/src/User/keyboard.c:926 (discriminator 3)
		{
		   prevkeycode.keys[i] = kbdata->keys[i];
    2e90:	00f486b3          	add	a3,s1,a5
    2e94:	0006c603          	lbu	a2,0(a3)
    2e98:	00f406b3          	add	a3,s0,a5
    2e9c:	0785                	addi	a5,a5,1
    2e9e:	00c68023          	sb	a2,0(a3)
C:/Repository/RISKYKVM/firmware/src/User/keyboard.c:924 (discriminator 3)
	for (i = 0; i < KEY_PRESSED_MAX; i++)
    2ea2:	fee797e3          	bne	a5,a4,2e90 <amikb_process+0x1c8>
C:/Repository/RISKYKVM/firmware/src/User/keyboard.c:930

		}

}
    2ea6:	50f2                	lw	ra,60(sp)
    2ea8:	5462                	lw	s0,56(sp)
    2eaa:	54d2                	lw	s1,52(sp)
    2eac:	5942                	lw	s2,48(sp)
    2eae:	59b2                	lw	s3,44(sp)
    2eb0:	6121                	addi	sp,sp,64
    2eb2:	8082                	ret
    2eb4:	8082                	ret

00002eb6 <main>:
main():
C:/Repository/RISKYKVM/firmware/src/User/main.c:13
#include "gpio.h"
#include "keyboard.h"
#include "gamepad.h"

int main( void )
{
    2eb6:	7139                	addi	sp,sp,-64
    2eb8:	de06                	sw	ra,60(sp)
    2eba:	dc22                	sw	s0,56(sp)
    2ebc:	d84a                	sw	s2,48(sp)
    2ebe:	d64e                	sw	s3,44(sp)
    2ec0:	d452                	sw	s4,40(sp)
    2ec2:	ca66                	sw	s9,20(sp)
    2ec4:	da26                	sw	s1,52(sp)
    2ec6:	d256                	sw	s5,36(sp)
    2ec8:	d05a                	sw	s6,32(sp)
    2eca:	ce5e                	sw	s7,28(sp)
    2ecc:	cc62                	sw	s8,24(sp)
    2ece:	c86a                	sw	s10,16(sp)
    2ed0:	c66e                	sw	s11,12(sp)
C:/Repository/RISKYKVM/firmware/src/User/main.c:16
   // USART_Printf_Init( 115200 );
    DUG_PRINTF( "SystemClk:%d\r\n", SystemCoreClock );
    Delay_Init( );
    2ed2:	0f8010ef          	jal	ra,3fca <Delay_Init>
C:/Repository/RISKYKVM/firmware/src/User/main.c:17
    TIM3_Init( 9, SystemCoreClock / 10000 - 1 );
    2ed6:	200007b7          	lui	a5,0x20000
    2eda:	0047a583          	lw	a1,4(a5) # 20000004 <SystemCoreClock>
    2ede:	6789                	lui	a5,0x2
    2ee0:	71078793          	addi	a5,a5,1808 # 2710 <USB_MouseDecode+0xe2>
    2ee4:	02f5d5b3          	divu	a1,a1,a5
    2ee8:	4525                	li	a0,9
C:/Repository/RISKYKVM/firmware/src/User/main.c:22

#if DEF_USBFS_PORT_EN
    USBFS_RCC_Init( );
    USBFS_Host_Init( ENABLE );
    memset( &RootHubDev.bStatus, 0, sizeof( ROOT_HUB_DEVICE ) );
    2eea:	20001a37          	lui	s4,0x20001
C:/Repository/RISKYKVM/firmware/src/User/main.c:23
    memset( &HostCtl[ DEF_USBFS_PORT_INDEX * DEF_ONE_USB_SUP_DEV_TOTAL ].InterfaceNum, 0, DEF_ONE_USB_SUP_DEV_TOTAL * sizeof( HOST_CTL ) );
    2eee:	20000937          	lui	s2,0x20000
C:/Repository/RISKYKVM/firmware/src/User/main.c:34
    InitMouse();

	while (1) {
		USBH_MainDeal();
		//Handle HID Device
		if (RootHubDev.bType == USB_DEV_CLASS_HID) {
    2ef2:	640a0c93          	addi	s9,s4,1600 # 20001640 <RootHubDev>
    2ef6:	0d890413          	addi	s0,s2,216 # 200000d8 <HostCtl>
C:/Repository/RISKYKVM/firmware/src/User/main.c:38

			for (int itf = 0; itf < DEF_INTERFACE_NUM_MAX; itf++) {
				//Handle mouse
				if (HostCtl[0].Interface[itf].HIDRptDesc.type
    2efa:	11000993          	li	s3,272
C:/Repository/RISKYKVM/firmware/src/User/main.c:17
    TIM3_Init( 9, SystemCoreClock / 10000 - 1 );
    2efe:	15fd                	addi	a1,a1,-1
    2f00:	05c2                	slli	a1,a1,0x10
    2f02:	81c1                	srli	a1,a1,0x10
    2f04:	ae4fd0ef          	jal	ra,1e8 <TIM3_Init>
C:/Repository/RISKYKVM/firmware/src/User/main.c:20
    USBFS_RCC_Init( );
    2f08:	f6efe0ef          	jal	ra,1676 <USBFS_RCC_Init>
C:/Repository/RISKYKVM/firmware/src/User/main.c:21
    USBFS_Host_Init( ENABLE );
    2f0c:	4505                	li	a0,1
    2f0e:	faefe0ef          	jal	ra,16bc <USBFS_Host_Init>
C:/Repository/RISKYKVM/firmware/src/User/main.c:22
    memset( &RootHubDev.bStatus, 0, sizeof( ROOT_HUB_DEVICE ) );
    2f12:	467d                	li	a2,31
    2f14:	4581                	li	a1,0
    2f16:	640a0513          	addi	a0,s4,1600
    2f1a:	a26fd0ef          	jal	ra,140 <memset>
C:/Repository/RISKYKVM/firmware/src/User/main.c:23
    memset( &HostCtl[ DEF_USBFS_PORT_INDEX * DEF_ONE_USB_SUP_DEV_TOTAL ].InterfaceNum, 0, DEF_ONE_USB_SUP_DEV_TOTAL * sizeof( HOST_CTL ) );
    2f1e:	6605                	lui	a2,0x1
    2f20:	55460613          	addi	a2,a2,1364 # 1554 <USBH_MainDeal+0x48c>
    2f24:	4581                	li	a1,0
    2f26:	0d890513          	addi	a0,s2,216
    2f2a:	a16fd0ef          	jal	ra,140 <memset>
C:/Repository/RISKYKVM/firmware/src/User/main.c:26
    TIM2_Init();
    2f2e:	0bf000ef          	jal	ra,37ec <TIM2_Init>
C:/Repository/RISKYKVM/firmware/src/User/main.c:27
    TIM4_Init();
    2f32:	640a0a13          	addi	s4,s4,1600
    2f36:	11b000ef          	jal	ra,3850 <TIM4_Init>
C:/Repository/RISKYKVM/firmware/src/User/main.c:28
    GPIO_Config();
    2f3a:	963ff0ef          	jal	ra,289c <GPIO_Config>
C:/Repository/RISKYKVM/firmware/src/User/main.c:29
    InitMouse();
    2f3e:	2229                	jal	3048 <InitMouse>
C:/Repository/RISKYKVM/firmware/src/User/main.c:34
		if (RootHubDev.bType == USB_DEV_CLASS_HID) {
    2f40:	4b0d                	li	s6,3
C:/Repository/RISKYKVM/firmware/src/User/main.c:38
				if (HostCtl[0].Interface[itf].HIDRptDesc.type
    2f42:	4b85                	li	s7,1
C:/Repository/RISKYKVM/firmware/src/User/main.c:32
		USBH_MainDeal();
    2f44:	984fe0ef          	jal	ra,10c8 <USBH_MainDeal>
C:/Repository/RISKYKVM/firmware/src/User/main.c:34
		if (RootHubDev.bType == USB_DEV_CLASS_HID) {
    2f48:	001cc783          	lbu	a5,1(s9)
    2f4c:	01678d63          	beq	a5,s6,2f66 <main+0xb0>
C:/Repository/RISKYKVM/firmware/src/User/main.c:70
			}
		}

		//Handle HUB Device

		if (RootHubDev.bType == USB_DEV_CLASS_HUB) {
    2f50:	001a4703          	lbu	a4,1(s4)
    2f54:	47a5                	li	a5,9
    2f56:	fef717e3          	bne	a4,a5,2f44 <main+0x8e>
    2f5a:	4a85                	li	s5,1
C:/Repository/RISKYKVM/firmware/src/User/main.c:78
			for (uint8_t device = 1; device < 5; device++)
			{
				//Iterate over all interfaces
				for (int itf = 0; itf < DEF_INTERFACE_NUM_MAX; itf++) {
					//Handle mouse
					if (HostCtl[device].Interface[itf].HIDRptDesc.type
    2f5c:	0d890b13          	addi	s6,s2,216
    2f60:	4d05                	li	s10,1
C:/Repository/RISKYKVM/firmware/src/User/main.c:87
							ProcessMouse(mousemap);

					}

					//Handle gamepad
					if (HostCtl[device].Interface[itf].HIDRptDesc.type
    2f62:	4d8d                	li	s11,3
    2f64:	a8d1                	j	3038 <main+0x182>
    2f66:	0d890a93          	addi	s5,s2,216
C:/Repository/RISKYKVM/firmware/src/User/main.c:36
			for (int itf = 0; itf < DEF_INTERFACE_NUM_MAX; itf++) {
    2f6a:	4481                	li	s1,0
C:/Repository/RISKYKVM/firmware/src/User/main.c:55
				if (HostCtl[0].Interface[itf].HIDRptDesc.type
    2f6c:	4d09                	li	s10,2
C:/Repository/RISKYKVM/firmware/src/User/main.c:36
			for (int itf = 0; itf < DEF_INTERFACE_NUM_MAX; itf++) {
    2f6e:	4c11                	li	s8,4
C:/Repository/RISKYKVM/firmware/src/User/main.c:38
				if (HostCtl[0].Interface[itf].HIDRptDesc.type
    2f70:	033487b3          	mul	a5,s1,s3
    2f74:	97a2                	add	a5,a5,s0
    2f76:	0467d783          	lhu	a5,70(a5)
    2f7a:	8b8d                	andi	a5,a5,3
    2f7c:	01779763          	bne	a5,s7,2f8a <main+0xd4>
C:/Repository/RISKYKVM/firmware/src/User/main.c:40
				    HID_MOUSE_Data *mousemap = USB_GetMouseInfo(
    2f80:	004a8513          	addi	a0,s5,4
    2f84:	83dff0ef          	jal	ra,27c0 <USB_GetMouseInfo>
C:/Repository/RISKYKVM/firmware/src/User/main.c:42
					ProcessMouse(mousemap);
    2f88:	22f9                	jal	3156 <ProcessMouse>
C:/Repository/RISKYKVM/firmware/src/User/main.c:46
				if (HostCtl[0].Interface[itf].HIDRptDesc.type
    2f8a:	033487b3          	mul	a5,s1,s3
    2f8e:	97a2                	add	a5,a5,s0
    2f90:	0467d783          	lhu	a5,70(a5)
    2f94:	8b8d                	andi	a5,a5,3
    2f96:	01679863          	bne	a5,s6,2fa6 <main+0xf0>
C:/Repository/RISKYKVM/firmware/src/User/main.c:49
		HID_gamepad_Info_TypeDef *gamepad = GetGamepadInfo(
    2f9a:	004a8513          	addi	a0,s5,4
    2f9e:	85aff0ef          	jal	ra,1ff8 <GetGamepadInfo>
C:/Repository/RISKYKVM/firmware/src/User/main.c:51
						ProcessGamepad(gamepad);
    2fa2:	859ff0ef          	jal	ra,27fa <ProcessGamepad>
C:/Repository/RISKYKVM/firmware/src/User/main.c:55
				if (HostCtl[0].Interface[itf].HIDRptDesc.type
    2fa6:	033487b3          	mul	a5,s1,s3
    2faa:	97a2                	add	a5,a5,s0
    2fac:	0467d783          	lhu	a5,70(a5)
    2fb0:	8b8d                	andi	a5,a5,3
    2fb2:	01a79763          	bne	a5,s10,2fc0 <main+0x10a>
C:/Repository/RISKYKVM/firmware/src/User/main.c:58
				    HID_Keyboard_Data *kbd = USBH_HID_GetKeyboardInfo(
    2fb6:	004a8513          	addi	a0,s5,4
    2fba:	dd4ff0ef          	jal	ra,258e <USBH_HID_GetKeyboardInfo>
C:/Repository/RISKYKVM/firmware/src/User/main.c:61
					amikb_process(kbd);
    2fbe:	3329                	jal	2cc8 <amikb_process>
C:/Repository/RISKYKVM/firmware/src/User/main.c:36 (discriminator 2)
			for (int itf = 0; itf < DEF_INTERFACE_NUM_MAX; itf++) {
    2fc0:	0485                	addi	s1,s1,1
    2fc2:	110a8a93          	addi	s5,s5,272
    2fc6:	fb8495e3          	bne	s1,s8,2f70 <main+0xba>
    2fca:	b759                	j	2f50 <main+0x9a>
C:/Repository/RISKYKVM/firmware/src/User/main.c:78
					if (HostCtl[device].Interface[itf].HIDRptDesc.type
    2fcc:	033b86b3          	mul	a3,s7,s3
    2fd0:	96a6                	add	a3,a3,s1
    2fd2:	96da                	add	a3,a3,s6
    2fd4:	0466d683          	lhu	a3,70(a3)
    2fd8:	8a8d                	andi	a3,a3,3
    2fda:	01a69763          	bne	a3,s10,2fe8 <main+0x132>
C:/Repository/RISKYKVM/firmware/src/User/main.c:80
					    HID_MOUSE_Data *mousemap = USB_GetMouseInfo(
    2fde:	018b0533          	add	a0,s6,s8
    2fe2:	fdeff0ef          	jal	ra,27c0 <USB_GetMouseInfo>
C:/Repository/RISKYKVM/firmware/src/User/main.c:82
							ProcessMouse(mousemap);
    2fe6:	2a85                	jal	3156 <ProcessMouse>
C:/Repository/RISKYKVM/firmware/src/User/main.c:87
					if (HostCtl[device].Interface[itf].HIDRptDesc.type
    2fe8:	033b86b3          	mul	a3,s7,s3
    2fec:	96a6                	add	a3,a3,s1
    2fee:	96a2                	add	a3,a3,s0
    2ff0:	0466d683          	lhu	a3,70(a3)
    2ff4:	8a8d                	andi	a3,a3,3
    2ff6:	01b69863          	bne	a3,s11,3006 <main+0x150>
C:/Repository/RISKYKVM/firmware/src/User/main.c:90
							== REPORT_TYPE_JOYSTICK) {

			HID_gamepad_Info_TypeDef *gamepad = GetGamepadInfo(
    2ffa:	01840533          	add	a0,s0,s8
    2ffe:	ffbfe0ef          	jal	ra,1ff8 <GetGamepadInfo>
C:/Repository/RISKYKVM/firmware/src/User/main.c:92
								&HostCtl[device].Interface[itf]);
							ProcessGamepad(gamepad);
    3002:	ff8ff0ef          	jal	ra,27fa <ProcessGamepad>
C:/Repository/RISKYKVM/firmware/src/User/main.c:96
					}

					// Handle Keyboard
					if (HostCtl[device].Interface[itf].HIDRptDesc.type
    3006:	033b86b3          	mul	a3,s7,s3
    300a:	4789                	li	a5,2
    300c:	96a6                	add	a3,a3,s1
    300e:	96a2                	add	a3,a3,s0
    3010:	0466d683          	lhu	a3,70(a3)
    3014:	8a8d                	andi	a3,a3,3
    3016:	00f69763          	bne	a3,a5,3024 <main+0x16e>
C:/Repository/RISKYKVM/firmware/src/User/main.c:98
							== REPORT_TYPE_KEYBOARD) {
					    HID_Keyboard_Data *kbd = USBH_HID_GetKeyboardInfo(
    301a:	01840533          	add	a0,s0,s8
    301e:	d70ff0ef          	jal	ra,258e <USBH_HID_GetKeyboardInfo>
C:/Repository/RISKYKVM/firmware/src/User/main.c:100
								&HostCtl[device].Interface[itf]);
							amikb_process(kbd);
    3022:	315d                	jal	2cc8 <amikb_process>
C:/Repository/RISKYKVM/firmware/src/User/main.c:76 (discriminator 2)
				for (int itf = 0; itf < DEF_INTERFACE_NUM_MAX; itf++) {
    3024:	0b85                	addi	s7,s7,1
    3026:	4791                	li	a5,4
    3028:	110c0c13          	addi	s8,s8,272
    302c:	fafb90e3          	bne	s7,a5,2fcc <main+0x116>
    3030:	0a85                	addi	s5,s5,1
C:/Repository/RISKYKVM/firmware/src/User/main.c:73 (discriminator 2)
			for (uint8_t device = 1; device < 5; device++)
    3032:	4795                	li	a5,5
    3034:	f0fa86e3          	beq	s5,a5,2f40 <main+0x8a>
    3038:	44400793          	li	a5,1092
    303c:	02fa84b3          	mul	s1,s5,a5
C:/Repository/RISKYKVM/firmware/src/User/main.c:76
				for (int itf = 0; itf < DEF_INTERFACE_NUM_MAX; itf++) {
    3040:	4b81                	li	s7,0
    3042:	00448c13          	addi	s8,s1,4
    3046:	b759                	j	2fcc <main+0x116>

00003048 <InitMouse>:
InitMouse():
C:/Repository/RISKYKVM/firmware/src/User/mouse.c:24


void InitMouse()
{
    //Init circular buffer
    FifoInit(&ScrollBuffer);
    3048:	20002537          	lui	a0,0x20002
    304c:	b1850513          	addi	a0,a0,-1256 # 20001b18 <ScrollBuffer>
    3050:	0ad0006f          	j	38fc <FifoInit>

00003054 <processMouseMovement>:
processMouseMovement():
C:/Repository/RISKYKVM/firmware/src/User/mouse.c:37


	uint16_t timerTopValue = 0;

	// Set the mouse movement direction and record the movement units
	if (movementUnits > 0) {
    3054:	0aa05663          	blez	a0,3100 <processMouseMovement+0xac>
C:/Repository/RISKYKVM/firmware/src/User/mouse.c:41
		// Moving in the positive direction

		// Apply DPI limiting if required
		if (dpiDivide) {
    3058:	c689                	beqz	a3,3062 <processMouseMovement+0xe>
C:/Repository/RISKYKVM/firmware/src/User/mouse.c:43
			movementUnits /= DPI_DIVIDER;
			if (movementUnits < 1)
    305a:	4785                	li	a5,1
    305c:	00f50363          	beq	a0,a5,3062 <processMouseMovement+0xe>
C:/Repository/RISKYKVM/firmware/src/User/mouse.c:42
			movementUnits /= DPI_DIVIDER;
    3060:	8505                	srai	a0,a0,0x1
C:/Repository/RISKYKVM/firmware/src/User/mouse.c:48
				movementUnits = 1;
		}

		// Add the movement units to the quadrature output buffer
		if (axis == MOUSEX)
    3062:	0542                	slli	a0,a0,0x10
    3064:	8141                	srli	a0,a0,0x10
    3066:	e58d                	bnez	a1,3090 <processMouseMovement+0x3c>
C:/Repository/RISKYKVM/firmware/src/User/mouse.c:49
			mouseDistanceX += movementUnits;
    3068:	87618793          	addi	a5,gp,-1930 # 20000076 <mouseDistanceX>
    306c:	0007d703          	lhu	a4,0(a5)
    3070:	953a                	add	a0,a0,a4
    3072:	0542                	slli	a0,a0,0x10
    3074:	8541                	srai	a0,a0,0x10
    3076:	00a79023          	sh	a0,0(a5)
C:/Repository/RISKYKVM/firmware/src/User/mouse.c:76
			mouseDistanceY = 0;
	}

	// Apply the quadrature output buffer limit
	if (axis == MOUSEX) {
		if (mouseDistanceX > Q_BUFFERLIMIT)
    307a:	87618713          	addi	a4,gp,-1930 # 20000076 <mouseDistanceX>
    307e:	00075703          	lhu	a4,0(a4)
    3082:	12c00693          	li	a3,300
    3086:	87618793          	addi	a5,gp,-1930 # 20000076 <mouseDistanceX>
    308a:	0742                	slli	a4,a4,0x10
    308c:	8741                	srai	a4,a4,0x10
    308e:	a025                	j	30b6 <processMouseMovement+0x62>
C:/Repository/RISKYKVM/firmware/src/User/mouse.c:51
			mouseDistanceY += movementUnits;
    3090:	87818793          	addi	a5,gp,-1928 # 20000078 <mouseDistanceY>
    3094:	0007d703          	lhu	a4,0(a5)
    3098:	953a                	add	a0,a0,a4
    309a:	0542                	slli	a0,a0,0x10
    309c:	8541                	srai	a0,a0,0x10
    309e:	00a79023          	sh	a0,0(a5)
C:/Repository/RISKYKVM/firmware/src/User/mouse.c:79
			mouseDistanceX = Q_BUFFERLIMIT;
	} else {
		if (mouseDistanceY > Q_BUFFERLIMIT)
    30a2:	87818713          	addi	a4,gp,-1928 # 20000078 <mouseDistanceY>
    30a6:	00075703          	lhu	a4,0(a4)
    30aa:	12c00693          	li	a3,300
    30ae:	87818793          	addi	a5,gp,-1928 # 20000078 <mouseDistanceY>
    30b2:	0742                	slli	a4,a4,0x10
    30b4:	8741                	srai	a4,a4,0x10
C:/Repository/RISKYKVM/firmware/src/User/mouse.c:76
		if (mouseDistanceX > Q_BUFFERLIMIT)
    30b6:	00e6d463          	bge	a3,a4,30be <processMouseMovement+0x6a>
C:/Repository/RISKYKVM/firmware/src/User/mouse.c:80
			mouseDistanceY = Q_BUFFERLIMIT;
    30ba:	00d79023          	sh	a3,0(a5)
C:/Repository/RISKYKVM/firmware/src/User/mouse.c:87

	// Get the current value of the quadrature output buffer
	if (axis == MOUSEX)
		timerTopValue = mouseDistanceX;
	else
		timerTopValue = mouseDistanceY;
    30be:	0007d503          	lhu	a0,0(a5)
C:/Repository/RISKYKVM/firmware/src/User/mouse.c:90

	// Range check the quadrature output buffer
	if (timerTopValue > 127)
    30c2:	07f00713          	li	a4,127
C:/Repository/RISKYKVM/firmware/src/User/mouse.c:87
		timerTopValue = mouseDistanceY;
    30c6:	01051793          	slli	a5,a0,0x10
    30ca:	83c1                	srli	a5,a5,0x10
C:/Repository/RISKYKVM/firmware/src/User/mouse.c:90
	if (timerTopValue > 127)
    30cc:	08f76263          	bltu	a4,a5,3150 <processMouseMovement+0xfc>
C:/Repository/RISKYKVM/firmware/src/User/mouse.c:121
	//   timerTopValue = timerTopValue / 64;
	//   timerTopValue = timerTopValue - 1;
	if (timerTopValue != 0) {
		timerTopValue = ((10000 / timerTopValue) / 64) - 1;
	} else {
		timerTopValue = 255;
    30d0:	0ff00513          	li	a0,255
C:/Repository/RISKYKVM/firmware/src/User/mouse.c:118
	if (timerTopValue != 0) {
    30d4:	c39d                	beqz	a5,30fa <processMouseMovement+0xa6>
C:/Repository/RISKYKVM/firmware/src/User/mouse.c:119
		timerTopValue = ((10000 / timerTopValue) / 64) - 1;
    30d6:	6509                	lui	a0,0x2
    30d8:	71050513          	addi	a0,a0,1808 # 2710 <USB_MouseDecode+0xe2>
    30dc:	02f54533          	div	a0,a0,a5
    30e0:	8119                	srli	a0,a0,0x6
    30e2:	157d                	addi	a0,a0,-1
    30e4:	0542                	slli	a0,a0,0x10
    30e6:	8141                	srli	a0,a0,0x10
C:/Repository/RISKYKVM/firmware/src/User/mouse.c:124
	}
	// If the 'Slow' configuration jumper is shorted; apply the quadrature rate limit
	if (limitRate) {
    30e8:	ca09                	beqz	a2,30fa <processMouseMovement+0xa6>
C:/Repository/RISKYKVM/firmware/src/User/mouse.c:144
		uint32_t rateLimit = ((1000000 / Q_RATELIMIT) / 256) - 1;

		// If the timerTopValue is less than the rate limit, we output
		// at the maximum allowed rate.  This will cause addition lag that
		// is handled by the quadrature output buffer limit above.
		if (timerTopValue < (uint16_t) rateLimit)
    30ea:	4719                	li	a4,6
    30ec:	87aa                	mv	a5,a0
    30ee:	00e57363          	bgeu	a0,a4,30f4 <processMouseMovement+0xa0>
    30f2:	4799                	li	a5,6
    30f4:	01079513          	slli	a0,a5,0x10
    30f8:	8141                	srli	a0,a0,0x10
C:/Repository/RISKYKVM/firmware/src/User/mouse.c:149
			timerTopValue = (uint16_t) rateLimit;
	}

	// Return the timer TOP value
	return (uint8_t) timerTopValue;
    30fa:	0ff57513          	andi	a0,a0,255
C:/Repository/RISKYKVM/firmware/src/User/mouse.c:150
}
    30fe:	8082                	ret
C:/Repository/RISKYKVM/firmware/src/User/mouse.c:52
	} else if (movementUnits < 0) {
    3100:	c129                	beqz	a0,3142 <processMouseMovement+0xee>
C:/Repository/RISKYKVM/firmware/src/User/mouse.c:56
		if (dpiDivide) {
    3102:	c699                	beqz	a3,3110 <processMouseMovement+0xbc>
C:/Repository/RISKYKVM/firmware/src/User/mouse.c:58
			if (movementUnits > -1)
    3104:	57fd                	li	a5,-1
    3106:	00f50563          	beq	a0,a5,3110 <processMouseMovement+0xbc>
C:/Repository/RISKYKVM/firmware/src/User/mouse.c:57
			movementUnits /= DPI_DIVIDER;
    310a:	4789                	li	a5,2
    310c:	02f54533          	div	a0,a0,a5
C:/Repository/RISKYKVM/firmware/src/User/mouse.c:63
		if (axis == MOUSEX)
    3110:	0542                	slli	a0,a0,0x10
    3112:	8141                	srli	a0,a0,0x10
    3114:	ed81                	bnez	a1,312c <processMouseMovement+0xd8>
C:/Repository/RISKYKVM/firmware/src/User/mouse.c:64
			mouseDistanceX += -movementUnits;
    3116:	87618713          	addi	a4,gp,-1930 # 20000076 <mouseDistanceX>
    311a:	00075783          	lhu	a5,0(a4)
    311e:	40a78533          	sub	a0,a5,a0
    3122:	0542                	slli	a0,a0,0x10
    3124:	8541                	srai	a0,a0,0x10
    3126:	00a71023          	sh	a0,0(a4)
    312a:	bf81                	j	307a <processMouseMovement+0x26>
C:/Repository/RISKYKVM/firmware/src/User/mouse.c:66
			mouseDistanceY += -movementUnits;
    312c:	87818713          	addi	a4,gp,-1928 # 20000078 <mouseDistanceY>
    3130:	00075783          	lhu	a5,0(a4)
    3134:	40a78533          	sub	a0,a5,a0
    3138:	0542                	slli	a0,a0,0x10
    313a:	8541                	srai	a0,a0,0x10
    313c:	00a71023          	sh	a0,0(a4)
    3140:	b78d                	j	30a2 <processMouseMovement+0x4e>
C:/Repository/RISKYKVM/firmware/src/User/mouse.c:68
		if (axis == MOUSEX)
    3142:	e581                	bnez	a1,314a <processMouseMovement+0xf6>
C:/Repository/RISKYKVM/firmware/src/User/mouse.c:69
			mouseDistanceX = 0;
    3144:	86019b23          	sh	zero,-1930(gp) # 20000076 <mouseDistanceX>
    3148:	bf0d                	j	307a <processMouseMovement+0x26>
C:/Repository/RISKYKVM/firmware/src/User/mouse.c:71
			mouseDistanceY = 0;
    314a:	86019c23          	sh	zero,-1928(gp) # 20000078 <mouseDistanceY>
    314e:	bf91                	j	30a2 <processMouseMovement+0x4e>
C:/Repository/RISKYKVM/firmware/src/User/mouse.c:91
		timerTopValue = 127;
    3150:	07f00793          	li	a5,127
    3154:	b749                	j	30d6 <processMouseMovement+0x82>

00003156 <ProcessMouse>:
ProcessMouse():
C:/Repository/RISKYKVM/firmware/src/User/mouse.c:156

void ProcessMouse(HID_MOUSE_Data *mousemap) {



	if (mousemap == NULL) return;
    3156:	1c050663          	beqz	a0,3322 <ProcessMouse+0x1cc>
C:/Repository/RISKYKVM/firmware/src/User/mouse.c:169
		// If the mouse movement changes direction then disregard any remaining
		// movement units in the previous direction.



		if (mousemap->x > 0 && mouseDirectionX == 0) {
    315a:	00051703          	lh	a4,0(a0)
C:/Repository/RISKYKVM/firmware/src/User/mouse.c:152
void ProcessMouse(HID_MOUSE_Data *mousemap) {
    315e:	7179                	addi	sp,sp,-48
    3160:	d606                	sw	ra,44(sp)
    3162:	d422                	sw	s0,40(sp)
    3164:	d226                	sw	s1,36(sp)
    3166:	d04a                	sw	s2,32(sp)
    3168:	ce4e                	sw	s3,28(sp)
C:/Repository/RISKYKVM/firmware/src/User/mouse.c:169
		if (mousemap->x > 0 && mouseDirectionX == 0) {
    316a:	10e05463          	blez	a4,3272 <ProcessMouse+0x11c>
C:/Repository/RISKYKVM/firmware/src/User/mouse.c:169 (discriminator 1)
    316e:	87418793          	addi	a5,gp,-1932 # 20000074 <mouseDirectionX>
    3172:	0007c683          	lbu	a3,0(a5)
    3176:	06e2                	slli	a3,a3,0x18
    3178:	86e1                	srai	a3,a3,0x18
    317a:	10069b63          	bnez	a3,3290 <ProcessMouse+0x13a>
C:/Repository/RISKYKVM/firmware/src/User/mouse.c:170
			mouseDistanceX = 0;
    317e:	86019b23          	sh	zero,-1930(gp) # 20000076 <mouseDistanceX>
C:/Repository/RISKYKVM/firmware/src/User/mouse.c:177
		} else if (mousemap->x < 0 && mouseDirectionX == 1) {
			mouseDistanceX = 0;
			mouseDirectionX = 0;
		} else if (mousemap->y > 0 && mouseDirectionY == 0) {
			mouseDistanceY = 0;
			mouseDirectionY = 1;
    3182:	4685                	li	a3,1
    3184:	00d78023          	sb	a3,0(a5)
    3188:	842a                	mv	s0,a0
C:/Repository/RISKYKVM/firmware/src/User/mouse.c:185
			mouseDirectionY = 0;
		}

		// Process mouse X and Y movement -------------------------------------

		xTimerTop = processMouseMovement(mousemap->x, MOUSEX, 0U, 0U);
    318a:	01871513          	slli	a0,a4,0x18
    318e:	4681                	li	a3,0
    3190:	4601                	li	a2,0
    3192:	4581                	li	a1,0
    3194:	8561                	srai	a0,a0,0x18
    3196:	3d7d                	jal	3054 <processMouseMovement>
    3198:	200007b7          	lui	a5,0x20000
    319c:	00a780a3          	sb	a0,1(a5) # 20000001 <xTimerTop>
C:/Repository/RISKYKVM/firmware/src/User/mouse.c:186
		yTimerTop = processMouseMovement(mousemap->y, MOUSEY, 0U, 0U);
    31a0:	00240503          	lb	a0,2(s0)
    31a4:	4681                	li	a3,0
    31a6:	4601                	li	a2,0
    31a8:	4585                	li	a1,1
    31aa:	356d                	jal	3054 <processMouseMovement>
C:/Repository/RISKYKVM/firmware/src/User/mouse.c:190

		// Process mouse buttons ----------------------------------------------

		GPIO_WriteBit(LB_GPIO_Port, LB_Pin, !(mousemap->buttons[0]));
    31ac:	00440603          	lb	a2,4(s0)
C:/Repository/RISKYKVM/firmware/src/User/mouse.c:186
		yTimerTop = processMouseMovement(mousemap->y, MOUSEY, 0U, 0U);
    31b0:	200007b7          	lui	a5,0x20000
    31b4:	00a78123          	sb	a0,2(a5) # 20000002 <yTimerTop>
C:/Repository/RISKYKVM/firmware/src/User/mouse.c:190
		GPIO_WriteBit(LB_GPIO_Port, LB_Pin, !(mousemap->buttons[0]));
    31b8:	40011537          	lui	a0,0x40011
    31bc:	00163613          	seqz	a2,a2
    31c0:	65a1                	lui	a1,0x8
    31c2:	c0050513          	addi	a0,a0,-1024 # 40010c00 <_eusrstack+0x2000bc00>
    31c6:	3a3000ef          	jal	ra,3d68 <GPIO_WriteBit>
C:/Repository/RISKYKVM/firmware/src/User/mouse.c:194

		uint8_t writeBuff = 0;
		uint8_t  numberTics = abs(mousemap->wheel);
		if (previousMMB == 0 && mousemap->buttons[2] == 1)
    31ca:	87c18793          	addi	a5,gp,-1924 # 2000007c <previousMMB>
    31ce:	0007c783          	lbu	a5,0(a5)
C:/Repository/RISKYKVM/firmware/src/User/mouse.c:192
		uint8_t writeBuff = 0;
    31d2:	000107a3          	sb	zero,15(sp)
C:/Repository/RISKYKVM/firmware/src/User/mouse.c:193
		uint8_t  numberTics = abs(mousemap->wheel);
    31d6:	00841483          	lh	s1,8(s0)
C:/Repository/RISKYKVM/firmware/src/User/mouse.c:194
		if (previousMMB == 0 && mousemap->buttons[2] == 1)
    31da:	0ff7f793          	andi	a5,a5,255
    31de:	87c18913          	addi	s2,gp,-1924 # 2000007c <previousMMB>
    31e2:	e785                	bnez	a5,320a <ProcessMouse+0xb4>
C:/Repository/RISKYKVM/firmware/src/User/mouse.c:194 (discriminator 1)
    31e4:	00640983          	lb	s3,6(s0)
    31e8:	4785                	li	a5,1
    31ea:	02f99063          	bne	s3,a5,320a <ProcessMouse+0xb4>
C:/Repository/RISKYKVM/firmware/src/User/mouse.c:197
		{
		    writeBuff = CODE_MMB_DOWN;
		    FifoWrite(&ScrollBuffer,&writeBuff , 1);
    31ee:	20002537          	lui	a0,0x20002
C:/Repository/RISKYKVM/firmware/src/User/mouse.c:196
		    writeBuff = CODE_MMB_DOWN;
    31f2:	47b5                	li	a5,13
C:/Repository/RISKYKVM/firmware/src/User/mouse.c:197
		    FifoWrite(&ScrollBuffer,&writeBuff , 1);
    31f4:	4605                	li	a2,1
    31f6:	00f10593          	addi	a1,sp,15
    31fa:	b1850513          	addi	a0,a0,-1256 # 20001b18 <ScrollBuffer>
C:/Repository/RISKYKVM/firmware/src/User/mouse.c:196
		    writeBuff = CODE_MMB_DOWN;
    31fe:	00f107a3          	sb	a5,15(sp)
C:/Repository/RISKYKVM/firmware/src/User/mouse.c:197
		    FifoWrite(&ScrollBuffer,&writeBuff , 1);
    3202:	774000ef          	jal	ra,3976 <FifoWrite>
C:/Repository/RISKYKVM/firmware/src/User/mouse.c:198
		    previousMMB = 1;
    3206:	01390023          	sb	s3,0(s2)
C:/Repository/RISKYKVM/firmware/src/User/mouse.c:200
		}
		if (previousMMB == 1 &&mousemap->buttons[2] == 0) {
    320a:	00094783          	lbu	a5,0(s2)
    320e:	4705                	li	a4,1
    3210:	02f71a63          	bne	a4,a5,3244 <ProcessMouse+0xee>
C:/Repository/RISKYKVM/firmware/src/User/mouse.c:200 (discriminator 1)
    3214:	00640783          	lb	a5,6(s0)
    3218:	e795                	bnez	a5,3244 <ProcessMouse+0xee>
C:/Repository/RISKYKVM/firmware/src/User/mouse.c:202
            writeBuff = CODE_MMB_UP;
            FifoWrite(&ScrollBuffer,&writeBuff , 1);
    321a:	200029b7          	lui	s3,0x20002
C:/Repository/RISKYKVM/firmware/src/User/mouse.c:201
            writeBuff = CODE_MMB_UP;
    321e:	47b9                	li	a5,14
C:/Repository/RISKYKVM/firmware/src/User/mouse.c:202
            FifoWrite(&ScrollBuffer,&writeBuff , 1);
    3220:	4605                	li	a2,1
    3222:	00f10593          	addi	a1,sp,15
    3226:	b1898513          	addi	a0,s3,-1256 # 20001b18 <ScrollBuffer>
C:/Repository/RISKYKVM/firmware/src/User/mouse.c:201
            writeBuff = CODE_MMB_UP;
    322a:	00f107a3          	sb	a5,15(sp)
C:/Repository/RISKYKVM/firmware/src/User/mouse.c:202
            FifoWrite(&ScrollBuffer,&writeBuff , 1);
    322e:	748000ef          	jal	ra,3976 <FifoWrite>
C:/Repository/RISKYKVM/firmware/src/User/mouse.c:203
            FifoWrite(&ScrollBuffer,&writeBuff , 1);
    3232:	4605                	li	a2,1
    3234:	00f10593          	addi	a1,sp,15
    3238:	b1898513          	addi	a0,s3,-1256
    323c:	73a000ef          	jal	ra,3976 <FifoWrite>
C:/Repository/RISKYKVM/firmware/src/User/mouse.c:204
            previousMMB = 0;
    3240:	00090023          	sb	zero,0(s2)
C:/Repository/RISKYKVM/firmware/src/User/mouse.c:208
	   }


		if (mousemap->wheel !=0)
    3244:	00841783          	lh	a5,8(s0)
    3248:	e3c9                	bnez	a5,32ca <ProcessMouse+0x174>
C:/Repository/RISKYKVM/firmware/src/User/mouse.c:228
                }
            }

		}

		GPIO_WriteBit(RB_GPIO_Port, RB_Pin, !(mousemap->buttons[1]));
    324a:	00540603          	lb	a2,5(s0)
    324e:	6585                	lui	a1,0x1
    3250:	40011537          	lui	a0,0x40011
    3254:	00163613          	seqz	a2,a2
    3258:	80058593          	addi	a1,a1,-2048 # 800 <__stack_size>
    325c:	c0050513          	addi	a0,a0,-1024 # 40010c00 <_eusrstack+0x2000bc00>
    3260:	309000ef          	jal	ra,3d68 <GPIO_WriteBit>
C:/Repository/RISKYKVM/firmware/src/User/mouse.c:230

}
    3264:	50b2                	lw	ra,44(sp)
    3266:	5422                	lw	s0,40(sp)
    3268:	5492                	lw	s1,36(sp)
    326a:	5902                	lw	s2,32(sp)
    326c:	49f2                	lw	s3,28(sp)
    326e:	6145                	addi	sp,sp,48
    3270:	8082                	ret
C:/Repository/RISKYKVM/firmware/src/User/mouse.c:172
		} else if (mousemap->x < 0 && mouseDirectionX == 1) {
    3272:	cf19                	beqz	a4,3290 <ProcessMouse+0x13a>
C:/Repository/RISKYKVM/firmware/src/User/mouse.c:172 (discriminator 1)
    3274:	87418793          	addi	a5,gp,-1932 # 20000074 <mouseDirectionX>
    3278:	0007c683          	lbu	a3,0(a5)
    327c:	4605                	li	a2,1
    327e:	06e2                	slli	a3,a3,0x18
    3280:	86e1                	srai	a3,a3,0x18
    3282:	00c69763          	bne	a3,a2,3290 <ProcessMouse+0x13a>
C:/Repository/RISKYKVM/firmware/src/User/mouse.c:173
			mouseDistanceX = 0;
    3286:	86019b23          	sh	zero,-1930(gp) # 20000076 <mouseDistanceX>
C:/Repository/RISKYKVM/firmware/src/User/mouse.c:180
			mouseDirectionY = 0;
    328a:	00078023          	sb	zero,0(a5)
    328e:	bded                	j	3188 <ProcessMouse+0x32>
C:/Repository/RISKYKVM/firmware/src/User/mouse.c:175
		} else if (mousemap->y > 0 && mouseDirectionY == 0) {
    3290:	00251783          	lh	a5,2(a0)
    3294:	00f05d63          	blez	a5,32ae <ProcessMouse+0x158>
C:/Repository/RISKYKVM/firmware/src/User/mouse.c:175 (discriminator 1)
    3298:	87518793          	addi	a5,gp,-1931 # 20000075 <mouseDirectionY>
    329c:	0007c683          	lbu	a3,0(a5)
    32a0:	06e2                	slli	a3,a3,0x18
    32a2:	86e1                	srai	a3,a3,0x18
    32a4:	ee0692e3          	bnez	a3,3188 <ProcessMouse+0x32>
C:/Repository/RISKYKVM/firmware/src/User/mouse.c:176
			mouseDistanceY = 0;
    32a8:	86019c23          	sh	zero,-1928(gp) # 20000078 <mouseDistanceY>
    32ac:	bdd9                	j	3182 <ProcessMouse+0x2c>
C:/Repository/RISKYKVM/firmware/src/User/mouse.c:178
		} else if (mousemap->y < 0 && mouseDirectionY == 1) {
    32ae:	ec078de3          	beqz	a5,3188 <ProcessMouse+0x32>
C:/Repository/RISKYKVM/firmware/src/User/mouse.c:178 (discriminator 1)
    32b2:	87518793          	addi	a5,gp,-1931 # 20000075 <mouseDirectionY>
    32b6:	0007c683          	lbu	a3,0(a5)
    32ba:	4605                	li	a2,1
    32bc:	06e2                	slli	a3,a3,0x18
    32be:	86e1                	srai	a3,a3,0x18
    32c0:	ecc694e3          	bne	a3,a2,3188 <ProcessMouse+0x32>
C:/Repository/RISKYKVM/firmware/src/User/mouse.c:179
			mouseDistanceY = 0;
    32c4:	86019c23          	sh	zero,-1928(gp) # 20000078 <mouseDistanceY>
    32c8:	b7c9                	j	328a <ProcessMouse+0x134>
C:/Repository/RISKYKVM/firmware/src/User/mouse.c:193
		uint8_t  numberTics = abs(mousemap->wheel);
    32ca:	41f4d713          	srai	a4,s1,0x1f
    32ce:	8cb9                	xor	s1,s1,a4
    32d0:	8c99                	sub	s1,s1,a4
    32d2:	0ff4f493          	andi	s1,s1,255
C:/Repository/RISKYKVM/firmware/src/User/mouse.c:210
		    if (mousemap->wheel > 0)
    32d6:	02f05463          	blez	a5,32fe <ProcessMouse+0x1a8>
C:/Repository/RISKYKVM/firmware/src/User/mouse.c:212
		        writeBuff = CODE_WHEEL_UP;
    32da:	47ad                	li	a5,11
    32dc:	00f107a3          	sb	a5,15(sp)
C:/Repository/RISKYKVM/firmware/src/User/mouse.c:213
		        for( uint8_t i = 0; i<numberTics ;i++)
    32e0:	4901                	li	s2,0
C:/Repository/RISKYKVM/firmware/src/User/mouse.c:215
		            FifoWrite(&ScrollBuffer,&writeBuff , 1);
    32e2:	200029b7          	lui	s3,0x20002
C:/Repository/RISKYKVM/firmware/src/User/mouse.c:213 (discriminator 1)
		        for( uint8_t i = 0; i<numberTics ;i++)
    32e6:	f69902e3          	beq	s2,s1,324a <ProcessMouse+0xf4>
C:/Repository/RISKYKVM/firmware/src/User/mouse.c:215 (discriminator 3)
		            FifoWrite(&ScrollBuffer,&writeBuff , 1);
    32ea:	4605                	li	a2,1
    32ec:	00f10593          	addi	a1,sp,15
    32f0:	b1898513          	addi	a0,s3,-1256 # 20001b18 <ScrollBuffer>
C:/Repository/RISKYKVM/firmware/src/User/mouse.c:213 (discriminator 3)
		        for( uint8_t i = 0; i<numberTics ;i++)
    32f4:	0905                	addi	s2,s2,1
C:/Repository/RISKYKVM/firmware/src/User/mouse.c:215 (discriminator 3)
		            FifoWrite(&ScrollBuffer,&writeBuff , 1);
    32f6:	2541                	jal	3976 <FifoWrite>
C:/Repository/RISKYKVM/firmware/src/User/mouse.c:213 (discriminator 3)
		        for( uint8_t i = 0; i<numberTics ;i++)
    32f8:	0ff97913          	andi	s2,s2,255
    32fc:	b7ed                	j	32e6 <ProcessMouse+0x190>
C:/Repository/RISKYKVM/firmware/src/User/mouse.c:219
		        writeBuff = CODE_WHEEL_DOWN;
    32fe:	479d                	li	a5,7
    3300:	00f107a3          	sb	a5,15(sp)
C:/Repository/RISKYKVM/firmware/src/User/mouse.c:220
                for( uint8_t i = 0; i<numberTics ;i++)
    3304:	4901                	li	s2,0
C:/Repository/RISKYKVM/firmware/src/User/mouse.c:222
                    FifoWrite(&ScrollBuffer,&writeBuff , 1);
    3306:	200029b7          	lui	s3,0x20002
C:/Repository/RISKYKVM/firmware/src/User/mouse.c:220 (discriminator 1)
                for( uint8_t i = 0; i<numberTics ;i++)
    330a:	f49900e3          	beq	s2,s1,324a <ProcessMouse+0xf4>
C:/Repository/RISKYKVM/firmware/src/User/mouse.c:222 (discriminator 3)
                    FifoWrite(&ScrollBuffer,&writeBuff , 1);
    330e:	4605                	li	a2,1
    3310:	00f10593          	addi	a1,sp,15
    3314:	b1898513          	addi	a0,s3,-1256 # 20001b18 <ScrollBuffer>
C:/Repository/RISKYKVM/firmware/src/User/mouse.c:220 (discriminator 3)
                for( uint8_t i = 0; i<numberTics ;i++)
    3318:	0905                	addi	s2,s2,1
C:/Repository/RISKYKVM/firmware/src/User/mouse.c:222 (discriminator 3)
                    FifoWrite(&ScrollBuffer,&writeBuff , 1);
    331a:	2db1                	jal	3976 <FifoWrite>
C:/Repository/RISKYKVM/firmware/src/User/mouse.c:220 (discriminator 3)
                for( uint8_t i = 0; i<numberTics ;i++)
    331c:	0ff97913          	andi	s2,s2,255
    3320:	b7ed                	j	330a <ProcessMouse+0x1b4>
    3322:	8082                	ret

00003324 <ProcessX_IRQ>:
ProcessX_IRQ():
C:/Repository/RISKYKVM/firmware/src/User/mouse.c:232

void ProcessX_IRQ() {
    3324:	1141                	addi	sp,sp,-16
    3326:	c226                	sw	s1,4(sp)
C:/Repository/RISKYKVM/firmware/src/User/mouse.c:237



	// Process X output
	if (mouseDistanceX > 0) {
    3328:	87618793          	addi	a5,gp,-1930 # 20000076 <mouseDistanceX>
    332c:	0007d783          	lhu	a5,0(a5)
C:/Repository/RISKYKVM/firmware/src/User/mouse.c:232
void ProcessX_IRQ() {
    3330:	c422                	sw	s0,8(sp)
    3332:	c606                	sw	ra,12(sp)
C:/Repository/RISKYKVM/firmware/src/User/mouse.c:237
	if (mouseDistanceX > 0) {
    3334:	07c2                	slli	a5,a5,0x10
    3336:	87c1                	srai	a5,a5,0x10
    3338:	87a18413          	addi	s0,gp,-1926 # 2000007a <mouseEncoderPhaseX>
    333c:	10f05a63          	blez	a5,3450 <ProcessX_IRQ+0x12c>
C:/Repository/RISKYKVM/firmware/src/User/mouse.c:240
		// Set the output pins according to the current phase BH RHQ FV LVQ

		if (mouseEncoderPhaseX == 0)
    3340:	00044783          	lbu	a5,0(s0)
    3344:	87618493          	addi	s1,gp,-1930 # 20000076 <mouseDistanceX>
    3348:	07e2                	slli	a5,a5,0x18
    334a:	87e1                	srai	a5,a5,0x18
    334c:	eb89                	bnez	a5,335e <ProcessX_IRQ+0x3a>
C:/Repository/RISKYKVM/firmware/src/User/mouse.c:241
			GPIO_WriteBit(BH_GPIO_Port, BH_Pin, !(1));	// Set X1 to 1
    334e:	40011537          	lui	a0,0x40011
    3352:	4601                	li	a2,0
    3354:	6591                	lui	a1,0x4
    3356:	c0050513          	addi	a0,a0,-1024 # 40010c00 <_eusrstack+0x2000bc00>
    335a:	20f000ef          	jal	ra,3d68 <GPIO_WriteBit>
C:/Repository/RISKYKVM/firmware/src/User/mouse.c:242
		if (mouseEncoderPhaseX == 1)
    335e:	00044783          	lbu	a5,0(s0)
    3362:	4705                	li	a4,1
    3364:	07e2                	slli	a5,a5,0x18
    3366:	87e1                	srai	a5,a5,0x18
    3368:	00e79a63          	bne	a5,a4,337c <ProcessX_IRQ+0x58>
C:/Repository/RISKYKVM/firmware/src/User/mouse.c:243
			GPIO_WriteBit(RHQ_GPIO_Port, RHQ_Pin, !(1));	// Set X2 to 1
    336c:	40011537          	lui	a0,0x40011
    3370:	4601                	li	a2,0
    3372:	6585                	lui	a1,0x1
    3374:	c0050513          	addi	a0,a0,-1024 # 40010c00 <_eusrstack+0x2000bc00>
    3378:	1f1000ef          	jal	ra,3d68 <GPIO_WriteBit>
C:/Repository/RISKYKVM/firmware/src/User/mouse.c:244
		if (mouseEncoderPhaseX == 2)
    337c:	00044783          	lbu	a5,0(s0)
    3380:	4709                	li	a4,2
    3382:	07e2                	slli	a5,a5,0x18
    3384:	87e1                	srai	a5,a5,0x18
    3386:	00e79a63          	bne	a5,a4,339a <ProcessX_IRQ+0x76>
C:/Repository/RISKYKVM/firmware/src/User/mouse.c:245
			GPIO_WriteBit(BH_GPIO_Port, BH_Pin, !(0));	// Set X1 to 0
    338a:	40011537          	lui	a0,0x40011
    338e:	4605                	li	a2,1
    3390:	6591                	lui	a1,0x4
    3392:	c0050513          	addi	a0,a0,-1024 # 40010c00 <_eusrstack+0x2000bc00>
    3396:	1d3000ef          	jal	ra,3d68 <GPIO_WriteBit>
C:/Repository/RISKYKVM/firmware/src/User/mouse.c:246
		if (mouseEncoderPhaseX == 3)
    339a:	00044783          	lbu	a5,0(s0)
    339e:	470d                	li	a4,3
    33a0:	07e2                	slli	a5,a5,0x18
    33a2:	87e1                	srai	a5,a5,0x18
    33a4:	00e79a63          	bne	a5,a4,33b8 <ProcessX_IRQ+0x94>
C:/Repository/RISKYKVM/firmware/src/User/mouse.c:247
			GPIO_WriteBit(RHQ_GPIO_Port, RHQ_Pin, !(0));	// Set X2 to 0
    33a8:	40011537          	lui	a0,0x40011
    33ac:	4605                	li	a2,1
    33ae:	6585                	lui	a1,0x1
    33b0:	c0050513          	addi	a0,a0,-1024 # 40010c00 <_eusrstack+0x2000bc00>
    33b4:	1b5000ef          	jal	ra,3d68 <GPIO_WriteBit>
C:/Repository/RISKYKVM/firmware/src/User/mouse.c:250

		// Change phase
		if (mouseDirectionX == 0)
    33b8:	87418713          	addi	a4,gp,-1932 # 20000074 <mouseDirectionX>
    33bc:	00074703          	lbu	a4,0(a4)
    33c0:	87418793          	addi	a5,gp,-1932 # 20000074 <mouseDirectionX>
    33c4:	0762                	slli	a4,a4,0x18
    33c6:	8761                	srai	a4,a4,0x18
    33c8:	e341                	bnez	a4,3448 <ProcessX_IRQ+0x124>
C:/Repository/RISKYKVM/firmware/src/User/mouse.c:251
			mouseEncoderPhaseX--;
    33ca:	00044703          	lbu	a4,0(s0)
    33ce:	177d                	addi	a4,a4,-1
C:/Repository/RISKYKVM/firmware/src/User/mouse.c:253
		else
			mouseEncoderPhaseX++;
    33d0:	0762                	slli	a4,a4,0x18
    33d2:	8761                	srai	a4,a4,0x18
    33d4:	00e40023          	sb	a4,0(s0)
C:/Repository/RISKYKVM/firmware/src/User/mouse.c:256

		// Decrement the distance left to move
		mouseDistanceX--;
    33d8:	0004d703          	lhu	a4,0(s1)
C:/Repository/RISKYKVM/firmware/src/User/mouse.c:259

		// Range check the phase
		if ((mouseDirectionX == 1) && (mouseEncoderPhaseX > 3))
    33dc:	4685                	li	a3,1
C:/Repository/RISKYKVM/firmware/src/User/mouse.c:256
		mouseDistanceX--;
    33de:	177d                	addi	a4,a4,-1
    33e0:	0742                	slli	a4,a4,0x10
    33e2:	8741                	srai	a4,a4,0x10
    33e4:	00e49023          	sh	a4,0(s1)
C:/Repository/RISKYKVM/firmware/src/User/mouse.c:259
		if ((mouseDirectionX == 1) && (mouseEncoderPhaseX > 3))
    33e8:	0007c703          	lbu	a4,0(a5)
    33ec:	0762                	slli	a4,a4,0x18
    33ee:	8761                	srai	a4,a4,0x18
    33f0:	00d71b63          	bne	a4,a3,3406 <ProcessX_IRQ+0xe2>
C:/Repository/RISKYKVM/firmware/src/User/mouse.c:259 (discriminator 1)
    33f4:	00044703          	lbu	a4,0(s0)
    33f8:	468d                	li	a3,3
    33fa:	0762                	slli	a4,a4,0x18
    33fc:	8761                	srai	a4,a4,0x18
    33fe:	00e6d463          	bge	a3,a4,3406 <ProcessX_IRQ+0xe2>
C:/Repository/RISKYKVM/firmware/src/User/mouse.c:260
			mouseEncoderPhaseX = 0;
    3402:	00040023          	sb	zero,0(s0)
C:/Repository/RISKYKVM/firmware/src/User/mouse.c:261
		if ((mouseDirectionX == 0) && (mouseEncoderPhaseX < 0))
    3406:	0007c783          	lbu	a5,0(a5)
    340a:	07e2                	slli	a5,a5,0x18
    340c:	87e1                	srai	a5,a5,0x18
    340e:	eb91                	bnez	a5,3422 <ProcessX_IRQ+0xfe>
C:/Repository/RISKYKVM/firmware/src/User/mouse.c:261 (discriminator 1)
    3410:	00044783          	lbu	a5,0(s0)
    3414:	07e2                	slli	a5,a5,0x18
    3416:	87e1                	srai	a5,a5,0x18
    3418:	0007d563          	bgez	a5,3422 <ProcessX_IRQ+0xfe>
C:/Repository/RISKYKVM/firmware/src/User/mouse.c:262
			mouseEncoderPhaseX = 3;
    341c:	478d                	li	a5,3
    341e:	00f40023          	sb	a5,0(s0)
C:/Repository/RISKYKVM/firmware/src/User/mouse.c:269
		// Reset the phase if the mouse isn't moving
		mouseEncoderPhaseX = 0;
	}

	// Set the timer top value for the next interrupt
	if (xTimerTop == 0) {
    3422:	200007b7          	lui	a5,0x20000
    3426:	00178793          	addi	a5,a5,1 # 20000001 <xTimerTop>
    342a:	0007c703          	lbu	a4,0(a5)
    342e:	0ff77713          	andi	a4,a4,255
    3432:	e315                	bnez	a4,3456 <ProcessX_IRQ+0x132>
C:/Repository/RISKYKVM/firmware/src/User/mouse.c:270
		TIM2->ATRLR = 1;
    3434:	400007b7          	lui	a5,0x40000
    3438:	4705                	li	a4,1
    343a:	02e79623          	sh	a4,44(a5) # 4000002c <_eusrstack+0x1fffb02c>
C:/Repository/RISKYKVM/firmware/src/User/mouse.c:275
	} else {
		TIM2->ATRLR = xTimerTop;
	}

}
    343e:	40b2                	lw	ra,12(sp)
    3440:	4422                	lw	s0,8(sp)
    3442:	4492                	lw	s1,4(sp)
    3444:	0141                	addi	sp,sp,16
    3446:	8082                	ret
C:/Repository/RISKYKVM/firmware/src/User/mouse.c:253
			mouseEncoderPhaseX++;
    3448:	00044703          	lbu	a4,0(s0)
    344c:	0705                	addi	a4,a4,1
    344e:	b749                	j	33d0 <ProcessX_IRQ+0xac>
C:/Repository/RISKYKVM/firmware/src/User/mouse.c:265
		mouseEncoderPhaseX = 0;
    3450:	00040023          	sb	zero,0(s0)
    3454:	b7f9                	j	3422 <ProcessX_IRQ+0xfe>
C:/Repository/RISKYKVM/firmware/src/User/mouse.c:272
		TIM2->ATRLR = xTimerTop;
    3456:	0007c783          	lbu	a5,0(a5)
    345a:	40000737          	lui	a4,0x40000
    345e:	02f71623          	sh	a5,44(a4) # 4000002c <_eusrstack+0x1fffb02c>
C:/Repository/RISKYKVM/firmware/src/User/mouse.c:275
}
    3462:	bff1                	j	343e <ProcessX_IRQ+0x11a>

00003464 <ProcessY_IRQ>:
ProcessY_IRQ():
C:/Repository/RISKYKVM/firmware/src/User/mouse.c:277

void ProcessY_IRQ() {
    3464:	1141                	addi	sp,sp,-16
    3466:	c226                	sw	s1,4(sp)
C:/Repository/RISKYKVM/firmware/src/User/mouse.c:281


// Process Y output
	if (mouseDistanceY > 0) {
    3468:	87818793          	addi	a5,gp,-1928 # 20000078 <mouseDistanceY>
    346c:	0007d783          	lhu	a5,0(a5)
C:/Repository/RISKYKVM/firmware/src/User/mouse.c:277
void ProcessY_IRQ() {
    3470:	c422                	sw	s0,8(sp)
    3472:	c606                	sw	ra,12(sp)
C:/Repository/RISKYKVM/firmware/src/User/mouse.c:281
	if (mouseDistanceY > 0) {
    3474:	07c2                	slli	a5,a5,0x10
    3476:	87c1                	srai	a5,a5,0x10
    3478:	87b18413          	addi	s0,gp,-1925 # 2000007b <mouseEncoderPhaseY>
    347c:	10f05c63          	blez	a5,3594 <ProcessY_IRQ+0x130>
C:/Repository/RISKYKVM/firmware/src/User/mouse.c:283
		// Set the output pins according to the current phase
		if (mouseEncoderPhaseY == 3)
    3480:	00044783          	lbu	a5,0(s0)
    3484:	470d                	li	a4,3
    3486:	87818493          	addi	s1,gp,-1928 # 20000078 <mouseDistanceY>
    348a:	07e2                	slli	a5,a5,0x18
    348c:	87e1                	srai	a5,a5,0x18
    348e:	00e79a63          	bne	a5,a4,34a2 <ProcessY_IRQ+0x3e>
C:/Repository/RISKYKVM/firmware/src/User/mouse.c:285
		{
			GPIO_WriteBit(LVQ_GPIO_Port, LVQ_Pin, !(0));	// Set Y1 to 0
    3492:	40011537          	lui	a0,0x40011
    3496:	4605                	li	a2,1
    3498:	6589                	lui	a1,0x2
    349a:	c0050513          	addi	a0,a0,-1024 # 40010c00 <_eusrstack+0x2000bc00>
    349e:	0cb000ef          	jal	ra,3d68 <GPIO_WriteBit>
C:/Repository/RISKYKVM/firmware/src/User/mouse.c:287
		}
		if (mouseEncoderPhaseY == 2)
    34a2:	00044783          	lbu	a5,0(s0)
    34a6:	4709                	li	a4,2
    34a8:	07e2                	slli	a5,a5,0x18
    34aa:	87e1                	srai	a5,a5,0x18
    34ac:	00e79b63          	bne	a5,a4,34c2 <ProcessY_IRQ+0x5e>
C:/Repository/RISKYKVM/firmware/src/User/mouse.c:288
			GPIO_WriteBit(FV_GPIO_Port, FV_Pin, !(0));	// Set Y2 to 0
    34b0:	40011537          	lui	a0,0x40011
    34b4:	4605                	li	a2,1
    34b6:	10000593          	li	a1,256
    34ba:	80050513          	addi	a0,a0,-2048 # 40010800 <_eusrstack+0x2000b800>
    34be:	0ab000ef          	jal	ra,3d68 <GPIO_WriteBit>
C:/Repository/RISKYKVM/firmware/src/User/mouse.c:289
		if (mouseEncoderPhaseY == 1)
    34c2:	00044783          	lbu	a5,0(s0)
    34c6:	4705                	li	a4,1
    34c8:	07e2                	slli	a5,a5,0x18
    34ca:	87e1                	srai	a5,a5,0x18
    34cc:	00e79a63          	bne	a5,a4,34e0 <ProcessY_IRQ+0x7c>
C:/Repository/RISKYKVM/firmware/src/User/mouse.c:291
		{
			GPIO_WriteBit(LVQ_GPIO_Port, LVQ_Pin, !(1));	// Set Y1 to 1
    34d0:	40011537          	lui	a0,0x40011
    34d4:	4601                	li	a2,0
    34d6:	6589                	lui	a1,0x2
    34d8:	c0050513          	addi	a0,a0,-1024 # 40010c00 <_eusrstack+0x2000bc00>
    34dc:	08d000ef          	jal	ra,3d68 <GPIO_WriteBit>
C:/Repository/RISKYKVM/firmware/src/User/mouse.c:293
		}
			if (mouseEncoderPhaseY == 0)
    34e0:	00044783          	lbu	a5,0(s0)
    34e4:	07e2                	slli	a5,a5,0x18
    34e6:	87e1                	srai	a5,a5,0x18
    34e8:	eb91                	bnez	a5,34fc <ProcessY_IRQ+0x98>
C:/Repository/RISKYKVM/firmware/src/User/mouse.c:294
			GPIO_WriteBit(FV_GPIO_Port, FV_Pin, !(1));	// Set Y2 to 1
    34ea:	40011537          	lui	a0,0x40011
    34ee:	4601                	li	a2,0
    34f0:	10000593          	li	a1,256
    34f4:	80050513          	addi	a0,a0,-2048 # 40010800 <_eusrstack+0x2000b800>
    34f8:	071000ef          	jal	ra,3d68 <GPIO_WriteBit>
C:/Repository/RISKYKVM/firmware/src/User/mouse.c:297

		// Change phase
		if (mouseDirectionY == 0)
    34fc:	87518713          	addi	a4,gp,-1931 # 20000075 <mouseDirectionY>
    3500:	00074703          	lbu	a4,0(a4)
    3504:	87518793          	addi	a5,gp,-1931 # 20000075 <mouseDirectionY>
    3508:	0762                	slli	a4,a4,0x18
    350a:	8761                	srai	a4,a4,0x18
    350c:	e341                	bnez	a4,358c <ProcessY_IRQ+0x128>
C:/Repository/RISKYKVM/firmware/src/User/mouse.c:298
			mouseEncoderPhaseY--;
    350e:	00044703          	lbu	a4,0(s0)
    3512:	177d                	addi	a4,a4,-1
C:/Repository/RISKYKVM/firmware/src/User/mouse.c:300
		else
			mouseEncoderPhaseY++;
    3514:	0762                	slli	a4,a4,0x18
    3516:	8761                	srai	a4,a4,0x18
    3518:	00e40023          	sb	a4,0(s0)
C:/Repository/RISKYKVM/firmware/src/User/mouse.c:303

		// Decrement the distance left to move
		mouseDistanceY--;
    351c:	0004d703          	lhu	a4,0(s1)
C:/Repository/RISKYKVM/firmware/src/User/mouse.c:306

		// Range check the phase
		if ((mouseDirectionY == 1) && (mouseEncoderPhaseY > 3))
    3520:	4685                	li	a3,1
C:/Repository/RISKYKVM/firmware/src/User/mouse.c:303
		mouseDistanceY--;
    3522:	177d                	addi	a4,a4,-1
    3524:	0742                	slli	a4,a4,0x10
    3526:	8741                	srai	a4,a4,0x10
    3528:	00e49023          	sh	a4,0(s1)
C:/Repository/RISKYKVM/firmware/src/User/mouse.c:306
		if ((mouseDirectionY == 1) && (mouseEncoderPhaseY > 3))
    352c:	0007c703          	lbu	a4,0(a5)
    3530:	0762                	slli	a4,a4,0x18
    3532:	8761                	srai	a4,a4,0x18
    3534:	00d71b63          	bne	a4,a3,354a <ProcessY_IRQ+0xe6>
C:/Repository/RISKYKVM/firmware/src/User/mouse.c:306 (discriminator 1)
    3538:	00044703          	lbu	a4,0(s0)
    353c:	468d                	li	a3,3
    353e:	0762                	slli	a4,a4,0x18
    3540:	8761                	srai	a4,a4,0x18
    3542:	00e6d463          	bge	a3,a4,354a <ProcessY_IRQ+0xe6>
C:/Repository/RISKYKVM/firmware/src/User/mouse.c:307
			mouseEncoderPhaseY = 0;
    3546:	00040023          	sb	zero,0(s0)
C:/Repository/RISKYKVM/firmware/src/User/mouse.c:308
		if ((mouseDirectionY == 0) && (mouseEncoderPhaseY < 0))
    354a:	0007c783          	lbu	a5,0(a5)
    354e:	07e2                	slli	a5,a5,0x18
    3550:	87e1                	srai	a5,a5,0x18
    3552:	eb91                	bnez	a5,3566 <ProcessY_IRQ+0x102>
C:/Repository/RISKYKVM/firmware/src/User/mouse.c:308 (discriminator 1)
    3554:	00044783          	lbu	a5,0(s0)
    3558:	07e2                	slli	a5,a5,0x18
    355a:	87e1                	srai	a5,a5,0x18
    355c:	0007d563          	bgez	a5,3566 <ProcessY_IRQ+0x102>
C:/Repository/RISKYKVM/firmware/src/User/mouse.c:309
			mouseEncoderPhaseY = 3;
    3560:	478d                	li	a5,3
    3562:	00f40023          	sb	a5,0(s0)
C:/Repository/RISKYKVM/firmware/src/User/mouse.c:316
		// Reset the phase if the mouse isn't moving
		mouseEncoderPhaseY = 0;
	}

// Set the timer top value for the next interrupt
	if (yTimerTop == 0) {
    3566:	200007b7          	lui	a5,0x20000
    356a:	00278793          	addi	a5,a5,2 # 20000002 <yTimerTop>
    356e:	0007c703          	lbu	a4,0(a5)
    3572:	0ff77713          	andi	a4,a4,255
    3576:	e315                	bnez	a4,359a <ProcessY_IRQ+0x136>
C:/Repository/RISKYKVM/firmware/src/User/mouse.c:317
		TIM4->ATRLR = 1;
    3578:	400017b7          	lui	a5,0x40001
    357c:	4705                	li	a4,1
C:/Repository/RISKYKVM/firmware/src/User/mouse.c:322
	} else {
		TIM4->ATRLR = yTimerTop;
	}

}
    357e:	40b2                	lw	ra,12(sp)
    3580:	4422                	lw	s0,8(sp)
C:/Repository/RISKYKVM/firmware/src/User/mouse.c:319
		TIM4->ATRLR = yTimerTop;
    3582:	82e79623          	sh	a4,-2004(a5) # 4000082c <_eusrstack+0x1fffb82c>
C:/Repository/RISKYKVM/firmware/src/User/mouse.c:322
}
    3586:	4492                	lw	s1,4(sp)
    3588:	0141                	addi	sp,sp,16
    358a:	8082                	ret
C:/Repository/RISKYKVM/firmware/src/User/mouse.c:300
			mouseEncoderPhaseY++;
    358c:	00044703          	lbu	a4,0(s0)
    3590:	0705                	addi	a4,a4,1
    3592:	b749                	j	3514 <ProcessY_IRQ+0xb0>
C:/Repository/RISKYKVM/firmware/src/User/mouse.c:312
		mouseEncoderPhaseY = 0;
    3594:	00040023          	sb	zero,0(s0)
    3598:	b7f9                	j	3566 <ProcessY_IRQ+0x102>
C:/Repository/RISKYKVM/firmware/src/User/mouse.c:319
		TIM4->ATRLR = yTimerTop;
    359a:	0007c703          	lbu	a4,0(a5)
    359e:	400017b7          	lui	a5,0x40001
    35a2:	bff1                	j	357e <ProcessY_IRQ+0x11a>

000035a4 <ProcessScrollIRQ>:
ProcessScrollIRQ():
C:/Repository/RISKYKVM/firmware/src/User/mouse.c:327



void ProcessScrollIRQ()
{
    35a4:	7179                	addi	sp,sp,-48
    35a6:	d422                	sw	s0,40(sp)
C:/Repository/RISKYKVM/firmware/src/User/mouse.c:329
    uint8_t code = 0;
    uint16_t PortCurrentValueGPIOA = GPIO_ReadOutputData(GPIOA);
    35a8:	40011437          	lui	s0,0x40011
    35ac:	80040513          	addi	a0,s0,-2048 # 40010800 <_eusrstack+0x2000b800>
C:/Repository/RISKYKVM/firmware/src/User/mouse.c:327
{
    35b0:	d606                	sw	ra,44(sp)
    35b2:	d226                	sw	s1,36(sp)
    35b4:	d04a                	sw	s2,32(sp)
    35b6:	ce4e                	sw	s3,28(sp)
    35b8:	cc52                	sw	s4,24(sp)
C:/Repository/RISKYKVM/firmware/src/User/mouse.c:328
    uint8_t code = 0;
    35ba:	000107a3          	sb	zero,15(sp)
C:/Repository/RISKYKVM/firmware/src/User/mouse.c:329
    uint16_t PortCurrentValueGPIOA = GPIO_ReadOutputData(GPIOA);
    35be:	78e000ef          	jal	ra,3d4c <GPIO_ReadOutputData>
    35c2:	892a                	mv	s2,a0
C:/Repository/RISKYKVM/firmware/src/User/mouse.c:330
    uint16_t PortCurrentValueGPIOB = GPIO_ReadOutputData(GPIOB);
    35c4:	c0040513          	addi	a0,s0,-1024
    35c8:	784000ef          	jal	ra,3d4c <GPIO_ReadOutputData>
    35cc:	84aa                	mv	s1,a0
C:/Repository/RISKYKVM/firmware/src/User/mouse.c:332

    FifoRead(&ScrollBuffer, &code, 1);
    35ce:	20002537          	lui	a0,0x20002
    35d2:	4605                	li	a2,1
    35d4:	00f10593          	addi	a1,sp,15
    35d8:	b1850513          	addi	a0,a0,-1256 # 20001b18 <ScrollBuffer>
    35dc:	2e25                	jal	3914 <FifoRead>
C:/Repository/RISKYKVM/firmware/src/User/mouse.c:335


    GPIO_WriteBit(RB_GPIO_Port, RB_Pin, 0);
    35de:	6585                	lui	a1,0x1
    35e0:	4601                	li	a2,0
    35e2:	80058593          	addi	a1,a1,-2048 # 800 <__stack_size>
    35e6:	c0040513          	addi	a0,s0,-1024
    35ea:	77e000ef          	jal	ra,3d68 <GPIO_WriteBit>
C:/Repository/RISKYKVM/firmware/src/User/mouse.c:337

    if (code == 0)
    35ee:	00f14783          	lbu	a5,15(sp)
    35f2:	eb95                	bnez	a5,3626 <ProcessScrollIRQ+0x82>
C:/Repository/RISKYKVM/firmware/src/User/mouse.c:339
    {
        GPIO_WriteBit(RHQ_GPIO_Port, RHQ_Pin, 1);
    35f4:	4605                	li	a2,1
    35f6:	6585                	lui	a1,0x1
    35f8:	c0040513          	addi	a0,s0,-1024
    35fc:	76c000ef          	jal	ra,3d68 <GPIO_WriteBit>
C:/Repository/RISKYKVM/firmware/src/User/mouse.c:340
        GPIO_WriteBit(LVQ_GPIO_Port, LVQ_Pin,1);
    3600:	4605                	li	a2,1
    3602:	6589                	lui	a1,0x2
    3604:	c0040513          	addi	a0,s0,-1024
    3608:	760000ef          	jal	ra,3d68 <GPIO_WriteBit>
C:/Repository/RISKYKVM/firmware/src/User/mouse.c:341
        GPIO_WriteBit(BH_GPIO_Port, BH_Pin,1);
    360c:	4605                	li	a2,1
    360e:	6591                	lui	a1,0x4
    3610:	c0040513          	addi	a0,s0,-1024
    3614:	754000ef          	jal	ra,3d68 <GPIO_WriteBit>
C:/Repository/RISKYKVM/firmware/src/User/mouse.c:342
        GPIO_WriteBit(FV_GPIO_Port,FV_Pin, 1);
    3618:	4605                	li	a2,1
    361a:	10000593          	li	a1,256
    361e:	80040513          	addi	a0,s0,-2048
    3622:	746000ef          	jal	ra,3d68 <GPIO_WriteBit>
C:/Repository/RISKYKVM/firmware/src/User/mouse.c:345
    }

    if (code == CODE_WHEEL_UP)
    3626:	00f14703          	lbu	a4,15(sp)
    362a:	47ad                	li	a5,11
    362c:	02f71d63          	bne	a4,a5,3666 <ProcessScrollIRQ+0xc2>
C:/Repository/RISKYKVM/firmware/src/User/mouse.c:347
    {
        GPIO_WriteBit(RHQ_GPIO_Port, RHQ_Pin, 0);
    3630:	40011437          	lui	s0,0x40011
    3634:	4601                	li	a2,0
    3636:	6585                	lui	a1,0x1
    3638:	c0040513          	addi	a0,s0,-1024 # 40010c00 <_eusrstack+0x2000bc00>
    363c:	72c000ef          	jal	ra,3d68 <GPIO_WriteBit>
C:/Repository/RISKYKVM/firmware/src/User/mouse.c:348
        GPIO_WriteBit(LVQ_GPIO_Port, LVQ_Pin,0);
    3640:	4601                	li	a2,0
    3642:	6589                	lui	a1,0x2
    3644:	c0040513          	addi	a0,s0,-1024
    3648:	720000ef          	jal	ra,3d68 <GPIO_WriteBit>
C:/Repository/RISKYKVM/firmware/src/User/mouse.c:349
        GPIO_WriteBit(BH_GPIO_Port, BH_Pin,1);
    364c:	4605                	li	a2,1
    364e:	6591                	lui	a1,0x4
    3650:	c0040513          	addi	a0,s0,-1024
    3654:	714000ef          	jal	ra,3d68 <GPIO_WriteBit>
C:/Repository/RISKYKVM/firmware/src/User/mouse.c:350
        GPIO_WriteBit(FV_GPIO_Port,FV_Pin, 1);
    3658:	4605                	li	a2,1
    365a:	10000593          	li	a1,256
    365e:	80040513          	addi	a0,s0,-2048
    3662:	706000ef          	jal	ra,3d68 <GPIO_WriteBit>
C:/Repository/RISKYKVM/firmware/src/User/mouse.c:353
    }

    if (code == CODE_WHEEL_DOWN)
    3666:	00f14703          	lbu	a4,15(sp)
    366a:	479d                	li	a5,7
    366c:	02f71963          	bne	a4,a5,369e <ProcessScrollIRQ+0xfa>
C:/Repository/RISKYKVM/firmware/src/User/mouse.c:355
    {
        GPIO_WriteBit(RHQ_GPIO_Port, RHQ_Pin, 1);
    3670:	40011437          	lui	s0,0x40011
    3674:	4605                	li	a2,1
    3676:	6585                	lui	a1,0x1
    3678:	c0040513          	addi	a0,s0,-1024 # 40010c00 <_eusrstack+0x2000bc00>
    367c:	25f5                	jal	3d68 <GPIO_WriteBit>
C:/Repository/RISKYKVM/firmware/src/User/mouse.c:356
        GPIO_WriteBit(LVQ_GPIO_Port, LVQ_Pin, 0);
    367e:	4601                	li	a2,0
    3680:	6589                	lui	a1,0x2
    3682:	c0040513          	addi	a0,s0,-1024
    3686:	25cd                	jal	3d68 <GPIO_WriteBit>
C:/Repository/RISKYKVM/firmware/src/User/mouse.c:357
        GPIO_WriteBit(BH_GPIO_Port, BH_Pin,0);
    3688:	4601                	li	a2,0
    368a:	6591                	lui	a1,0x4
    368c:	c0040513          	addi	a0,s0,-1024
    3690:	2de1                	jal	3d68 <GPIO_WriteBit>
C:/Repository/RISKYKVM/firmware/src/User/mouse.c:358
        GPIO_WriteBit(FV_GPIO_Port,FV_Pin, 1);
    3692:	4605                	li	a2,1
    3694:	10000593          	li	a1,256
    3698:	80040513          	addi	a0,s0,-2048
    369c:	25f1                	jal	3d68 <GPIO_WriteBit>
C:/Repository/RISKYKVM/firmware/src/User/mouse.c:361
    }

    if (code == CODE_MMB_DOWN)
    369e:	00f14703          	lbu	a4,15(sp)
    36a2:	47b5                	li	a5,13
    36a4:	02f71963          	bne	a4,a5,36d6 <ProcessScrollIRQ+0x132>
C:/Repository/RISKYKVM/firmware/src/User/mouse.c:363
    {
        GPIO_WriteBit(RHQ_GPIO_Port, RHQ_Pin, 0);
    36a8:	40011437          	lui	s0,0x40011
    36ac:	4601                	li	a2,0
    36ae:	6585                	lui	a1,0x1
    36b0:	c0040513          	addi	a0,s0,-1024 # 40010c00 <_eusrstack+0x2000bc00>
    36b4:	2d55                	jal	3d68 <GPIO_WriteBit>
C:/Repository/RISKYKVM/firmware/src/User/mouse.c:364
        GPIO_WriteBit(LVQ_GPIO_Port, LVQ_Pin, 0);
    36b6:	4601                	li	a2,0
    36b8:	6589                	lui	a1,0x2
    36ba:	c0040513          	addi	a0,s0,-1024
    36be:	256d                	jal	3d68 <GPIO_WriteBit>
C:/Repository/RISKYKVM/firmware/src/User/mouse.c:365
        GPIO_WriteBit(BH_GPIO_Port, BH_Pin,1);
    36c0:	4605                	li	a2,1
    36c2:	6591                	lui	a1,0x4
    36c4:	c0040513          	addi	a0,s0,-1024
    36c8:	2545                	jal	3d68 <GPIO_WriteBit>
C:/Repository/RISKYKVM/firmware/src/User/mouse.c:366
        GPIO_WriteBit(FV_GPIO_Port,FV_Pin, 0);
    36ca:	4601                	li	a2,0
    36cc:	10000593          	li	a1,256
    36d0:	80040513          	addi	a0,s0,-2048
    36d4:	2d51                	jal	3d68 <GPIO_WriteBit>
C:/Repository/RISKYKVM/firmware/src/User/mouse.c:369
    }

    if (code == CODE_MMB_UP)
    36d6:	00f14703          	lbu	a4,15(sp)
    36da:	47b9                	li	a5,14
    36dc:	02f71963          	bne	a4,a5,370e <ProcessScrollIRQ+0x16a>
C:/Repository/RISKYKVM/firmware/src/User/mouse.c:371
    {
        GPIO_WriteBit(RHQ_GPIO_Port, RHQ_Pin, 1);
    36e0:	40011437          	lui	s0,0x40011
    36e4:	4605                	li	a2,1
    36e6:	6585                	lui	a1,0x1
    36e8:	c0040513          	addi	a0,s0,-1024 # 40010c00 <_eusrstack+0x2000bc00>
    36ec:	2db5                	jal	3d68 <GPIO_WriteBit>
C:/Repository/RISKYKVM/firmware/src/User/mouse.c:372
        GPIO_WriteBit(LVQ_GPIO_Port, LVQ_Pin, 0);
    36ee:	4601                	li	a2,0
    36f0:	6589                	lui	a1,0x2
    36f2:	c0040513          	addi	a0,s0,-1024
    36f6:	2d8d                	jal	3d68 <GPIO_WriteBit>
C:/Repository/RISKYKVM/firmware/src/User/mouse.c:373
        GPIO_WriteBit(BH_GPIO_Port, BH_Pin,0);
    36f8:	4601                	li	a2,0
    36fa:	6591                	lui	a1,0x4
    36fc:	c0040513          	addi	a0,s0,-1024
    3700:	25a5                	jal	3d68 <GPIO_WriteBit>
C:/Repository/RISKYKVM/firmware/src/User/mouse.c:374
        GPIO_WriteBit(FV_GPIO_Port,FV_Pin, 0);
    3702:	4601                	li	a2,0
    3704:	10000593          	li	a1,256
    3708:	80040513          	addi	a0,s0,-2048
    370c:	2db1                	jal	3d68 <GPIO_WriteBit>
C:/Repository/RISKYKVM/firmware/src/User/mouse.c:377 (discriminator 1)
    }

   while (GPIO_ReadInputDataBit(MB_GPIO_Port, MB_Pin) != 1);
    370e:	40011437          	lui	s0,0x40011
    3712:	c0040a13          	addi	s4,s0,-1024 # 40010c00 <_eusrstack+0x2000bc00>
    3716:	4985                	li	s3,1
    3718:	40000593          	li	a1,1024
    371c:	8552                	mv	a0,s4
    371e:	2d11                	jal	3d32 <GPIO_ReadInputDataBit>
    3720:	ff351ce3          	bne	a0,s3,3718 <ProcessScrollIRQ+0x174>
C:/Repository/RISKYKVM/firmware/src/User/mouse.c:378
   GPIO_Write(GPIOA,PortCurrentValueGPIOA);
    3724:	85ca                	mv	a1,s2
    3726:	80040513          	addi	a0,s0,-2048
    372a:	2da1                	jal	3d82 <GPIO_Write>
C:/Repository/RISKYKVM/firmware/src/User/mouse.c:379
   GPIO_Write(GPIOB,PortCurrentValueGPIOB);
    372c:	85a6                	mv	a1,s1
    372e:	c0040513          	addi	a0,s0,-1024
    3732:	2d81                	jal	3d82 <GPIO_Write>
C:/Repository/RISKYKVM/firmware/src/User/mouse.c:380
}
    3734:	50b2                	lw	ra,44(sp)
    3736:	5422                	lw	s0,40(sp)
    3738:	5492                	lw	s1,36(sp)
    373a:	5902                	lw	s2,32(sp)
    373c:	49f2                	lw	s3,28(sp)
    373e:	4a62                	lw	s4,24(sp)
    3740:	6145                	addi	sp,sp,48
    3742:	8082                	ret

00003744 <SystemInit>:
SystemInit():
C:/Repository/RISKYKVM/firmware/src/User/system_ch32v20x.c:113
 *
 * @return  none
 */
void SystemInit (void)
{
  RCC->CTLR |= (uint32_t)0x00000001;
    3744:	400217b7          	lui	a5,0x40021
    3748:	4398                	lw	a4,0(a5)
C:/Repository/RISKYKVM/firmware/src/User/system_ch32v20x.c:114
  RCC->CFGR0 &= (uint32_t)0xF8FF0000;
    374a:	f8ff06b7          	lui	a3,0xf8ff0
C:/Repository/RISKYKVM/firmware/src/User/system_ch32v20x.c:113
  RCC->CTLR |= (uint32_t)0x00000001;
    374e:	00176713          	ori	a4,a4,1
    3752:	c398                	sw	a4,0(a5)
C:/Repository/RISKYKVM/firmware/src/User/system_ch32v20x.c:114
  RCC->CFGR0 &= (uint32_t)0xF8FF0000;
    3754:	43d8                	lw	a4,4(a5)
    3756:	8f75                	and	a4,a4,a3
    3758:	c3d8                	sw	a4,4(a5)
C:/Repository/RISKYKVM/firmware/src/User/system_ch32v20x.c:115
  RCC->CTLR &= (uint32_t)0xFEF6FFFF;
    375a:	4398                	lw	a4,0(a5)
    375c:	fef706b7          	lui	a3,0xfef70
    3760:	16fd                	addi	a3,a3,-1
    3762:	8f75                	and	a4,a4,a3
    3764:	c398                	sw	a4,0(a5)
C:/Repository/RISKYKVM/firmware/src/User/system_ch32v20x.c:116
  RCC->CTLR &= (uint32_t)0xFFFBFFFF;
    3766:	4398                	lw	a4,0(a5)
    3768:	fffc06b7          	lui	a3,0xfffc0
    376c:	16fd                	addi	a3,a3,-1
    376e:	8f75                	and	a4,a4,a3
    3770:	c398                	sw	a4,0(a5)
C:/Repository/RISKYKVM/firmware/src/User/system_ch32v20x.c:117
  RCC->CFGR0 &= (uint32_t)0xFF80FFFF;
    3772:	43d8                	lw	a4,4(a5)
    3774:	ff8106b7          	lui	a3,0xff810
    3778:	16fd                	addi	a3,a3,-1
    377a:	8f75                	and	a4,a4,a3
    377c:	c3d8                	sw	a4,4(a5)
C:/Repository/RISKYKVM/firmware/src/User/system_ch32v20x.c:118
  RCC->INTR = 0x009F0000;    
    377e:	009f0737          	lui	a4,0x9f0
    3782:	c798                	sw	a4,8(a5)
SetSysClockTo144_HSI():
C:/Repository/RISKYKVM/firmware/src/User/system_ch32v20x.c:956
 *
 * @return  none
 */
static void SetSysClockTo144_HSI(void)
{
    EXTEN->EXTEN_CTR |= EXTEN_PLL_HSI_PRE;
    3784:	400246b7          	lui	a3,0x40024
    3788:	8006a703          	lw	a4,-2048(a3) # 40023800 <_eusrstack+0x2001e800>
    378c:	01076713          	ori	a4,a4,16
    3790:	80e6a023          	sw	a4,-2048(a3)
C:/Repository/RISKYKVM/firmware/src/User/system_ch32v20x.c:959

    /* HCLK = SYSCLK */
    RCC->CFGR0 |= (uint32_t)RCC_HPRE_DIV1;
    3794:	43d8                	lw	a4,4(a5)
C:/Repository/RISKYKVM/firmware/src/User/system_ch32v20x.c:966
    RCC->CFGR0 |= (uint32_t)RCC_PPRE2_DIV1;
    /* PCLK1 = HCLK */
    RCC->CFGR0 |= (uint32_t)RCC_PPRE1_DIV2;

    /*  PLL configuration: PLLCLK = HSI * 18 = 144 MHz */
    RCC->CFGR0 &= (uint32_t)((uint32_t)~(RCC_PLLSRC | RCC_PLLXTPRE | RCC_PLLMULL));
    3796:	ffc106b7          	lui	a3,0xffc10
    379a:	16fd                	addi	a3,a3,-1
C:/Repository/RISKYKVM/firmware/src/User/system_ch32v20x.c:959
    RCC->CFGR0 |= (uint32_t)RCC_HPRE_DIV1;
    379c:	c3d8                	sw	a4,4(a5)
C:/Repository/RISKYKVM/firmware/src/User/system_ch32v20x.c:961
    RCC->CFGR0 |= (uint32_t)RCC_PPRE2_DIV1;
    379e:	43d8                	lw	a4,4(a5)
    37a0:	c3d8                	sw	a4,4(a5)
C:/Repository/RISKYKVM/firmware/src/User/system_ch32v20x.c:963
    RCC->CFGR0 |= (uint32_t)RCC_PPRE1_DIV2;
    37a2:	43d8                	lw	a4,4(a5)
    37a4:	40076713          	ori	a4,a4,1024
    37a8:	c3d8                	sw	a4,4(a5)
C:/Repository/RISKYKVM/firmware/src/User/system_ch32v20x.c:966
    RCC->CFGR0 &= (uint32_t)((uint32_t)~(RCC_PLLSRC | RCC_PLLXTPRE | RCC_PLLMULL));
    37aa:	43d8                	lw	a4,4(a5)
    37ac:	8f75                	and	a4,a4,a3
    37ae:	c3d8                	sw	a4,4(a5)
C:/Repository/RISKYKVM/firmware/src/User/system_ch32v20x.c:968

     RCC->CFGR0 |= (uint32_t)(RCC_PLLSRC_HSI_Div2 | RCC_PLLMULL18);
    37b0:	43d8                	lw	a4,4(a5)
    37b2:	003c06b7          	lui	a3,0x3c0
    37b6:	8f55                	or	a4,a4,a3
    37b8:	c3d8                	sw	a4,4(a5)
C:/Repository/RISKYKVM/firmware/src/User/system_ch32v20x.c:971

    /* Enable PLL */
    RCC->CTLR |= RCC_PLLON;
    37ba:	4398                	lw	a4,0(a5)
    37bc:	010006b7          	lui	a3,0x1000
    37c0:	8f55                	or	a4,a4,a3
    37c2:	c398                	sw	a4,0(a5)
C:/Repository/RISKYKVM/firmware/src/User/system_ch32v20x.c:973
    /* Wait till PLL is ready */
    while((RCC->CTLR & RCC_PLLRDY) == 0)
    37c4:	4398                	lw	a4,0(a5)
    37c6:	00671693          	slli	a3,a4,0x6
    37ca:	fe06dde3          	bgez	a3,37c4 <SystemInit+0x80>
C:/Repository/RISKYKVM/firmware/src/User/system_ch32v20x.c:977
    {
    }
    /* Select PLL as system clock source */
    RCC->CFGR0 &= (uint32_t)((uint32_t)~(RCC_SW));
    37ce:	43d8                	lw	a4,4(a5)
C:/Repository/RISKYKVM/firmware/src/User/system_ch32v20x.c:980
    RCC->CFGR0 |= (uint32_t)RCC_SW_PLL;
    /* Wait till PLL is used as system clock source */
    while ((RCC->CFGR0 & (uint32_t)RCC_SWS) != (uint32_t)0x08)
    37d0:	400216b7          	lui	a3,0x40021
C:/Repository/RISKYKVM/firmware/src/User/system_ch32v20x.c:977
    RCC->CFGR0 &= (uint32_t)((uint32_t)~(RCC_SW));
    37d4:	9b71                	andi	a4,a4,-4
    37d6:	c3d8                	sw	a4,4(a5)
C:/Repository/RISKYKVM/firmware/src/User/system_ch32v20x.c:978
    RCC->CFGR0 |= (uint32_t)RCC_SW_PLL;
    37d8:	43d8                	lw	a4,4(a5)
    37da:	00276713          	ori	a4,a4,2
    37de:	c3d8                	sw	a4,4(a5)
C:/Repository/RISKYKVM/firmware/src/User/system_ch32v20x.c:980
    while ((RCC->CFGR0 & (uint32_t)RCC_SWS) != (uint32_t)0x08)
    37e0:	4721                	li	a4,8
    37e2:	42dc                	lw	a5,4(a3)
    37e4:	8bb1                	andi	a5,a5,12
    37e6:	fee79ee3          	bne	a5,a4,37e2 <SystemInit+0x9e>
SystemInit():
C:/Repository/RISKYKVM/firmware/src/User/system_ch32v20x.c:120
}
    37ea:	8082                	ret

000037ec <TIM2_Init>:
TIM2_Init():
C:/Repository/RISKYKVM/firmware/src/User/tim.c:9
void TIM2_IRQHandler(void) __attribute__((interrupt("WCH-Interrupt-fast")));
void TIM4_IRQHandler(void) __attribute__((interrupt("WCH-Interrupt-fast")));


void TIM2_Init( void )
{
    37ec:	7179                	addi	sp,sp,-48
C:/Repository/RISKYKVM/firmware/src/User/tim.c:16

    TIM_TimeBaseInitTypeDef TIM_TimeBaseStructure = { 0 };
    NVIC_InitTypeDef NVIC_InitStructure = { 0 };

    /* Enable Timer3 Clock */
    RCC_APB1PeriphClockCmd( RCC_APB1Periph_TIM2, ENABLE );
    37ee:	4585                	li	a1,1
    37f0:	4505                	li	a0,1
C:/Repository/RISKYKVM/firmware/src/User/tim.c:9
{
    37f2:	d606                	sw	ra,44(sp)
C:/Repository/RISKYKVM/firmware/src/User/tim.c:12
    TIM_TimeBaseInitTypeDef TIM_TimeBaseStructure = { 0 };
    37f4:	ca02                	sw	zero,20(sp)
    37f6:	cc02                	sw	zero,24(sp)
    37f8:	00011e23          	sh	zero,28(sp)
C:/Repository/RISKYKVM/firmware/src/User/tim.c:13
    NVIC_InitTypeDef NVIC_InitStructure = { 0 };
    37fc:	c602                	sw	zero,12(sp)
    37fe:	c802                	sw	zero,16(sp)
C:/Repository/RISKYKVM/firmware/src/User/tim.c:16
    RCC_APB1PeriphClockCmd( RCC_APB1Periph_TIM2, ENABLE );
    3800:	2dc1                	jal	3ed0 <RCC_APB1PeriphClockCmd>
C:/Repository/RISKYKVM/firmware/src/User/tim.c:20

    /* Initialize Timer2 */
    TIM_TimeBaseStructure.TIM_Period = 1000;
    TIM_TimeBaseStructure.TIM_Prescaler = 18720-1;
    3802:	6795                	lui	a5,0x5
    3804:	91f78793          	addi	a5,a5,-1761 # 491f <_data_lma+0x6cf>
    3808:	ca3e                	sw	a5,20(sp)
C:/Repository/RISKYKVM/firmware/src/User/tim.c:23
    TIM_TimeBaseStructure.TIM_ClockDivision = TIM_CKD_DIV1;
    TIM_TimeBaseStructure.TIM_CounterMode = TIM_CounterMode_Up;
    TIM_TimeBaseInit( TIM2, &TIM_TimeBaseStructure );
    380a:	084c                	addi	a1,sp,20
C:/Repository/RISKYKVM/firmware/src/User/tim.c:19
    TIM_TimeBaseStructure.TIM_Period = 1000;
    380c:	3e800793          	li	a5,1000
C:/Repository/RISKYKVM/firmware/src/User/tim.c:23
    TIM_TimeBaseInit( TIM2, &TIM_TimeBaseStructure );
    3810:	40000537          	lui	a0,0x40000
C:/Repository/RISKYKVM/firmware/src/User/tim.c:19
    TIM_TimeBaseStructure.TIM_Period = 1000;
    3814:	cc3e                	sw	a5,24(sp)
C:/Repository/RISKYKVM/firmware/src/User/tim.c:23
    TIM_TimeBaseInit( TIM2, &TIM_TimeBaseStructure );
    3816:	2de1                	jal	3eee <TIM_TimeBaseInit>
C:/Repository/RISKYKVM/firmware/src/User/tim.c:25

    TIM_ITConfig( TIM2, TIM_IT_Update, ENABLE );
    3818:	4605                	li	a2,1
    381a:	4585                	li	a1,1
    381c:	40000537          	lui	a0,0x40000
    3820:	27ad                	jal	3f8a <TIM_ITConfig>
C:/Repository/RISKYKVM/firmware/src/User/tim.c:27

    NVIC_InitStructure.NVIC_IRQChannel = TIM2_IRQn;
    3822:	42c00793          	li	a5,1068
    3826:	00f11623          	sh	a5,12(sp)
C:/Repository/RISKYKVM/firmware/src/User/tim.c:29
    NVIC_InitStructure.NVIC_IRQChannelPreemptionPriority = 4;
    NVIC_InitStructure.NVIC_IRQChannelSubPriority = 1;
    382a:	4785                	li	a5,1
    382c:	00f10723          	sb	a5,14(sp)
C:/Repository/RISKYKVM/firmware/src/User/tim.c:31
    NVIC_InitStructure.NVIC_IRQChannelCmd = ENABLE;
    NVIC_Init( &NVIC_InitStructure );
    3830:	0068                	addi	a0,sp,12
C:/Repository/RISKYKVM/firmware/src/User/tim.c:30
    NVIC_InitStructure.NVIC_IRQChannelCmd = ENABLE;
    3832:	4785                	li	a5,1
    3834:	c83e                	sw	a5,16(sp)
C:/Repository/RISKYKVM/firmware/src/User/tim.c:31
    NVIC_Init( &NVIC_InitStructure );
    3836:	2371                	jal	3dc2 <NVIC_Init>
C:/Repository/RISKYKVM/firmware/src/User/tim.c:34

    /* Enable Timer2 */
    TIM_Cmd( TIM2, ENABLE );
    3838:	4585                	li	a1,1
    383a:	40000537          	lui	a0,0x40000
    383e:	2f05                	jal	3f6e <TIM_Cmd>
C:/Repository/RISKYKVM/firmware/src/User/tim.c:39

    /* Enable timer2 interrupt */
    NVIC_EnableIRQ( TIM2_IRQn );

}
    3840:	50b2                	lw	ra,44(sp)
NVIC_EnableIRQ():
C:\Repository\RISKYKVM\firmware\src\Core/core_riscv.h:170
    3842:	e000e7b7          	lui	a5,0xe000e
    3846:	6705                	lui	a4,0x1
    3848:	10e7a223          	sw	a4,260(a5) # e000e104 <_eusrstack+0xc0009104>
TIM2_Init():
C:/Repository/RISKYKVM/firmware/src/User/tim.c:39
    384c:	6145                	addi	sp,sp,48
    384e:	8082                	ret

00003850 <TIM4_Init>:
TIM4_Init():
C:/Repository/RISKYKVM/firmware/src/User/tim.c:42

void TIM4_Init( void )
{
    3850:	7179                	addi	sp,sp,-48
C:/Repository/RISKYKVM/firmware/src/User/tim.c:49

    TIM_TimeBaseInitTypeDef TIM_TimeBaseStructure = { 0 };
    NVIC_InitTypeDef NVIC_InitStructure = { 0 };

    /* Enable Timer4 Clock */
    RCC_APB1PeriphClockCmd( RCC_APB1Periph_TIM4, ENABLE );
    3852:	4585                	li	a1,1
    3854:	4511                	li	a0,4
C:/Repository/RISKYKVM/firmware/src/User/tim.c:42
{
    3856:	d606                	sw	ra,44(sp)
    3858:	d422                	sw	s0,40(sp)
C:/Repository/RISKYKVM/firmware/src/User/tim.c:45
    TIM_TimeBaseInitTypeDef TIM_TimeBaseStructure = { 0 };
    385a:	ca02                	sw	zero,20(sp)
    385c:	cc02                	sw	zero,24(sp)
    385e:	00011e23          	sh	zero,28(sp)
C:/Repository/RISKYKVM/firmware/src/User/tim.c:46
    NVIC_InitTypeDef NVIC_InitStructure = { 0 };
    3862:	c602                	sw	zero,12(sp)
    3864:	c802                	sw	zero,16(sp)
C:/Repository/RISKYKVM/firmware/src/User/tim.c:49
    RCC_APB1PeriphClockCmd( RCC_APB1Periph_TIM4, ENABLE );
    3866:	25ad                	jal	3ed0 <RCC_APB1PeriphClockCmd>
C:/Repository/RISKYKVM/firmware/src/User/tim.c:53

    /* Initialize Timer4 */
    TIM_TimeBaseStructure.TIM_Period = 1000;
    TIM_TimeBaseStructure.TIM_Prescaler = 18720-1;
    3868:	6795                	lui	a5,0x5
C:/Repository/RISKYKVM/firmware/src/User/tim.c:56
    TIM_TimeBaseStructure.TIM_ClockDivision = TIM_CKD_DIV1;
    TIM_TimeBaseStructure.TIM_CounterMode = TIM_CounterMode_Up;
    TIM_TimeBaseInit( TIM4, &TIM_TimeBaseStructure );
    386a:	40001437          	lui	s0,0x40001
C:/Repository/RISKYKVM/firmware/src/User/tim.c:53
    TIM_TimeBaseStructure.TIM_Prescaler = 18720-1;
    386e:	91f78793          	addi	a5,a5,-1761 # 491f <_data_lma+0x6cf>
    3872:	ca3e                	sw	a5,20(sp)
C:/Repository/RISKYKVM/firmware/src/User/tim.c:56
    TIM_TimeBaseInit( TIM4, &TIM_TimeBaseStructure );
    3874:	084c                	addi	a1,sp,20
C:/Repository/RISKYKVM/firmware/src/User/tim.c:52
    TIM_TimeBaseStructure.TIM_Period = 1000;
    3876:	3e800793          	li	a5,1000
C:/Repository/RISKYKVM/firmware/src/User/tim.c:56
    TIM_TimeBaseInit( TIM4, &TIM_TimeBaseStructure );
    387a:	80040513          	addi	a0,s0,-2048 # 40000800 <_eusrstack+0x1fffb800>
C:/Repository/RISKYKVM/firmware/src/User/tim.c:52
    TIM_TimeBaseStructure.TIM_Period = 1000;
    387e:	cc3e                	sw	a5,24(sp)
C:/Repository/RISKYKVM/firmware/src/User/tim.c:56
    TIM_TimeBaseInit( TIM4, &TIM_TimeBaseStructure );
    3880:	25bd                	jal	3eee <TIM_TimeBaseInit>
C:/Repository/RISKYKVM/firmware/src/User/tim.c:58

    TIM_ITConfig( TIM4, TIM_IT_Update, ENABLE );
    3882:	4605                	li	a2,1
    3884:	4585                	li	a1,1
    3886:	80040513          	addi	a0,s0,-2048
    388a:	2701                	jal	3f8a <TIM_ITConfig>
C:/Repository/RISKYKVM/firmware/src/User/tim.c:60

    NVIC_InitStructure.NVIC_IRQChannel = TIM4_IRQn;
    388c:	32e00793          	li	a5,814
    3890:	00f11623          	sh	a5,12(sp)
C:/Repository/RISKYKVM/firmware/src/User/tim.c:62
    NVIC_InitStructure.NVIC_IRQChannelPreemptionPriority = 3;
    NVIC_InitStructure.NVIC_IRQChannelSubPriority = 1;
    3894:	4785                	li	a5,1
    3896:	00f10723          	sb	a5,14(sp)
C:/Repository/RISKYKVM/firmware/src/User/tim.c:64
    NVIC_InitStructure.NVIC_IRQChannelCmd = ENABLE;
    NVIC_Init( &NVIC_InitStructure );
    389a:	0068                	addi	a0,sp,12
C:/Repository/RISKYKVM/firmware/src/User/tim.c:63
    NVIC_InitStructure.NVIC_IRQChannelCmd = ENABLE;
    389c:	4785                	li	a5,1
    389e:	c83e                	sw	a5,16(sp)
C:/Repository/RISKYKVM/firmware/src/User/tim.c:64
    NVIC_Init( &NVIC_InitStructure );
    38a0:	230d                	jal	3dc2 <NVIC_Init>
C:/Repository/RISKYKVM/firmware/src/User/tim.c:67

    /* Enable Timer4 */
    TIM_Cmd( TIM4, ENABLE );
    38a2:	80040513          	addi	a0,s0,-2048
    38a6:	4585                	li	a1,1
    38a8:	25d9                	jal	3f6e <TIM_Cmd>
C:/Repository/RISKYKVM/firmware/src/User/tim.c:72

    /* Enable timer4 interrupt */
    NVIC_EnableIRQ( TIM4_IRQn );

}
    38aa:	50b2                	lw	ra,44(sp)
    38ac:	5422                	lw	s0,40(sp)
NVIC_EnableIRQ():
C:\Repository\RISKYKVM\firmware\src\Core/core_riscv.h:170
    38ae:	e000e7b7          	lui	a5,0xe000e
    38b2:	6711                	lui	a4,0x4
    38b4:	10e7a223          	sw	a4,260(a5) # e000e104 <_eusrstack+0xc0009104>
TIM4_Init():
C:/Repository/RISKYKVM/firmware/src/User/tim.c:72
    38b8:	6145                	addi	sp,sp,48
    38ba:	8082                	ret

000038bc <TIM2_IRQHandler>:
TIM2_IRQHandler():
C:/Repository/RISKYKVM/firmware/src/User/tim.c:79


void TIM2_IRQHandler( void )
{

    if( TIM_GetITStatus( TIM2, TIM_IT_Update ) != RESET )
    38bc:	4585                	li	a1,1
    38be:	40000537          	lui	a0,0x40000
    38c2:	2df9                	jal	3fa0 <TIM_GetITStatus>
    38c4:	c519                	beqz	a0,38d2 <TIM2_IRQHandler+0x16>
C:/Repository/RISKYKVM/firmware/src/User/tim.c:81
    {
    	ProcessX_IRQ();
    38c6:	a5fff0ef          	jal	ra,3324 <ProcessX_IRQ>
C:/Repository/RISKYKVM/firmware/src/User/tim.c:83
        /* Clear interrupt flag */
        TIM_ClearITPendingBit( TIM2, TIM_IT_Update );
    38ca:	4585                	li	a1,1
    38cc:	40000537          	lui	a0,0x40000
    38d0:	25f5                	jal	3fbc <TIM_ClearITPendingBit>
C:/Repository/RISKYKVM/firmware/src/User/tim.c:85
    }
}
    38d2:	30200073          	mret

000038d6 <TIM4_IRQHandler>:
TIM4_IRQHandler():
C:/Repository/RISKYKVM/firmware/src/User/tim.c:88

void TIM4_IRQHandler( void )
{
    38d6:	1141                	addi	sp,sp,-16
    38d8:	c622                	sw	s0,12(sp)
C:/Repository/RISKYKVM/firmware/src/User/tim.c:90

    if( TIM_GetITStatus( TIM4, TIM_IT_Update ) != RESET )
    38da:	40001437          	lui	s0,0x40001
    38de:	4585                	li	a1,1
    38e0:	80040513          	addi	a0,s0,-2048 # 40000800 <_eusrstack+0x1fffb800>
    38e4:	2d75                	jal	3fa0 <TIM_GetITStatus>
    38e6:	c519                	beqz	a0,38f4 <TIM4_IRQHandler+0x1e>
C:/Repository/RISKYKVM/firmware/src/User/tim.c:92
    {
    	 ProcessY_IRQ();
    38e8:	b7dff0ef          	jal	ra,3464 <ProcessY_IRQ>
C:/Repository/RISKYKVM/firmware/src/User/tim.c:94
        /* Clear interrupt flag */
        TIM_ClearITPendingBit( TIM4, TIM_IT_Update );
    38ec:	4585                	li	a1,1
    38ee:	80040513          	addi	a0,s0,-2048
    38f2:	25e9                	jal	3fbc <TIM_ClearITPendingBit>
C:/Repository/RISKYKVM/firmware/src/User/tim.c:96
    }
}
    38f4:	4432                	lw	s0,12(sp)
    38f6:	0141                	addi	sp,sp,16
    38f8:	30200073          	mret

000038fc <FifoInit>:
FifoInit():
C:/Repository/RISKYKVM/firmware/src/User/utils.c:10
void FifoInit(FIFO_Utils_TypeDef *f)
{
  f->head = 0U;
  f->tail = 0U;
  f->lock = 0U;
  f->size = 128U;
    38fc:	08000793          	li	a5,128
    3900:	00f51423          	sh	a5,8(a0) # 40000008 <_eusrstack+0x1fffb008>
C:/Repository/RISKYKVM/firmware/src/User/utils.c:11
  f->buf = f->buffArr;
    3904:	00b50793          	addi	a5,a0,11
C:/Repository/RISKYKVM/firmware/src/User/utils.c:7
  f->head = 0U;
    3908:	00052223          	sw	zero,4(a0)
C:/Repository/RISKYKVM/firmware/src/User/utils.c:9
  f->lock = 0U;
    390c:	00050523          	sb	zero,10(a0)
C:/Repository/RISKYKVM/firmware/src/User/utils.c:11
  f->buf = f->buffArr;
    3910:	c11c                	sw	a5,0(a0)
C:/Repository/RISKYKVM/firmware/src/User/utils.c:12
}
    3912:	8082                	ret

00003914 <FifoRead>:
FifoRead():
C:/Repository/RISKYKVM/firmware/src/User/utils.c:22
  uint16_t i;
  uint8_t *p;

  p = (uint8_t *) buf;

  if (f->lock == 0U)
    3914:	00a54703          	lbu	a4,10(a0)
C:/Repository/RISKYKVM/firmware/src/User/utils.c:16
{
    3918:	87aa                	mv	a5,a0
C:/Repository/RISKYKVM/firmware/src/User/utils.c:22
  if (f->lock == 0U)
    391a:	c709                	beqz	a4,3924 <FifoRead+0x10>
C:/Repository/RISKYKVM/firmware/src/User/utils.c:46
        return i;
      }
    }
  }

  f->lock = 0U;
    391c:	00078523          	sb	zero,10(a5)
C:/Repository/RISKYKVM/firmware/src/User/utils.c:48

  return nbytes;
    3920:	8532                	mv	a0,a2
    3922:	8082                	ret
C:/Repository/RISKYKVM/firmware/src/User/utils.c:24
    f->lock = 1U;
    3924:	4705                	li	a4,1
    3926:	00e50523          	sb	a4,10(a0)
C:/Repository/RISKYKVM/firmware/src/User/utils.c:26
    for (i = 0U; i < nbytes; i++)
    392a:	4681                	li	a3,0
    392c:	01069513          	slli	a0,a3,0x10
    3930:	8141                	srli	a0,a0,0x10
C:/Repository/RISKYKVM/firmware/src/User/utils.c:26 (discriminator 1)
    3932:	fec575e3          	bgeu	a0,a2,391c <FifoRead+0x8>
C:/Repository/RISKYKVM/firmware/src/User/utils.c:28
      if (f->tail != f->head)
    3936:	0067d803          	lhu	a6,6(a5)
    393a:	0047d703          	lhu	a4,4(a5)
    393e:	03070963          	beq	a4,a6,3970 <FifoRead+0x5c>
C:/Repository/RISKYKVM/firmware/src/User/utils.c:30
        *p++ = f->buf[f->tail];
    3942:	4398                	lw	a4,0(a5)
    3944:	9742                	add	a4,a4,a6
    3946:	00074503          	lbu	a0,0(a4) # 4000 <Delay_Us+0xc>
    394a:	00d58733          	add	a4,a1,a3
    394e:	00a70023          	sb	a0,0(a4)
C:/Repository/RISKYKVM/firmware/src/User/utils.c:31
        f->tail++;
    3952:	0067d703          	lhu	a4,6(a5)
C:/Repository/RISKYKVM/firmware/src/User/utils.c:33
        if (f->tail == f->size)
    3956:	0087d503          	lhu	a0,8(a5)
C:/Repository/RISKYKVM/firmware/src/User/utils.c:31
        f->tail++;
    395a:	0705                	addi	a4,a4,1
    395c:	0742                	slli	a4,a4,0x10
    395e:	8341                	srli	a4,a4,0x10
    3960:	00e79323          	sh	a4,6(a5)
C:/Repository/RISKYKVM/firmware/src/User/utils.c:33
        if (f->tail == f->size)
    3964:	00e51463          	bne	a0,a4,396c <FifoRead+0x58>
C:/Repository/RISKYKVM/firmware/src/User/utils.c:35
          f->tail = 0U;
    3968:	00079323          	sh	zero,6(a5)
    396c:	0685                	addi	a3,a3,1
    396e:	bf7d                	j	392c <FifoRead+0x18>
C:/Repository/RISKYKVM/firmware/src/User/utils.c:40
        f->lock = 0U;
    3970:	00078523          	sb	zero,10(a5)
C:/Repository/RISKYKVM/firmware/src/User/utils.c:49
}
    3974:	8082                	ret

00003976 <FifoWrite>:
FifoWrite():
C:/Repository/RISKYKVM/firmware/src/User/utils.c:59
  uint16_t i;
  uint8_t *p;

  p = (uint8_t *) buf;

  if (f->lock == 0U)
    3976:	00a54703          	lbu	a4,10(a0)
C:/Repository/RISKYKVM/firmware/src/User/utils.c:53
{
    397a:	87aa                	mv	a5,a0
C:/Repository/RISKYKVM/firmware/src/User/utils.c:59
  if (f->lock == 0U)
    397c:	c709                	beqz	a4,3986 <FifoWrite+0x10>
C:/Repository/RISKYKVM/firmware/src/User/utils.c:84
        }
      }
    }
  }

  f->lock = 0U;
    397e:	00078523          	sb	zero,10(a5)
C:/Repository/RISKYKVM/firmware/src/User/utils.c:86

  return nbytes;
    3982:	8532                	mv	a0,a2
    3984:	8082                	ret
C:/Repository/RISKYKVM/firmware/src/User/utils.c:61
    f->lock = 1U;
    3986:	4705                	li	a4,1
    3988:	00e50523          	sb	a4,10(a0)
C:/Repository/RISKYKVM/firmware/src/User/utils.c:63
    for (i = 0U; i < nbytes; i++)
    398c:	4681                	li	a3,0
    398e:	01069513          	slli	a0,a3,0x10
    3992:	8141                	srli	a0,a0,0x10
C:/Repository/RISKYKVM/firmware/src/User/utils.c:63 (discriminator 1)
    3994:	fec575e3          	bgeu	a0,a2,397e <FifoWrite+0x8>
C:/Repository/RISKYKVM/firmware/src/User/utils.c:65
      if ((f->head + 1U == f->tail) ||
    3998:	0047d803          	lhu	a6,4(a5)
    399c:	0067d703          	lhu	a4,6(a5)
    39a0:	00180893          	addi	a7,a6,1
    39a4:	00e88763          	beq	a7,a4,39b2 <FifoWrite+0x3c>
C:/Repository/RISKYKVM/firmware/src/User/utils.c:66 (discriminator 1)
          ((f->head + 1U == f->size) && (f->tail == 0U)))
    39a8:	0087d303          	lhu	t1,8(a5)
C:/Repository/RISKYKVM/firmware/src/User/utils.c:65 (discriminator 1)
      if ((f->head + 1U == f->tail) ||
    39ac:	00689663          	bne	a7,t1,39b8 <FifoWrite+0x42>
C:/Repository/RISKYKVM/firmware/src/User/utils.c:66
          ((f->head + 1U == f->size) && (f->tail == 0U)))
    39b0:	e701                	bnez	a4,39b8 <FifoWrite+0x42>
C:/Repository/RISKYKVM/firmware/src/User/utils.c:68
        f->lock = 0U;
    39b2:	00078523          	sb	zero,10(a5)
C:/Repository/RISKYKVM/firmware/src/User/utils.c:87
}
    39b6:	8082                	ret
C:/Repository/RISKYKVM/firmware/src/User/utils.c:73
        f->buf[f->head] = *p++;
    39b8:	00d58733          	add	a4,a1,a3
    39bc:	00074503          	lbu	a0,0(a4)
    39c0:	4398                	lw	a4,0(a5)
    39c2:	9742                	add	a4,a4,a6
    39c4:	00a70023          	sb	a0,0(a4)
C:/Repository/RISKYKVM/firmware/src/User/utils.c:74
        f->head++;
    39c8:	0047d703          	lhu	a4,4(a5)
C:/Repository/RISKYKVM/firmware/src/User/utils.c:76
        if (f->head == f->size)
    39cc:	0087d503          	lhu	a0,8(a5)
C:/Repository/RISKYKVM/firmware/src/User/utils.c:74
        f->head++;
    39d0:	0705                	addi	a4,a4,1
    39d2:	0742                	slli	a4,a4,0x10
    39d4:	8341                	srli	a4,a4,0x10
    39d6:	00e79223          	sh	a4,4(a5)
C:/Repository/RISKYKVM/firmware/src/User/utils.c:76
        if (f->head == f->size)
    39da:	00e51463          	bne	a0,a4,39e2 <FifoWrite+0x6c>
C:/Repository/RISKYKVM/firmware/src/User/utils.c:78
          f->head = 0U;
    39de:	00079223          	sh	zero,4(a5)
    39e2:	0685                	addi	a3,a3,1
    39e4:	b76d                	j	398e <FifoWrite+0x18>

000039e6 <collect_bits>:
collect_bits():
C:/Repository/RISKYKVM/firmware/src/User/utils.c:95


uint16_t collect_bits(uint8_t *p, uint16_t offset, uint8_t size, int is_signed) {
  // mask unused bits of first byte
  uint8_t mask = 0xff << (offset&7);
  uint8_t byte = offset/8;
    39e6:	0035d813          	srli	a6,a1,0x3
    39ea:	0ff87813          	andi	a6,a6,255
C:/Repository/RISKYKVM/firmware/src/User/utils.c:97
  uint8_t bits = size;
  uint8_t shift = offset&7;
    39ee:	899d                	andi	a1,a1,7
C:/Repository/RISKYKVM/firmware/src/User/utils.c:100


  uint16_t rval = (p[byte++] & mask) >> shift;
    39f0:	010508b3          	add	a7,a0,a6
C:/Repository/RISKYKVM/firmware/src/User/utils.c:94
  uint8_t mask = 0xff << (offset&7);
    39f4:	0ff00793          	li	a5,255
C:/Repository/RISKYKVM/firmware/src/User/utils.c:97
  uint8_t shift = offset&7;
    39f8:	0ff5f713          	andi	a4,a1,255
C:/Repository/RISKYKVM/firmware/src/User/utils.c:94
  uint8_t mask = 0xff << (offset&7);
    39fc:	00b797b3          	sll	a5,a5,a1
C:/Repository/RISKYKVM/firmware/src/User/utils.c:100
  uint16_t rval = (p[byte++] & mask) >> shift;
    3a00:	0008c583          	lbu	a1,0(a7)
C:/Repository/RISKYKVM/firmware/src/User/utils.c:102
  mask = 0xff;
  shift = 8-shift;
    3a04:	48a1                	li	a7,8
    3a06:	40e888b3          	sub	a7,a7,a4
C:/Repository/RISKYKVM/firmware/src/User/utils.c:100
  uint16_t rval = (p[byte++] & mask) >> shift;
    3a0a:	8fed                	and	a5,a5,a1
C:/Repository/RISKYKVM/firmware/src/User/utils.c:102
  shift = 8-shift;
    3a0c:	0ff8f893          	andi	a7,a7,255
C:/Repository/RISKYKVM/firmware/src/User/utils.c:100
  uint16_t rval = (p[byte++] & mask) >> shift;
    3a10:	40e7d7b3          	sra	a5,a5,a4
C:/Repository/RISKYKVM/firmware/src/User/utils.c:106
  bits -= shift;

  // first byte already contained more bits than we need
  if(shift > size) {
    3a14:	07166663          	bltu	a2,a7,3a80 <collect_bits+0x9a>
C:/Repository/RISKYKVM/firmware/src/User/utils.c:100
  uint16_t rval = (p[byte++] & mask) >> shift;
    3a18:	00180593          	addi	a1,a6,1
C:/Repository/RISKYKVM/firmware/src/User/utils.c:103
  bits -= shift;
    3a1c:	ff860813          	addi	a6,a2,-8
C:/Repository/RISKYKVM/firmware/src/User/utils.c:100
  uint16_t rval = (p[byte++] & mask) >> shift;
    3a20:	07c2                	slli	a5,a5,0x10
C:/Repository/RISKYKVM/firmware/src/User/utils.c:103
  bits -= shift;
    3a22:	9742                	add	a4,a4,a6
C:/Repository/RISKYKVM/firmware/src/User/utils.c:100
  uint16_t rval = (p[byte++] & mask) >> shift;
    3a24:	0ff5f593          	andi	a1,a1,255
    3a28:	83c1                	srli	a5,a5,0x10
C:/Repository/RISKYKVM/firmware/src/User/utils.c:103
  bits -= shift;
    3a2a:	0ff77713          	andi	a4,a4,255
C:/Repository/RISKYKVM/firmware/src/User/utils.c:112
    // mask unused bits
    rval &= (1<<size)-1;
  } else {
    // further bytes if required
    while(bits) {
      mask = (bits<8)?(0xff>>(8-bits)):0xff;
    3a2e:	4e9d                	li	t4,7
    3a30:	0ff00f13          	li	t5,255
    3a34:	4e21                	li	t3,8
C:/Repository/RISKYKVM/firmware/src/User/utils.c:111
    while(bits) {
    3a36:	cf21                	beqz	a4,3a8e <collect_bits+0xa8>
C:/Repository/RISKYKVM/firmware/src/User/utils.c:112
      mask = (bits<8)?(0xff>>(8-bits)):0xff;
    3a38:	0ff00813          	li	a6,255
    3a3c:	00eee863          	bltu	t4,a4,3a4c <collect_bits+0x66>
C:/Repository/RISKYKVM/firmware/src/User/utils.c:112 (discriminator 1)
    3a40:	40ee0833          	sub	a6,t3,a4
    3a44:	410f5833          	sra	a6,t5,a6
    3a48:	0ff87813          	andi	a6,a6,255
C:/Repository/RISKYKVM/firmware/src/User/utils.c:113 (discriminator 4)
      rval += (p[byte++] & mask) << shift;
    3a4c:	00158313          	addi	t1,a1,1 # 4001 <Delay_Us+0xd>
    3a50:	95aa                	add	a1,a1,a0
    3a52:	0005c583          	lbu	a1,0(a1)
    3a56:	0ff37313          	andi	t1,t1,255
    3a5a:	00b87833          	and	a6,a6,a1
    3a5e:	01181833          	sll	a6,a6,a7
    3a62:	97c2                	add	a5,a5,a6
    3a64:	07c2                	slli	a5,a5,0x10
C:/Repository/RISKYKVM/firmware/src/User/utils.c:114 (discriminator 4)
      shift += 8;
    3a66:	08a1                	addi	a7,a7,8
C:/Repository/RISKYKVM/firmware/src/User/utils.c:113 (discriminator 4)
      rval += (p[byte++] & mask) << shift;
    3a68:	83c1                	srli	a5,a5,0x10
C:/Repository/RISKYKVM/firmware/src/User/utils.c:114 (discriminator 4)
      shift += 8;
    3a6a:	0ff8f893          	andi	a7,a7,255
C:/Repository/RISKYKVM/firmware/src/User/utils.c:115 (discriminator 4)
      bits -= (bits>8)?8:bits;
    3a6e:	85ba                	mv	a1,a4
    3a70:	00ee7363          	bgeu	t3,a4,3a76 <collect_bits+0x90>
    3a74:	45a1                	li	a1,8
    3a76:	8f0d                	sub	a4,a4,a1
    3a78:	0ff77713          	andi	a4,a4,255
C:/Repository/RISKYKVM/firmware/src/User/utils.c:113 (discriminator 4)
      rval += (p[byte++] & mask) << shift;
    3a7c:	859a                	mv	a1,t1
    3a7e:	bf65                	j	3a36 <collect_bits+0x50>
C:/Repository/RISKYKVM/firmware/src/User/utils.c:108
    rval &= (1<<size)-1;
    3a80:	4505                	li	a0,1
    3a82:	00c51533          	sll	a0,a0,a2
    3a86:	157d                	addi	a0,a0,-1
    3a88:	8fe9                	and	a5,a5,a0
    3a8a:	07c2                	slli	a5,a5,0x10
    3a8c:	83c1                	srli	a5,a5,0x10
C:/Repository/RISKYKVM/firmware/src/User/utils.c:119
    }
  }

  if(is_signed) {
    3a8e:	c285                	beqz	a3,3aae <collect_bits+0xc8>
C:/Repository/RISKYKVM/firmware/src/User/utils.c:121
    // do sign expansion
    uint16_t sign_bit = 1<<(size-1);
    3a90:	fff60713          	addi	a4,a2,-1
    3a94:	4605                	li	a2,1
    3a96:	00e61633          	sll	a2,a2,a4
    3a9a:	0642                	slli	a2,a2,0x10
    3a9c:	8241                	srli	a2,a2,0x10
C:/Repository/RISKYKVM/firmware/src/User/utils.c:122
    if(rval & sign_bit) {
    3a9e:	00c7f733          	and	a4,a5,a2
    3aa2:	c711                	beqz	a4,3aae <collect_bits+0xc8>
C:/Repository/RISKYKVM/firmware/src/User/utils.c:124
      while(sign_bit) {
	rval |= sign_bit;
    3aa4:	8fd1                	or	a5,a5,a2
C:/Repository/RISKYKVM/firmware/src/User/utils.c:125
	sign_bit <<= 1;
    3aa6:	0606                	slli	a2,a2,0x1
    3aa8:	0642                	slli	a2,a2,0x10
    3aaa:	8241                	srli	a2,a2,0x10
C:/Repository/RISKYKVM/firmware/src/User/utils.c:123
      while(sign_bit) {
    3aac:	fe65                	bnez	a2,3aa4 <collect_bits+0xbe>
C:/Repository/RISKYKVM/firmware/src/User/utils.c:131
      }
    }
  }

  return rval;
}
    3aae:	853e                	mv	a0,a5
    3ab0:	8082                	ret
C:/Repository/RISKYKVM/firmware/src/Startup/startup_ch32v20x_D6.S:159
    .weak   USBHD_IRQHandler           /* USBHD */
    .weak   USBHDWakeUp_IRQHandler     /* USBHD Wake Up */
    .weak   UART4_IRQHandler           /* UART4 */
    .weak   DMA1_Channel8_IRQHandler   /* DMA1 Channel8 */

NMI_Handler:  1:  j 1b
    3ab2:	a001                	j	3ab2 <collect_bits+0xcc>
C:/Repository/RISKYKVM/firmware/src/Startup/startup_ch32v20x_D6.S:160
HardFault_Handler:  1:  j 1b
    3ab4:	a001                	j	3ab4 <collect_bits+0xce>

00003ab6 <Ecall_M_Mode_Handler>:
Ecall_M_Mode_Handler():
C:/Repository/RISKYKVM/firmware/src/Startup/startup_ch32v20x_D6.S:161
Ecall_M_Mode_Handler:  1:  j 1b
    3ab6:	a001                	j	3ab6 <Ecall_M_Mode_Handler>

00003ab8 <Ecall_U_Mode_Handler>:
Ecall_U_Mode_Handler():
C:/Repository/RISKYKVM/firmware/src/Startup/startup_ch32v20x_D6.S:162
Ecall_U_Mode_Handler:  1:  j 1b
    3ab8:	a001                	j	3ab8 <Ecall_U_Mode_Handler>

00003aba <Break_Point_Handler>:
Break_Point_Handler():
C:/Repository/RISKYKVM/firmware/src/Startup/startup_ch32v20x_D6.S:163
Break_Point_Handler:  1:  j 1b
    3aba:	a001                	j	3aba <Break_Point_Handler>

00003abc <SysTick_Handler>:
SysTick_Handler():
C:/Repository/RISKYKVM/firmware/src/Startup/startup_ch32v20x_D6.S:164
SysTick_Handler:  1:  j 1b
    3abc:	a001                	j	3abc <SysTick_Handler>

00003abe <SW_Handler>:
SW_Handler():
C:/Repository/RISKYKVM/firmware/src/Startup/startup_ch32v20x_D6.S:165
SW_Handler:  1:  j 1b
    3abe:	a001                	j	3abe <SW_Handler>

00003ac0 <WWDG_IRQHandler>:
WWDG_IRQHandler():
C:/Repository/RISKYKVM/firmware/src/Startup/startup_ch32v20x_D6.S:166
WWDG_IRQHandler:  1:  j 1b
    3ac0:	a001                	j	3ac0 <WWDG_IRQHandler>

00003ac2 <PVD_IRQHandler>:
PVD_IRQHandler():
C:/Repository/RISKYKVM/firmware/src/Startup/startup_ch32v20x_D6.S:167
PVD_IRQHandler:  1:  j 1b
    3ac2:	a001                	j	3ac2 <PVD_IRQHandler>

00003ac4 <TAMPER_IRQHandler>:
TAMPER_IRQHandler():
C:/Repository/RISKYKVM/firmware/src/Startup/startup_ch32v20x_D6.S:168
TAMPER_IRQHandler:  1:  j 1b
    3ac4:	a001                	j	3ac4 <TAMPER_IRQHandler>

00003ac6 <RTC_IRQHandler>:
RTC_IRQHandler():
C:/Repository/RISKYKVM/firmware/src/Startup/startup_ch32v20x_D6.S:169
RTC_IRQHandler:  1:  j 1b
    3ac6:	a001                	j	3ac6 <RTC_IRQHandler>

00003ac8 <FLASH_IRQHandler>:
FLASH_IRQHandler():
C:/Repository/RISKYKVM/firmware/src/Startup/startup_ch32v20x_D6.S:170
FLASH_IRQHandler:  1:  j 1b
    3ac8:	a001                	j	3ac8 <FLASH_IRQHandler>

00003aca <RCC_IRQHandler>:
RCC_IRQHandler():
C:/Repository/RISKYKVM/firmware/src/Startup/startup_ch32v20x_D6.S:171
RCC_IRQHandler:  1:  j 1b
    3aca:	a001                	j	3aca <RCC_IRQHandler>

00003acc <EXTI0_IRQHandler>:
EXTI0_IRQHandler():
C:/Repository/RISKYKVM/firmware/src/Startup/startup_ch32v20x_D6.S:172
EXTI0_IRQHandler:  1:  j 1b
    3acc:	a001                	j	3acc <EXTI0_IRQHandler>

00003ace <EXTI1_IRQHandler>:
EXTI1_IRQHandler():
C:/Repository/RISKYKVM/firmware/src/Startup/startup_ch32v20x_D6.S:173
EXTI1_IRQHandler:  1:  j 1b
    3ace:	a001                	j	3ace <EXTI1_IRQHandler>

00003ad0 <EXTI2_IRQHandler>:
EXTI2_IRQHandler():
C:/Repository/RISKYKVM/firmware/src/Startup/startup_ch32v20x_D6.S:174
EXTI2_IRQHandler:  1:  j 1b
    3ad0:	a001                	j	3ad0 <EXTI2_IRQHandler>

00003ad2 <EXTI3_IRQHandler>:
EXTI3_IRQHandler():
C:/Repository/RISKYKVM/firmware/src/Startup/startup_ch32v20x_D6.S:175
EXTI3_IRQHandler:  1:  j 1b
    3ad2:	a001                	j	3ad2 <EXTI3_IRQHandler>

00003ad4 <EXTI4_IRQHandler>:
EXTI4_IRQHandler():
C:/Repository/RISKYKVM/firmware/src/Startup/startup_ch32v20x_D6.S:176
EXTI4_IRQHandler:  1:  j 1b
    3ad4:	a001                	j	3ad4 <EXTI4_IRQHandler>

00003ad6 <DMA1_Channel1_IRQHandler>:
DMA1_Channel1_IRQHandler():
C:/Repository/RISKYKVM/firmware/src/Startup/startup_ch32v20x_D6.S:177
DMA1_Channel1_IRQHandler:  1:  j 1b
    3ad6:	a001                	j	3ad6 <DMA1_Channel1_IRQHandler>

00003ad8 <DMA1_Channel2_IRQHandler>:
DMA1_Channel2_IRQHandler():
C:/Repository/RISKYKVM/firmware/src/Startup/startup_ch32v20x_D6.S:178
DMA1_Channel2_IRQHandler:  1:  j 1b
    3ad8:	a001                	j	3ad8 <DMA1_Channel2_IRQHandler>

00003ada <DMA1_Channel3_IRQHandler>:
DMA1_Channel3_IRQHandler():
C:/Repository/RISKYKVM/firmware/src/Startup/startup_ch32v20x_D6.S:179
DMA1_Channel3_IRQHandler:  1:  j 1b
    3ada:	a001                	j	3ada <DMA1_Channel3_IRQHandler>

00003adc <DMA1_Channel4_IRQHandler>:
DMA1_Channel4_IRQHandler():
C:/Repository/RISKYKVM/firmware/src/Startup/startup_ch32v20x_D6.S:180
DMA1_Channel4_IRQHandler:  1:  j 1b
    3adc:	a001                	j	3adc <DMA1_Channel4_IRQHandler>

00003ade <DMA1_Channel5_IRQHandler>:
DMA1_Channel5_IRQHandler():
C:/Repository/RISKYKVM/firmware/src/Startup/startup_ch32v20x_D6.S:181
DMA1_Channel5_IRQHandler:  1:  j 1b
    3ade:	a001                	j	3ade <DMA1_Channel5_IRQHandler>

00003ae0 <DMA1_Channel6_IRQHandler>:
DMA1_Channel6_IRQHandler():
C:/Repository/RISKYKVM/firmware/src/Startup/startup_ch32v20x_D6.S:182
DMA1_Channel6_IRQHandler:  1:  j 1b
    3ae0:	a001                	j	3ae0 <DMA1_Channel6_IRQHandler>

00003ae2 <DMA1_Channel7_IRQHandler>:
DMA1_Channel7_IRQHandler():
C:/Repository/RISKYKVM/firmware/src/Startup/startup_ch32v20x_D6.S:183
DMA1_Channel7_IRQHandler:  1:  j 1b
    3ae2:	a001                	j	3ae2 <DMA1_Channel7_IRQHandler>

00003ae4 <ADC1_2_IRQHandler>:
ADC1_2_IRQHandler():
C:/Repository/RISKYKVM/firmware/src/Startup/startup_ch32v20x_D6.S:184
ADC1_2_IRQHandler:  1:  j 1b
    3ae4:	a001                	j	3ae4 <ADC1_2_IRQHandler>

00003ae6 <USB_HP_CAN1_TX_IRQHandler>:
USB_HP_CAN1_TX_IRQHandler():
C:/Repository/RISKYKVM/firmware/src/Startup/startup_ch32v20x_D6.S:185
USB_HP_CAN1_TX_IRQHandler:  1:  j 1b
    3ae6:	a001                	j	3ae6 <USB_HP_CAN1_TX_IRQHandler>

00003ae8 <USB_LP_CAN1_RX0_IRQHandler>:
USB_LP_CAN1_RX0_IRQHandler():
C:/Repository/RISKYKVM/firmware/src/Startup/startup_ch32v20x_D6.S:186
USB_LP_CAN1_RX0_IRQHandler:  1:  j 1b
    3ae8:	a001                	j	3ae8 <USB_LP_CAN1_RX0_IRQHandler>

00003aea <CAN1_RX1_IRQHandler>:
CAN1_RX1_IRQHandler():
C:/Repository/RISKYKVM/firmware/src/Startup/startup_ch32v20x_D6.S:187
CAN1_RX1_IRQHandler:  1:  j 1b
    3aea:	a001                	j	3aea <CAN1_RX1_IRQHandler>

00003aec <CAN1_SCE_IRQHandler>:
CAN1_SCE_IRQHandler():
C:/Repository/RISKYKVM/firmware/src/Startup/startup_ch32v20x_D6.S:188
CAN1_SCE_IRQHandler:  1:  j 1b
    3aec:	a001                	j	3aec <CAN1_SCE_IRQHandler>

00003aee <EXTI9_5_IRQHandler>:
EXTI9_5_IRQHandler():
C:/Repository/RISKYKVM/firmware/src/Startup/startup_ch32v20x_D6.S:189
EXTI9_5_IRQHandler:  1:  j 1b
    3aee:	a001                	j	3aee <EXTI9_5_IRQHandler>

00003af0 <TIM1_BRK_IRQHandler>:
TIM1_BRK_IRQHandler():
C:/Repository/RISKYKVM/firmware/src/Startup/startup_ch32v20x_D6.S:190
TIM1_BRK_IRQHandler:  1:  j 1b
    3af0:	a001                	j	3af0 <TIM1_BRK_IRQHandler>

00003af2 <TIM1_UP_IRQHandler>:
TIM1_UP_IRQHandler():
C:/Repository/RISKYKVM/firmware/src/Startup/startup_ch32v20x_D6.S:191
TIM1_UP_IRQHandler:  1:  j 1b
    3af2:	a001                	j	3af2 <TIM1_UP_IRQHandler>

00003af4 <TIM1_TRG_COM_IRQHandler>:
TIM1_TRG_COM_IRQHandler():
C:/Repository/RISKYKVM/firmware/src/Startup/startup_ch32v20x_D6.S:192
TIM1_TRG_COM_IRQHandler:  1:  j 1b
    3af4:	a001                	j	3af4 <TIM1_TRG_COM_IRQHandler>

00003af6 <TIM1_CC_IRQHandler>:
TIM1_CC_IRQHandler():
C:/Repository/RISKYKVM/firmware/src/Startup/startup_ch32v20x_D6.S:193
TIM1_CC_IRQHandler:  1:  j 1b
    3af6:	a001                	j	3af6 <TIM1_CC_IRQHandler>
C:/Repository/RISKYKVM/firmware/src/Startup/startup_ch32v20x_D6.S:194
TIM2_IRQHandler:  1:  j 1b
    3af8:	a001                	j	3af8 <TIM1_CC_IRQHandler+0x2>
C:/Repository/RISKYKVM/firmware/src/Startup/startup_ch32v20x_D6.S:195
TIM3_IRQHandler:  1:  j 1b
    3afa:	a001                	j	3afa <TIM1_CC_IRQHandler+0x4>
C:/Repository/RISKYKVM/firmware/src/Startup/startup_ch32v20x_D6.S:196
TIM4_IRQHandler:  1:  j 1b
    3afc:	a001                	j	3afc <TIM1_CC_IRQHandler+0x6>

00003afe <I2C1_EV_IRQHandler>:
I2C1_EV_IRQHandler():
C:/Repository/RISKYKVM/firmware/src/Startup/startup_ch32v20x_D6.S:197
I2C1_EV_IRQHandler:  1:  j 1b
    3afe:	a001                	j	3afe <I2C1_EV_IRQHandler>

00003b00 <I2C1_ER_IRQHandler>:
I2C1_ER_IRQHandler():
C:/Repository/RISKYKVM/firmware/src/Startup/startup_ch32v20x_D6.S:198
I2C1_ER_IRQHandler:  1:  j 1b
    3b00:	a001                	j	3b00 <I2C1_ER_IRQHandler>

00003b02 <I2C2_EV_IRQHandler>:
I2C2_EV_IRQHandler():
C:/Repository/RISKYKVM/firmware/src/Startup/startup_ch32v20x_D6.S:199
I2C2_EV_IRQHandler:  1:  j 1b
    3b02:	a001                	j	3b02 <I2C2_EV_IRQHandler>

00003b04 <I2C2_ER_IRQHandler>:
I2C2_ER_IRQHandler():
C:/Repository/RISKYKVM/firmware/src/Startup/startup_ch32v20x_D6.S:200
I2C2_ER_IRQHandler:  1:  j 1b
    3b04:	a001                	j	3b04 <I2C2_ER_IRQHandler>

00003b06 <SPI1_IRQHandler>:
SPI1_IRQHandler():
C:/Repository/RISKYKVM/firmware/src/Startup/startup_ch32v20x_D6.S:201
SPI1_IRQHandler:  1:  j 1b
    3b06:	a001                	j	3b06 <SPI1_IRQHandler>

00003b08 <SPI2_IRQHandler>:
SPI2_IRQHandler():
C:/Repository/RISKYKVM/firmware/src/Startup/startup_ch32v20x_D6.S:202
SPI2_IRQHandler:  1:  j 1b
    3b08:	a001                	j	3b08 <SPI2_IRQHandler>

00003b0a <USART1_IRQHandler>:
USART1_IRQHandler():
C:/Repository/RISKYKVM/firmware/src/Startup/startup_ch32v20x_D6.S:203
USART1_IRQHandler:  1:  j 1b
    3b0a:	a001                	j	3b0a <USART1_IRQHandler>

00003b0c <USART2_IRQHandler>:
USART2_IRQHandler():
C:/Repository/RISKYKVM/firmware/src/Startup/startup_ch32v20x_D6.S:204
USART2_IRQHandler:  1:  j 1b
    3b0c:	a001                	j	3b0c <USART2_IRQHandler>

00003b0e <USART3_IRQHandler>:
USART3_IRQHandler():
C:/Repository/RISKYKVM/firmware/src/Startup/startup_ch32v20x_D6.S:205
USART3_IRQHandler:  1:  j 1b
    3b0e:	a001                	j	3b0e <USART3_IRQHandler>
C:/Repository/RISKYKVM/firmware/src/Startup/startup_ch32v20x_D6.S:206
EXTI15_10_IRQHandler:  1:  j 1b
    3b10:	a001                	j	3b10 <USART3_IRQHandler+0x2>

00003b12 <RTCAlarm_IRQHandler>:
RTCAlarm_IRQHandler():
C:/Repository/RISKYKVM/firmware/src/Startup/startup_ch32v20x_D6.S:207
RTCAlarm_IRQHandler:  1:  j 1b
    3b12:	a001                	j	3b12 <RTCAlarm_IRQHandler>

00003b14 <USBWakeUp_IRQHandler>:
USBWakeUp_IRQHandler():
C:/Repository/RISKYKVM/firmware/src/Startup/startup_ch32v20x_D6.S:208
USBWakeUp_IRQHandler:  1:  j 1b
    3b14:	a001                	j	3b14 <USBWakeUp_IRQHandler>

00003b16 <USBHD_IRQHandler>:
USBHD_IRQHandler():
C:/Repository/RISKYKVM/firmware/src/Startup/startup_ch32v20x_D6.S:209
USBHD_IRQHandler:  1:  j 1b
    3b16:	a001                	j	3b16 <USBHD_IRQHandler>

00003b18 <USBHDWakeUp_IRQHandler>:
USBHDWakeUp_IRQHandler():
C:/Repository/RISKYKVM/firmware/src/Startup/startup_ch32v20x_D6.S:210
USBHDWakeUp_IRQHandler:  1:  j 1b
    3b18:	a001                	j	3b18 <USBHDWakeUp_IRQHandler>

00003b1a <UART4_IRQHandler>:
UART4_IRQHandler():
C:/Repository/RISKYKVM/firmware/src/Startup/startup_ch32v20x_D6.S:211
UART4_IRQHandler:  1:  j 1b
    3b1a:	a001                	j	3b1a <UART4_IRQHandler>

00003b1c <DMA1_Channel8_IRQHandler>:
DMA1_Channel8_IRQHandler():
C:/Repository/RISKYKVM/firmware/src/Startup/startup_ch32v20x_D6.S:212
DMA1_Channel8_IRQHandler:  1:  j 1b
    3b1c:	a001                	j	3b1c <DMA1_Channel8_IRQHandler>

00003b1e <handle_reset>:
handle_reset():
C:/Repository/RISKYKVM/firmware/src/Startup/startup_ch32v20x_D6.S:220
	.weak	handle_reset
	.align	1
handle_reset:
.option push 
.option	norelax 
	la gp, __global_pointer$
    3b1e:	1fffd197          	auipc	gp,0x1fffd
    3b22:	ce218193          	addi	gp,gp,-798 # 20000800 <__global_pointer$>
C:/Repository/RISKYKVM/firmware/src/Startup/startup_ch32v20x_D6.S:223
.option	pop 
1:
	la sp, _eusrstack 
    3b26:	20001117          	auipc	sp,0x20001
    3b2a:	4da10113          	addi	sp,sp,1242 # 20005000 <_eusrstack>
C:/Repository/RISKYKVM/firmware/src/Startup/startup_ch32v20x_D6.S:226
2:
	/* Load data section from flash to RAM */
	la a0, _data_lma
    3b2e:	00000517          	auipc	a0,0x0
    3b32:	72250513          	addi	a0,a0,1826 # 4250 <_data_lma>
C:/Repository/RISKYKVM/firmware/src/Startup/startup_ch32v20x_D6.S:227
	la a1, _data_vma
    3b36:	1fffc597          	auipc	a1,0x1fffc
    3b3a:	4ca58593          	addi	a1,a1,1226 # 20000000 <_data_vma>
C:/Repository/RISKYKVM/firmware/src/Startup/startup_ch32v20x_D6.S:228
	la a2, _edata
    3b3e:	87018613          	addi	a2,gp,-1936 # 20000070 <_edata>
C:/Repository/RISKYKVM/firmware/src/Startup/startup_ch32v20x_D6.S:229
	bgeu a1, a2, 2f
    3b42:	00c5fa63          	bgeu	a1,a2,3b56 <handle_reset+0x38>
C:/Repository/RISKYKVM/firmware/src/Startup/startup_ch32v20x_D6.S:231
1:
	lw t0, (a0)
    3b46:	00052283          	lw	t0,0(a0)
C:/Repository/RISKYKVM/firmware/src/Startup/startup_ch32v20x_D6.S:232
	sw t0, (a1)
    3b4a:	0055a023          	sw	t0,0(a1)
C:/Repository/RISKYKVM/firmware/src/Startup/startup_ch32v20x_D6.S:233
	addi a0, a0, 4
    3b4e:	0511                	addi	a0,a0,4
C:/Repository/RISKYKVM/firmware/src/Startup/startup_ch32v20x_D6.S:234
	addi a1, a1, 4
    3b50:	0591                	addi	a1,a1,4
C:/Repository/RISKYKVM/firmware/src/Startup/startup_ch32v20x_D6.S:235
	bltu a1, a2, 1b
    3b52:	fec5eae3          	bltu	a1,a2,3b46 <handle_reset+0x28>
C:/Repository/RISKYKVM/firmware/src/Startup/startup_ch32v20x_D6.S:238
2:
	/* Clear bss section */
	la a0, _sbss
    3b56:	87018513          	addi	a0,gp,-1936 # 20000070 <_edata>
C:/Repository/RISKYKVM/firmware/src/Startup/startup_ch32v20x_D6.S:239
	la a1, _ebss
    3b5a:	1fffe597          	auipc	a1,0x1fffe
    3b5e:	04a58593          	addi	a1,a1,74 # 20001ba4 <_ebss>
C:/Repository/RISKYKVM/firmware/src/Startup/startup_ch32v20x_D6.S:240
	bgeu a0, a1, 2f
    3b62:	00b57763          	bgeu	a0,a1,3b70 <handle_reset+0x52>
C:/Repository/RISKYKVM/firmware/src/Startup/startup_ch32v20x_D6.S:242
1:
	sw zero, (a0)
    3b66:	00052023          	sw	zero,0(a0)
C:/Repository/RISKYKVM/firmware/src/Startup/startup_ch32v20x_D6.S:243
	addi a0, a0, 4
    3b6a:	0511                	addi	a0,a0,4
C:/Repository/RISKYKVM/firmware/src/Startup/startup_ch32v20x_D6.S:244
	bltu a0, a1, 1b
    3b6c:	feb56de3          	bltu	a0,a1,3b66 <handle_reset+0x48>
C:/Repository/RISKYKVM/firmware/src/Startup/startup_ch32v20x_D6.S:246
2:
    li t0, 0x1f
    3b70:	42fd                	li	t0,31
C:/Repository/RISKYKVM/firmware/src/Startup/startup_ch32v20x_D6.S:247
    csrw 0xbc0, t0
    3b72:	bc029073          	csrw	0xbc0,t0
C:/Repository/RISKYKVM/firmware/src/Startup/startup_ch32v20x_D6.S:250

    /* Enable nested and hardware stack */
	li t0, 0x3
    3b76:	428d                	li	t0,3
C:/Repository/RISKYKVM/firmware/src/Startup/startup_ch32v20x_D6.S:251
	csrw 0x804, t0
    3b78:	80429073          	csrw	0x804,t0
C:/Repository/RISKYKVM/firmware/src/Startup/startup_ch32v20x_D6.S:254

    /* Enable interrupt */
   	li t0, 0x88           
    3b7c:	08800293          	li	t0,136
C:/Repository/RISKYKVM/firmware/src/Startup/startup_ch32v20x_D6.S:255
   	csrs mstatus, t0
    3b80:	3002a073          	csrs	mstatus,t0
C:/Repository/RISKYKVM/firmware/src/Startup/startup_ch32v20x_D6.S:257

 	la t0, _vector_base
    3b84:	ffffc297          	auipc	t0,0xffffc
    3b88:	4b428293          	addi	t0,t0,1204 # 38 <_einit>
C:/Repository/RISKYKVM/firmware/src/Startup/startup_ch32v20x_D6.S:258
    ori t0, t0, 3           
    3b8c:	0032e293          	ori	t0,t0,3
C:/Repository/RISKYKVM/firmware/src/Startup/startup_ch32v20x_D6.S:259
	csrw mtvec, t0
    3b90:	30529073          	csrw	mtvec,t0
C:/Repository/RISKYKVM/firmware/src/Startup/startup_ch32v20x_D6.S:261

    jal  SystemInit
    3b94:	bb1ff0ef          	jal	ra,3744 <SystemInit>
C:/Repository/RISKYKVM/firmware/src/Startup/startup_ch32v20x_D6.S:262
	la t0, main
    3b98:	fffff297          	auipc	t0,0xfffff
    3b9c:	31e28293          	addi	t0,t0,798 # 2eb6 <main>
C:/Repository/RISKYKVM/firmware/src/Startup/startup_ch32v20x_D6.S:263
	csrw mepc, t0
    3ba0:	34129073          	csrw	mepc,t0
C:/Repository/RISKYKVM/firmware/src/Startup/startup_ch32v20x_D6.S:264
	mret
    3ba4:	30200073          	mret

00003ba8 <EXTI_Init>:
EXTI_Init():
C:/Repository/RISKYKVM/firmware/src/Peripheral/src/ch32v20x_exti.c:49
void EXTI_Init(EXTI_InitTypeDef *EXTI_InitStruct)
{
    uint32_t tmp = 0;

    tmp = (uint32_t)EXTI_BASE;
    if(EXTI_InitStruct->EXTI_LineCmd != DISABLE)
    3ba8:	4158                	lw	a4,4(a0)
    3baa:	00052803          	lw	a6,0(a0)
    3bae:	454c                	lw	a1,12(a0)
    3bb0:	40010637          	lui	a2,0x40010
    3bb4:	40060793          	addi	a5,a2,1024 # 40010400 <_eusrstack+0x2000b400>
    3bb8:	973e                	add	a4,a4,a5
    3bba:	fff84693          	not	a3,a6
    3bbe:	c5b1                	beqz	a1,3c0a <EXTI_Init+0x62>
C:/Repository/RISKYKVM/firmware/src/Peripheral/src/ch32v20x_exti.c:51
    {
        EXTI->INTENR &= ~EXTI_InitStruct->EXTI_Line;
    3bc0:	40062583          	lw	a1,1024(a2)
    3bc4:	8df5                	and	a1,a1,a3
    3bc6:	40b62023          	sw	a1,1024(a2)
C:/Repository/RISKYKVM/firmware/src/Peripheral/src/ch32v20x_exti.c:52
        EXTI->EVENR &= ~EXTI_InitStruct->EXTI_Line;
    3bca:	43d0                	lw	a2,4(a5)
    3bcc:	8ef1                	and	a3,a3,a2
    3bce:	c3d4                	sw	a3,4(a5)
C:/Repository/RISKYKVM/firmware/src/Peripheral/src/ch32v20x_exti.c:54
        tmp += EXTI_InitStruct->EXTI_Mode;
        *(__IO uint32_t *)tmp |= EXTI_InitStruct->EXTI_Line;
    3bd0:	4314                	lw	a3,0(a4)
    3bd2:	0106e6b3          	or	a3,a3,a6
    3bd6:	c314                	sw	a3,0(a4)
C:/Repository/RISKYKVM/firmware/src/Peripheral/src/ch32v20x_exti.c:55
        EXTI->RTENR &= ~EXTI_InitStruct->EXTI_Line;
    3bd8:	4118                	lw	a4,0(a0)
    3bda:	4790                	lw	a2,8(a5)
    3bdc:	fff74693          	not	a3,a4
    3be0:	8e75                	and	a2,a2,a3
    3be2:	c790                	sw	a2,8(a5)
C:/Repository/RISKYKVM/firmware/src/Peripheral/src/ch32v20x_exti.c:56
        EXTI->FTENR &= ~EXTI_InitStruct->EXTI_Line;
    3be4:	47d0                	lw	a2,12(a5)
    3be6:	8ef1                	and	a3,a3,a2
    3be8:	c7d4                	sw	a3,12(a5)
C:/Repository/RISKYKVM/firmware/src/Peripheral/src/ch32v20x_exti.c:57
        if(EXTI_InitStruct->EXTI_Trigger == EXTI_Trigger_Rising_Falling)
    3bea:	4514                	lw	a3,8(a0)
    3bec:	4641                	li	a2,16
    3bee:	00c69963          	bne	a3,a2,3c00 <EXTI_Init+0x58>
C:/Repository/RISKYKVM/firmware/src/Peripheral/src/ch32v20x_exti.c:59
        {
            EXTI->RTENR |= EXTI_InitStruct->EXTI_Line;
    3bf2:	4794                	lw	a3,8(a5)
    3bf4:	8ed9                	or	a3,a3,a4
    3bf6:	c794                	sw	a3,8(a5)
C:/Repository/RISKYKVM/firmware/src/Peripheral/src/ch32v20x_exti.c:60
            EXTI->FTENR |= EXTI_InitStruct->EXTI_Line;
    3bf8:	47d4                	lw	a3,12(a5)
    3bfa:	8f55                	or	a4,a4,a3
    3bfc:	c7d8                	sw	a4,12(a5)
    3bfe:	8082                	ret
C:/Repository/RISKYKVM/firmware/src/Peripheral/src/ch32v20x_exti.c:65
        }
        else
        {
            tmp = (uint32_t)EXTI_BASE;
            tmp += EXTI_InitStruct->EXTI_Trigger;
    3c00:	97b6                	add	a5,a5,a3
C:/Repository/RISKYKVM/firmware/src/Peripheral/src/ch32v20x_exti.c:66
            *(__IO uint32_t *)tmp |= EXTI_InitStruct->EXTI_Line;
    3c02:	4394                	lw	a3,0(a5)
    3c04:	8f55                	or	a4,a4,a3
    3c06:	c398                	sw	a4,0(a5)
    3c08:	8082                	ret
C:/Repository/RISKYKVM/firmware/src/Peripheral/src/ch32v20x_exti.c:72
        }
    }
    else
    {
        tmp += EXTI_InitStruct->EXTI_Mode;
        *(__IO uint32_t *)tmp &= ~EXTI_InitStruct->EXTI_Line;
    3c0a:	431c                	lw	a5,0(a4)
    3c0c:	8ff5                	and	a5,a5,a3
    3c0e:	c31c                	sw	a5,0(a4)
C:/Repository/RISKYKVM/firmware/src/Peripheral/src/ch32v20x_exti.c:74
    }
}
    3c10:	8082                	ret

00003c12 <EXTI_GetITStatus>:
EXTI_GetITStatus():
C:/Repository/RISKYKVM/firmware/src/Peripheral/src/ch32v20x_exti.c:158
ITStatus EXTI_GetITStatus(uint32_t EXTI_Line)
{
    ITStatus bitstatus = RESET;
    uint32_t enablestatus = 0;

    enablestatus = EXTI->INTENR & EXTI_Line;
    3c12:	400107b7          	lui	a5,0x40010
    3c16:	40078713          	addi	a4,a5,1024 # 40010400 <_eusrstack+0x2000b400>
    3c1a:	4007a783          	lw	a5,1024(a5)
C:/Repository/RISKYKVM/firmware/src/Peripheral/src/ch32v20x_exti.c:159
    if(((EXTI->INTFR & EXTI_Line) != (uint32_t)RESET) && (enablestatus != (uint32_t)RESET))
    3c1e:	4b58                	lw	a4,20(a4)
    3c20:	8f69                	and	a4,a4,a0
    3c22:	c709                	beqz	a4,3c2c <EXTI_GetITStatus+0x1a>
C:/Repository/RISKYKVM/firmware/src/Peripheral/src/ch32v20x_exti.c:158 (discriminator 1)
    enablestatus = EXTI->INTENR & EXTI_Line;
    3c24:	8d7d                	and	a0,a0,a5
C:/Repository/RISKYKVM/firmware/src/Peripheral/src/ch32v20x_exti.c:159 (discriminator 1)
    if(((EXTI->INTFR & EXTI_Line) != (uint32_t)RESET) && (enablestatus != (uint32_t)RESET))
    3c26:	00a03533          	snez	a0,a0
    3c2a:	8082                	ret
C:/Repository/RISKYKVM/firmware/src/Peripheral/src/ch32v20x_exti.c:165
    {
        bitstatus = SET;
    }
    else
    {
        bitstatus = RESET;
    3c2c:	4501                	li	a0,0
C:/Repository/RISKYKVM/firmware/src/Peripheral/src/ch32v20x_exti.c:168
    }
    return bitstatus;
}
    3c2e:	8082                	ret

00003c30 <EXTI_ClearITPendingBit>:
EXTI_ClearITPendingBit():
    3c30:	400107b7          	lui	a5,0x40010
    3c34:	40a7aa23          	sw	a0,1044(a5) # 40010414 <_eusrstack+0x2000b414>
    3c38:	8082                	ret

00003c3a <GPIO_Init>:
GPIO_Init():
C:/Repository/RISKYKVM/firmware/src/Peripheral/src/ch32v20x_gpio.c:95
void GPIO_Init(GPIO_TypeDef *GPIOx, GPIO_InitTypeDef *GPIO_InitStruct)
{
    uint32_t currentmode = 0x00, currentpin = 0x00, pinpos = 0x00, pos = 0x00;
    uint32_t tmpreg = 0x00, pinmask = 0x00;

    currentmode = ((uint32_t)GPIO_InitStruct->GPIO_Mode) & ((uint32_t)0x0F);
    3c3a:	459c                	lw	a5,8(a1)
C:/Repository/RISKYKVM/firmware/src/Peripheral/src/ch32v20x_gpio.c:97

    if((((uint32_t)GPIO_InitStruct->GPIO_Mode) & ((uint32_t)0x10)) != 0x00)
    3c3c:	0107f713          	andi	a4,a5,16
C:/Repository/RISKYKVM/firmware/src/Peripheral/src/ch32v20x_gpio.c:95
    currentmode = ((uint32_t)GPIO_InitStruct->GPIO_Mode) & ((uint32_t)0x0F);
    3c40:	00f7f813          	andi	a6,a5,15
C:/Repository/RISKYKVM/firmware/src/Peripheral/src/ch32v20x_gpio.c:97
    if((((uint32_t)GPIO_InitStruct->GPIO_Mode) & ((uint32_t)0x10)) != 0x00)
    3c44:	c701                	beqz	a4,3c4c <GPIO_Init+0x12>
C:/Repository/RISKYKVM/firmware/src/Peripheral/src/ch32v20x_gpio.c:99
    {
        currentmode |= (uint32_t)GPIO_InitStruct->GPIO_Speed;
    3c46:	41d8                	lw	a4,4(a1)
    3c48:	00e86833          	or	a6,a6,a4
C:/Repository/RISKYKVM/firmware/src/Peripheral/src/ch32v20x_gpio.c:102
    }
#if defined (CH32V20x_D6)
    if(((*(uint32_t *) 0x40022030) & 0x0F000000) == 0)
    3c4c:	40022737          	lui	a4,0x40022
    3c50:	5b14                	lw	a3,48(a4)
    3c52:	0f000737          	lui	a4,0xf000
    3c56:	8f75                	and	a4,a4,a3
    3c58:	ef45                	bnez	a4,3d10 <GPIO_Init+0xd6>
C:/Repository/RISKYKVM/firmware/src/Peripheral/src/ch32v20x_gpio.c:104
    {
        MCU_Version = 1;
    3c5a:	4685                	li	a3,1
    3c5c:	86d18ea3          	sb	a3,-1923(gp) # 2000007d <MCU_Version>
C:/Repository/RISKYKVM/firmware/src/Peripheral/src/ch32v20x_gpio.c:107
    }

    if((GPIOx == GPIOC) && MCU_Version){
    3c60:	40011737          	lui	a4,0x40011
    3c64:	00e51763          	bne	a0,a4,3c72 <GPIO_Init+0x38>
C:/Repository/RISKYKVM/firmware/src/Peripheral/src/ch32v20x_gpio.c:108
        GPIO_InitStruct->GPIO_Pin = GPIO_InitStruct->GPIO_Pin >> 13;
    3c68:	0005d703          	lhu	a4,0(a1)
    3c6c:	8335                	srli	a4,a4,0xd
    3c6e:	00e59023          	sh	a4,0(a1)
C:/Repository/RISKYKVM/firmware/src/Peripheral/src/ch32v20x_gpio.c:112
    }

#endif
    if(((uint32_t)GPIO_InitStruct->GPIO_Pin & ((uint32_t)0x00FF)) != 0x00)
    3c72:	0005d583          	lhu	a1,0(a1)
    3c76:	0ff5f713          	andi	a4,a1,255
    3c7a:	c339                	beqz	a4,3cc0 <GPIO_Init+0x86>
C:/Repository/RISKYKVM/firmware/src/Peripheral/src/ch32v20x_gpio.c:114
    {
        tmpreg = GPIOx->CFGLR;
    3c7c:	4118                	lw	a4,0(a0)
C:/Repository/RISKYKVM/firmware/src/Peripheral/src/ch32v20x_gpio.c:116

        for(pinpos = 0x00; pinpos < 0x08; pinpos++)
    3c7e:	4681                	li	a3,0
C:/Repository/RISKYKVM/firmware/src/Peripheral/src/ch32v20x_gpio.c:118
        {
            pos = ((uint32_t)0x01) << pinpos;
    3c80:	4e85                	li	t4,1
C:/Repository/RISKYKVM/firmware/src/Peripheral/src/ch32v20x_gpio.c:124
            currentpin = (GPIO_InitStruct->GPIO_Pin) & pos;

            if(currentpin == pos)
            {
                pos = pinpos << 2;
                pinmask = ((uint32_t)0x0F) << pos;
    3c82:	4f3d                	li	t5,15
C:/Repository/RISKYKVM/firmware/src/Peripheral/src/ch32v20x_gpio.c:128
                tmpreg &= ~pinmask;
                tmpreg |= (currentmode << pos);

                if(GPIO_InitStruct->GPIO_Mode == GPIO_Mode_IPD)
    3c84:	02800f93          	li	t6,40
C:/Repository/RISKYKVM/firmware/src/Peripheral/src/ch32v20x_gpio.c:134
                {
                    GPIOx->BCR = (((uint32_t)0x01) << pinpos);
                }
                else
                {
                    if(GPIO_InitStruct->GPIO_Mode == GPIO_Mode_IPU)
    3c88:	04800293          	li	t0,72
C:/Repository/RISKYKVM/firmware/src/Peripheral/src/ch32v20x_gpio.c:116
        for(pinpos = 0x00; pinpos < 0x08; pinpos++)
    3c8c:	4e21                	li	t3,8
C:/Repository/RISKYKVM/firmware/src/Peripheral/src/ch32v20x_gpio.c:118
            pos = ((uint32_t)0x01) << pinpos;
    3c8e:	00de9633          	sll	a2,t4,a3
C:/Repository/RISKYKVM/firmware/src/Peripheral/src/ch32v20x_gpio.c:119
            currentpin = (GPIO_InitStruct->GPIO_Pin) & pos;
    3c92:	00c5f8b3          	and	a7,a1,a2
C:/Repository/RISKYKVM/firmware/src/Peripheral/src/ch32v20x_gpio.c:121
            if(currentpin == pos)
    3c96:	03161163          	bne	a2,a7,3cb8 <GPIO_Init+0x7e>
C:/Repository/RISKYKVM/firmware/src/Peripheral/src/ch32v20x_gpio.c:123
                pos = pinpos << 2;
    3c9a:	00269893          	slli	a7,a3,0x2
C:/Repository/RISKYKVM/firmware/src/Peripheral/src/ch32v20x_gpio.c:124
                pinmask = ((uint32_t)0x0F) << pos;
    3c9e:	011f1333          	sll	t1,t5,a7
C:/Repository/RISKYKVM/firmware/src/Peripheral/src/ch32v20x_gpio.c:125
                tmpreg &= ~pinmask;
    3ca2:	fff34313          	not	t1,t1
    3ca6:	00e37733          	and	a4,t1,a4
C:/Repository/RISKYKVM/firmware/src/Peripheral/src/ch32v20x_gpio.c:126
                tmpreg |= (currentmode << pos);
    3caa:	011818b3          	sll	a7,a6,a7
    3cae:	00e8e733          	or	a4,a7,a4
C:/Repository/RISKYKVM/firmware/src/Peripheral/src/ch32v20x_gpio.c:128
                if(GPIO_InitStruct->GPIO_Mode == GPIO_Mode_IPD)
    3cb2:	07f79763          	bne	a5,t6,3d20 <GPIO_Init+0xe6>
C:/Repository/RISKYKVM/firmware/src/Peripheral/src/ch32v20x_gpio.c:130
                    GPIOx->BCR = (((uint32_t)0x01) << pinpos);
    3cb6:	c950                	sw	a2,20(a0)
C:/Repository/RISKYKVM/firmware/src/Peripheral/src/ch32v20x_gpio.c:116 (discriminator 2)
        for(pinpos = 0x00; pinpos < 0x08; pinpos++)
    3cb8:	0685                	addi	a3,a3,1
    3cba:	fdc69ae3          	bne	a3,t3,3c8e <GPIO_Init+0x54>
C:/Repository/RISKYKVM/firmware/src/Peripheral/src/ch32v20x_gpio.c:141
                        GPIOx->BSHR = (((uint32_t)0x01) << pinpos);
                    }
                }
            }
        }
        GPIOx->CFGLR = tmpreg;
    3cbe:	c118                	sw	a4,0(a0)
C:/Repository/RISKYKVM/firmware/src/Peripheral/src/ch32v20x_gpio.c:144
    }

    if(GPIO_InitStruct->GPIO_Pin > 0x00FF)
    3cc0:	0ff00713          	li	a4,255
    3cc4:	04b77563          	bgeu	a4,a1,3d0e <GPIO_Init+0xd4>
C:/Repository/RISKYKVM/firmware/src/Peripheral/src/ch32v20x_gpio.c:146
    {
        tmpreg = GPIOx->CFGHR;
    3cc8:	4154                	lw	a3,4(a0)
    3cca:	4621                	li	a2,8
C:/Repository/RISKYKVM/firmware/src/Peripheral/src/ch32v20x_gpio.c:150

        for(pinpos = 0x00; pinpos < 0x08; pinpos++)
        {
            pos = (((uint32_t)0x01) << (pinpos + 0x08));
    3ccc:	4e85                	li	t4,1
C:/Repository/RISKYKVM/firmware/src/Peripheral/src/ch32v20x_gpio.c:156
            currentpin = ((GPIO_InitStruct->GPIO_Pin) & pos);

            if(currentpin == pos)
            {
                pos = pinpos << 2;
                pinmask = ((uint32_t)0x0F) << pos;
    3cce:	4f3d                	li	t5,15
C:/Repository/RISKYKVM/firmware/src/Peripheral/src/ch32v20x_gpio.c:160
                tmpreg &= ~pinmask;
                tmpreg |= (currentmode << pos);

                if(GPIO_InitStruct->GPIO_Mode == GPIO_Mode_IPD)
    3cd0:	02800f93          	li	t6,40
C:/Repository/RISKYKVM/firmware/src/Peripheral/src/ch32v20x_gpio.c:165
                {
                    GPIOx->BCR = (((uint32_t)0x01) << (pinpos + 0x08));
                }

                if(GPIO_InitStruct->GPIO_Mode == GPIO_Mode_IPU)
    3cd4:	04800293          	li	t0,72
C:/Repository/RISKYKVM/firmware/src/Peripheral/src/ch32v20x_gpio.c:148
        for(pinpos = 0x00; pinpos < 0x08; pinpos++)
    3cd8:	4e41                	li	t3,16
C:/Repository/RISKYKVM/firmware/src/Peripheral/src/ch32v20x_gpio.c:150
            pos = (((uint32_t)0x01) << (pinpos + 0x08));
    3cda:	00ce98b3          	sll	a7,t4,a2
C:/Repository/RISKYKVM/firmware/src/Peripheral/src/ch32v20x_gpio.c:151
            currentpin = ((GPIO_InitStruct->GPIO_Pin) & pos);
    3cde:	0115f733          	and	a4,a1,a7
C:/Repository/RISKYKVM/firmware/src/Peripheral/src/ch32v20x_gpio.c:153
            if(currentpin == pos)
    3ce2:	02e89263          	bne	a7,a4,3d06 <GPIO_Init+0xcc>
C:/Repository/RISKYKVM/firmware/src/Peripheral/src/ch32v20x_gpio.c:155
                pos = pinpos << 2;
    3ce6:	00261713          	slli	a4,a2,0x2
    3cea:	1701                	addi	a4,a4,-32
C:/Repository/RISKYKVM/firmware/src/Peripheral/src/ch32v20x_gpio.c:156
                pinmask = ((uint32_t)0x0F) << pos;
    3cec:	00ef1333          	sll	t1,t5,a4
C:/Repository/RISKYKVM/firmware/src/Peripheral/src/ch32v20x_gpio.c:157
                tmpreg &= ~pinmask;
    3cf0:	fff34313          	not	t1,t1
    3cf4:	00d376b3          	and	a3,t1,a3
C:/Repository/RISKYKVM/firmware/src/Peripheral/src/ch32v20x_gpio.c:158
                tmpreg |= (currentmode << pos);
    3cf8:	00e81733          	sll	a4,a6,a4
    3cfc:	8ed9                	or	a3,a3,a4
C:/Repository/RISKYKVM/firmware/src/Peripheral/src/ch32v20x_gpio.c:160
                if(GPIO_InitStruct->GPIO_Mode == GPIO_Mode_IPD)
    3cfe:	03f79563          	bne	a5,t6,3d28 <GPIO_Init+0xee>
C:/Repository/RISKYKVM/firmware/src/Peripheral/src/ch32v20x_gpio.c:162
                    GPIOx->BCR = (((uint32_t)0x01) << (pinpos + 0x08));
    3d02:	01152a23          	sw	a7,20(a0)
C:/Repository/RISKYKVM/firmware/src/Peripheral/src/ch32v20x_gpio.c:165
                if(GPIO_InitStruct->GPIO_Mode == GPIO_Mode_IPU)
    3d06:	0605                	addi	a2,a2,1
C:/Repository/RISKYKVM/firmware/src/Peripheral/src/ch32v20x_gpio.c:148 (discriminator 2)
        for(pinpos = 0x00; pinpos < 0x08; pinpos++)
    3d08:	fdc619e3          	bne	a2,t3,3cda <GPIO_Init+0xa0>
C:/Repository/RISKYKVM/firmware/src/Peripheral/src/ch32v20x_gpio.c:171
                {
                    GPIOx->BSHR = (((uint32_t)0x01) << (pinpos + 0x08));
                }
            }
        }
        GPIOx->CFGHR = tmpreg;
    3d0c:	c154                	sw	a3,4(a0)
C:/Repository/RISKYKVM/firmware/src/Peripheral/src/ch32v20x_gpio.c:173
    }
}
    3d0e:	8082                	ret
C:/Repository/RISKYKVM/firmware/src/Peripheral/src/ch32v20x_gpio.c:107
    if((GPIOx == GPIOC) && MCU_Version){
    3d10:	40011737          	lui	a4,0x40011
    3d14:	f4e51fe3          	bne	a0,a4,3c72 <GPIO_Init+0x38>
C:/Repository/RISKYKVM/firmware/src/Peripheral/src/ch32v20x_gpio.c:107 (discriminator 1)
    3d18:	87d1c703          	lbu	a4,-1923(gp) # 2000007d <MCU_Version>
    3d1c:	db39                	beqz	a4,3c72 <GPIO_Init+0x38>
    3d1e:	b7a9                	j	3c68 <GPIO_Init+0x2e>
C:/Repository/RISKYKVM/firmware/src/Peripheral/src/ch32v20x_gpio.c:134
                    if(GPIO_InitStruct->GPIO_Mode == GPIO_Mode_IPU)
    3d20:	f8579ce3          	bne	a5,t0,3cb8 <GPIO_Init+0x7e>
C:/Repository/RISKYKVM/firmware/src/Peripheral/src/ch32v20x_gpio.c:136
                        GPIOx->BSHR = (((uint32_t)0x01) << pinpos);
    3d24:	c910                	sw	a2,16(a0)
    3d26:	bf49                	j	3cb8 <GPIO_Init+0x7e>
C:/Repository/RISKYKVM/firmware/src/Peripheral/src/ch32v20x_gpio.c:165
                if(GPIO_InitStruct->GPIO_Mode == GPIO_Mode_IPU)
    3d28:	fc579fe3          	bne	a5,t0,3d06 <GPIO_Init+0xcc>
C:/Repository/RISKYKVM/firmware/src/Peripheral/src/ch32v20x_gpio.c:167
                    GPIOx->BSHR = (((uint32_t)0x01) << (pinpos + 0x08));
    3d2c:	01152823          	sw	a7,16(a0)
    3d30:	bfd9                	j	3d06 <GPIO_Init+0xcc>

00003d32 <GPIO_ReadInputDataBit>:
GPIO_ReadInputDataBit():
C:/Repository/RISKYKVM/firmware/src/Peripheral/src/ch32v20x_gpio.c:207
uint8_t GPIO_ReadInputDataBit(GPIO_TypeDef *GPIOx, uint16_t GPIO_Pin)
{
    uint8_t bitstatus = 0x00;

#if defined (CH32V20x_D6)
    if((GPIOx == GPIOC) && MCU_Version){
    3d32:	400117b7          	lui	a5,0x40011
    3d36:	00f51663          	bne	a0,a5,3d42 <GPIO_ReadInputDataBit+0x10>
C:/Repository/RISKYKVM/firmware/src/Peripheral/src/ch32v20x_gpio.c:207 (discriminator 1)
    3d3a:	87d1c783          	lbu	a5,-1923(gp) # 2000007d <MCU_Version>
    3d3e:	c391                	beqz	a5,3d42 <GPIO_ReadInputDataBit+0x10>
C:/Repository/RISKYKVM/firmware/src/Peripheral/src/ch32v20x_gpio.c:208
        GPIO_Pin = GPIO_Pin >> 13;
    3d40:	81b5                	srli	a1,a1,0xd
C:/Repository/RISKYKVM/firmware/src/Peripheral/src/ch32v20x_gpio.c:213
    }

#endif

    if((GPIOx->INDR & GPIO_Pin) != (uint32_t)Bit_RESET)
    3d42:	4508                	lw	a0,8(a0)
    3d44:	8d6d                	and	a0,a0,a1
C:/Repository/RISKYKVM/firmware/src/Peripheral/src/ch32v20x_gpio.c:223
    {
        bitstatus = (uint8_t)Bit_RESET;
    }

    return bitstatus;
}
    3d46:	00a03533          	snez	a0,a0
    3d4a:	8082                	ret

00003d4c <GPIO_ReadOutputData>:
GPIO_ReadOutputData():
C:/Repository/RISKYKVM/firmware/src/Peripheral/src/ch32v20x_gpio.c:301
uint16_t GPIO_ReadOutputData(GPIO_TypeDef *GPIOx)
{
    uint16_t val;

#if defined (CH32V20x_D6)
    if((GPIOx == GPIOC) && MCU_Version){
    3d4c:	400117b7          	lui	a5,0x40011
    3d50:	00f51a63          	bne	a0,a5,3d64 <GPIO_ReadOutputData+0x18>
C:/Repository/RISKYKVM/firmware/src/Peripheral/src/ch32v20x_gpio.c:301 (discriminator 1)
    3d54:	87d1c783          	lbu	a5,-1923(gp) # 2000007d <MCU_Version>
    3d58:	c791                	beqz	a5,3d64 <GPIO_ReadOutputData+0x18>
C:/Repository/RISKYKVM/firmware/src/Peripheral/src/ch32v20x_gpio.c:302
        val = ( uint16_t )(GPIOx->OUTDR << 13);
    3d5a:	4548                	lw	a0,12(a0)
    3d5c:	0536                	slli	a0,a0,0xd
C:/Repository/RISKYKVM/firmware/src/Peripheral/src/ch32v20x_gpio.c:305
    }
    else{
        val = ( uint16_t )GPIOx->OUTDR;
    3d5e:	0542                	slli	a0,a0,0x10
    3d60:	8141                	srli	a0,a0,0x10
C:/Repository/RISKYKVM/firmware/src/Peripheral/src/ch32v20x_gpio.c:313
#else
    val = ( uint16_t )GPIOx->OUTDR;
#endif

    return ( val );
}
    3d62:	8082                	ret
C:/Repository/RISKYKVM/firmware/src/Peripheral/src/ch32v20x_gpio.c:305
        val = ( uint16_t )GPIOx->OUTDR;
    3d64:	4548                	lw	a0,12(a0)
    3d66:	bfe5                	j	3d5e <GPIO_ReadOutputData+0x12>

00003d68 <GPIO_WriteBit>:
GPIO_WriteBit():
C:/Repository/RISKYKVM/firmware/src/Peripheral/src/ch32v20x_gpio.c:377
 * @return  none
 */
void GPIO_WriteBit(GPIO_TypeDef *GPIOx, uint16_t GPIO_Pin, BitAction BitVal)
{
#if defined (CH32V20x_D6)
    if((GPIOx == GPIOC) && MCU_Version){
    3d68:	400117b7          	lui	a5,0x40011
    3d6c:	00f51663          	bne	a0,a5,3d78 <GPIO_WriteBit+0x10>
C:/Repository/RISKYKVM/firmware/src/Peripheral/src/ch32v20x_gpio.c:377 (discriminator 1)
    3d70:	87d1c783          	lbu	a5,-1923(gp) # 2000007d <MCU_Version>
    3d74:	c391                	beqz	a5,3d78 <GPIO_WriteBit+0x10>
C:/Repository/RISKYKVM/firmware/src/Peripheral/src/ch32v20x_gpio.c:378
        GPIO_Pin = GPIO_Pin >> 13;
    3d76:	81b5                	srli	a1,a1,0xd
C:/Repository/RISKYKVM/firmware/src/Peripheral/src/ch32v20x_gpio.c:383
    }

#endif

    if(BitVal != Bit_RESET)
    3d78:	c219                	beqz	a2,3d7e <GPIO_WriteBit+0x16>
C:/Repository/RISKYKVM/firmware/src/Peripheral/src/ch32v20x_gpio.c:385
    {
        GPIOx->BSHR = GPIO_Pin;
    3d7a:	c90c                	sw	a1,16(a0)
    3d7c:	8082                	ret
C:/Repository/RISKYKVM/firmware/src/Peripheral/src/ch32v20x_gpio.c:389
    }
    else
    {
        GPIOx->BCR = GPIO_Pin;
    3d7e:	c94c                	sw	a1,20(a0)
C:/Repository/RISKYKVM/firmware/src/Peripheral/src/ch32v20x_gpio.c:391
    }
}
    3d80:	8082                	ret

00003d82 <GPIO_Write>:
GPIO_Write():
C:/Repository/RISKYKVM/firmware/src/Peripheral/src/ch32v20x_gpio.c:406
 * @return  none
 */
void GPIO_Write(GPIO_TypeDef *GPIOx, uint16_t PortVal)
{
#if defined (CH32V20x_D6)
    if((GPIOx == GPIOC) && MCU_Version){
    3d82:	400117b7          	lui	a5,0x40011
    3d86:	00f51663          	bne	a0,a5,3d92 <GPIO_Write+0x10>
C:/Repository/RISKYKVM/firmware/src/Peripheral/src/ch32v20x_gpio.c:406 (discriminator 1)
    3d8a:	87d1c783          	lbu	a5,-1923(gp) # 2000007d <MCU_Version>
    3d8e:	c391                	beqz	a5,3d92 <GPIO_Write+0x10>
C:/Repository/RISKYKVM/firmware/src/Peripheral/src/ch32v20x_gpio.c:407
        PortVal = PortVal >> 13;
    3d90:	81b5                	srli	a1,a1,0xd
C:/Repository/RISKYKVM/firmware/src/Peripheral/src/ch32v20x_gpio.c:412
    }

#endif

    GPIOx->OUTDR = PortVal;
    3d92:	c54c                	sw	a1,12(a0)
C:/Repository/RISKYKVM/firmware/src/Peripheral/src/ch32v20x_gpio.c:413
}
    3d94:	8082                	ret

00003d96 <GPIO_EXTILineConfig>:
GPIO_EXTILineConfig():
C:/Repository/RISKYKVM/firmware/src/Peripheral/src/ch32v20x_gpio.c:640
 */
void GPIO_EXTILineConfig(uint8_t GPIO_PortSource, uint8_t GPIO_PinSource)
{
    uint32_t tmp = 0x00;

    tmp = ((uint32_t)0x0F) << (0x04 * (GPIO_PinSource & (uint8_t)0x03));
    3d96:	0fc5f713          	andi	a4,a1,252
    3d9a:	0035f793          	andi	a5,a1,3
    3d9e:	400105b7          	lui	a1,0x40010
    3da2:	95ba                	add	a1,a1,a4
C:/Repository/RISKYKVM/firmware/src/Peripheral/src/ch32v20x_gpio.c:641
    AFIO->EXTICR[GPIO_PinSource >> 0x02] &= ~tmp;
    3da4:	4594                	lw	a3,8(a1)
C:/Repository/RISKYKVM/firmware/src/Peripheral/src/ch32v20x_gpio.c:640
    tmp = ((uint32_t)0x0F) << (0x04 * (GPIO_PinSource & (uint8_t)0x03));
    3da6:	078a                	slli	a5,a5,0x2
    3da8:	473d                	li	a4,15
    3daa:	00f71733          	sll	a4,a4,a5
C:/Repository/RISKYKVM/firmware/src/Peripheral/src/ch32v20x_gpio.c:641
    AFIO->EXTICR[GPIO_PinSource >> 0x02] &= ~tmp;
    3dae:	fff74713          	not	a4,a4
    3db2:	8f75                	and	a4,a4,a3
    3db4:	c598                	sw	a4,8(a1)
C:/Repository/RISKYKVM/firmware/src/Peripheral/src/ch32v20x_gpio.c:642
    AFIO->EXTICR[GPIO_PinSource >> 0x02] |= (((uint32_t)GPIO_PortSource) << (0x04 * (GPIO_PinSource & (uint8_t)0x03)));
    3db6:	4598                	lw	a4,8(a1)
    3db8:	00f51533          	sll	a0,a0,a5
    3dbc:	8d59                	or	a0,a0,a4
    3dbe:	c588                	sw	a0,8(a1)
C:/Repository/RISKYKVM/firmware/src/Peripheral/src/ch32v20x_gpio.c:643
}
    3dc0:	8082                	ret

00003dc2 <NVIC_Init>:
NVIC_Init():
C:/Repository/RISKYKVM/firmware/src/Peripheral/src/ch32v20x_misc.c:55
 */
void NVIC_Init(NVIC_InitTypeDef *NVIC_InitStruct)
{
    uint8_t tmppre = 0;

    if(NVIC_Priority_Group == NVIC_PriorityGroup_0)
    3dc2:	88018793          	addi	a5,gp,-1920 # 20000080 <NVIC_Priority_Group>
    3dc6:	4394                	lw	a3,0(a5)
    3dc8:	00054703          	lbu	a4,0(a0)
    3dcc:	e689                	bnez	a3,3dd6 <NVIC_Init+0x14>
C:/Repository/RISKYKVM/firmware/src/Peripheral/src/ch32v20x_misc.c:57
    {
        NVIC_SetPriority(NVIC_InitStruct->NVIC_IRQChannel, NVIC_InitStruct->NVIC_IRQChannelSubPriority << 4);
    3dce:	00254783          	lbu	a5,2(a0)
C:/Repository/RISKYKVM/firmware/src/Peripheral/src/ch32v20x_misc.c:98
            NVIC_SetPriority(NVIC_InitStruct->NVIC_IRQChannel, (1 << 7) | (tmppre << 4));
        }
    }
    else if(NVIC_Priority_Group == NVIC_PriorityGroup_4)
    {
        NVIC_SetPriority(NVIC_InitStruct->NVIC_IRQChannel, NVIC_InitStruct->NVIC_IRQChannelPreemptionPriority << 4);
    3dd2:	0792                	slli	a5,a5,0x4
    3dd4:	a831                	j	3df0 <NVIC_Init+0x2e>
C:/Repository/RISKYKVM/firmware/src/Peripheral/src/ch32v20x_misc.c:59
    else if(NVIC_Priority_Group == NVIC_PriorityGroup_1)
    3dd6:	4394                	lw	a3,0(a5)
    3dd8:	4605                	li	a2,1
    3dda:	04c69163          	bne	a3,a2,3e1c <NVIC_Init+0x5a>
C:/Repository/RISKYKVM/firmware/src/Peripheral/src/ch32v20x_misc.c:61
        if(NVIC_InitStruct->NVIC_IRQChannelPreemptionPriority == 1)
    3dde:	00254783          	lbu	a5,2(a0)
    3de2:	00154603          	lbu	a2,1(a0)
    3de6:	0792                	slli	a5,a5,0x4
    3de8:	00d61463          	bne	a2,a3,3df0 <NVIC_Init+0x2e>
C:/Repository/RISKYKVM/firmware/src/Peripheral/src/ch32v20x_misc.c:93
            NVIC_SetPriority(NVIC_InitStruct->NVIC_IRQChannel, (1 << 7) | (tmppre << 4));
    3dec:	f807e793          	ori	a5,a5,-128
NVIC_SetPriority():
C:\Repository\RISKYKVM\firmware\src\Core/core_riscv.h:273
 *
 * @return  none
 */
RV_STATIC_INLINE void NVIC_SetPriority(IRQn_Type IRQn, uint8_t priority)
{
  NVIC->IPRIOR[(uint32_t)(IRQn)] = priority;
    3df0:	e000e6b7          	lui	a3,0xe000e
NVIC_Init():
C:/Repository/RISKYKVM/firmware/src/Peripheral/src/ch32v20x_misc.c:98
        NVIC_SetPriority(NVIC_InitStruct->NVIC_IRQChannel, NVIC_InitStruct->NVIC_IRQChannelPreemptionPriority << 4);
    3df4:	0ff7f793          	andi	a5,a5,255
NVIC_SetPriority():
C:\Repository\RISKYKVM\firmware\src\Core/core_riscv.h:273
    3df8:	96ba                	add	a3,a3,a4
    3dfa:	40f68023          	sb	a5,1024(a3) # e000e400 <_eusrstack+0xc0009400>
NVIC_Init():
C:/Repository/RISKYKVM/firmware/src/Peripheral/src/ch32v20x_misc.c:101
    }

    if(NVIC_InitStruct->NVIC_IRQChannelCmd != DISABLE)
    3dfe:	4685                	li	a3,1
    3e00:	00575793          	srli	a5,a4,0x5
    3e04:	00e69733          	sll	a4,a3,a4
    3e08:	4154                	lw	a3,4(a0)
    3e0a:	c6ad                	beqz	a3,3e74 <NVIC_Init+0xb2>
NVIC_EnableIRQ():
C:\Repository\RISKYKVM\firmware\src\Core/core_riscv.h:170
  NVIC->IENR[((uint32_t)(IRQn) >> 5)] = (1 << ((uint32_t)(IRQn) & 0x1F));
    3e0c:	04078793          	addi	a5,a5,64 # 40011040 <_eusrstack+0x2000c040>
NVIC_DisableIRQ():
C:\Repository\RISKYKVM\firmware\src\Core/core_riscv.h:184
  NVIC->IRER[((uint32_t)(IRQn) >> 5)] = (1 << ((uint32_t)(IRQn) & 0x1F));
    3e10:	078a                	slli	a5,a5,0x2
    3e12:	e000e6b7          	lui	a3,0xe000e
    3e16:	97b6                	add	a5,a5,a3
    3e18:	c398                	sw	a4,0(a5)
NVIC_Init():
C:/Repository/RISKYKVM/firmware/src/Peripheral/src/ch32v20x_misc.c:109
    }
    else
    {
        NVIC_DisableIRQ(NVIC_InitStruct->NVIC_IRQChannel);
    }
}
    3e1a:	8082                	ret
C:/Repository/RISKYKVM/firmware/src/Peripheral/src/ch32v20x_misc.c:70
    else if(NVIC_Priority_Group == NVIC_PriorityGroup_2)
    3e1c:	438c                	lw	a1,0(a5)
    3e1e:	4689                	li	a3,2
    3e20:	02d59363          	bne	a1,a3,3e46 <NVIC_Init+0x84>
C:/Repository/RISKYKVM/firmware/src/Peripheral/src/ch32v20x_misc.c:72
        if(NVIC_InitStruct->NVIC_IRQChannelPreemptionPriority <= 1)
    3e24:	00154683          	lbu	a3,1(a0)
    3e28:	00254783          	lbu	a5,2(a0)
    3e2c:	00d66563          	bltu	a2,a3,3e36 <NVIC_Init+0x74>
C:/Repository/RISKYKVM/firmware/src/Peripheral/src/ch32v20x_misc.c:74
            tmppre = NVIC_InitStruct->NVIC_IRQChannelSubPriority + (4 * NVIC_InitStruct->NVIC_IRQChannelPreemptionPriority);
    3e30:	068a                	slli	a3,a3,0x2
C:/Repository/RISKYKVM/firmware/src/Peripheral/src/ch32v20x_misc.c:87
            tmppre = NVIC_InitStruct->NVIC_IRQChannelSubPriority + (2 * NVIC_InitStruct->NVIC_IRQChannelPreemptionPriority);
    3e32:	97b6                	add	a5,a5,a3
    3e34:	bf79                	j	3dd2 <NVIC_Init+0x10>
C:/Repository/RISKYKVM/firmware/src/Peripheral/src/ch32v20x_misc.c:79
            tmppre = NVIC_InitStruct->NVIC_IRQChannelSubPriority + (4 * (NVIC_InitStruct->NVIC_IRQChannelPreemptionPriority - 2));
    3e36:	03e68693          	addi	a3,a3,62 # e000e03e <_eusrstack+0xc000903e>
    3e3a:	068a                	slli	a3,a3,0x2
C:/Repository/RISKYKVM/firmware/src/Peripheral/src/ch32v20x_misc.c:92
            tmppre = NVIC_InitStruct->NVIC_IRQChannelSubPriority + (2 * (NVIC_InitStruct->NVIC_IRQChannelPreemptionPriority - 4));
    3e3c:	97b6                	add	a5,a5,a3
C:/Repository/RISKYKVM/firmware/src/Peripheral/src/ch32v20x_misc.c:93
            NVIC_SetPriority(NVIC_InitStruct->NVIC_IRQChannel, (1 << 7) | (tmppre << 4));
    3e3e:	0ff7f793          	andi	a5,a5,255
    3e42:	0792                	slli	a5,a5,0x4
    3e44:	b765                	j	3dec <NVIC_Init+0x2a>
C:/Repository/RISKYKVM/firmware/src/Peripheral/src/ch32v20x_misc.c:83
    else if(NVIC_Priority_Group == NVIC_PriorityGroup_3)
    3e46:	4390                	lw	a2,0(a5)
    3e48:	468d                	li	a3,3
    3e4a:	00d61e63          	bne	a2,a3,3e66 <NVIC_Init+0xa4>
C:/Repository/RISKYKVM/firmware/src/Peripheral/src/ch32v20x_misc.c:85
        if(NVIC_InitStruct->NVIC_IRQChannelPreemptionPriority <= 3)
    3e4e:	00154683          	lbu	a3,1(a0)
    3e52:	00254783          	lbu	a5,2(a0)
    3e56:	00d66463          	bltu	a2,a3,3e5e <NVIC_Init+0x9c>
C:/Repository/RISKYKVM/firmware/src/Peripheral/src/ch32v20x_misc.c:87
            tmppre = NVIC_InitStruct->NVIC_IRQChannelSubPriority + (2 * NVIC_InitStruct->NVIC_IRQChannelPreemptionPriority);
    3e5a:	0686                	slli	a3,a3,0x1
    3e5c:	bfd9                	j	3e32 <NVIC_Init+0x70>
C:/Repository/RISKYKVM/firmware/src/Peripheral/src/ch32v20x_misc.c:92
            tmppre = NVIC_InitStruct->NVIC_IRQChannelSubPriority + (2 * (NVIC_InitStruct->NVIC_IRQChannelPreemptionPriority - 4));
    3e5e:	07c68693          	addi	a3,a3,124
    3e62:	0686                	slli	a3,a3,0x1
    3e64:	bfe1                	j	3e3c <NVIC_Init+0x7a>
C:/Repository/RISKYKVM/firmware/src/Peripheral/src/ch32v20x_misc.c:96
    else if(NVIC_Priority_Group == NVIC_PriorityGroup_4)
    3e66:	4394                	lw	a3,0(a5)
    3e68:	4791                	li	a5,4
    3e6a:	f8f69ae3          	bne	a3,a5,3dfe <NVIC_Init+0x3c>
C:/Repository/RISKYKVM/firmware/src/Peripheral/src/ch32v20x_misc.c:98
        NVIC_SetPriority(NVIC_InitStruct->NVIC_IRQChannel, NVIC_InitStruct->NVIC_IRQChannelPreemptionPriority << 4);
    3e6e:	00154783          	lbu	a5,1(a0)
    3e72:	b785                	j	3dd2 <NVIC_Init+0x10>
NVIC_DisableIRQ():
C:\Repository\RISKYKVM\firmware\src\Core/core_riscv.h:184
    3e74:	06078793          	addi	a5,a5,96
    3e78:	bf61                	j	3e10 <NVIC_Init+0x4e>

00003e7a <RCC_USBCLKConfig>:
RCC_USBCLKConfig():
C:/Repository/RISKYKVM/firmware/src/Peripheral/src/ch32v20x_rcc.c:419
 *
 * @return  none
 */
void RCC_USBCLKConfig(uint32_t RCC_USBCLKSource)
{
    RCC->CFGR0 &= ~((uint32_t)3<<22);
    3e7a:	400217b7          	lui	a5,0x40021
    3e7e:	43d8                	lw	a4,4(a5)
    3e80:	ff4006b7          	lui	a3,0xff400
    3e84:	16fd                	addi	a3,a3,-1
    3e86:	8f75                	and	a4,a4,a3
    3e88:	c3d8                	sw	a4,4(a5)
C:/Repository/RISKYKVM/firmware/src/Peripheral/src/ch32v20x_rcc.c:420
    RCC->CFGR0 |= RCC_USBCLKSource<<22;
    3e8a:	43d8                	lw	a4,4(a5)
    3e8c:	055a                	slli	a0,a0,0x16
    3e8e:	8d59                	or	a0,a0,a4
    3e90:	c3c8                	sw	a0,4(a5)
C:/Repository/RISKYKVM/firmware/src/Peripheral/src/ch32v20x_rcc.c:421
}
    3e92:	8082                	ret

00003e94 <RCC_AHBPeriphClockCmd>:
RCC_AHBPeriphClockCmd():
C:/Repository/RISKYKVM/firmware/src/Peripheral/src/ch32v20x_rcc.c:657
 *
 * @return  none
 */
void RCC_AHBPeriphClockCmd(uint32_t RCC_AHBPeriph, FunctionalState NewState)
{
  if (NewState != DISABLE)
    3e94:	c599                	beqz	a1,3ea2 <RCC_AHBPeriphClockCmd+0xe>
C:/Repository/RISKYKVM/firmware/src/Peripheral/src/ch32v20x_rcc.c:659
  {
    RCC->AHBPCENR |= RCC_AHBPeriph;
    3e96:	40021737          	lui	a4,0x40021
    3e9a:	4b5c                	lw	a5,20(a4)
    3e9c:	8d5d                	or	a0,a0,a5
    3e9e:	cb48                	sw	a0,20(a4)
    3ea0:	8082                	ret
C:/Repository/RISKYKVM/firmware/src/Peripheral/src/ch32v20x_rcc.c:663
  }
  else
  {
    RCC->AHBPCENR &= ~RCC_AHBPeriph;
    3ea2:	400217b7          	lui	a5,0x40021
    3ea6:	4bd8                	lw	a4,20(a5)
    3ea8:	fff54513          	not	a0,a0
    3eac:	8d79                	and	a0,a0,a4
    3eae:	cbc8                	sw	a0,20(a5)
C:/Repository/RISKYKVM/firmware/src/Peripheral/src/ch32v20x_rcc.c:665
  }
}
    3eb0:	8082                	ret

00003eb2 <RCC_APB2PeriphClockCmd>:
RCC_APB2PeriphClockCmd():
C:/Repository/RISKYKVM/firmware/src/Peripheral/src/ch32v20x_rcc.c:691
 *
 * @return  none
 */
void RCC_APB2PeriphClockCmd(uint32_t RCC_APB2Periph, FunctionalState NewState)
{
  if (NewState != DISABLE)
    3eb2:	c599                	beqz	a1,3ec0 <RCC_APB2PeriphClockCmd+0xe>
C:/Repository/RISKYKVM/firmware/src/Peripheral/src/ch32v20x_rcc.c:693
  {
    RCC->APB2PCENR |= RCC_APB2Periph;
    3eb4:	40021737          	lui	a4,0x40021
    3eb8:	4f1c                	lw	a5,24(a4)
    3eba:	8d5d                	or	a0,a0,a5
    3ebc:	cf08                	sw	a0,24(a4)
    3ebe:	8082                	ret
C:/Repository/RISKYKVM/firmware/src/Peripheral/src/ch32v20x_rcc.c:697
  }
  else
  {
    RCC->APB2PCENR &= ~RCC_APB2Periph;
    3ec0:	400217b7          	lui	a5,0x40021
    3ec4:	4f98                	lw	a4,24(a5)
    3ec6:	fff54513          	not	a0,a0
    3eca:	8d79                	and	a0,a0,a4
    3ecc:	cf88                	sw	a0,24(a5)
C:/Repository/RISKYKVM/firmware/src/Peripheral/src/ch32v20x_rcc.c:699
  }
}
    3ece:	8082                	ret

00003ed0 <RCC_APB1PeriphClockCmd>:
RCC_APB1PeriphClockCmd():
C:/Repository/RISKYKVM/firmware/src/Peripheral/src/ch32v20x_rcc.c:728
 *
 * @return  none
 */
void RCC_APB1PeriphClockCmd(uint32_t RCC_APB1Periph, FunctionalState NewState)
{
  if (NewState != DISABLE)
    3ed0:	c599                	beqz	a1,3ede <RCC_APB1PeriphClockCmd+0xe>
C:/Repository/RISKYKVM/firmware/src/Peripheral/src/ch32v20x_rcc.c:730
  {
    RCC->APB1PCENR |= RCC_APB1Periph;
    3ed2:	40021737          	lui	a4,0x40021
    3ed6:	4f5c                	lw	a5,28(a4)
    3ed8:	8d5d                	or	a0,a0,a5
    3eda:	cf48                	sw	a0,28(a4)
    3edc:	8082                	ret
C:/Repository/RISKYKVM/firmware/src/Peripheral/src/ch32v20x_rcc.c:734
  }
  else
  {
    RCC->APB1PCENR &= ~RCC_APB1Periph;
    3ede:	400217b7          	lui	a5,0x40021
    3ee2:	4fd8                	lw	a4,28(a5)
    3ee4:	fff54513          	not	a0,a0
    3ee8:	8d79                	and	a0,a0,a4
    3eea:	cfc8                	sw	a0,28(a5)
C:/Repository/RISKYKVM/firmware/src/Peripheral/src/ch32v20x_rcc.c:736
  }
}
    3eec:	8082                	ret

00003eee <TIM_TimeBaseInit>:
TIM_TimeBaseInit():
C:/Repository/RISKYKVM/firmware/src/Peripheral/src/ch32v20x_tim.c:85
 */
void TIM_TimeBaseInit(TIM_TypeDef *TIMx, TIM_TimeBaseInitTypeDef *TIM_TimeBaseInitStruct)
{
    uint16_t tmpcr1 = 0;

    tmpcr1 = TIMx->CTLR1;
    3eee:	00055783          	lhu	a5,0(a0)
C:/Repository/RISKYKVM/firmware/src/Peripheral/src/ch32v20x_tim.c:87

    if((TIMx == TIM1) || (TIMx == TIM2) || (TIMx == TIM3) || (TIMx == TIM4) || (TIMx == TIM5))
    3ef2:	40013737          	lui	a4,0x40013
    3ef6:	c0070713          	addi	a4,a4,-1024 # 40012c00 <_eusrstack+0x2000dc00>
C:/Repository/RISKYKVM/firmware/src/Peripheral/src/ch32v20x_tim.c:85
    tmpcr1 = TIMx->CTLR1;
    3efa:	07c2                	slli	a5,a5,0x10
    3efc:	83c1                	srli	a5,a5,0x10
C:/Repository/RISKYKVM/firmware/src/Peripheral/src/ch32v20x_tim.c:87
    if((TIMx == TIM1) || (TIMx == TIM2) || (TIMx == TIM3) || (TIMx == TIM4) || (TIMx == TIM5))
    3efe:	02e50463          	beq	a0,a4,3f26 <TIM_TimeBaseInit+0x38>
C:/Repository/RISKYKVM/firmware/src/Peripheral/src/ch32v20x_tim.c:87 (discriminator 1)
    3f02:	40000737          	lui	a4,0x40000
    3f06:	02e50063          	beq	a0,a4,3f26 <TIM_TimeBaseInit+0x38>
C:/Repository/RISKYKVM/firmware/src/Peripheral/src/ch32v20x_tim.c:87 (discriminator 2)
    3f0a:	40070713          	addi	a4,a4,1024 # 40000400 <_eusrstack+0x1fffb400>
    3f0e:	00e50c63          	beq	a0,a4,3f26 <TIM_TimeBaseInit+0x38>
C:/Repository/RISKYKVM/firmware/src/Peripheral/src/ch32v20x_tim.c:87 (discriminator 3)
    3f12:	40001737          	lui	a4,0x40001
    3f16:	80070693          	addi	a3,a4,-2048 # 40000800 <_eusrstack+0x1fffb800>
    3f1a:	00d50663          	beq	a0,a3,3f26 <TIM_TimeBaseInit+0x38>
C:/Repository/RISKYKVM/firmware/src/Peripheral/src/ch32v20x_tim.c:87 (discriminator 4)
    3f1e:	c0070713          	addi	a4,a4,-1024
    3f22:	00e51763          	bne	a0,a4,3f30 <TIM_TimeBaseInit+0x42>
C:/Repository/RISKYKVM/firmware/src/Peripheral/src/ch32v20x_tim.c:90
    {
        tmpcr1 &= (uint16_t)(~((uint16_t)(TIM_DIR | TIM_CMS)));
        tmpcr1 |= (uint32_t)TIM_TimeBaseInitStruct->TIM_CounterMode;
    3f26:	0025d703          	lhu	a4,2(a1) # 40010002 <_eusrstack+0x2000b002>
C:/Repository/RISKYKVM/firmware/src/Peripheral/src/ch32v20x_tim.c:89
        tmpcr1 &= (uint16_t)(~((uint16_t)(TIM_DIR | TIM_CMS)));
    3f2a:	f8f7f793          	andi	a5,a5,-113
C:/Repository/RISKYKVM/firmware/src/Peripheral/src/ch32v20x_tim.c:90
        tmpcr1 |= (uint32_t)TIM_TimeBaseInitStruct->TIM_CounterMode;
    3f2e:	8fd9                	or	a5,a5,a4
C:/Repository/RISKYKVM/firmware/src/Peripheral/src/ch32v20x_tim.c:94
    }

    tmpcr1 &= (uint16_t)(~((uint16_t)TIM_CTLR1_CKD));
    tmpcr1 |= (uint32_t)TIM_TimeBaseInitStruct->TIM_ClockDivision;
    3f30:	0065d703          	lhu	a4,6(a1)
C:/Repository/RISKYKVM/firmware/src/Peripheral/src/ch32v20x_tim.c:93
    tmpcr1 &= (uint16_t)(~((uint16_t)TIM_CTLR1_CKD));
    3f34:	cff7f793          	andi	a5,a5,-769
    3f38:	07c2                	slli	a5,a5,0x10
    3f3a:	83c1                	srli	a5,a5,0x10
C:/Repository/RISKYKVM/firmware/src/Peripheral/src/ch32v20x_tim.c:94
    tmpcr1 |= (uint32_t)TIM_TimeBaseInitStruct->TIM_ClockDivision;
    3f3c:	8fd9                	or	a5,a5,a4
C:/Repository/RISKYKVM/firmware/src/Peripheral/src/ch32v20x_tim.c:96

    TIMx->CTLR1 = tmpcr1;
    3f3e:	00f51023          	sh	a5,0(a0)
C:/Repository/RISKYKVM/firmware/src/Peripheral/src/ch32v20x_tim.c:97
    TIMx->ATRLR = TIM_TimeBaseInitStruct->TIM_Period;
    3f42:	0045d783          	lhu	a5,4(a1)
    3f46:	02f51623          	sh	a5,44(a0)
C:/Repository/RISKYKVM/firmware/src/Peripheral/src/ch32v20x_tim.c:98
    TIMx->PSC = TIM_TimeBaseInitStruct->TIM_Prescaler;
    3f4a:	0005d783          	lhu	a5,0(a1)
    3f4e:	02f51423          	sh	a5,40(a0)
C:/Repository/RISKYKVM/firmware/src/Peripheral/src/ch32v20x_tim.c:100

    if((TIMx == TIM1))
    3f52:	400137b7          	lui	a5,0x40013
    3f56:	c0078793          	addi	a5,a5,-1024 # 40012c00 <_eusrstack+0x2000dc00>
    3f5a:	00f51663          	bne	a0,a5,3f66 <TIM_TimeBaseInit+0x78>
C:/Repository/RISKYKVM/firmware/src/Peripheral/src/ch32v20x_tim.c:102
    {
        TIMx->RPTCR = TIM_TimeBaseInitStruct->TIM_RepetitionCounter;
    3f5e:	0085c783          	lbu	a5,8(a1)
    3f62:	02f51823          	sh	a5,48(a0)
C:/Repository/RISKYKVM/firmware/src/Peripheral/src/ch32v20x_tim.c:105
    }

    TIMx->SWEVGR = TIM_PSCReloadMode_Immediate;
    3f66:	4785                	li	a5,1
    3f68:	00f51a23          	sh	a5,20(a0)
C:/Repository/RISKYKVM/firmware/src/Peripheral/src/ch32v20x_tim.c:106
}
    3f6c:	8082                	ret

00003f6e <TIM_Cmd>:
TIM_Cmd():
C:/Repository/RISKYKVM/firmware/src/Peripheral/src/ch32v20x_tim.c:487
 */
void TIM_Cmd(TIM_TypeDef *TIMx, FunctionalState NewState)
{
    if(NewState != DISABLE)
    {
        TIMx->CTLR1 |= TIM_CEN;
    3f6e:	00055783          	lhu	a5,0(a0)
C:/Repository/RISKYKVM/firmware/src/Peripheral/src/ch32v20x_tim.c:485
    if(NewState != DISABLE)
    3f72:	c591                	beqz	a1,3f7e <TIM_Cmd+0x10>
C:/Repository/RISKYKVM/firmware/src/Peripheral/src/ch32v20x_tim.c:487
        TIMx->CTLR1 |= TIM_CEN;
    3f74:	0017e793          	ori	a5,a5,1
C:/Repository/RISKYKVM/firmware/src/Peripheral/src/ch32v20x_tim.c:491
    }
    else
    {
        TIMx->CTLR1 &= (uint16_t)(~((uint16_t)TIM_CEN));
    3f78:	00f51023          	sh	a5,0(a0)
C:/Repository/RISKYKVM/firmware/src/Peripheral/src/ch32v20x_tim.c:493
    }
}
    3f7c:	8082                	ret
C:/Repository/RISKYKVM/firmware/src/Peripheral/src/ch32v20x_tim.c:491
        TIMx->CTLR1 &= (uint16_t)(~((uint16_t)TIM_CEN));
    3f7e:	07c2                	slli	a5,a5,0x10
    3f80:	83c1                	srli	a5,a5,0x10
    3f82:	9bf9                	andi	a5,a5,-2
    3f84:	07c2                	slli	a5,a5,0x10
    3f86:	83c1                	srli	a5,a5,0x10
    3f88:	bfc5                	j	3f78 <TIM_Cmd+0xa>

00003f8a <TIM_ITConfig>:
TIM_ITConfig():
C:/Repository/RISKYKVM/firmware/src/Peripheral/src/ch32v20x_tim.c:540
 */
void TIM_ITConfig(TIM_TypeDef *TIMx, uint16_t TIM_IT, FunctionalState NewState)
{
    if(NewState != DISABLE)
    {
        TIMx->DMAINTENR |= TIM_IT;
    3f8a:	00c55783          	lhu	a5,12(a0)
C:/Repository/RISKYKVM/firmware/src/Peripheral/src/ch32v20x_tim.c:538
    if(NewState != DISABLE)
    3f8e:	c609                	beqz	a2,3f98 <TIM_ITConfig+0xe>
C:/Repository/RISKYKVM/firmware/src/Peripheral/src/ch32v20x_tim.c:540
        TIMx->DMAINTENR |= TIM_IT;
    3f90:	8ddd                	or	a1,a1,a5
C:/Repository/RISKYKVM/firmware/src/Peripheral/src/ch32v20x_tim.c:544
    }
    else
    {
        TIMx->DMAINTENR &= (uint16_t)~TIM_IT;
    3f92:	00b51623          	sh	a1,12(a0)
C:/Repository/RISKYKVM/firmware/src/Peripheral/src/ch32v20x_tim.c:546
    }
}
    3f96:	8082                	ret
C:/Repository/RISKYKVM/firmware/src/Peripheral/src/ch32v20x_tim.c:544
        TIMx->DMAINTENR &= (uint16_t)~TIM_IT;
    3f98:	fff5c593          	not	a1,a1
    3f9c:	8dfd                	and	a1,a1,a5
    3f9e:	bfd5                	j	3f92 <TIM_ITConfig+0x8>

00003fa0 <TIM_GetITStatus>:
TIM_GetITStatus():
C:/Repository/RISKYKVM/firmware/src/Peripheral/src/ch32v20x_tim.c:2124
ITStatus TIM_GetITStatus(TIM_TypeDef *TIMx, uint16_t TIM_IT)
{
    ITStatus bitstatus = RESET;
    uint16_t itstatus = 0x0, itenable = 0x0;

    itstatus = TIMx->INTFR & TIM_IT;
    3fa0:	01055783          	lhu	a5,16(a0)
C:/Repository/RISKYKVM/firmware/src/Peripheral/src/ch32v20x_tim.c:2126

    itenable = TIMx->DMAINTENR & TIM_IT;
    3fa4:	00c55503          	lhu	a0,12(a0)
C:/Repository/RISKYKVM/firmware/src/Peripheral/src/ch32v20x_tim.c:2127
    if((itstatus != (uint16_t)RESET) && (itenable != (uint16_t)RESET))
    3fa8:	8fed                	and	a5,a5,a1
C:/Repository/RISKYKVM/firmware/src/Peripheral/src/ch32v20x_tim.c:2126
    itenable = TIMx->DMAINTENR & TIM_IT;
    3faa:	0542                	slli	a0,a0,0x10
    3fac:	8141                	srli	a0,a0,0x10
C:/Repository/RISKYKVM/firmware/src/Peripheral/src/ch32v20x_tim.c:2127
    if((itstatus != (uint16_t)RESET) && (itenable != (uint16_t)RESET))
    3fae:	c789                	beqz	a5,3fb8 <TIM_GetITStatus+0x18>
C:/Repository/RISKYKVM/firmware/src/Peripheral/src/ch32v20x_tim.c:2127 (discriminator 1)
    3fb0:	8d6d                	and	a0,a0,a1
    3fb2:	00a03533          	snez	a0,a0
    3fb6:	8082                	ret
C:/Repository/RISKYKVM/firmware/src/Peripheral/src/ch32v20x_tim.c:2133
    {
        bitstatus = SET;
    }
    else
    {
        bitstatus = RESET;
    3fb8:	4501                	li	a0,0
C:/Repository/RISKYKVM/firmware/src/Peripheral/src/ch32v20x_tim.c:2137
    }

    return bitstatus;
}
    3fba:	8082                	ret

00003fbc <TIM_ClearITPendingBit>:
TIM_ClearITPendingBit():
    3fbc:	fff5c593          	not	a1,a1
    3fc0:	05c2                	slli	a1,a1,0x10
    3fc2:	81c1                	srli	a1,a1,0x10
    3fc4:	00b51823          	sh	a1,16(a0)
    3fc8:	8082                	ret

00003fca <Delay_Init>:
Delay_Init():
C:/Repository/RISKYKVM/firmware/src/Debug/debug.c:26
 *
 * @return  none
 */
void Delay_Init(void)
{
    p_us = SystemCoreClock / 8000000;
    3fca:	200007b7          	lui	a5,0x20000
    3fce:	0047a783          	lw	a5,4(a5) # 20000004 <SystemCoreClock>
    3fd2:	007a1737          	lui	a4,0x7a1
    3fd6:	20070713          	addi	a4,a4,512 # 7a1200 <_data_lma+0x79cfb0>
    3fda:	02e7d7b3          	divu	a5,a5,a4
    3fde:	0ff7f793          	andi	a5,a5,255
    3fe2:	88f18323          	sb	a5,-1914(gp) # 20000086 <p_us>
C:/Repository/RISKYKVM/firmware/src/Debug/debug.c:27
    p_ms = (uint16_t)p_us * 1000;
    3fe6:	3e800713          	li	a4,1000
    3fea:	02e787b3          	mul	a5,a5,a4
    3fee:	88f19223          	sh	a5,-1916(gp) # 20000084 <p_ms>
C:/Repository/RISKYKVM/firmware/src/Debug/debug.c:28
}
    3ff2:	8082                	ret

00003ff4 <Delay_Us>:
Delay_Us():
C:/Repository/RISKYKVM/firmware/src/Debug/debug.c:43
 */
void Delay_Us(uint32_t n)
{
    uint32_t i;

    SysTick->SR &= ~(1 << 0);
    3ff4:	e000f7b7          	lui	a5,0xe000f
    3ff8:	43d8                	lw	a4,4(a5)
C:/Repository/RISKYKVM/firmware/src/Debug/debug.c:46
    i = (uint32_t)n * p_us;

    SysTick->CMP = i;
    3ffa:	4681                	li	a3,0
C:/Repository/RISKYKVM/firmware/src/Debug/debug.c:43
    SysTick->SR &= ~(1 << 0);
    3ffc:	9b79                	andi	a4,a4,-2
    3ffe:	c3d8                	sw	a4,4(a5)
C:/Repository/RISKYKVM/firmware/src/Debug/debug.c:44
    i = (uint32_t)n * p_us;
    4000:	8861c703          	lbu	a4,-1914(gp) # 20000086 <p_us>
C:/Repository/RISKYKVM/firmware/src/Debug/debug.c:46
    SysTick->CMP = i;
    4004:	02a70633          	mul	a2,a4,a0
    4008:	cb90                	sw	a2,16(a5)
    400a:	cbd4                	sw	a3,20(a5)
C:/Repository/RISKYKVM/firmware/src/Debug/debug.c:47
    SysTick->CTLR |= (1 << 4);
    400c:	4398                	lw	a4,0(a5)
    400e:	01076713          	ori	a4,a4,16
    4012:	c398                	sw	a4,0(a5)
C:/Repository/RISKYKVM/firmware/src/Debug/debug.c:48
    SysTick->CTLR |= (1 << 5) | (1 << 0);
    4014:	4398                	lw	a4,0(a5)
    4016:	02176713          	ori	a4,a4,33
    401a:	c398                	sw	a4,0(a5)
C:/Repository/RISKYKVM/firmware/src/Debug/debug.c:50 (discriminator 1)

    while((SysTick->SR & (1 << 0)) != (1 << 0));
    401c:	43d8                	lw	a4,4(a5)
    401e:	8b05                	andi	a4,a4,1
    4020:	df75                	beqz	a4,401c <Delay_Us+0x28>
C:/Repository/RISKYKVM/firmware/src/Debug/debug.c:51
    SysTick->CTLR &= ~(1 << 0);
    4022:	4398                	lw	a4,0(a5)
    4024:	9b79                	andi	a4,a4,-2
    4026:	c398                	sw	a4,0(a5)
C:/Repository/RISKYKVM/firmware/src/Debug/debug.c:52
}
    4028:	8082                	ret

0000402a <Delay_Ms>:
Delay_Ms():
C:/Repository/RISKYKVM/firmware/src/Debug/debug.c:67
 */
void Delay_Ms(uint32_t n)
{
    uint32_t i;

    SysTick->SR &= ~(1 << 0);
    402a:	e000f7b7          	lui	a5,0xe000f
    402e:	43d8                	lw	a4,4(a5)
C:/Repository/RISKYKVM/firmware/src/Debug/debug.c:70
    i = (uint32_t)n * p_ms;

    SysTick->CMP = i;
    4030:	4681                	li	a3,0
C:/Repository/RISKYKVM/firmware/src/Debug/debug.c:67
    SysTick->SR &= ~(1 << 0);
    4032:	9b79                	andi	a4,a4,-2
    4034:	c3d8                	sw	a4,4(a5)
C:/Repository/RISKYKVM/firmware/src/Debug/debug.c:68
    i = (uint32_t)n * p_ms;
    4036:	8841d703          	lhu	a4,-1916(gp) # 20000084 <p_ms>
C:/Repository/RISKYKVM/firmware/src/Debug/debug.c:70
    SysTick->CMP = i;
    403a:	02a70633          	mul	a2,a4,a0
    403e:	cb90                	sw	a2,16(a5)
    4040:	cbd4                	sw	a3,20(a5)
C:/Repository/RISKYKVM/firmware/src/Debug/debug.c:71
    SysTick->CTLR |= (1 << 4);
    4042:	4398                	lw	a4,0(a5)
    4044:	01076713          	ori	a4,a4,16
    4048:	c398                	sw	a4,0(a5)
C:/Repository/RISKYKVM/firmware/src/Debug/debug.c:72
    SysTick->CTLR |= (1 << 5) | (1 << 0);
    404a:	4398                	lw	a4,0(a5)
    404c:	02176713          	ori	a4,a4,33
    4050:	c398                	sw	a4,0(a5)
C:/Repository/RISKYKVM/firmware/src/Debug/debug.c:74 (discriminator 1)

    while((SysTick->SR & (1 << 0)) != (1 << 0));
    4052:	43d8                	lw	a4,4(a5)
    4054:	8b05                	andi	a4,a4,1
    4056:	df75                	beqz	a4,4052 <Delay_Ms+0x28>
C:/Repository/RISKYKVM/firmware/src/Debug/debug.c:75
    SysTick->CTLR &= ~(1 << 0);
    4058:	4398                	lw	a4,0(a5)
    405a:	9b79                	andi	a4,a4,-2
    405c:	c398                	sw	a4,0(a5)
C:/Repository/RISKYKVM/firmware/src/Debug/debug.c:76
}
    405e:	8082                	ret

00004060 <memchr>:
memchr():
    4060:	0ff5f593          	andi	a1,a1,255
    4064:	962a                	add	a2,a2,a0
    4066:	00c51463          	bne	a0,a2,406e <memchr+0xe>
    406a:	4501                	li	a0,0
    406c:	8082                	ret
    406e:	00054783          	lbu	a5,0(a0)
    4072:	feb78de3          	beq	a5,a1,406c <memchr+0xc>
    4076:	0505                	addi	a0,a0,1
    4078:	b7fd                	j	4066 <memchr+0x6>

0000407a <memcpy>:
memcpy():
    407a:	00a5c7b3          	xor	a5,a1,a0
    407e:	8b8d                	andi	a5,a5,3
    4080:	00c50733          	add	a4,a0,a2
    4084:	e781                	bnez	a5,408c <memcpy+0x12>
    4086:	478d                	li	a5,3
    4088:	00c7ee63          	bltu	a5,a2,40a4 <memcpy+0x2a>
    408c:	87aa                	mv	a5,a0
    408e:	0ae57063          	bgeu	a0,a4,412e <memcpy+0xb4>
    4092:	0005c683          	lbu	a3,0(a1)
    4096:	0785                	addi	a5,a5,1
    4098:	0585                	addi	a1,a1,1
    409a:	fed78fa3          	sb	a3,-1(a5) # e000efff <_eusrstack+0xc0009fff>
    409e:	fee7eae3          	bltu	a5,a4,4092 <memcpy+0x18>
    40a2:	8082                	ret
    40a4:	00357693          	andi	a3,a0,3
    40a8:	87aa                	mv	a5,a0
    40aa:	ca91                	beqz	a3,40be <memcpy+0x44>
    40ac:	0005c683          	lbu	a3,0(a1)
    40b0:	0785                	addi	a5,a5,1
    40b2:	0585                	addi	a1,a1,1
    40b4:	fed78fa3          	sb	a3,-1(a5)
    40b8:	0037f693          	andi	a3,a5,3
    40bc:	b7fd                	j	40aa <memcpy+0x30>
    40be:	ffc77693          	andi	a3,a4,-4
    40c2:	fe068613          	addi	a2,a3,-32 # ff3fffe0 <_eusrstack+0xdf3fafe0>
    40c6:	06c7f063          	bgeu	a5,a2,4126 <memcpy+0xac>
    40ca:	0005a383          	lw	t2,0(a1)
    40ce:	0045a283          	lw	t0,4(a1)
    40d2:	0085af83          	lw	t6,8(a1)
    40d6:	00c5af03          	lw	t5,12(a1)
    40da:	0105ae83          	lw	t4,16(a1)
    40de:	0145ae03          	lw	t3,20(a1)
    40e2:	0185a303          	lw	t1,24(a1)
    40e6:	01c5a883          	lw	a7,28(a1)
    40ea:	02458593          	addi	a1,a1,36
    40ee:	0077a023          	sw	t2,0(a5)
    40f2:	ffc5a803          	lw	a6,-4(a1)
    40f6:	0057a223          	sw	t0,4(a5)
    40fa:	01f7a423          	sw	t6,8(a5)
    40fe:	01e7a623          	sw	t5,12(a5)
    4102:	01d7a823          	sw	t4,16(a5)
    4106:	01c7aa23          	sw	t3,20(a5)
    410a:	0067ac23          	sw	t1,24(a5)
    410e:	0117ae23          	sw	a7,28(a5)
    4112:	02478793          	addi	a5,a5,36
    4116:	ff07ae23          	sw	a6,-4(a5)
    411a:	b775                	j	40c6 <memcpy+0x4c>
    411c:	4190                	lw	a2,0(a1)
    411e:	0791                	addi	a5,a5,4
    4120:	0591                	addi	a1,a1,4
    4122:	fec7ae23          	sw	a2,-4(a5)
    4126:	fed7ebe3          	bltu	a5,a3,411c <memcpy+0xa2>
    412a:	f6e7e4e3          	bltu	a5,a4,4092 <memcpy+0x18>
    412e:	8082                	ret
    4130:	216e                	fld	ft2,216(sp)
    4132:	0000                	unimp
    4134:	209a                	fld	ft1,384(sp)
    4136:	0000                	unimp
    4138:	2278                	fld	fa4,192(a2)
    413a:	0000                	unimp
    413c:	209a                	fld	ft1,384(sp)
    413e:	0000                	unimp
    4140:	22a4                	fld	fs1,64(a3)
    4142:	0000                	unimp
    4144:	2304                	fld	fs1,0(a4)
    4146:	0000                	unimp
    4148:	2338                	fld	fa4,64(a4)
    414a:	0000                	unimp
    414c:	2342                	fld	ft6,16(sp)
    414e:	0000                	unimp
    4150:	209a                	fld	ft1,384(sp)
    4152:	0000                	unimp
    4154:	209a                	fld	ft1,384(sp)
    4156:	0000                	unimp
    4158:	209a                	fld	ft1,384(sp)
    415a:	0000                	unimp
    415c:	209a                	fld	ft1,384(sp)
    415e:	0000                	unimp
    4160:	234c                	fld	fa1,128(a4)
    4162:	0000                	unimp
    4164:	2352                	fld	ft6,272(sp)
    4166:	0000                	unimp
    4168:	2358                	fld	fa4,128(a4)
	...

0000416c <scancodeamiga>:
    416c:	0035 011e 021f 0320 0421 0522 0623 0724     5..... .!.".#.$.
    417c:	0825 0926 0a27 0b2d 0c2e 0d31 0d64 0f62     %.&.'.-...1.d.b.
    418c:	1014 111a 1208 1315 1417 151c 1618 170c     ................
    419c:	1812 1913 1a2f 1b30 1d59 1e5a 1f5b 2004     ..../.0.Y.Z.[.. 
    41ac:	2116 2207 2309 240a 250b 260d 270e 280f     .!.".#.$.%.&.'.(
    41bc:	2933 2a34 4428 2d5c 2e5d 2f5e 3088 311d     3)4*(D\-].^/.0.1
    41cc:	321b 3306 3419 3505 3611 3710 3836 3885     .2.3.4.5.6.768.8
    41dc:	3937 3a38 3d5f 3e60 3f61 402c 412a 422b     798:_=`>a?,@*A+B
    41ec:	4358 2b9e 4529 464c 4a56 4c52 4d51 4e4f     XC.+)ELFVJRLQMON
    41fc:	4f50 503a 513b 523c 533d 543e 553f 5640     PO:P;Q<R=S>T?U@V
    420c:	5741 5842 5943 5a4a 5b4d 5c54 5d55 5e57     AWBXCYJZM[T\U]W^
    421c:	5f45 60e1 61e5 6239 63e0 64e2 65e6 66e3     E_.`.a9b.c.d.e.f
    422c:	67e7 67e4 5f65 3c63 6853 0e46 1c47 2c48     .g.ge_c<ShF.G.H,
    423c:	3f4b 1f4e 4b49 5b00 6a00 6b00 6c00 6d00     K?N.IK.[.j.k.l.m
    424c:	6e00 6f00                                   .n.o
